

Microchip MPLAB XC8 Assembler V2.31 build 20201012212115 
                                                                                               Sat Dec 04 11:10:01 2021

Microchip MPLAB XC8 C Compiler v2.31 (Free license) build 20201012212115 Og1 
     1                           	processor	18F26Q84
     2                           	fnconf	rparam,??,?,0
     3                           	pagewidth 120
     4                           	opt	flic
     5                           	psect	idataBANK5,global,class=CODE,delta=1,noexec
     6                           	psect	smallconst,global,reloc=2,class=SMALLCONST,delta=1,noexec
     7                           	psect	nvBANK5,global,class=BANK5,space=1,delta=1,lowdata,noexec
     8                           	psect	nvBANK6,global,class=BANK6,space=1,delta=1,lowdata,noexec
     9                           	psect	cinit,global,reloc=2,class=CODE,delta=1
    10                           	psect	bssCOMRAM,global,class=COMRAM,space=1,delta=1,lowdata,noexec
    11                           	psect	bssBANK5,global,class=BANK5,space=1,delta=1,lowdata,noexec
    12                           	psect	dataBANK5,global,class=BANK5,space=1,delta=1,lowdata,noexec
    13                           	psect	bssBANK6,global,class=BANK6,space=1,delta=1,lowdata,noexec
    14                           	psect	cstackBANK5,global,class=BANK5,space=1,delta=1,lowdata,noexec
    15                           	psect	cstackCOMRAM,global,class=COMRAM,space=1,delta=1,lowdata,noexec
    16                           	psect	text0,global,reloc=2,class=CODE,delta=1
    17                           	psect	text1,global,reloc=2,class=CODE,delta=1
    18                           	psect	text2,global,reloc=2,class=CODE,delta=1
    19                           	psect	text3,global,reloc=2,class=CODE,delta=1
    20                           	psect	text4,global,reloc=2,class=CODE,delta=1
    21                           	psect	text5,global,reloc=2,class=CODE,delta=1
    22                           	psect	text6,global,reloc=2,class=CODE,delta=1
    23                           	psect	text7,global,reloc=2,class=CODE,delta=1
    24                           	psect	text8,global,reloc=2,class=CODE,delta=1
    25                           	psect	text9,global,reloc=2,class=CODE,delta=1
    26                           	psect	text10,global,reloc=2,class=CODE,delta=1
    27                           	psect	text11,global,reloc=2,class=CODE,delta=1
    28                           	psect	text12,global,reloc=2,class=CODE,delta=1
    29                           	psect	text13,global,reloc=2,class=CODE,delta=1
    30                           	psect	text14,global,reloc=2,class=CODE,delta=1
    31                           	psect	text15,global,reloc=2,class=CODE,delta=1
    32                           	psect	text16,global,reloc=2,class=CODE,delta=1
    33                           	psect	text17,global,reloc=2,class=CODE,delta=1
    34                           	psect	text18,global,reloc=2,class=CODE,delta=1
    35                           	psect	text19,global,reloc=2,class=CODE,delta=1
    36                           	psect	text20,global,reloc=2,class=CODE,delta=1
    37                           	psect	text21,global,reloc=2,class=CODE,delta=1
    38                           	psect	text22,global,reloc=2,class=CODE,delta=1
    39                           	psect	text23,global,reloc=2,class=CODE,delta=1
    40                           	psect	text24,global,reloc=2,class=CODE,delta=1
    41                           	psect	text25,global,reloc=2,class=CODE,delta=1
    42                           	psect	text26,global,reloc=2,class=CODE,delta=1
    43                           	psect	text27,global,reloc=2,class=CODE,delta=1
    44                           	psect	text28,global,reloc=2,class=CODE,delta=1
    45                           	psect	text29,global,reloc=2,class=CODE,delta=1
    46                           	psect	text30,global,reloc=2,class=CODE,delta=1
    47                           	psect	text31,global,reloc=2,class=CODE,delta=1
    48                           	psect	text32,global,reloc=2,class=CODE,delta=1
    49                           	psect	text33,global,reloc=2,class=CODE,delta=1
    50                           	psect	text34,global,reloc=2,class=CODE,delta=1
    51                           	psect	text35,global,reloc=2,class=CODE,delta=1
    52                           	psect	text36,global,reloc=2,class=CODE,delta=1
    53                           	psect	text37,global,reloc=2,class=CODE,delta=1
    54                           	psect	text38,global,reloc=2,class=CODE,delta=1
    55                           	psect	text39,global,reloc=2,class=CODE,delta=1
    56                           	psect	text40,global,reloc=2,class=CODE,delta=1
    57                           	psect	text41,global,reloc=2,class=CODE,delta=1
    58                           	psect	text42,global,reloc=2,class=CODE,delta=1
    59                           	psect	text43,global,reloc=2,class=CODE,delta=1
    60                           	psect	text44,global,reloc=2,class=CODE,delta=1
    61                           	psect	text45,global,reloc=2,class=CODE,delta=1
    62                           	psect	text46,global,reloc=2,class=CODE,delta=1
    63                           	psect	text47,global,reloc=2,class=CODE,delta=1
    64                           	psect	text48,global,reloc=2,class=CODE,delta=1
    65                           	psect	text49,global,reloc=2,class=CODE,delta=1
    66                           	psect	text50,global,reloc=2,class=CODE,delta=1
    67                           	psect	text51,global,reloc=2,class=CODE,delta=1
    68                           	psect	text52,global,reloc=2,class=CODE,delta=1
    69                           	psect	text53,global,reloc=2,class=CODE,delta=1,group=1
    70                           	psect	text54,global,reloc=2,class=CODE,delta=1,group=1
    71                           	psect	text55,global,reloc=2,class=CODE,delta=1,group=1
    72                           	psect	text56,global,reloc=2,class=CODE,delta=1,group=1
    73                           	psect	text57,global,reloc=2,class=CODE,delta=1,group=1
    74                           	psect	text58,global,reloc=2,class=CODE,delta=1,group=1
    75                           	psect	text59,global,reloc=2,class=CODE,delta=1
    76                           	psect	text60,global,reloc=2,class=CODE,delta=1
    77                           	psect	text61,global,reloc=2,class=CODE,delta=1
    78                           	psect	text62,global,reloc=2,class=CODE,delta=1
    79                           	psect	text63,global,reloc=2,class=CODE,delta=1
    80                           	psect	text64,global,reloc=2,class=CODE,delta=1
    81                           	psect	text65,global,reloc=2,class=CODE,delta=1
    82                           	psect	text66,global,reloc=2,class=CODE,delta=1
    83                           	psect	text67,global,reloc=2,class=CODE,delta=1
    84                           	psect	text68,global,reloc=2,class=CODE,delta=1
    85                           	psect	text69,global,reloc=2,class=CODE,delta=1
    86                           	psect	text70,global,reloc=2,class=CODE,delta=1
    87                           	psect	text71,global,reloc=2,class=CODE,delta=1
    88                           	psect	text72,global,reloc=2,class=CODE,delta=1
    89                           	psect	text73,global,reloc=2,class=CODE,delta=1
    90                           	psect	text74,global,reloc=2,class=CODE,delta=1
    91                           	psect	text75,global,reloc=2,class=CODE,delta=1
    92                           	psect	text76,global,reloc=2,class=CODE,delta=1
    93                           	psect	text77,global,reloc=2,class=CODE,delta=1
    94                           	psect	text78,global,reloc=2,class=CODE,delta=1
    95                           	psect	text79,global,reloc=2,class=CODE,delta=1
    96                           	psect	text80,global,reloc=2,class=CODE,delta=1
    97                           	psect	text81,global,reloc=2,class=CODE,delta=1
    98                           	psect	text82,global,reloc=2,class=CODE,delta=1
    99                           	psect	text83,global,reloc=2,class=CODE,delta=1,group=1
   100                           	psect	text84,global,reloc=2,class=CODE,delta=1,group=1
   101                           	psect	text85,global,reloc=2,class=CODE,delta=1,inline
   102                           	psect	text86,global,reloc=2,class=CODE,delta=1
   103                           	psect	text87,global,reloc=2,class=CODE,delta=1,inline
   104                           	psect	text88,global,reloc=2,class=CODE,delta=1
   105                           	psect	text89,global,reloc=2,class=CODE,delta=1
   106                           	psect	text90,global,reloc=2,class=CODE,delta=1
   107                           	psect	text91,global,reloc=2,class=CODE,delta=1
   108                           	psect	text92,global,reloc=2,class=CODE,delta=1
   109                           	psect	text93,global,reloc=2,class=CODE,delta=1
   110                           	psect	text94,global,reloc=2,class=CODE,delta=1
   111                           	psect	text95,global,reloc=2,class=CODE,delta=1
   112                           	psect	ivt0x8,global,reloc=2,class=CODE,delta=1,noexec,keep,optim=
   113                           	psect	intsave_regs,global,class=BIGRAM,space=1,delta=1,noexec
   114                           	psect	text96,global,reloc=2,class=CODE,delta=1
   115                           	psect	rparam,global,class=COMRAM,space=1,delta=1,noexec
   116                           	psect	idloc,global,abs,ovrld,class=IDLOC,space=5,delta=1,noexec
   117                           	psect	config,global,abs,ovrld,class=CONFIG,space=4,delta=1,noexec
   118  0000                     
   119                           ; Version 2.32
   120                           ; Generated 10/02/2021 GMT
   121                           ; 
   122                           ; Copyright © 2021, Microchip Technology Inc. and its subsidiaries ("Microchip")
   123                           ; All rights reserved.
   124                           ; 
   125                           ; This software is developed by Microchip Technology Inc. and its subsidiaries ("Microch
      +                          ip").
   126                           ; 
   127                           ; Redistribution and use in source and binary forms, with or without modification, are
   128                           ; permitted provided that the following conditions are met:
   129                           ; 
   130                           ;     1. Redistributions of source code must retain the above copyright notice, this lis
      +                          t of
   131                           ;        conditions and the following disclaimer.
   132                           ; 
   133                           ;     2. Redistributions in binary form must reproduce the above copyright notice, this 
      +                          list
   134                           ;        of conditions and the following disclaimer in the documentation and/or other
   135                           ;        materials provided with the distribution. Publication is not required when
   136                           ;        this file is used in an embedded application.
   137                           ; 
   138                           ;     3. Microchip's name may not be used to endorse or promote products derived from th
      +                          is
   139                           ;        software without specific prior written permission.
   140                           ; 
   141                           ; THIS SOFTWARE IS PROVIDED BY MICROCHIP "AS IS" AND ANY EXPRESS OR IMPLIED WARRANTIES,
   142                           ; INCLUDING, BUT NOT LIMITED TO, THE IMPLIED WARRANTIES OF MERCHANTABILITY AND FITNESS F
      +                          OR
   143                           ; PURPOSE ARE DISCLAIMED.  IN NO EVENT SHALL MICROCHIP BE LIABLE FOR ANY DIRECT, INDIREC
      +                          T,
   144                           ; INCIDENTAL, SPECIAL, EXEMPLARY, OR CONSEQUENTIAL DAMAGES (INCLUDING BUT NOT LIMITED TO
   145                           ; PROCUREMENT OF SUBSTITUTE GOODS OR SERVICES; LOSS OF USE, DATA OR PROFITS; OR BUSINESS
   146                           ; INTERRUPTION) HOWSOEVER CAUSED AND ON ANY THEORY OF LIABILITY, WHETHER IN CONTRACT, ST
      +                          RICT
   147                           ; LIABILITY, OR TORT (INCLUDING NEGLIGENCE OR OTHERWISE) ARISING IN ANY WAY OUT OF THE U
      +                          SE OF
   148                           ; THIS SOFTWARE, EVEN IF ADVISED OF THE POSSIBILITY OF SUCH DAMAGE.
   149                           ; 
   150                           ; 
   151                           ; Code-generator required, PIC18F26Q84 Definitions
   152                           ; 
   153                           ; SFR Addresses
   154  0000                     
   155 ;; Function _PWM1_16BIT_Slice1Output1_DefaultInterruptHandler is unused but had its address taken
   156  0000                     
   157 ;; Function _PWM1_16BIT_Slice1Output2_DefaultInterruptHandler is unused but had its address taken
   158  0000                     
   159 ;; Function _PWM1_16BIT_Period_DefaultInterruptHandler is unused but had its address taken
   160  0000                     
   161 ;; Function _ADC_DefaultADI_ISR is unused but had its address taken
   162  0000                     
   163 ;; Function _ADC_DefaultContext1Threshold_ISR is unused but had its address taken
   164  0000                     
   165 ;; Function _ADC_DefaultContext2Threshold_ISR is unused but had its address taken
   166  0000                     
   167 ;; Function _ADC_DefaultContext3Threshold_ISR is unused but had its address taken
   168  0000                     
   169 ;; Function _ADC_DefaultContext4Threshold_ISR is unused but had its address taken
   170  0000                     
   171 ;; Function _ADC_DefaultActiveClockTuning_ISR is unused but had its address taken
   172  0000                     
   173 ;; Function _PWM2_16BIT_Slice1Output1_DefaultInterruptHandler is unused but had its address taken
   174  0000                     
   175 ;; Function _PWM2_16BIT_Slice1Output2_DefaultInterruptHandler is unused but had its address taken
   176  0000                     
   177 ;; Function _PWM2_16BIT_Period_DefaultInterruptHandler is unused but had its address taken
   178  0000                     
   179                           	psect	idataBANK5
   180  004EDC                     __pidataBANK5:
   181                           	callstack 0
   182                           
   183                           ;initializer for _rxFifos
   184  004EDC  01                 	db	1
   185  004EDD  00                 	db	0
   186                           
   187                           	psect	smallconst
   188  002600                     __psmallconst:
   189                           	callstack 0
   190  002600  00                 	db	0
   191  002601                     _DLC_BYTES:
   192                           	callstack 0
   193  002601  00                 	db	0
   194  002602  01                 	db	1
   195  002603  02                 	db	2
   196  002604  03                 	db	3
   197  002605  04                 	db	4
   198  002606  05                 	db	5
   199  002607  06                 	db	6
   200  002608  07                 	db	7
   201  002609  08                 	db	8
   202  00260A                     __end_of_DLC_BYTES:
   203                           	callstack 0
   204  00260A  50                 	db	80
   205  00260B  01                 	db	1
   206  00260C                     __end_of_FIFO:
   207                           	callstack 0
   208  00260C  00                 	db	0	; dummy byte at the end
   209  0000                     
   210                           	psect	nvBANK5
   211  0005EC                     __pnvBANK5:
   212                           	callstack 0
   213  0005EC                     _timer1ReloadVal:
   214                           	callstack 0
   215  0005EC                     	ds	2
   216  0005EE                     _PWM2_16BIT_Slice1Output1_InterruptHandler:
   217                           	callstack 0
   218  0005EE                     	ds	2
   219  0005F0                     _ADC_ActiveClockTuning_ISR:
   220                           	callstack 0
   221  0005F0                     	ds	2
   222  0005F2                     _ADC_Context4Thereshld_ISR:
   223                           	callstack 0
   224  0005F2                     	ds	2
   225  0005F4                     _ADC_Context3Thereshld_ISR:
   226                           	callstack 0
   227  0005F4                     	ds	2
   228  0005F6                     _ADC_Context2Thereshld_ISR:
   229                           	callstack 0
   230  0005F6                     	ds	2
   231  0005F8                     _ADC_Context1Thereshld_ISR:
   232                           	callstack 0
   233  0005F8                     	ds	2
   234  0005FA                     _ADC_ConversionComplete_ISR:
   235                           	callstack 0
   236  0005FA                     	ds	2
   237  0005FC                     _INT0_InterruptHandler:
   238                           	callstack 0
   239  0005FC                     	ds	2
   240                           
   241                           	psect	nvBANK6
   242  000610                     __pnvBANK6:
   243                           	callstack 0
   244  000610                     _TMR0_InterruptHandler:
   245                           	callstack 0
   246  000610                     	ds	2
   247  000612                     _TMR2_InterruptHandler:
   248                           	callstack 0
   249  000612                     	ds	2
   250  000614                     _TMR1_InterruptHandler:
   251                           	callstack 0
   252  000614                     	ds	2
   253  000616                     _PWM2_16BIT_Period_InterruptHandler:
   254                           	callstack 0
   255  000616                     	ds	2
   256  000618                     _PWM2_16BIT_Slice1Output2_InterruptHandler:
   257                           	callstack 0
   258  000618                     	ds	2
   259  0000                     _PMD8	set	104
   260  0000                     _PMD7	set	103
   261  0000                     _PMD6	set	102
   262  0000                     _PMD5	set	101
   263  0000                     _PMD4	set	100
   264  0000                     _PMD3	set	99
   265  0000                     _PMD2	set	98
   266  0000                     _PMD1	set	97
   267  0000                     _PMD0	set	96
   268  0000                     _OSCTUNE	set	176
   269  0000                     _OSCFRQ	set	177
   270  0000                     _OSCEN	set	179
   271  0000                     _OSCCON3	set	175
   272  0000                     _OSCCON1	set	173
   273  0000                     _C1FIFOBA	set	332
   274  0000                     _C1FIFOSTA1Lbits	set	352
   275  0000                     _C1TXQSTALbits	set	340
   276  0000                     _C1INTLbits	set	284
   277  0000                     _C1INTTbits	set	287
   278  0000                     _C1TRECUbits	set	310
   279  0000                     _C1CONUbits	set	258
   280  0000                     _C1INTHbits	set	285
   281  0000                     _C1CONTbits	set	259
   282  0000                     _C1CONU	set	258
   283  0000                     _C1CONH	set	257
   284  0000                     _C1CONL	set	256
   285  0000                     _C1CONHbits	set	257
   286  0000                     _C1INTT	set	287
   287  0000                     _C1INTU	set	286
   288  0000                     _C1INTH	set	285
   289  0000                     _C1INTL	set	284
   290  0000                     _C1NBTCFGT	set	263
   291  0000                     _C1NBTCFGU	set	262
   292  0000                     _C1NBTCFGH	set	261
   293  0000                     _C1NBTCFGL	set	260
   294  0000                     _C1TXQCONT	set	339
   295  0000                     _C1TXQCONU	set	338
   296  0000                     _C1TXQCONH	set	337
   297  0000                     _C1FIFOCON1T	set	351
   298  0000                     _C1FIFOCON1U	set	350
   299  0000                     _C1FIFOCON1H	set	349
   300  0000                     _C1FIFOCON1L	set	348
   301  0000                     _C1TXQCONL	set	336
   302  0000                     _RB4PPS	set	525
   303  0000                     _CANRXPPS	set	573
   304  0000                     _RC1PPS	set	530
   305  0000                     _INT0PPS	set	574
   306  0000                     _ADACTPPS	set	617
   307  0000                     _RC0PPS	set	529
   308  0000                     _T0CON0bits	set	794
   309  0000                     _T0CON0	set	794
   310  0000                     _TMR0L	set	792
   311  0000                     _TMR0H	set	793
   312  0000                     _T0CON1	set	795
   313  0000                     _PR2	set	803
   314  0000                     _TMR2	set	802
   315  0000                     _T2CONbits	set	804
   316  0000                     _T2RSTbits	set	807
   317  0000                     _T2HLTbits	set	805
   318  0000                     _T2CON	set	804
   319  0000                     _T2TMR	set	802
   320  0000                     _T2PR	set	803
   321  0000                     _T2RST	set	807
   322  0000                     _T2HLT	set	805
   323  0000                     _T2CLKCON	set	806
   324  0000                     _T1GCONbits	set	799
   325  0000                     _T1CONbits	set	798
   326  0000                     _T1CON	set	798
   327  0000                     _TMR1L	set	796
   328  0000                     _TMR1H	set	797
   329  0000                     _T1CLK	set	801
   330  0000                     _T1GATE	set	800
   331  0000                     _T1GCON	set	799
   332  0000                     _ADCPbits	set	984
   333  0000                     _ADCON1bits	set	1012
   334  0000                     _ADERRL	set	989
   335  0000                     _ADERRH	set	990
   336  0000                     _ADPREVL	set	1000
   337  0000                     _ADPREVH	set	1001
   338  0000                     _ADFLTRL	set	993
   339  0000                     _ADFLTRH	set	994
   340  0000                     _ADSTATbits	set	1015
   341  0000                     _ADCON2bits	set	1013
   342  0000                     _ADCON3bits	set	1014
   343  0000                     _ADCSEL4bits	set	1023
   344  0000                     _ADCSEL3bits	set	1022
   345  0000                     _ADCSEL2bits	set	1021
   346  0000                     _ADCSEL1bits	set	1020
   347  0000                     _ADCON0bits	set	1011
   348  0000                     _ADCSEL4	set	1023
   349  0000                     _ADCSEL3	set	1022
   350  0000                     _ADCSEL2	set	1021
   351  0000                     _ADCSEL1	set	1020
   352  0000                     _ADREF	set	1016
   353  0000                     _ADSTAT	set	1015
   354  0000                     _ADCON3	set	1014
   355  0000                     _ADCON2	set	1013
   356  0000                     _ADCON1	set	1012
   357  0000                     _ADCON0	set	1011
   358  0000                     _ADPREH	set	1010
   359  0000                     _ADPREL	set	1009
   360  0000                     _ADCAP	set	1008
   361  0000                     _ADACQH	set	1007
   362  0000                     _ADACQL	set	1006
   363  0000                     _ADPCH	set	1004
   364  0000                     _ADRESH	set	1003
   365  0000                     _ADRESL	set	1002
   366  0000                     _ADRPT	set	999
   367  0000                     _ADCNT	set	998
   368  0000                     _ADACCU	set	997
   369  0000                     _ADACCH	set	996
   370  0000                     _ADACCL	set	995
   371  0000                     _ADSTPTH	set	992
   372  0000                     _ADSTPTL	set	991
   373  0000                     _ADUTHH	set	988
   374  0000                     _ADUTHL	set	987
   375  0000                     _ADLTHH	set	986
   376  0000                     _ADLTHL	set	985
   377  0000                     _ADCTX	set	1019
   378  0000                     _ADCP	set	984
   379  0000                     _ADCLK	set	1018
   380  0000                     _ADACT	set	1017
   381  0000                     _INLVLE	set	1060
   382  0000                     _INLVLC	set	1044
   383  0000                     _INLVLB	set	1036
   384  0000                     _INLVLA	set	1028
   385  0000                     _SLRCONC	set	1043
   386  0000                     _SLRCONB	set	1035
   387  0000                     _SLRCONA	set	1027
   388  0000                     _ODCONC	set	1042
   389  0000                     _ODCONB	set	1034
   390  0000                     _ODCONA	set	1026
   391  0000                     _WPUC	set	1041
   392  0000                     _WPUA	set	1025
   393  0000                     _WPUB	set	1033
   394  0000                     _WPUE	set	1057
   395  0000                     _ANSELA	set	1024
   396  0000                     _ANSELB	set	1032
   397  0000                     _ANSELC	set	1040
   398  0000                     _PORTCbits	set	1232
   399  0000                     _PORTAbits	set	1230
   400  0000                     _LATAbits	set	1214
   401  0000                     _LATCbits	set	1216
   402  0000                     _TRISCbits	set	1224
   403  0000                     _LATBbits	set	1215
   404  0000                     _TRISBbits	set	1223
   405  0000                     _PWM2GIEbits	set	1143
   406  0000                     _PWM2CONbits	set	1144
   407  0000                     _PWM2CON	set	1144
   408  0000                     _PIE5bits	set	1187
   409  0000                     _PWM2GIRbits	set	1142
   410  0000                     _PIR5bits	set	1203
   411  0000                     _PWM2S1P2H	set	1149
   412  0000                     _PWM2S1P2L	set	1148
   413  0000                     _PWM2S1P1H	set	1147
   414  0000                     _PWM2S1P1L	set	1146
   415  0000                     _PWM2S1CFG	set	1145
   416  0000                     _PWM2GIE	set	1143
   417  0000                     _PWM2GIR	set	1142
   418  0000                     _PWM2PIPOS	set	1141
   419  0000                     _PWM2CPRE	set	1140
   420  0000                     _PWM2PRH	set	1139
   421  0000                     _PWM2PRL	set	1138
   422  0000                     _PWM2LDS	set	1137
   423  0000                     _PWM2CLK	set	1136
   424  0000                     _PWM2ERS	set	1135
   425  0000                     _PIR0bits	set	1198
   426  0000                     _PIE0bits	set	1182
   427  0000                     _PIR3bits	set	1201
   428  0000                     _PIE3bits	set	1185
   429  0000                     _PIR2bits	set	1200
   430  0000                     _PWM1GIEbits	set	1128
   431  0000                     _PWM1CONbits	set	1129
   432  0000                     _PWM1CON	set	1129
   433  0000                     _PIE4bits	set	1186
   434  0000                     _PWM1GIRbits	set	1127
   435  0000                     _PIR4bits	set	1202
   436  0000                     _PWM1S1P2H	set	1134
   437  0000                     _PWM1S1P2L	set	1133
   438  0000                     _PWM1S1P1H	set	1132
   439  0000                     _PWM1S1P1L	set	1131
   440  0000                     _PWM1S1CFG	set	1130
   441  0000                     _PWM1GIE	set	1128
   442  0000                     _PWM1GIR	set	1127
   443  0000                     _PWM1PIPOS	set	1126
   444  0000                     _PWM1CPRE	set	1125
   445  0000                     _PWM1PRH	set	1124
   446  0000                     _PWM1PRL	set	1123
   447  0000                     _PWM1LDS	set	1122
   448  0000                     _PWM1CLK	set	1121
   449  0000                     _PWM1ERS	set	1120
   450  0000                     _TRISC	set	1224
   451  0000                     _TRISB	set	1223
   452  0000                     _TRISA	set	1222
   453  0000                     _TRISE	set	1226
   454  0000                     _LATC	set	1216
   455  0000                     _LATB	set	1215
   456  0000                     _LATA	set	1214
   457  0000                     _PIE1bits	set	1183
   458  0000                     _INTCON0bits	set	1238
   459  0000                     _PIR1bits	set	1199
   460                           
   461                           ; #config settings
   462                           
   463                           	psect	cinit
   464  0049A4                     __pcinit:
   465                           	callstack 0
   466  0049A4                     start_initialization:
   467                           	callstack 0
   468  0049A4                     __initialization:
   469                           	callstack 0
   470                           
   471                           ; Initialize objects allocated to BANK5 (2 bytes)
   472                           ; load TBLPTR registers with __pidataBANK5
   473  0049A4  0EDC               	movlw	low __pidataBANK5
   474  0049A6  6EF6               	movwf	tblptrl,c
   475  0049A8  0E4E               	movlw	high __pidataBANK5
   476  0049AA  6EF7               	movwf	tblptrh,c
   477  0049AC  0E00               	movlw	low (__pidataBANK5 shr (0+16))
   478  0049AE  6EF8               	movwf	tblptru,c
   479  0049B0  0009               	tblrd		*+	;fetch initializer
   480  0049B2  0061 F3D4  F5FE    	movff	tablat,__pdataBANK5
   481  0049B8  0009               	tblrd		*+	;fetch initializer
   482  0049BA  0061 F3D4  F5FF    	movff	tablat,__pdataBANK5+1
   483                           
   484                           ; Clear objects allocated to BANK6 (16 bytes)
   485  0049C0  EE01  F200         	lfsr	0,__pbssBANK6
   486  0049C4  0E10               	movlw	16
   487  0049C6                     clear_0:
   488  0049C6  6AEE               	clrf	postinc0,c
   489  0049C8  06E8               	decf	wreg,f,c
   490  0049CA  E1FD               	bnz	clear_0
   491                           
   492                           ; Clear objects allocated to BANK5 (73 bytes)
   493  0049CC  EE01  F160         	lfsr	0,__pbssBANK5
   494  0049D0  0E49               	movlw	73
   495  0049D2                     clear_1:
   496  0049D2  6AEE               	clrf	postinc0,c
   497  0049D4  06E8               	decf	wreg,f,c
   498  0049D6  E1FD               	bnz	clear_1
   499                           
   500                           ; Clear objects allocated to COMRAM (22 bytes)
   501  0049D8  EE01  F14A         	lfsr	0,__pbssCOMRAM
   502  0049DC  0E16               	movlw	22
   503  0049DE                     clear_2:
   504  0049DE  6AEE               	clrf	postinc0,c
   505  0049E0  06E8               	decf	wreg,f,c
   506  0049E2  E1FD               	bnz	clear_2
   507                           
   508                           ;
   509                           ; Setup IVTBASE
   510                           ;
   511  0049E4  0104               	movlb	4
   512  0049E6  0E08               	movlw	(ivt0x8_base shr 0)& (0+255)
   513  0049E8  6F5D               	movwf	93,b
   514  0049EA  0E00               	movlw	(ivt0x8_base shr (0+8))& (0+255)
   515  0049EC  6F5E               	movwf	94,b
   516  0049EE  0E00               	movlw	(ivt0x8_base shr (0+16))& (0+255)
   517  0049F0  6F5F               	movwf	95,b
   518  0049F2                     end_of_initialization:
   519                           	callstack 0
   520  0049F2                     __end_of__initialization:
   521                           	callstack 0
   522  0049F2  0100               	movlb	0
   523  0049F4  EF4A  F024         	goto	_main	;jump to C main() function
   524                           
   525                           	psect	bssCOMRAM
   526  00054A                     __pbssCOMRAM:
   527                           	callstack 0
   528  00054A                     _NPRES_min:
   529                           	callstack 0
   530  00054A                     	ds	1
   531  00054B                     _HDRPRES_max:
   532                           	callstack 0
   533  00054B                     	ds	1
   534  00054C                     _HDRPRES_min:
   535                           	callstack 0
   536  00054C                     	ds	1
   537  00054D                     _ucPedalPos:
   538                           	callstack 0
   539  00054D                     	ds	1
   540  00054E                     _ucDutyServomotor:
   541                           	callstack 0
   542  00054E                     	ds	1
   543  00054F                     _ucASRequesState:
   544                           	callstack 0
   545  00054F                     	ds	1
   546  000550                     _ucSteering_angle_actual:
   547                           	callstack 0
   548  000550                     	ds	1
   549  000551                     _ucSpeed_target:
   550                           	callstack 0
   551  000551                     	ds	1
   552  000552                     _ucSpeed_actual:
   553                           	callstack 0
   554  000552                     	ds	1
   555  000553                     _ucCones_count_actual:
   556                           	callstack 0
   557  000553                     	ds	1
   558  000554                     _ucLap_counter:
   559                           	callstack 0
   560  000554                     	ds	1
   561  000555                     _ucService_brake:
   562                           	callstack 0
   563  000555                     	ds	1
   564  000556                     _ucSteering_state:
   565                           	callstack 0
   566  000556                     	ds	1
   567  000557                     _ucAMI_state:
   568                           	callstack 0
   569  000557                     	ds	1
   570  000558                     _ucEBS_state:
   571                           	callstack 0
   572  000558                     	ds	1
   573  000559                     _ucAS_state:
   574                           	callstack 0
   575  000559                     	ds	1
   576  00055A                     _ucTargetGear:
   577                           	callstack 0
   578  00055A                     	ds	1
   579  00055B                     _ucTargetDirection:
   580                           	callstack 0
   581  00055B                     	ds	1
   582  00055C                     _ucTargetBrake:
   583                           	callstack 0
   584  00055C                     	ds	1
   585  00055D                     _ucTargetClutch:
   586                           	callstack 0
   587  00055D                     	ds	1
   588  00055E                     _ucTargetAccelerator:
   589                           	callstack 0
   590  00055E                     	ds	1
   591  00055F                     _ucLEDState:
   592                           	callstack 0
   593  00055F                     	ds	1
   594                           
   595                           	psect	bssBANK5
   596  000560                     __pbssBANK5:
   597                           	callstack 0
   598  000560                     _ucAN2:
   599                           	callstack 0
   600  000560                     	ds	2
   601  000562                     _ucAN1:
   602                           	callstack 0
   603  000562                     	ds	2
   604  000564                     _ucPICNPRES4:
   605                           	callstack 0
   606  000564                     	ds	2
   607  000566                     _ucPICNPRES3:
   608                           	callstack 0
   609  000566                     	ds	2
   610  000568                     _ucPICNPRES2:
   611                           	callstack 0
   612  000568                     	ds	2
   613  00056A                     _ucPICNPRES1:
   614                           	callstack 0
   615  00056A                     	ds	2
   616  00056C                     _ucPICHDRPRES2:
   617                           	callstack 0
   618  00056C                     	ds	2
   619  00056E                     _ucPICHDRPRES1:
   620                           	callstack 0
   621  00056E                     	ds	2
   622  000570                     _uiYaw_rate:
   623                           	callstack 0
   624  000570                     	ds	2
   625  000572                     _uiAcc_lateral:
   626                           	callstack 0
   627  000572                     	ds	2
   628  000574                     _uiAcc_longitudinal:
   629                           	callstack 0
   630  000574                     	ds	2
   631  000576                     _uiCones_count_all:
   632                           	callstack 0
   633  000576                     	ds	2
   634  000578                     _uiIndex:
   635                           	callstack 0
   636  000578                     	ds	2
   637  00057A                     TMR2_ISR@CountCallBack:
   638                           	callstack 0
   639  00057A                     	ds	2
   640  00057C                     _CAN1_RxBufferOverflowHandler:
   641                           	callstack 0
   642  00057C                     	ds	2
   643  00057E                     _CAN1_TxAttemptHandler:
   644                           	callstack 0
   645  00057E                     	ds	2
   646  000580                     _CAN1_SystemErrorHandler:
   647                           	callstack 0
   648  000580                     	ds	2
   649  000582                     _CAN1_ModeChangeHandler:
   650                           	callstack 0
   651  000582                     	ds	2
   652  000584                     _CAN1_BusErrorHandler:
   653                           	callstack 0
   654  000584                     	ds	2
   655  000586                     _CAN1_BusWakeUpActivityHandler:
   656                           	callstack 0
   657  000586                     	ds	2
   658  000588                     _CAN1_InvalidMessageHandler:
   659                           	callstack 0
   660  000588                     	ds	2
   661  00058A                     _PWM1_16BIT_Period_InterruptHandler:
   662                           	callstack 0
   663  00058A                     	ds	2
   664  00058C                     _PWM1_16BIT_Slice1Output2_InterruptHandler:
   665                           	callstack 0
   666  00058C                     	ds	2
   667  00058E                     _PWM1_16BIT_Slice1Output1_InterruptHandler:
   668                           	callstack 0
   669  00058E                     	ds	2
   670  000590                     _NPRES_max:
   671                           	callstack 0
   672  000590                     	ds	1
   673  000591                     _ucServoLmax:
   674                           	callstack 0
   675  000591                     	ds	1
   676  000592                     _ucPICHDRPRES2min:
   677                           	callstack 0
   678  000592                     	ds	1
   679  000593                     _ucPICHDRPRES1min:
   680                           	callstack 0
   681  000593                     	ds	1
   682  000594                     _ucServoLmin:
   683                           	callstack 0
   684  000594                     	ds	1
   685  000595                     _ucASBState:
   686                           	callstack 0
   687  000595                     	ds	1
   688  000596                     _ucMotor_moment_target:
   689                           	callstack 0
   690  000596                     	ds	1
   691  000597                     _ucMotor_moment_actual:
   692                           	callstack 0
   693  000597                     	ds	1
   694  000598                     _ucBrake_hydr_target:
   695                           	callstack 0
   696  000598                     	ds	1
   697  000599                     _ucBrake_hydr_actual:
   698                           	callstack 0
   699  000599                     	ds	1
   700  00059A                     _ucSteering_angle_target:
   701                           	callstack 0
   702  00059A                     	ds	1
   703  00059B                     _msgReceipt:
   704                           	callstack 0
   705  00059B                     	ds	7
   706  0005A2                     _msgTransmit:
   707                           	callstack 0
   708  0005A2                     	ds	7
   709                           
   710                           	psect	dataBANK5
   711  0005FE                     __pdataBANK5:
   712                           	callstack 0
   713  0005FE                     _rxFifos:
   714                           	callstack 0
   715  0005FE                     	ds	2
   716                           
   717                           	psect	bssBANK6
   718  000600                     __pbssBANK6:
   719                           	callstack 0
   720  000600                     _CANDATAdata:
   721                           	callstack 0
   722  000600                     	ds	8
   723  000608                     _rxMsgData:
   724                           	callstack 0
   725  000608                     	ds	8
   726                           
   727                           	psect	cstackBANK5
   728  0005A9                     __pcstackBANK5:
   729                           	callstack 0
   730  0005A9                     ?___lwdiv:
   731                           	callstack 0
   732  0005A9                     ?___aldiv:
   733                           	callstack 0
   734  0005A9                     CAN1_RX_FIFO_ResetInfo@index:
   735                           	callstack 0
   736  0005A9                     CAN1_OperationModeSet@opMode:
   737                           	callstack 0
   738  0005A9                     DELAY_milliseconds@milliseconds:
   739                           	callstack 0
   740  0005A9                     INT0_SetInterruptHandler@InterruptHandler:
   741                           	callstack 0
   742  0005A9                     PWM1_16BIT_WritePeriodRegister@periodCount:
   743                           	callstack 0
   744  0005A9                     PWM1_16BIT_SetSlice1Output1DutyCycleRegister@registerValue:
   745                           	callstack 0
   746  0005A9                     PWM1_16BIT_Slice1Output1_SetInterruptHandler@InterruptHandler:
   747                           	callstack 0
   748  0005A9                     PWM1_16BIT_Slice1Output2_SetInterruptHandler@InterruptHandler:
   749                           	callstack 0
   750  0005A9                     PWM1_16BIT_Period_SetInterruptHandler@InterruptHandler:
   751                           	callstack 0
   752  0005A9                     ADC_SetADIInterruptHandler@InterruptHandler:
   753                           	callstack 0
   754  0005A9                     ADC_SetContext1ThresholdInterruptHandler@InterruptHandler:
   755                           	callstack 0
   756  0005A9                     ADC_SetContext2ThresholdInterruptHandler@InterruptHandler:
   757                           	callstack 0
   758  0005A9                     ADC_SetContext3ThresholdInterruptHandler@InterruptHandler:
   759                           	callstack 0
   760  0005A9                     ADC_SetContext4ThresholdInterruptHandler@InterruptHandler:
   761                           	callstack 0
   762  0005A9                     ADC_SetActiveClockTuningInterruptHandler@InterruptHandler:
   763                           	callstack 0
   764  0005A9                     CAN1_SetInvalidMessageInterruptHandler@handler:
   765                           	callstack 0
   766  0005A9                     CAN1_SetBusWakeUpActivityInterruptHandler@handler:
   767                           	callstack 0
   768  0005A9                     CAN1_SetBusErrorInterruptHandler@handler:
   769                           	callstack 0
   770  0005A9                     CAN1_SetModeChangeInterruptHandler@handler:
   771                           	callstack 0
   772  0005A9                     CAN1_SetSystemErrorInterruptHandler@handler:
   773                           	callstack 0
   774  0005A9                     CAN1_SetTxAttemptInterruptHandler@handler:
   775                           	callstack 0
   776  0005A9                     CAN1_SetRxBufferOverFlowInterruptHandler@handler:
   777                           	callstack 0
   778  0005A9                     PWM2_16BIT_WritePeriodRegister@periodCount:
   779                           	callstack 0
   780  0005A9                     PWM2_16BIT_SetSlice1Output1DutyCycleRegister@registerValue:
   781                           	callstack 0
   782  0005A9                     PWM2_16BIT_Slice1Output1_SetInterruptHandler@InterruptHandler:
   783                           	callstack 0
   784  0005A9                     PWM2_16BIT_Slice1Output2_SetInterruptHandler@InterruptHandler:
   785                           	callstack 0
   786  0005A9                     PWM2_16BIT_Period_SetInterruptHandler@InterruptHandler:
   787                           	callstack 0
   788  0005A9                     TMR1_SetInterruptHandler@InterruptHandler:
   789                           	callstack 0
   790  0005A9                     TMR2_SetInterruptHandler@InterruptHandler:
   791                           	callstack 0
   792  0005A9                     TMR0_SetInterruptHandler@InterruptHandler:
   793                           	callstack 0
   794  0005A9                     ___lwdiv@dividend:
   795                           	callstack 0
   796  0005A9                     ___aldiv@dividend:
   797                           	callstack 0
   798                           
   799                           ; 4 bytes @ 0x0
   800  0005A9                     	ds	1
   801  0005AA                     CAN1_OperationModeSet@status:
   802                           	callstack 0
   803                           
   804                           ; 1 bytes @ 0x1
   805  0005AA                     	ds	1
   806  0005AB                     ??_TMR1_Initialize:
   807  0005AB                     ??_DELAY_milliseconds:
   808  0005AB                     CAN1_OperationModeSet@requestMode:
   809                           	callstack 0
   810  0005AB                     ___lwdiv@divisor:
   811                           	callstack 0
   812                           
   813                           ; 2 bytes @ 0x2
   814  0005AB                     	ds	1
   815  0005AC                     
   816                           ; 1 bytes @ 0x3
   817  0005AC                     	ds	1
   818  0005AD                     ___lwdiv@quotient:
   819                           	callstack 0
   820  0005AD                     ___aldiv@divisor:
   821                           	callstack 0
   822                           
   823                           ; 4 bytes @ 0x4
   824  0005AD                     	ds	2
   825  0005AF                     ___lwdiv@counter:
   826                           	callstack 0
   827                           
   828                           ; 1 bytes @ 0x6
   829  0005AF                     	ds	1
   830  0005B0                     ?___wmul:
   831                           	callstack 0
   832  0005B0                     ___wmul@multiplier:
   833                           	callstack 0
   834                           
   835                           ; 2 bytes @ 0x7
   836  0005B0                     	ds	1
   837  0005B1                     ___aldiv@counter:
   838                           	callstack 0
   839                           
   840                           ; 1 bytes @ 0x8
   841  0005B1                     	ds	1
   842  0005B2                     ___aldiv@sign:
   843                           	callstack 0
   844  0005B2                     ___wmul@multiplicand:
   845                           	callstack 0
   846                           
   847                           ; 2 bytes @ 0x9
   848  0005B2                     	ds	1
   849  0005B3                     ___aldiv@quotient:
   850                           	callstack 0
   851                           
   852                           ; 4 bytes @ 0xA
   853  0005B3                     	ds	1
   854  0005B4                     ___wmul@product:
   855                           	callstack 0
   856                           
   857                           ; 2 bytes @ 0xB
   858  0005B4                     	ds	3
   859  0005B7                     ?___xxtofl:
   860                           	callstack 0
   861  0005B7                     ___xxtofl@val:
   862                           	callstack 0
   863                           
   864                           ; 4 bytes @ 0xE
   865  0005B7                     	ds	4
   866  0005BB                     ??___xxtofl:
   867                           
   868                           ; 1 bytes @ 0x12
   869  0005BB                     	ds	4
   870  0005BF                     ___xxtofl@sign:
   871                           	callstack 0
   872                           
   873                           ; 1 bytes @ 0x16
   874  0005BF                     	ds	1
   875  0005C0                     ___xxtofl@exp:
   876                           	callstack 0
   877                           
   878                           ; 1 bytes @ 0x17
   879  0005C0                     	ds	1
   880  0005C1                     ___xxtofl@arg:
   881                           	callstack 0
   882                           
   883                           ; 4 bytes @ 0x18
   884  0005C1                     	ds	4
   885  0005C5                     ?___fladd:
   886                           	callstack 0
   887  0005C5                     ___fladd@b:
   888                           	callstack 0
   889                           
   890                           ; 4 bytes @ 0x1C
   891  0005C5                     	ds	4
   892  0005C9                     ___fladd@a:
   893                           	callstack 0
   894                           
   895                           ; 4 bytes @ 0x20
   896  0005C9                     	ds	4
   897  0005CD                     ??___fladd:
   898                           
   899                           ; 1 bytes @ 0x24
   900  0005CD                     	ds	4
   901  0005D1                     ___fladd@signs:
   902                           	callstack 0
   903                           
   904                           ; 1 bytes @ 0x28
   905  0005D1                     	ds	1
   906  0005D2                     ___fladd@aexp:
   907                           	callstack 0
   908                           
   909                           ; 1 bytes @ 0x29
   910  0005D2                     	ds	1
   911  0005D3                     ___fladd@bexp:
   912                           	callstack 0
   913                           
   914                           ; 1 bytes @ 0x2A
   915  0005D3                     	ds	1
   916  0005D4                     ___fladd@grs:
   917                           	callstack 0
   918                           
   919                           ; 1 bytes @ 0x2B
   920  0005D4                     	ds	1
   921  0005D5                     ?___fltol:
   922                           	callstack 0
   923  0005D5                     ___fltol@f1:
   924                           	callstack 0
   925                           
   926                           ; 4 bytes @ 0x2C
   927  0005D5                     	ds	4
   928  0005D9                     ??___fltol:
   929                           
   930                           ; 1 bytes @ 0x30
   931  0005D9                     	ds	4
   932  0005DD                     ___fltol@sign1:
   933                           	callstack 0
   934                           
   935                           ; 1 bytes @ 0x34
   936  0005DD                     	ds	1
   937  0005DE                     ___fltol@exp1:
   938                           	callstack 0
   939                           
   940                           ; 1 bytes @ 0x35
   941  0005DE                     	ds	1
   942  0005DF                     GPIO_PWM1_Control@uiDutyCycle:
   943                           	callstack 0
   944  0005DF                     GPIO_PWM2_Control@uiDutyCycle:
   945                           	callstack 0
   946                           
   947                           ; 2 bytes @ 0x36
   948  0005DF                     	ds	2
   949  0005E1                     GPIO_PWM1_Control@uiFreq:
   950                           	callstack 0
   951  0005E1                     GPIO_PWM2_Control@uiFreq:
   952                           	callstack 0
   953                           
   954                           ; 2 bytes @ 0x38
   955  0005E1                     	ds	2
   956  0005E3                     ??_GPIO_PWM1_Control:
   957  0005E3                     ??_GPIO_PWM2_Control:
   958                           
   959                           ; 1 bytes @ 0x3A
   960  0005E3                     	ds	2
   961  0005E5                     GPIO_PWM1_Control@uiConvertedPeriod:
   962                           	callstack 0
   963  0005E5                     GPIO_PWM2_Control@uiConvertedPeriod:
   964                           	callstack 0
   965                           
   966                           ; 2 bytes @ 0x3C
   967  0005E5                     	ds	2
   968  0005E7                     GPIO_PWM1_Control@uiConvertedDC:
   969                           	callstack 0
   970  0005E7                     GPIO_PWM2_Control@uiConvertedDC:
   971                           	callstack 0
   972                           
   973                           ; 2 bytes @ 0x3E
   974  0005E7                     	ds	2
   975  0005E9                     ??_EBS_Watchdog:
   976                           
   977                           ; 1 bytes @ 0x40
   978  0005E9                     	ds	2
   979  0005EB                     EBS_Watchdog@ucWDState:
   980                           	callstack 0
   981                           
   982                           ; 1 bytes @ 0x42
   983  0005EB                     	ds	1
   984  0005EC                     
   985                           ; 1 bytes @ 0x43
   986                           
   987                           	psect	cstackCOMRAM
   988  000501                     __pcstackCOMRAM:
   989                           	callstack 0
   990  000501                     ?_ADC_GetSingleConversion:
   991                           	callstack 0
   992  000501                     ?i2___xxtofl:
   993                           	callstack 0
   994  000501                     ADC_SelectContext@context:
   995                           	callstack 0
   996  000501                     TMR1_WriteTimer@timerVal:
   997                           	callstack 0
   998  000501                     i2___xxtofl@val:
   999                           	callstack 0
  1000                           
  1001                           ; 4 bytes @ 0x0
  1002  000501                     	ds	2
  1003  000503                     ??_ADC_GetSingleConversion:
  1004  000503                     
  1005                           ; 1 bytes @ 0x2
  1006  000503                     	ds	2
  1007  000505                     ??i2___xxtofl:
  1008  000505                     ADC_GetSingleConversion@channel:
  1009                           	callstack 0
  1010                           
  1011                           ; 1 bytes @ 0x4
  1012  000505                     	ds	4
  1013  000509                     i2___xxtofl@sign:
  1014                           	callstack 0
  1015                           
  1016                           ; 1 bytes @ 0x8
  1017  000509                     	ds	1
  1018  00050A                     i2___xxtofl@exp:
  1019                           	callstack 0
  1020                           
  1021                           ; 1 bytes @ 0x9
  1022  00050A                     	ds	1
  1023  00050B                     i2___xxtofl@arg:
  1024                           	callstack 0
  1025                           
  1026                           ; 4 bytes @ 0xA
  1027  00050B                     	ds	4
  1028  00050F                     ?___fldiv:
  1029                           	callstack 0
  1030  00050F                     ?___flmul:
  1031                           	callstack 0
  1032  00050F                     ___fldiv@b:
  1033                           	callstack 0
  1034  00050F                     ___flmul@b:
  1035                           	callstack 0
  1036                           
  1037                           ; 4 bytes @ 0xE
  1038  00050F                     	ds	4
  1039  000513                     ___fldiv@a:
  1040                           	callstack 0
  1041  000513                     ___flmul@a:
  1042                           	callstack 0
  1043                           
  1044                           ; 4 bytes @ 0x12
  1045  000513                     	ds	4
  1046  000517                     ??___fldiv:
  1047  000517                     ??___flmul:
  1048                           
  1049                           ; 1 bytes @ 0x16
  1050  000517                     	ds	4
  1051  00051B                     ___flmul@sign:
  1052                           	callstack 0
  1053  00051B                     ___fldiv@rem:
  1054                           	callstack 0
  1055                           
  1056                           ; 4 bytes @ 0x1A
  1057  00051B                     	ds	1
  1058  00051C                     ___flmul@grs:
  1059                           	callstack 0
  1060                           
  1061                           ; 4 bytes @ 0x1B
  1062  00051C                     	ds	3
  1063  00051F                     ___fldiv@sign:
  1064                           	callstack 0
  1065                           
  1066                           ; 1 bytes @ 0x1E
  1067  00051F                     	ds	1
  1068  000520                     ___flmul@aexp:
  1069                           	callstack 0
  1070  000520                     ___fldiv@new_exp:
  1071                           	callstack 0
  1072                           
  1073                           ; 2 bytes @ 0x1F
  1074  000520                     	ds	1
  1075  000521                     ___flmul@bexp:
  1076                           	callstack 0
  1077                           
  1078                           ; 1 bytes @ 0x20
  1079  000521                     	ds	1
  1080  000522                     ___fldiv@grs:
  1081                           	callstack 0
  1082  000522                     ___flmul@prod:
  1083                           	callstack 0
  1084                           
  1085                           ; 4 bytes @ 0x21
  1086  000522                     	ds	4
  1087  000526                     ___fldiv@bexp:
  1088                           	callstack 0
  1089  000526                     ___flmul@temp:
  1090                           	callstack 0
  1091                           
  1092                           ; 2 bytes @ 0x25
  1093  000526                     	ds	1
  1094  000527                     ___fldiv@aexp:
  1095                           	callstack 0
  1096                           
  1097                           ; 1 bytes @ 0x26
  1098  000527                     	ds	1
  1099  000528                     ?i2___fladd:
  1100                           	callstack 0
  1101  000528                     i2___fladd@b:
  1102                           	callstack 0
  1103                           
  1104                           ; 4 bytes @ 0x27
  1105  000528                     	ds	4
  1106  00052C                     i2___fladd@a:
  1107                           	callstack 0
  1108                           
  1109                           ; 4 bytes @ 0x2B
  1110  00052C                     	ds	4
  1111  000530                     ??i2___fladd:
  1112                           
  1113                           ; 1 bytes @ 0x2F
  1114  000530                     	ds	4
  1115  000534                     i2___fladd@signs:
  1116                           	callstack 0
  1117                           
  1118                           ; 1 bytes @ 0x33
  1119  000534                     	ds	1
  1120  000535                     i2___fladd@aexp:
  1121                           	callstack 0
  1122                           
  1123                           ; 1 bytes @ 0x34
  1124  000535                     	ds	1
  1125  000536                     i2___fladd@bexp:
  1126                           	callstack 0
  1127                           
  1128                           ; 1 bytes @ 0x35
  1129  000536                     	ds	1
  1130  000537                     i2___fladd@grs:
  1131                           	callstack 0
  1132                           
  1133                           ; 1 bytes @ 0x36
  1134  000537                     	ds	1
  1135  000538                     ?i2___fltol:
  1136                           	callstack 0
  1137  000538                     i2___fltol@f1:
  1138                           	callstack 0
  1139                           
  1140                           ; 4 bytes @ 0x37
  1141  000538                     	ds	4
  1142  00053C                     ??i2___fltol:
  1143                           
  1144                           ; 1 bytes @ 0x3B
  1145  00053C                     	ds	4
  1146  000540                     i2___fltol@sign1:
  1147                           	callstack 0
  1148                           
  1149                           ; 1 bytes @ 0x3F
  1150  000540                     	ds	1
  1151  000541                     i2___fltol@exp1:
  1152                           	callstack 0
  1153                           
  1154                           ; 1 bytes @ 0x40
  1155  000541                     	ds	1
  1156  000542                     ??_ANALOG_GetVoltage:
  1157                           
  1158                           ; 1 bytes @ 0x41
  1159  000542                     	ds	2
  1160  000544                     ANALOG_GetVoltage@ucEntradaAnalogica:
  1161                           	callstack 0
  1162                           
  1163                           ; 1 bytes @ 0x43
  1164  000544                     	ds	1
  1165  000545                     ANALOG_GetVoltage@uiValorVoltage:
  1166                           	callstack 0
  1167                           
  1168                           ; 2 bytes @ 0x44
  1169  000545                     	ds	2
  1170  000547                     ANALOG_GetVoltage@uiValorAnalog:
  1171                           	callstack 0
  1172                           
  1173                           ; 2 bytes @ 0x46
  1174  000547                     	ds	2
  1175  000549                     ANALOG_GetVoltage@ucFlag:
  1176                           	callstack 0
  1177                           
  1178                           ; 1 bytes @ 0x48
  1179  000549                     	ds	1
  1180  00054A                     
  1181                           ; 1 bytes @ 0x49
  1182 ;;
  1183 ;;Main: autosize = 0, tempsize = 0, incstack = 0, save=0
  1184 ;;
  1185 ;; *************** function _main *****************
  1186 ;; Defined at:
  1187 ;;		line 57 in file "main.c"
  1188 ;; Parameters:    Size  Location     Type
  1189 ;;		None
  1190 ;; Auto vars:     Size  Location     Type
  1191 ;;		None
  1192 ;; Return value:  Size  Location     Type
  1193 ;;                  1    wreg      void 
  1194 ;; Registers used:
  1195 ;;		wreg, fsr2l, fsr2h, status,2, status,0, prodl, prodh, cstack
  1196 ;; Tracked objects:
  1197 ;;		On entry : 0/0
  1198 ;;		On exit  : 0/0
  1199 ;;		Unchanged: 0/0
  1200 ;; Data sizes:     COMRAM   BANK5   BANK6   BANK7   BANK8   BANK9  BANK10  BANK11  BANK12  BANK13  BANK14  BANK15  BANK1
      +6  BANK17  BANK18  BANK19  BANK20  BANK21  BANK22  BANK23  BANK24  BANK25  BANK26  BANK27  BANK28  BANK29  BANK30  BANK3
      +1  BANK32  BANK33  BANK34  BANK35  BANK36  BANK37
  1201 ;;      Params:         0       0       0       0       0       0       0       0       0       0       0       0       
      +0       0       0       0       0       0       0       0       0       0       0       0       0       0       0       
      +0       0       0       0       0       0       0
  1202 ;;      Locals:         0       0       0       0       0       0       0       0       0       0       0       0       
      +0       0       0       0       0       0       0       0       0       0       0       0       0       0       0       
      +0       0       0       0       0       0       0
  1203 ;;      Temps:          0       0       0       0       0       0       0       0       0       0       0       0       
      +0       0       0       0       0       0       0       0       0       0       0       0       0       0       0       
      +0       0       0       0       0       0       0
  1204 ;;      Totals:         0       0       0       0       0       0       0       0       0       0       0       0       
      +0       0       0       0       0       0       0       0       0       0       0       0       0       0       0       
      +0       0       0       0       0       0       0
  1205 ;;Total ram usage:        0 bytes
  1206 ;; Hardware stack levels required when called:   10
  1207 ;; This function calls:
  1208 ;;		_DELAY_milliseconds
  1209 ;;		_EBS_Init
  1210 ;;		_EBS_Watchdog
  1211 ;;		_GPIO_PWM1_Control
  1212 ;;		_SYSTEM_Initialize
  1213 ;; This function is called by:
  1214 ;;		Startup code after reset
  1215 ;; This function uses a non-reentrant model
  1216 ;;
  1217                           
  1218                           	psect	text0
  1219  004894                     __ptext0:
  1220                           	callstack 0
  1221  004894                     _main:
  1222                           	callstack 118
  1223  004894                     
  1224                           ;main.c: 60:     SYSTEM_Initialize();
  1225  004894  EC3A  F025         	call	_SYSTEM_Initialize	;wreg free
  1226  004898                     
  1227                           ;main.c: 67:     (INTCON0bits.GIE = 1);
  1228  004898  8ED6               	bsf	214,7,c	;volatile
  1229  00489A  9AC7               	bcf	199,5,c	;volatile
  1230  00489C  8ABF               	bsf	191,5,c	;volatile
  1231  00489E                     
  1232                           ;main.c: 74:     EBS_Init();
  1233  00489E  EC5E  F027         	call	_EBS_Init	;wreg free
  1234  0048A2                     
  1235                           ;main.c: 75:     DELAY_milliseconds(4000);
  1236  0048A2  0E0F               	movlw	15
  1237  0048A4  0105               	movlb	5	; () banked
  1238  0048A6  6FAA               	movwf	(DELAY_milliseconds@milliseconds+1)& (0+255),b
  1239  0048A8  0EA0               	movlw	160
  1240  0048AA  6FA9               	movwf	DELAY_milliseconds@milliseconds& (0+255),b
  1241  0048AC  EC20  F025         	call	_DELAY_milliseconds	;wreg free
  1242  0048B0  90C7               	bcf	199,0,c	;volatile
  1243  0048B2  96C8               	bcf	200,3,c	;volatile
  1244  0048B4  80BF               	bsf	191,0,c	;volatile
  1245  0048B6  86C0               	bsf	192,3,c	;volatile
  1246  0048B8                     
  1247                           ;main.c: 80:     EBS_Watchdog(0);
  1248  0048B8  0E00               	movlw	0
  1249  0048BA  EC78  F024         	call	_EBS_Watchdog
  1250  0048BE                     l6491:
  1251                           
  1252                           ;main.c: 83:     {;main.c: 90:         __nop();
  1253  0048BE  F000               	nop	
  1254  0048C0                     
  1255                           ;main.c: 105:         DELAY_milliseconds(50);
  1256  0048C0  0E00               	movlw	0
  1257  0048C2  0105               	movlb	5	; () banked
  1258  0048C4  6FAA               	movwf	(DELAY_milliseconds@milliseconds+1)& (0+255),b
  1259  0048C6  0E32               	movlw	50
  1260  0048C8  6FA9               	movwf	DELAY_milliseconds@milliseconds& (0+255),b
  1261  0048CA  EC20  F025         	call	_DELAY_milliseconds	;wreg free
  1262  0048CE                     
  1263                           ;main.c: 106:         uiIndex++;
  1264  0048CE  0105               	movlb	5	; () banked
  1265  0048D0  4B78               	infsnz	_uiIndex& (0+255),f,b
  1266  0048D2  2B79               	incf	(_uiIndex+1)& (0+255),f,b
  1267  0048D4                     
  1268                           ; BSR set to: 5
  1269                           ;main.c: 107:         GPIO_PWM1_Control(uiIndex, 600);
  1270  0048D4  C578  F5DF         	movff	_uiIndex,GPIO_PWM1_Control@uiDutyCycle
  1271  0048D8  C579  F5E0         	movff	_uiIndex+1,GPIO_PWM1_Control@uiDutyCycle+1
  1272  0048DC  0E02               	movlw	2
  1273  0048DE  6FE2               	movwf	(GPIO_PWM1_Control@uiFreq+1)& (0+255),b
  1274  0048E0  0E58               	movlw	88
  1275  0048E2  6FE1               	movwf	GPIO_PWM1_Control@uiFreq& (0+255),b
  1276  0048E4  EC7F  F022         	call	_GPIO_PWM1_Control	;wreg free
  1277  0048E8  EF5F  F024         	goto	l6491
  1278  0048EC  EF0D  F000         	goto	start
  1279  0048F0                     __end_of_main:
  1280                           	callstack 0
  1281                           
  1282 ;; *************** function _SYSTEM_Initialize *****************
  1283 ;; Defined at:
  1284 ;;		line 50 in file "mcc_generated_files/mcc.c"
  1285 ;; Parameters:    Size  Location     Type
  1286 ;;		None
  1287 ;; Auto vars:     Size  Location     Type
  1288 ;;		None
  1289 ;; Return value:  Size  Location     Type
  1290 ;;                  1    wreg      void 
  1291 ;; Registers used:
  1292 ;;		wreg, fsr2l, fsr2h, status,2, status,0, prodl, prodh, cstack
  1293 ;; Tracked objects:
  1294 ;;		On entry : 0/0
  1295 ;;		On exit  : 0/0
  1296 ;;		Unchanged: 0/0
  1297 ;; Data sizes:     COMRAM   BANK5   BANK6   BANK7   BANK8   BANK9  BANK10  BANK11  BANK12  BANK13  BANK14  BANK15  BANK1
      +6  BANK17  BANK18  BANK19  BANK20  BANK21  BANK22  BANK23  BANK24  BANK25  BANK26  BANK27  BANK28  BANK29  BANK30  BANK3
      +1  BANK32  BANK33  BANK34  BANK35  BANK36  BANK37
  1298 ;;      Params:         0       0       0       0       0       0       0       0       0       0       0       0       
      +0       0       0       0       0       0       0       0       0       0       0       0       0       0       0       
      +0       0       0       0       0       0       0
  1299 ;;      Locals:         0       0       0       0       0       0       0       0       0       0       0       0       
      +0       0       0       0       0       0       0       0       0       0       0       0       0       0       0       
      +0       0       0       0       0       0       0
  1300 ;;      Temps:          0       0       0       0       0       0       0       0       0       0       0       0       
      +0       0       0       0       0       0       0       0       0       0       0       0       0       0       0       
      +0       0       0       0       0       0       0
  1301 ;;      Totals:         0       0       0       0       0       0       0       0       0       0       0       0       
      +0       0       0       0       0       0       0       0       0       0       0       0       0       0       0       
      +0       0       0       0       0       0       0
  1302 ;;Total ram usage:        0 bytes
  1303 ;; Hardware stack levels used:    1
  1304 ;; Hardware stack levels required when called:    9
  1305 ;; This function calls:
  1306 ;;		_ADC_Initialize
  1307 ;;		_CAN1_Initialize
  1308 ;;		_EXT_INT_Initialize
  1309 ;;		_INTERRUPT_Initialize
  1310 ;;		_OSCILLATOR_Initialize
  1311 ;;		_PIN_MANAGER_Initialize
  1312 ;;		_PMD_Initialize
  1313 ;;		_PWM1_16BIT_Initialize
  1314 ;;		_PWM2_16BIT_Initialize
  1315 ;;		_TMR0_Initialize
  1316 ;;		_TMR1_Initialize
  1317 ;;		_TMR2_Initialize
  1318 ;; This function is called by:
  1319 ;;		_main
  1320 ;; This function uses a non-reentrant model
  1321 ;;
  1322                           
  1323                           	psect	text1
  1324  004A74                     __ptext1:
  1325                           	callstack 0
  1326  004A74                     _SYSTEM_Initialize:
  1327                           	callstack 118
  1328  004A74                     
  1329                           ;mcc_generated_files/mcc.c: 52:     INTERRUPT_Initialize();
  1330  004A74  EC64  F027         	call	_INTERRUPT_Initialize	;wreg free
  1331  004A78                     
  1332                           ;mcc_generated_files/mcc.c: 53:     PMD_Initialize();
  1333  004A78  EC6A  F026         	call	_PMD_Initialize	;wreg free
  1334  004A7C                     
  1335                           ;mcc_generated_files/mcc.c: 54:     ADC_Initialize();
  1336  004A7C  ECBC  F01B         	call	_ADC_Initialize	;wreg free
  1337  004A80                     
  1338                           ;mcc_generated_files/mcc.c: 55:     PIN_MANAGER_Initialize();
  1339  004A80  EC11  F024         	call	_PIN_MANAGER_Initialize	;wreg free
  1340  004A84                     
  1341                           ;mcc_generated_files/mcc.c: 56:     OSCILLATOR_Initialize();
  1342  004A84  EC7E  F026         	call	_OSCILLATOR_Initialize	;wreg free
  1343  004A88                     
  1344                           ;mcc_generated_files/mcc.c: 57:     TMR2_Initialize();
  1345  004A88  EC9E  F025         	call	_TMR2_Initialize	;wreg free
  1346  004A8C                     
  1347                           ;mcc_generated_files/mcc.c: 58:     EXT_INT_Initialize();
  1348  004A8C  EC8A  F026         	call	_EXT_INT_Initialize	;wreg free
  1349  004A90                     
  1350                           ;mcc_generated_files/mcc.c: 59:     TMR1_Initialize();
  1351  004A90  ECFC  F024         	call	_TMR1_Initialize	;wreg free
  1352  004A94                     
  1353                           ;mcc_generated_files/mcc.c: 60:     TMR0_Initialize();
  1354  004A94  EC56  F026         	call	_TMR0_Initialize	;wreg free
  1355  004A98                     
  1356                           ;mcc_generated_files/mcc.c: 61:     PWM2_16BIT_Initialize();
  1357  004A98  EC9D  F023         	call	_PWM2_16BIT_Initialize	;wreg free
  1358  004A9C                     
  1359                           ;mcc_generated_files/mcc.c: 62:     CAN1_Initialize();
  1360  004A9C  ECA6  F024         	call	_CAN1_Initialize	;wreg free
  1361  004AA0                     
  1362                           ;mcc_generated_files/mcc.c: 63:     PWM1_16BIT_Initialize();
  1363  004AA0  ECD7  F023         	call	_PWM1_16BIT_Initialize	;wreg free
  1364  004AA4  0012               	return		;funcret
  1365  004AA6                     __end_of_SYSTEM_Initialize:
  1366                           	callstack 0
  1367                           
  1368 ;; *************** function _TMR2_Initialize *****************
  1369 ;; Defined at:
  1370 ;;		line 65 in file "mcc_generated_files/tmr2.c"
  1371 ;; Parameters:    Size  Location     Type
  1372 ;;		None
  1373 ;; Auto vars:     Size  Location     Type
  1374 ;;		None
  1375 ;; Return value:  Size  Location     Type
  1376 ;;                  1    wreg      void 
  1377 ;; Registers used:
  1378 ;;		wreg, status,2, status,0, cstack
  1379 ;; Tracked objects:
  1380 ;;		On entry : 0/0
  1381 ;;		On exit  : 0/0
  1382 ;;		Unchanged: 0/0
  1383 ;; Data sizes:     COMRAM   BANK5   BANK6   BANK7   BANK8   BANK9  BANK10  BANK11  BANK12  BANK13  BANK14  BANK15  BANK1
      +6  BANK17  BANK18  BANK19  BANK20  BANK21  BANK22  BANK23  BANK24  BANK25  BANK26  BANK27  BANK28  BANK29  BANK30  BANK3
      +1  BANK32  BANK33  BANK34  BANK35  BANK36  BANK37
  1384 ;;      Params:         0       0       0       0       0       0       0       0       0       0       0       0       
      +0       0       0       0       0       0       0       0       0       0       0       0       0       0       0       
      +0       0       0       0       0       0       0
  1385 ;;      Locals:         0       0       0       0       0       0       0       0       0       0       0       0       
      +0       0       0       0       0       0       0       0       0       0       0       0       0       0       0       
      +0       0       0       0       0       0       0
  1386 ;;      Temps:          0       0       0       0       0       0       0       0       0       0       0       0       
      +0       0       0       0       0       0       0       0       0       0       0       0       0       0       0       
      +0       0       0       0       0       0       0
  1387 ;;      Totals:         0       0       0       0       0       0       0       0       0       0       0       0       
      +0       0       0       0       0       0       0       0       0       0       0       0       0       0       0       
      +0       0       0       0       0       0       0
  1388 ;;Total ram usage:        0 bytes
  1389 ;; Hardware stack levels used:    1
  1390 ;; Hardware stack levels required when called:    7
  1391 ;; This function calls:
  1392 ;;		_TMR2_SetInterruptHandler
  1393 ;; This function is called by:
  1394 ;;		_SYSTEM_Initialize
  1395 ;; This function uses a non-reentrant model
  1396 ;;
  1397                           
  1398                           	psect	text2
  1399  004B3C                     __ptext2:
  1400                           	callstack 0
  1401  004B3C                     _TMR2_Initialize:
  1402                           	callstack 119
  1403  004B3C                     
  1404                           ;mcc_generated_files/tmr2.c: 70:     T2CLKCON = 0x01;
  1405  004B3C  0E01               	movlw	1
  1406  004B3E  0103               	movlb	3	; () banked
  1407  004B40  6F26               	movwf	38,b	;volatile
  1408                           
  1409                           ;mcc_generated_files/tmr2.c: 73:     T2HLT = 0x00;
  1410  004B42  0E00               	movlw	0
  1411  004B44  6F25               	movwf	37,b	;volatile
  1412                           
  1413                           ;mcc_generated_files/tmr2.c: 76:     T2RST = 0x00;
  1414  004B46  0E00               	movlw	0
  1415  004B48  6F27               	movwf	39,b	;volatile
  1416                           
  1417                           ;mcc_generated_files/tmr2.c: 79:     T2PR = 0xC2;
  1418  004B4A  0EC2               	movlw	194
  1419  004B4C  6F23               	movwf	35,b	;volatile
  1420                           
  1421                           ;mcc_generated_files/tmr2.c: 82:     T2TMR = 0x00;
  1422  004B4E  0E00               	movlw	0
  1423  004B50  6F22               	movwf	34,b	;volatile
  1424  004B52                     
  1425                           ; BSR set to: 3
  1426                           ;mcc_generated_files/tmr2.c: 85:     PIR3bits.TMR2IF = 0;
  1427  004B52  96B1               	bcf	177,3,c	;volatile
  1428  004B54                     
  1429                           ; BSR set to: 3
  1430                           ;mcc_generated_files/tmr2.c: 88:     PIE3bits.TMR2IE = 1;
  1431  004B54  86A1               	bsf	161,3,c	;volatile
  1432  004B56                     
  1433                           ; BSR set to: 3
  1434                           ;mcc_generated_files/tmr2.c: 91:     TMR2_SetInterruptHandler(TMR2_DefaultInterruptHandl
      +                          er);
  1435  004B56  0EE0               	movlw	low _TMR2_DefaultInterruptHandler
  1436  004B58  0105               	movlb	5	; () banked
  1437  004B5A  6FA9               	movwf	TMR2_SetInterruptHandler@InterruptHandler& (0+255),b
  1438  004B5C  0E4E               	movlw	high _TMR2_DefaultInterruptHandler
  1439  004B5E  6FAA               	movwf	(TMR2_SetInterruptHandler@InterruptHandler+1)& (0+255),b
  1440  004B60  ECD9  F026         	call	_TMR2_SetInterruptHandler	;wreg free
  1441  004B64                     
  1442                           ;mcc_generated_files/tmr2.c: 94:     T2CON = 0xF0;
  1443  004B64  0EF0               	movlw	240
  1444  004B66  0103               	movlb	3	; () banked
  1445  004B68  6F24               	movwf	36,b	;volatile
  1446  004B6A                     
  1447                           ; BSR set to: 3
  1448  004B6A  0012               	return		;funcret
  1449  004B6C                     __end_of_TMR2_Initialize:
  1450                           	callstack 0
  1451                           
  1452 ;; *************** function _TMR2_SetInterruptHandler *****************
  1453 ;; Defined at:
  1454 ;;		line 194 in file "mcc_generated_files/tmr2.c"
  1455 ;; Parameters:    Size  Location     Type
  1456 ;;  InterruptHan    2    0[BANK5 ] PTR FTN()void 
  1457 ;;		 -> TMR2_DefaultInterruptHandler(1), 
  1458 ;; Auto vars:     Size  Location     Type
  1459 ;;		None
  1460 ;; Return value:  Size  Location     Type
  1461 ;;                  1    wreg      void 
  1462 ;; Registers used:
  1463 ;;		wreg, status,2, status,0
  1464 ;; Tracked objects:
  1465 ;;		On entry : 0/0
  1466 ;;		On exit  : 0/0
  1467 ;;		Unchanged: 0/0
  1468 ;; Data sizes:     COMRAM   BANK5   BANK6   BANK7   BANK8   BANK9  BANK10  BANK11  BANK12  BANK13  BANK14  BANK15  BANK1
      +6  BANK17  BANK18  BANK19  BANK20  BANK21  BANK22  BANK23  BANK24  BANK25  BANK26  BANK27  BANK28  BANK29  BANK30  BANK3
      +1  BANK32  BANK33  BANK34  BANK35  BANK36  BANK37
  1469 ;;      Params:         0       2       0       0       0       0       0       0       0       0       0       0       
      +0       0       0       0       0       0       0       0       0       0       0       0       0       0       0       
      +0       0       0       0       0       0       0
  1470 ;;      Locals:         0       0       0       0       0       0       0       0       0       0       0       0       
      +0       0       0       0       0       0       0       0       0       0       0       0       0       0       0       
      +0       0       0       0       0       0       0
  1471 ;;      Temps:          0       0       0       0       0       0       0       0       0       0       0       0       
      +0       0       0       0       0       0       0       0       0       0       0       0       0       0       0       
      +0       0       0       0       0       0       0
  1472 ;;      Totals:         0       2       0       0       0       0       0       0       0       0       0       0       
      +0       0       0       0       0       0       0       0       0       0       0       0       0       0       0       
      +0       0       0       0       0       0       0
  1473 ;;Total ram usage:        2 bytes
  1474 ;; Hardware stack levels used:    1
  1475 ;; Hardware stack levels required when called:    6
  1476 ;; This function calls:
  1477 ;;		Nothing
  1478 ;; This function is called by:
  1479 ;;		_TMR2_Initialize
  1480 ;; This function uses a non-reentrant model
  1481 ;;
  1482                           
  1483                           	psect	text3
  1484  004DB2                     __ptext3:
  1485                           	callstack 0
  1486  004DB2                     _TMR2_SetInterruptHandler:
  1487                           	callstack 119
  1488  004DB2                     
  1489                           ;mcc_generated_files/tmr2.c: 195:     TMR2_InterruptHandler = InterruptHandler;
  1490  004DB2  C5A9  F612         	movff	TMR2_SetInterruptHandler@InterruptHandler,_TMR2_InterruptHandler
  1491  004DB6  C5AA  F613         	movff	TMR2_SetInterruptHandler@InterruptHandler+1,_TMR2_InterruptHandler+1
  1492  004DBA  0012               	return		;funcret
  1493  004DBC                     __end_of_TMR2_SetInterruptHandler:
  1494                           	callstack 0
  1495                           
  1496 ;; *************** function _TMR1_Initialize *****************
  1497 ;; Defined at:
  1498 ;;		line 64 in file "mcc_generated_files/tmr1.c"
  1499 ;; Parameters:    Size  Location     Type
  1500 ;;		None
  1501 ;; Auto vars:     Size  Location     Type
  1502 ;;		None
  1503 ;; Return value:  Size  Location     Type
  1504 ;;                  1    wreg      void 
  1505 ;; Registers used:
  1506 ;;		wreg, status,2, status,0, cstack
  1507 ;; Tracked objects:
  1508 ;;		On entry : 0/0
  1509 ;;		On exit  : 0/0
  1510 ;;		Unchanged: 0/0
  1511 ;; Data sizes:     COMRAM   BANK5   BANK6   BANK7   BANK8   BANK9  BANK10  BANK11  BANK12  BANK13  BANK14  BANK15  BANK1
      +6  BANK17  BANK18  BANK19  BANK20  BANK21  BANK22  BANK23  BANK24  BANK25  BANK26  BANK27  BANK28  BANK29  BANK30  BANK3
      +1  BANK32  BANK33  BANK34  BANK35  BANK36  BANK37
  1512 ;;      Params:         0       0       0       0       0       0       0       0       0       0       0       0       
      +0       0       0       0       0       0       0       0       0       0       0       0       0       0       0       
      +0       0       0       0       0       0       0
  1513 ;;      Locals:         0       0       0       0       0       0       0       0       0       0       0       0       
      +0       0       0       0       0       0       0       0       0       0       0       0       0       0       0       
      +0       0       0       0       0       0       0
  1514 ;;      Temps:          0       2       0       0       0       0       0       0       0       0       0       0       
      +0       0       0       0       0       0       0       0       0       0       0       0       0       0       0       
      +0       0       0       0       0       0       0
  1515 ;;      Totals:         0       2       0       0       0       0       0       0       0       0       0       0       
      +0       0       0       0       0       0       0       0       0       0       0       0       0       0       0       
      +0       0       0       0       0       0       0
  1516 ;;Total ram usage:        2 bytes
  1517 ;; Hardware stack levels used:    1
  1518 ;; Hardware stack levels required when called:    7
  1519 ;; This function calls:
  1520 ;;		_TMR1_SetInterruptHandler
  1521 ;; This function is called by:
  1522 ;;		_SYSTEM_Initialize
  1523 ;; This function uses a non-reentrant model
  1524 ;;
  1525                           
  1526                           	psect	text4
  1527  0049F8                     __ptext4:
  1528                           	callstack 0
  1529  0049F8                     _TMR1_Initialize:
  1530                           	callstack 119
  1531  0049F8                     
  1532                           ;mcc_generated_files/tmr1.c: 69:     T1GCON = 0x00;
  1533  0049F8  0E00               	movlw	0
  1534  0049FA  0103               	movlb	3	; () banked
  1535  0049FC  6F1F               	movwf	31,b	;volatile
  1536                           
  1537                           ;mcc_generated_files/tmr1.c: 72:     T1GATE = 0x00;
  1538  0049FE  0E00               	movlw	0
  1539  004A00  6F20               	movwf	32,b	;volatile
  1540                           
  1541                           ;mcc_generated_files/tmr1.c: 75:     T1CLK = 0x01;
  1542  004A02  0E01               	movlw	1
  1543  004A04  6F21               	movwf	33,b	;volatile
  1544                           
  1545                           ;mcc_generated_files/tmr1.c: 78:     TMR1H = 0xCF;
  1546  004A06  0ECF               	movlw	207
  1547  004A08  6F1D               	movwf	29,b	;volatile
  1548                           
  1549                           ;mcc_generated_files/tmr1.c: 81:     TMR1L = 0x2C;
  1550  004A0A  0E2C               	movlw	44
  1551  004A0C  6F1C               	movwf	28,b	;volatile
  1552  004A0E                     
  1553                           ; BSR set to: 3
  1554                           ;mcc_generated_files/tmr1.c: 84:     PIR3bits.TMR1IF = 0;
  1555  004A0E  98B1               	bcf	177,4,c	;volatile
  1556  004A10                     
  1557                           ; BSR set to: 3
  1558                           ;mcc_generated_files/tmr1.c: 87:     timer1ReloadVal=(uint16_t)((TMR1H << 8) | TMR1L);
  1559  004A10  511C               	movf	28,w,b	;volatile
  1560  004A12  0060 FC74  F5AB    	movff	797,??_TMR1_Initialize	;volatile
  1561  004A18  0105               	movlb	5	; () banked
  1562  004A1A  6BAC               	clrf	(??_TMR1_Initialize+1)& (0+255),b
  1563  004A1C  C5AB  F5AC         	movff	??_TMR1_Initialize,??_TMR1_Initialize+1
  1564  004A20  6BAB               	clrf	??_TMR1_Initialize& (0+255),b
  1565  004A22  11AB               	iorwf	??_TMR1_Initialize& (0+255),w,b
  1566  004A24  6FEC               	movwf	_timer1ReloadVal& (0+255),b	;volatile
  1567  004A26  51AC               	movf	(??_TMR1_Initialize+1)& (0+255),w,b
  1568  004A28  6FED               	movwf	(_timer1ReloadVal+1)& (0+255),b	;volatile
  1569  004A2A                     
  1570                           ; BSR set to: 5
  1571                           ;mcc_generated_files/tmr1.c: 90:     PIE3bits.TMR1IE = 1;
  1572  004A2A  88A1               	bsf	161,4,c	;volatile
  1573  004A2C                     
  1574                           ; BSR set to: 5
  1575                           ;mcc_generated_files/tmr1.c: 93:     TMR1_SetInterruptHandler(TMR1_DefaultInterruptHandl
      +                          er);
  1576  004A2C  0EE2               	movlw	low _TMR1_DefaultInterruptHandler
  1577  004A2E  6FA9               	movwf	TMR1_SetInterruptHandler@InterruptHandler& (0+255),b
  1578  004A30  0E4E               	movlw	high _TMR1_DefaultInterruptHandler
  1579  004A32  6FAA               	movwf	(TMR1_SetInterruptHandler@InterruptHandler+1)& (0+255),b
  1580  004A34  ECDE  F026         	call	_TMR1_SetInterruptHandler	;wreg free
  1581  004A38                     
  1582                           ;mcc_generated_files/tmr1.c: 96:     T1CON = 0x11;
  1583  004A38  0E11               	movlw	17
  1584  004A3A  0103               	movlb	3	; () banked
  1585  004A3C  6F1E               	movwf	30,b	;volatile
  1586  004A3E                     
  1587                           ; BSR set to: 3
  1588  004A3E  0012               	return		;funcret
  1589  004A40                     __end_of_TMR1_Initialize:
  1590                           	callstack 0
  1591                           
  1592 ;; *************** function _TMR1_SetInterruptHandler *****************
  1593 ;; Defined at:
  1594 ;;		line 185 in file "mcc_generated_files/tmr1.c"
  1595 ;; Parameters:    Size  Location     Type
  1596 ;;  InterruptHan    2    0[BANK5 ] PTR FTN()void 
  1597 ;;		 -> TMR1_DefaultInterruptHandler(1), 
  1598 ;; Auto vars:     Size  Location     Type
  1599 ;;		None
  1600 ;; Return value:  Size  Location     Type
  1601 ;;                  1    wreg      void 
  1602 ;; Registers used:
  1603 ;;		wreg, status,2, status,0
  1604 ;; Tracked objects:
  1605 ;;		On entry : 0/0
  1606 ;;		On exit  : 0/0
  1607 ;;		Unchanged: 0/0
  1608 ;; Data sizes:     COMRAM   BANK5   BANK6   BANK7   BANK8   BANK9  BANK10  BANK11  BANK12  BANK13  BANK14  BANK15  BANK1
      +6  BANK17  BANK18  BANK19  BANK20  BANK21  BANK22  BANK23  BANK24  BANK25  BANK26  BANK27  BANK28  BANK29  BANK30  BANK3
      +1  BANK32  BANK33  BANK34  BANK35  BANK36  BANK37
  1609 ;;      Params:         0       2       0       0       0       0       0       0       0       0       0       0       
      +0       0       0       0       0       0       0       0       0       0       0       0       0       0       0       
      +0       0       0       0       0       0       0
  1610 ;;      Locals:         0       0       0       0       0       0       0       0       0       0       0       0       
      +0       0       0       0       0       0       0       0       0       0       0       0       0       0       0       
      +0       0       0       0       0       0       0
  1611 ;;      Temps:          0       0       0       0       0       0       0       0       0       0       0       0       
      +0       0       0       0       0       0       0       0       0       0       0       0       0       0       0       
      +0       0       0       0       0       0       0
  1612 ;;      Totals:         0       2       0       0       0       0       0       0       0       0       0       0       
      +0       0       0       0       0       0       0       0       0       0       0       0       0       0       0       
      +0       0       0       0       0       0       0
  1613 ;;Total ram usage:        2 bytes
  1614 ;; Hardware stack levels used:    1
  1615 ;; Hardware stack levels required when called:    6
  1616 ;; This function calls:
  1617 ;;		Nothing
  1618 ;; This function is called by:
  1619 ;;		_TMR1_Initialize
  1620 ;; This function uses a non-reentrant model
  1621 ;;
  1622                           
  1623                           	psect	text5
  1624  004DBC                     __ptext5:
  1625                           	callstack 0
  1626  004DBC                     _TMR1_SetInterruptHandler:
  1627                           	callstack 119
  1628  004DBC                     
  1629                           ;mcc_generated_files/tmr1.c: 186:     TMR1_InterruptHandler = InterruptHandler;
  1630  004DBC  C5A9  F614         	movff	TMR1_SetInterruptHandler@InterruptHandler,_TMR1_InterruptHandler
  1631  004DC0  C5AA  F615         	movff	TMR1_SetInterruptHandler@InterruptHandler+1,_TMR1_InterruptHandler+1
  1632  004DC4  0012               	return		;funcret
  1633  004DC6                     __end_of_TMR1_SetInterruptHandler:
  1634                           	callstack 0
  1635                           
  1636 ;; *************** function _TMR0_Initialize *****************
  1637 ;; Defined at:
  1638 ;;		line 61 in file "mcc_generated_files/tmr0.c"
  1639 ;; Parameters:    Size  Location     Type
  1640 ;;		None
  1641 ;; Auto vars:     Size  Location     Type
  1642 ;;		None
  1643 ;; Return value:  Size  Location     Type
  1644 ;;                  1    wreg      void 
  1645 ;; Registers used:
  1646 ;;		wreg, status,2, status,0, cstack
  1647 ;; Tracked objects:
  1648 ;;		On entry : 0/0
  1649 ;;		On exit  : 0/0
  1650 ;;		Unchanged: 0/0
  1651 ;; Data sizes:     COMRAM   BANK5   BANK6   BANK7   BANK8   BANK9  BANK10  BANK11  BANK12  BANK13  BANK14  BANK15  BANK1
      +6  BANK17  BANK18  BANK19  BANK20  BANK21  BANK22  BANK23  BANK24  BANK25  BANK26  BANK27  BANK28  BANK29  BANK30  BANK3
      +1  BANK32  BANK33  BANK34  BANK35  BANK36  BANK37
  1652 ;;      Params:         0       0       0       0       0       0       0       0       0       0       0       0       
      +0       0       0       0       0       0       0       0       0       0       0       0       0       0       0       
      +0       0       0       0       0       0       0
  1653 ;;      Locals:         0       0       0       0       0       0       0       0       0       0       0       0       
      +0       0       0       0       0       0       0       0       0       0       0       0       0       0       0       
      +0       0       0       0       0       0       0
  1654 ;;      Temps:          0       0       0       0       0       0       0       0       0       0       0       0       
      +0       0       0       0       0       0       0       0       0       0       0       0       0       0       0       
      +0       0       0       0       0       0       0
  1655 ;;      Totals:         0       0       0       0       0       0       0       0       0       0       0       0       
      +0       0       0       0       0       0       0       0       0       0       0       0       0       0       0       
      +0       0       0       0       0       0       0
  1656 ;;Total ram usage:        0 bytes
  1657 ;; Hardware stack levels used:    1
  1658 ;; Hardware stack levels required when called:    7
  1659 ;; This function calls:
  1660 ;;		_TMR0_SetInterruptHandler
  1661 ;; This function is called by:
  1662 ;;		_SYSTEM_Initialize
  1663 ;; This function uses a non-reentrant model
  1664 ;;
  1665                           
  1666                           	psect	text6
  1667  004CAC                     __ptext6:
  1668                           	callstack 0
  1669  004CAC                     _TMR0_Initialize:
  1670                           	callstack 119
  1671  004CAC                     
  1672                           ;mcc_generated_files/tmr0.c: 66:     T0CON1 = 0x44;
  1673  004CAC  0E44               	movlw	68
  1674  004CAE  0103               	movlb	3	; () banked
  1675  004CB0  6F1B               	movwf	27,b	;volatile
  1676                           
  1677                           ;mcc_generated_files/tmr0.c: 69:     TMR0H = 0x9B;
  1678  004CB2  0E9B               	movlw	155
  1679  004CB4  6F19               	movwf	25,b	;volatile
  1680                           
  1681                           ;mcc_generated_files/tmr0.c: 72:     TMR0L = 0x00;
  1682  004CB6  0E00               	movlw	0
  1683  004CB8  6F18               	movwf	24,b	;volatile
  1684  004CBA                     
  1685                           ; BSR set to: 3
  1686                           ;mcc_generated_files/tmr0.c: 75:     PIR3bits.TMR0IF = 0;
  1687  004CBA  9EB1               	bcf	177,7,c	;volatile
  1688  004CBC                     
  1689                           ; BSR set to: 3
  1690                           ;mcc_generated_files/tmr0.c: 78:     PIE3bits.TMR0IE = 1;
  1691  004CBC  8EA1               	bsf	161,7,c	;volatile
  1692  004CBE                     
  1693                           ; BSR set to: 3
  1694                           ;mcc_generated_files/tmr0.c: 81:     TMR0_SetInterruptHandler(TMR0_DefaultInterruptHandl
      +                          er);
  1695  004CBE  0EE4               	movlw	low _TMR0_DefaultInterruptHandler
  1696  004CC0  0105               	movlb	5	; () banked
  1697  004CC2  6FA9               	movwf	TMR0_SetInterruptHandler@InterruptHandler& (0+255),b
  1698  004CC4  0E4E               	movlw	high _TMR0_DefaultInterruptHandler
  1699  004CC6  6FAA               	movwf	(TMR0_SetInterruptHandler@InterruptHandler+1)& (0+255),b
  1700  004CC8  ECE3  F026         	call	_TMR0_SetInterruptHandler	;wreg free
  1701  004CCC                     
  1702                           ;mcc_generated_files/tmr0.c: 84:     T0CON0 = 0x80;
  1703  004CCC  0E80               	movlw	128
  1704  004CCE  0103               	movlb	3	; () banked
  1705  004CD0  6F1A               	movwf	26,b	;volatile
  1706  004CD2                     
  1707                           ; BSR set to: 3
  1708  004CD2  0012               	return		;funcret
  1709  004CD4                     __end_of_TMR0_Initialize:
  1710                           	callstack 0
  1711                           
  1712 ;; *************** function _TMR0_SetInterruptHandler *****************
  1713 ;; Defined at:
  1714 ;;		line 142 in file "mcc_generated_files/tmr0.c"
  1715 ;; Parameters:    Size  Location     Type
  1716 ;;  InterruptHan    2    0[BANK5 ] PTR FTN()void 
  1717 ;;		 -> TMR0_DefaultInterruptHandler(1), 
  1718 ;; Auto vars:     Size  Location     Type
  1719 ;;		None
  1720 ;; Return value:  Size  Location     Type
  1721 ;;                  1    wreg      void 
  1722 ;; Registers used:
  1723 ;;		wreg, status,2, status,0
  1724 ;; Tracked objects:
  1725 ;;		On entry : 0/0
  1726 ;;		On exit  : 0/0
  1727 ;;		Unchanged: 0/0
  1728 ;; Data sizes:     COMRAM   BANK5   BANK6   BANK7   BANK8   BANK9  BANK10  BANK11  BANK12  BANK13  BANK14  BANK15  BANK1
      +6  BANK17  BANK18  BANK19  BANK20  BANK21  BANK22  BANK23  BANK24  BANK25  BANK26  BANK27  BANK28  BANK29  BANK30  BANK3
      +1  BANK32  BANK33  BANK34  BANK35  BANK36  BANK37
  1729 ;;      Params:         0       2       0       0       0       0       0       0       0       0       0       0       
      +0       0       0       0       0       0       0       0       0       0       0       0       0       0       0       
      +0       0       0       0       0       0       0
  1730 ;;      Locals:         0       0       0       0       0       0       0       0       0       0       0       0       
      +0       0       0       0       0       0       0       0       0       0       0       0       0       0       0       
      +0       0       0       0       0       0       0
  1731 ;;      Temps:          0       0       0       0       0       0       0       0       0       0       0       0       
      +0       0       0       0       0       0       0       0       0       0       0       0       0       0       0       
      +0       0       0       0       0       0       0
  1732 ;;      Totals:         0       2       0       0       0       0       0       0       0       0       0       0       
      +0       0       0       0       0       0       0       0       0       0       0       0       0       0       0       
      +0       0       0       0       0       0       0
  1733 ;;Total ram usage:        2 bytes
  1734 ;; Hardware stack levels used:    1
  1735 ;; Hardware stack levels required when called:    6
  1736 ;; This function calls:
  1737 ;;		Nothing
  1738 ;; This function is called by:
  1739 ;;		_TMR0_Initialize
  1740 ;; This function uses a non-reentrant model
  1741 ;;
  1742                           
  1743                           	psect	text7
  1744  004DC6                     __ptext7:
  1745                           	callstack 0
  1746  004DC6                     _TMR0_SetInterruptHandler:
  1747                           	callstack 119
  1748  004DC6                     
  1749                           ;mcc_generated_files/tmr0.c: 143:     TMR0_InterruptHandler = InterruptHandler;
  1750  004DC6  C5A9  F610         	movff	TMR0_SetInterruptHandler@InterruptHandler,_TMR0_InterruptHandler
  1751  004DCA  C5AA  F611         	movff	TMR0_SetInterruptHandler@InterruptHandler+1,_TMR0_InterruptHandler+1
  1752  004DCE  0012               	return		;funcret
  1753  004DD0                     __end_of_TMR0_SetInterruptHandler:
  1754                           	callstack 0
  1755                           
  1756 ;; *************** function _PWM2_16BIT_Initialize *****************
  1757 ;; Defined at:
  1758 ;;		line 63 in file "mcc_generated_files/pwm2_16bit.c"
  1759 ;; Parameters:    Size  Location     Type
  1760 ;;		None
  1761 ;; Auto vars:     Size  Location     Type
  1762 ;;		None
  1763 ;; Return value:  Size  Location     Type
  1764 ;;                  1    wreg      void 
  1765 ;; Registers used:
  1766 ;;		wreg, status,2, status,0, cstack
  1767 ;; Tracked objects:
  1768 ;;		On entry : 0/0
  1769 ;;		On exit  : 0/0
  1770 ;;		Unchanged: 0/0
  1771 ;; Data sizes:     COMRAM   BANK5   BANK6   BANK7   BANK8   BANK9  BANK10  BANK11  BANK12  BANK13  BANK14  BANK15  BANK1
      +6  BANK17  BANK18  BANK19  BANK20  BANK21  BANK22  BANK23  BANK24  BANK25  BANK26  BANK27  BANK28  BANK29  BANK30  BANK3
      +1  BANK32  BANK33  BANK34  BANK35  BANK36  BANK37
  1772 ;;      Params:         0       0       0       0       0       0       0       0       0       0       0       0       
      +0       0       0       0       0       0       0       0       0       0       0       0       0       0       0       
      +0       0       0       0       0       0       0
  1773 ;;      Locals:         0       0       0       0       0       0       0       0       0       0       0       0       
      +0       0       0       0       0       0       0       0       0       0       0       0       0       0       0       
      +0       0       0       0       0       0       0
  1774 ;;      Temps:          0       0       0       0       0       0       0       0       0       0       0       0       
      +0       0       0       0       0       0       0       0       0       0       0       0       0       0       0       
      +0       0       0       0       0       0       0
  1775 ;;      Totals:         0       0       0       0       0       0       0       0       0       0       0       0       
      +0       0       0       0       0       0       0       0       0       0       0       0       0       0       0       
      +0       0       0       0       0       0       0
  1776 ;;Total ram usage:        0 bytes
  1777 ;; Hardware stack levels used:    1
  1778 ;; Hardware stack levels required when called:    7
  1779 ;; This function calls:
  1780 ;;		_PWM2_16BIT_Period_SetInterruptHandler
  1781 ;;		_PWM2_16BIT_Slice1Output1_SetInterruptHandler
  1782 ;;		_PWM2_16BIT_Slice1Output2_SetInterruptHandler
  1783 ;; This function is called by:
  1784 ;;		_SYSTEM_Initialize
  1785 ;; This function uses a non-reentrant model
  1786 ;;
  1787                           
  1788                           	psect	text8
  1789  00473A                     __ptext8:
  1790                           	callstack 0
  1791  00473A                     _PWM2_16BIT_Initialize:
  1792                           	callstack 119
  1793  00473A                     
  1794                           ;mcc_generated_files/pwm2_16bit.c: 66:     PWM2ERS = 0x00;
  1795  00473A  0E00               	movlw	0
  1796  00473C  6E6F               	movwf	111,c	;volatile
  1797                           
  1798                           ;mcc_generated_files/pwm2_16bit.c: 69:     PWM2CLK = 0x02;
  1799  00473E  0E02               	movlw	2
  1800  004740  6E70               	movwf	112,c	;volatile
  1801                           
  1802                           ;mcc_generated_files/pwm2_16bit.c: 72:     PWM2LDS = 0x00;
  1803  004742  0E00               	movlw	0
  1804  004744  6E71               	movwf	113,c	;volatile
  1805                           
  1806                           ;mcc_generated_files/pwm2_16bit.c: 75:     PWM2PRL = 0x50;
  1807  004746  0E50               	movlw	80
  1808  004748  6E72               	movwf	114,c	;volatile
  1809                           
  1810                           ;mcc_generated_files/pwm2_16bit.c: 78:     PWM2PRH = 0x0F;
  1811  00474A  0E0F               	movlw	15
  1812  00474C  6E73               	movwf	115,c	;volatile
  1813                           
  1814                           ;mcc_generated_files/pwm2_16bit.c: 81:     PWM2CPRE = 0xFE;
  1815  00474E  0EFE               	movlw	254
  1816  004750  6E74               	movwf	116,c	;volatile
  1817                           
  1818                           ;mcc_generated_files/pwm2_16bit.c: 84:     PWM2PIPOS = 0x00;
  1819  004752  0E00               	movlw	0
  1820  004754  6E75               	movwf	117,c	;volatile
  1821                           
  1822                           ;mcc_generated_files/pwm2_16bit.c: 87:     PWM2GIR = 0x00;
  1823  004756  0E00               	movlw	0
  1824  004758  6E76               	movwf	118,c	;volatile
  1825                           
  1826                           ;mcc_generated_files/pwm2_16bit.c: 90:     PWM2GIE = 0x00;
  1827  00475A  0E00               	movlw	0
  1828  00475C  6E77               	movwf	119,c	;volatile
  1829                           
  1830                           ;mcc_generated_files/pwm2_16bit.c: 93:     PWM2S1CFG = 0x00;
  1831  00475E  0E00               	movlw	0
  1832  004760  6E79               	movwf	121,c	;volatile
  1833                           
  1834                           ;mcc_generated_files/pwm2_16bit.c: 96:     PWM2S1P1L = 0x0D;
  1835  004762  0E0D               	movlw	13
  1836  004764  6E7A               	movwf	122,c	;volatile
  1837                           
  1838                           ;mcc_generated_files/pwm2_16bit.c: 99:     PWM2S1P1H = 0x05;
  1839  004766  0E05               	movlw	5
  1840  004768  6E7B               	movwf	123,c	;volatile
  1841                           
  1842                           ;mcc_generated_files/pwm2_16bit.c: 102:     PWM2S1P2L = 0xA8;
  1843  00476A  0EA8               	movlw	168
  1844  00476C  6E7C               	movwf	124,c	;volatile
  1845                           
  1846                           ;mcc_generated_files/pwm2_16bit.c: 105:     PWM2S1P2H = 0x07;
  1847  00476E  0E07               	movlw	7
  1848  004770  6E7D               	movwf	125,c	;volatile
  1849  004772                     
  1850                           ;mcc_generated_files/pwm2_16bit.c: 108:     PIR5bits.PWM2PIF = 0;
  1851  004772  9CB3               	bcf	179,6,c	;volatile
  1852  004774                     
  1853                           ;mcc_generated_files/pwm2_16bit.c: 111:     PIR5bits.PWM2IF = 0;
  1854  004774  9EB3               	bcf	179,7,c	;volatile
  1855  004776                     
  1856                           ;mcc_generated_files/pwm2_16bit.c: 114:     PWM2GIRbits.S1P1IF = 0;
  1857  004776  9076               	bcf	118,0,c	;volatile
  1858  004778                     
  1859                           ;mcc_generated_files/pwm2_16bit.c: 117:     PWM2GIRbits.S1P2IF = 0;
  1860  004778  9276               	bcf	118,1,c	;volatile
  1861  00477A                     
  1862                           ;mcc_generated_files/pwm2_16bit.c: 120:     PIE5bits.PWM2IE = 0;
  1863  00477A  9EA3               	bcf	163,7,c	;volatile
  1864  00477C                     
  1865                           ;mcc_generated_files/pwm2_16bit.c: 123:     PIE5bits.PWM2PIE = 0;
  1866  00477C  9CA3               	bcf	163,6,c	;volatile
  1867  00477E                     
  1868                           ;mcc_generated_files/pwm2_16bit.c: 126:     PWM2_16BIT_Slice1Output1_SetInterruptHandler
      +                          (PWM2_16BIT_Slice1Output1_DefaultInterruptHandler);
  1869  00477E  0E00               	movlw	0
  1870  004780  0105               	movlb	5	; () banked
  1871  004782  6FA9               	movwf	PWM2_16BIT_Slice1Output1_SetInterruptHandler@InterruptHandler& (0+255),b
  1872  004784  0E00               	movlw	0
  1873  004786  6FAA               	movwf	(PWM2_16BIT_Slice1Output1_SetInterruptHandler@InterruptHandler+1)& (0+255),b
  1874  004788  ECED  F026         	call	_PWM2_16BIT_Slice1Output1_SetInterruptHandler	;wreg free
  1875  00478C                     
  1876                           ;mcc_generated_files/pwm2_16bit.c: 127:     PWM2_16BIT_Slice1Output2_SetInterruptHandler
      +                          (PWM2_16BIT_Slice1Output2_DefaultInterruptHandler);
  1877  00478C  0E00               	movlw	0
  1878  00478E  0105               	movlb	5	; () banked
  1879  004790  6FA9               	movwf	PWM2_16BIT_Slice1Output2_SetInterruptHandler@InterruptHandler& (0+255),b
  1880  004792  0E00               	movlw	0
  1881  004794  6FAA               	movwf	(PWM2_16BIT_Slice1Output2_SetInterruptHandler@InterruptHandler+1)& (0+255),b
  1882  004796  ECE8  F026         	call	_PWM2_16BIT_Slice1Output2_SetInterruptHandler	;wreg free
  1883  00479A                     
  1884                           ;mcc_generated_files/pwm2_16bit.c: 128:     PWM2_16BIT_Period_SetInterruptHandler(PWM2_1
      +                          6BIT_Period_DefaultInterruptHandler);
  1885  00479A  0E00               	movlw	0
  1886  00479C  0105               	movlb	5	; () banked
  1887  00479E  6FA9               	movwf	PWM2_16BIT_Period_SetInterruptHandler@InterruptHandler& (0+255),b
  1888  0047A0  0E00               	movlw	0
  1889  0047A2  6FAA               	movwf	(PWM2_16BIT_Period_SetInterruptHandler@InterruptHandler+1)& (0+255),b
  1890  0047A4  ECF2  F026         	call	_PWM2_16BIT_Period_SetInterruptHandler	;wreg free
  1891  0047A8                     
  1892                           ;mcc_generated_files/pwm2_16bit.c: 131:     PWM2CON = 0x80;
  1893  0047A8  0E80               	movlw	128
  1894  0047AA  6E78               	movwf	120,c	;volatile
  1895  0047AC  0012               	return		;funcret
  1896  0047AE                     __end_of_PWM2_16BIT_Initialize:
  1897                           	callstack 0
  1898                           
  1899 ;; *************** function _PWM2_16BIT_Slice1Output2_SetInterruptHandler *****************
  1900 ;; Defined at:
  1901 ;;		line 197 in file "mcc_generated_files/pwm2_16bit.c"
  1902 ;; Parameters:    Size  Location     Type
  1903 ;;  InterruptHan    2    0[BANK5 ] PTR FTN()void 
  1904 ;;		 -> PWM2_16BIT_Slice1Output2_DefaultInterruptHandler(1), 
  1905 ;; Auto vars:     Size  Location     Type
  1906 ;;		None
  1907 ;; Return value:  Size  Location     Type
  1908 ;;                  1    wreg      void 
  1909 ;; Registers used:
  1910 ;;		wreg, status,2, status,0
  1911 ;; Tracked objects:
  1912 ;;		On entry : 0/0
  1913 ;;		On exit  : 0/0
  1914 ;;		Unchanged: 0/0
  1915 ;; Data sizes:     COMRAM   BANK5   BANK6   BANK7   BANK8   BANK9  BANK10  BANK11  BANK12  BANK13  BANK14  BANK15  BANK1
      +6  BANK17  BANK18  BANK19  BANK20  BANK21  BANK22  BANK23  BANK24  BANK25  BANK26  BANK27  BANK28  BANK29  BANK30  BANK3
      +1  BANK32  BANK33  BANK34  BANK35  BANK36  BANK37
  1916 ;;      Params:         0       2       0       0       0       0       0       0       0       0       0       0       
      +0       0       0       0       0       0       0       0       0       0       0       0       0       0       0       
      +0       0       0       0       0       0       0
  1917 ;;      Locals:         0       0       0       0       0       0       0       0       0       0       0       0       
      +0       0       0       0       0       0       0       0       0       0       0       0       0       0       0       
      +0       0       0       0       0       0       0
  1918 ;;      Temps:          0       0       0       0       0       0       0       0       0       0       0       0       
      +0       0       0       0       0       0       0       0       0       0       0       0       0       0       0       
      +0       0       0       0       0       0       0
  1919 ;;      Totals:         0       2       0       0       0       0       0       0       0       0       0       0       
      +0       0       0       0       0       0       0       0       0       0       0       0       0       0       0       
      +0       0       0       0       0       0       0
  1920 ;;Total ram usage:        2 bytes
  1921 ;; Hardware stack levels used:    1
  1922 ;; Hardware stack levels required when called:    6
  1923 ;; This function calls:
  1924 ;;		Nothing
  1925 ;; This function is called by:
  1926 ;;		_PWM2_16BIT_Initialize
  1927 ;; This function uses a non-reentrant model
  1928 ;;
  1929                           
  1930                           	psect	text9
  1931  004DD0                     __ptext9:
  1932                           	callstack 0
  1933  004DD0                     _PWM2_16BIT_Slice1Output2_SetInterruptHandler:
  1934                           	callstack 119
  1935  004DD0                     
  1936                           ;mcc_generated_files/pwm2_16bit.c: 197: void PWM2_16BIT_Slice1Output2_SetInterruptHandle
      +                          r(void (* InterruptHandler)(void));mcc_generated_files/pwm2_16bit.c: 198: {;mcc_generate
      +                          d_files/pwm2_16bit.c: 199:     PWM2_16BIT_Slice1Output2_InterruptHandler = InterruptHand
      +                          ler;
  1937  004DD0  C5A9  F618         	movff	PWM2_16BIT_Slice1Output2_SetInterruptHandler@InterruptHandler,_PWM2_16BIT_Slice1O
      +                          utput2_InterruptHandler
  1938  004DD4  C5AA  F619         	movff	PWM2_16BIT_Slice1Output2_SetInterruptHandler@InterruptHandler+1,_PWM2_16BIT_Slice
      +                          1Output2_InterruptHandler+1
  1939  004DD8  0012               	return		;funcret
  1940  004DDA                     __end_of_PWM2_16BIT_Slice1Output2_SetInterruptHandler:
  1941                           	callstack 0
  1942                           
  1943 ;; *************** function _PWM2_16BIT_Slice1Output1_SetInterruptHandler *****************
  1944 ;; Defined at:
  1945 ;;		line 192 in file "mcc_generated_files/pwm2_16bit.c"
  1946 ;; Parameters:    Size  Location     Type
  1947 ;;  InterruptHan    2    0[BANK5 ] PTR FTN()void 
  1948 ;;		 -> PWM2_16BIT_Slice1Output1_DefaultInterruptHandler(1), 
  1949 ;; Auto vars:     Size  Location     Type
  1950 ;;		None
  1951 ;; Return value:  Size  Location     Type
  1952 ;;                  1    wreg      void 
  1953 ;; Registers used:
  1954 ;;		wreg, status,2, status,0
  1955 ;; Tracked objects:
  1956 ;;		On entry : 0/0
  1957 ;;		On exit  : 0/0
  1958 ;;		Unchanged: 0/0
  1959 ;; Data sizes:     COMRAM   BANK5   BANK6   BANK7   BANK8   BANK9  BANK10  BANK11  BANK12  BANK13  BANK14  BANK15  BANK1
      +6  BANK17  BANK18  BANK19  BANK20  BANK21  BANK22  BANK23  BANK24  BANK25  BANK26  BANK27  BANK28  BANK29  BANK30  BANK3
      +1  BANK32  BANK33  BANK34  BANK35  BANK36  BANK37
  1960 ;;      Params:         0       2       0       0       0       0       0       0       0       0       0       0       
      +0       0       0       0       0       0       0       0       0       0       0       0       0       0       0       
      +0       0       0       0       0       0       0
  1961 ;;      Locals:         0       0       0       0       0       0       0       0       0       0       0       0       
      +0       0       0       0       0       0       0       0       0       0       0       0       0       0       0       
      +0       0       0       0       0       0       0
  1962 ;;      Temps:          0       0       0       0       0       0       0       0       0       0       0       0       
      +0       0       0       0       0       0       0       0       0       0       0       0       0       0       0       
      +0       0       0       0       0       0       0
  1963 ;;      Totals:         0       2       0       0       0       0       0       0       0       0       0       0       
      +0       0       0       0       0       0       0       0       0       0       0       0       0       0       0       
      +0       0       0       0       0       0       0
  1964 ;;Total ram usage:        2 bytes
  1965 ;; Hardware stack levels used:    1
  1966 ;; Hardware stack levels required when called:    6
  1967 ;; This function calls:
  1968 ;;		Nothing
  1969 ;; This function is called by:
  1970 ;;		_PWM2_16BIT_Initialize
  1971 ;; This function uses a non-reentrant model
  1972 ;;
  1973                           
  1974                           	psect	text10
  1975  004DDA                     __ptext10:
  1976                           	callstack 0
  1977  004DDA                     _PWM2_16BIT_Slice1Output1_SetInterruptHandler:
  1978                           	callstack 119
  1979  004DDA                     
  1980                           ;mcc_generated_files/pwm2_16bit.c: 192: void PWM2_16BIT_Slice1Output1_SetInterruptHandle
      +                          r(void (* InterruptHandler)(void));mcc_generated_files/pwm2_16bit.c: 193: {;mcc_generate
      +                          d_files/pwm2_16bit.c: 194:     PWM2_16BIT_Slice1Output1_InterruptHandler = InterruptHand
      +                          ler;
  1981  004DDA  C5A9  F5EE         	movff	PWM2_16BIT_Slice1Output1_SetInterruptHandler@InterruptHandler,_PWM2_16BIT_Slice1O
      +                          utput1_InterruptHandler
  1982  004DDE  C5AA  F5EF         	movff	PWM2_16BIT_Slice1Output1_SetInterruptHandler@InterruptHandler+1,_PWM2_16BIT_Slice
      +                          1Output1_InterruptHandler+1
  1983  004DE2  0012               	return		;funcret
  1984  004DE4                     __end_of_PWM2_16BIT_Slice1Output1_SetInterruptHandler:
  1985                           	callstack 0
  1986                           
  1987 ;; *************** function _PWM2_16BIT_Period_SetInterruptHandler *****************
  1988 ;; Defined at:
  1989 ;;		line 202 in file "mcc_generated_files/pwm2_16bit.c"
  1990 ;; Parameters:    Size  Location     Type
  1991 ;;  InterruptHan    2    0[BANK5 ] PTR FTN()void 
  1992 ;;		 -> PWM2_16BIT_Period_DefaultInterruptHandler(1), 
  1993 ;; Auto vars:     Size  Location     Type
  1994 ;;		None
  1995 ;; Return value:  Size  Location     Type
  1996 ;;                  1    wreg      void 
  1997 ;; Registers used:
  1998 ;;		wreg, status,2, status,0
  1999 ;; Tracked objects:
  2000 ;;		On entry : 0/0
  2001 ;;		On exit  : 0/0
  2002 ;;		Unchanged: 0/0
  2003 ;; Data sizes:     COMRAM   BANK5   BANK6   BANK7   BANK8   BANK9  BANK10  BANK11  BANK12  BANK13  BANK14  BANK15  BANK1
      +6  BANK17  BANK18  BANK19  BANK20  BANK21  BANK22  BANK23  BANK24  BANK25  BANK26  BANK27  BANK28  BANK29  BANK30  BANK3
      +1  BANK32  BANK33  BANK34  BANK35  BANK36  BANK37
  2004 ;;      Params:         0       2       0       0       0       0       0       0       0       0       0       0       
      +0       0       0       0       0       0       0       0       0       0       0       0       0       0       0       
      +0       0       0       0       0       0       0
  2005 ;;      Locals:         0       0       0       0       0       0       0       0       0       0       0       0       
      +0       0       0       0       0       0       0       0       0       0       0       0       0       0       0       
      +0       0       0       0       0       0       0
  2006 ;;      Temps:          0       0       0       0       0       0       0       0       0       0       0       0       
      +0       0       0       0       0       0       0       0       0       0       0       0       0       0       0       
      +0       0       0       0       0       0       0
  2007 ;;      Totals:         0       2       0       0       0       0       0       0       0       0       0       0       
      +0       0       0       0       0       0       0       0       0       0       0       0       0       0       0       
      +0       0       0       0       0       0       0
  2008 ;;Total ram usage:        2 bytes
  2009 ;; Hardware stack levels used:    1
  2010 ;; Hardware stack levels required when called:    6
  2011 ;; This function calls:
  2012 ;;		Nothing
  2013 ;; This function is called by:
  2014 ;;		_PWM2_16BIT_Initialize
  2015 ;; This function uses a non-reentrant model
  2016 ;;
  2017                           
  2018                           	psect	text11
  2019  004DE4                     __ptext11:
  2020                           	callstack 0
  2021  004DE4                     _PWM2_16BIT_Period_SetInterruptHandler:
  2022                           	callstack 119
  2023  004DE4                     
  2024                           ;mcc_generated_files/pwm2_16bit.c: 202: void PWM2_16BIT_Period_SetInterruptHandler(void 
      +                          (* InterruptHandler)(void));mcc_generated_files/pwm2_16bit.c: 203: {;mcc_generated_files
      +                          /pwm2_16bit.c: 204:     PWM2_16BIT_Period_InterruptHandler = InterruptHandler;
  2025  004DE4  C5A9  F616         	movff	PWM2_16BIT_Period_SetInterruptHandler@InterruptHandler,_PWM2_16BIT_Period_Interru
      +                          ptHandler
  2026  004DE8  C5AA  F617         	movff	PWM2_16BIT_Period_SetInterruptHandler@InterruptHandler+1,_PWM2_16BIT_Period_Inter
      +                          ruptHandler+1
  2027  004DEC  0012               	return		;funcret
  2028  004DEE                     __end_of_PWM2_16BIT_Period_SetInterruptHandler:
  2029                           	callstack 0
  2030                           
  2031 ;; *************** function _PWM1_16BIT_Initialize *****************
  2032 ;; Defined at:
  2033 ;;		line 63 in file "mcc_generated_files/pwm1_16bit.c"
  2034 ;; Parameters:    Size  Location     Type
  2035 ;;		None
  2036 ;; Auto vars:     Size  Location     Type
  2037 ;;		None
  2038 ;; Return value:  Size  Location     Type
  2039 ;;                  1    wreg      void 
  2040 ;; Registers used:
  2041 ;;		wreg, status,2, status,0, cstack
  2042 ;; Tracked objects:
  2043 ;;		On entry : 0/0
  2044 ;;		On exit  : 0/0
  2045 ;;		Unchanged: 0/0
  2046 ;; Data sizes:     COMRAM   BANK5   BANK6   BANK7   BANK8   BANK9  BANK10  BANK11  BANK12  BANK13  BANK14  BANK15  BANK1
      +6  BANK17  BANK18  BANK19  BANK20  BANK21  BANK22  BANK23  BANK24  BANK25  BANK26  BANK27  BANK28  BANK29  BANK30  BANK3
      +1  BANK32  BANK33  BANK34  BANK35  BANK36  BANK37
  2047 ;;      Params:         0       0       0       0       0       0       0       0       0       0       0       0       
      +0       0       0       0       0       0       0       0       0       0       0       0       0       0       0       
      +0       0       0       0       0       0       0
  2048 ;;      Locals:         0       0       0       0       0       0       0       0       0       0       0       0       
      +0       0       0       0       0       0       0       0       0       0       0       0       0       0       0       
      +0       0       0       0       0       0       0
  2049 ;;      Temps:          0       0       0       0       0       0       0       0       0       0       0       0       
      +0       0       0       0       0       0       0       0       0       0       0       0       0       0       0       
      +0       0       0       0       0       0       0
  2050 ;;      Totals:         0       0       0       0       0       0       0       0       0       0       0       0       
      +0       0       0       0       0       0       0       0       0       0       0       0       0       0       0       
      +0       0       0       0       0       0       0
  2051 ;;Total ram usage:        0 bytes
  2052 ;; Hardware stack levels used:    1
  2053 ;; Hardware stack levels required when called:    7
  2054 ;; This function calls:
  2055 ;;		_PWM1_16BIT_Period_SetInterruptHandler
  2056 ;;		_PWM1_16BIT_Slice1Output1_SetInterruptHandler
  2057 ;;		_PWM1_16BIT_Slice1Output2_SetInterruptHandler
  2058 ;; This function is called by:
  2059 ;;		_SYSTEM_Initialize
  2060 ;; This function uses a non-reentrant model
  2061 ;;
  2062                           
  2063                           	psect	text12
  2064  0047AE                     __ptext12:
  2065                           	callstack 0
  2066  0047AE                     _PWM1_16BIT_Initialize:
  2067                           	callstack 119
  2068  0047AE                     
  2069                           ;mcc_generated_files/pwm1_16bit.c: 66:     PWM1ERS = 0x00;
  2070  0047AE  0E00               	movlw	0
  2071  0047B0  6E60               	movwf	96,c	;volatile
  2072                           
  2073                           ;mcc_generated_files/pwm1_16bit.c: 69:     PWM1CLK = 0x02;
  2074  0047B2  0E02               	movlw	2
  2075  0047B4  6E61               	movwf	97,c	;volatile
  2076                           
  2077                           ;mcc_generated_files/pwm1_16bit.c: 72:     PWM1LDS = 0x00;
  2078  0047B6  0E00               	movlw	0
  2079  0047B8  6E62               	movwf	98,c	;volatile
  2080                           
  2081                           ;mcc_generated_files/pwm1_16bit.c: 75:     PWM1PRL = 0x3D;
  2082  0047BA  0E3D               	movlw	61
  2083  0047BC  6E63               	movwf	99,c	;volatile
  2084                           
  2085                           ;mcc_generated_files/pwm1_16bit.c: 78:     PWM1PRH = 0x00;
  2086  0047BE  0E00               	movlw	0
  2087  0047C0  6E64               	movwf	100,c	;volatile
  2088                           
  2089                           ;mcc_generated_files/pwm1_16bit.c: 81:     PWM1CPRE = 0xFE;
  2090  0047C2  0EFE               	movlw	254
  2091  0047C4  6E65               	movwf	101,c	;volatile
  2092                           
  2093                           ;mcc_generated_files/pwm1_16bit.c: 84:     PWM1PIPOS = 0x00;
  2094  0047C6  0E00               	movlw	0
  2095  0047C8  6E66               	movwf	102,c	;volatile
  2096                           
  2097                           ;mcc_generated_files/pwm1_16bit.c: 87:     PWM1GIR = 0x00;
  2098  0047CA  0E00               	movlw	0
  2099  0047CC  6E67               	movwf	103,c	;volatile
  2100                           
  2101                           ;mcc_generated_files/pwm1_16bit.c: 90:     PWM1GIE = 0x00;
  2102  0047CE  0E00               	movlw	0
  2103  0047D0  6E68               	movwf	104,c	;volatile
  2104                           
  2105                           ;mcc_generated_files/pwm1_16bit.c: 93:     PWM1S1CFG = 0x00;
  2106  0047D2  0E00               	movlw	0
  2107  0047D4  6E6A               	movwf	106,c	;volatile
  2108                           
  2109                           ;mcc_generated_files/pwm1_16bit.c: 96:     PWM1S1P1L = 0x1F;
  2110  0047D6  0E1F               	movlw	31
  2111  0047D8  6E6B               	movwf	107,c	;volatile
  2112                           
  2113                           ;mcc_generated_files/pwm1_16bit.c: 99:     PWM1S1P1H = 0x00;
  2114  0047DA  0E00               	movlw	0
  2115  0047DC  6E6C               	movwf	108,c	;volatile
  2116                           
  2117                           ;mcc_generated_files/pwm1_16bit.c: 102:     PWM1S1P2L = 0x1F;
  2118  0047DE  0E1F               	movlw	31
  2119  0047E0  6E6D               	movwf	109,c	;volatile
  2120                           
  2121                           ;mcc_generated_files/pwm1_16bit.c: 105:     PWM1S1P2H = 0x00;
  2122  0047E2  0E00               	movlw	0
  2123  0047E4  6E6E               	movwf	110,c	;volatile
  2124  0047E6                     
  2125                           ;mcc_generated_files/pwm1_16bit.c: 108:     PIR4bits.PWM1PIF = 0;
  2126  0047E6  9CB2               	bcf	178,6,c	;volatile
  2127  0047E8                     
  2128                           ;mcc_generated_files/pwm1_16bit.c: 111:     PIR4bits.PWM1IF = 0;
  2129  0047E8  9EB2               	bcf	178,7,c	;volatile
  2130  0047EA                     
  2131                           ;mcc_generated_files/pwm1_16bit.c: 114:     PWM1GIRbits.S1P1IF = 0;
  2132  0047EA  9067               	bcf	103,0,c	;volatile
  2133  0047EC                     
  2134                           ;mcc_generated_files/pwm1_16bit.c: 117:     PWM1GIRbits.S1P2IF = 0;
  2135  0047EC  9267               	bcf	103,1,c	;volatile
  2136  0047EE                     
  2137                           ;mcc_generated_files/pwm1_16bit.c: 120:     PIE4bits.PWM1IE = 0;
  2138  0047EE  9EA2               	bcf	162,7,c	;volatile
  2139  0047F0                     
  2140                           ;mcc_generated_files/pwm1_16bit.c: 123:     PIE4bits.PWM1PIE = 0;
  2141  0047F0  9CA2               	bcf	162,6,c	;volatile
  2142  0047F2                     
  2143                           ;mcc_generated_files/pwm1_16bit.c: 126:     PWM1_16BIT_Slice1Output1_SetInterruptHandler
      +                          (PWM1_16BIT_Slice1Output1_DefaultInterruptHandler);
  2144  0047F2  0E00               	movlw	0
  2145  0047F4  0105               	movlb	5	; () banked
  2146  0047F6  6FA9               	movwf	PWM1_16BIT_Slice1Output1_SetInterruptHandler@InterruptHandler& (0+255),b
  2147  0047F8  0E00               	movlw	0
  2148  0047FA  6FAA               	movwf	(PWM1_16BIT_Slice1Output1_SetInterruptHandler@InterruptHandler+1)& (0+255),b
  2149  0047FC  ECFC  F026         	call	_PWM1_16BIT_Slice1Output1_SetInterruptHandler	;wreg free
  2150  004800                     
  2151                           ;mcc_generated_files/pwm1_16bit.c: 127:     PWM1_16BIT_Slice1Output2_SetInterruptHandler
      +                          (PWM1_16BIT_Slice1Output2_DefaultInterruptHandler);
  2152  004800  0E00               	movlw	0
  2153  004802  0105               	movlb	5	; () banked
  2154  004804  6FA9               	movwf	PWM1_16BIT_Slice1Output2_SetInterruptHandler@InterruptHandler& (0+255),b
  2155  004806  0E00               	movlw	0
  2156  004808  6FAA               	movwf	(PWM1_16BIT_Slice1Output2_SetInterruptHandler@InterruptHandler+1)& (0+255),b
  2157  00480A  ECF7  F026         	call	_PWM1_16BIT_Slice1Output2_SetInterruptHandler	;wreg free
  2158  00480E                     
  2159                           ;mcc_generated_files/pwm1_16bit.c: 128:     PWM1_16BIT_Period_SetInterruptHandler(PWM1_1
      +                          6BIT_Period_DefaultInterruptHandler);
  2160  00480E  0E00               	movlw	0
  2161  004810  0105               	movlb	5	; () banked
  2162  004812  6FA9               	movwf	PWM1_16BIT_Period_SetInterruptHandler@InterruptHandler& (0+255),b
  2163  004814  0E00               	movlw	0
  2164  004816  6FAA               	movwf	(PWM1_16BIT_Period_SetInterruptHandler@InterruptHandler+1)& (0+255),b
  2165  004818  EC01  F027         	call	_PWM1_16BIT_Period_SetInterruptHandler	;wreg free
  2166  00481C                     
  2167                           ;mcc_generated_files/pwm1_16bit.c: 131:     PWM1CON = 0x80;
  2168  00481C  0E80               	movlw	128
  2169  00481E  6E69               	movwf	105,c	;volatile
  2170  004820  0012               	return		;funcret
  2171  004822                     __end_of_PWM1_16BIT_Initialize:
  2172                           	callstack 0
  2173                           
  2174 ;; *************** function _PWM1_16BIT_Slice1Output2_SetInterruptHandler *****************
  2175 ;; Defined at:
  2176 ;;		line 197 in file "mcc_generated_files/pwm1_16bit.c"
  2177 ;; Parameters:    Size  Location     Type
  2178 ;;  InterruptHan    2    0[BANK5 ] PTR FTN()void 
  2179 ;;		 -> PWM1_16BIT_Slice1Output2_DefaultInterruptHandler(1), 
  2180 ;; Auto vars:     Size  Location     Type
  2181 ;;		None
  2182 ;; Return value:  Size  Location     Type
  2183 ;;                  1    wreg      void 
  2184 ;; Registers used:
  2185 ;;		wreg, status,2, status,0
  2186 ;; Tracked objects:
  2187 ;;		On entry : 0/0
  2188 ;;		On exit  : 0/0
  2189 ;;		Unchanged: 0/0
  2190 ;; Data sizes:     COMRAM   BANK5   BANK6   BANK7   BANK8   BANK9  BANK10  BANK11  BANK12  BANK13  BANK14  BANK15  BANK1
      +6  BANK17  BANK18  BANK19  BANK20  BANK21  BANK22  BANK23  BANK24  BANK25  BANK26  BANK27  BANK28  BANK29  BANK30  BANK3
      +1  BANK32  BANK33  BANK34  BANK35  BANK36  BANK37
  2191 ;;      Params:         0       2       0       0       0       0       0       0       0       0       0       0       
      +0       0       0       0       0       0       0       0       0       0       0       0       0       0       0       
      +0       0       0       0       0       0       0
  2192 ;;      Locals:         0       0       0       0       0       0       0       0       0       0       0       0       
      +0       0       0       0       0       0       0       0       0       0       0       0       0       0       0       
      +0       0       0       0       0       0       0
  2193 ;;      Temps:          0       0       0       0       0       0       0       0       0       0       0       0       
      +0       0       0       0       0       0       0       0       0       0       0       0       0       0       0       
      +0       0       0       0       0       0       0
  2194 ;;      Totals:         0       2       0       0       0       0       0       0       0       0       0       0       
      +0       0       0       0       0       0       0       0       0       0       0       0       0       0       0       
      +0       0       0       0       0       0       0
  2195 ;;Total ram usage:        2 bytes
  2196 ;; Hardware stack levels used:    1
  2197 ;; Hardware stack levels required when called:    6
  2198 ;; This function calls:
  2199 ;;		Nothing
  2200 ;; This function is called by:
  2201 ;;		_PWM1_16BIT_Initialize
  2202 ;; This function uses a non-reentrant model
  2203 ;;
  2204                           
  2205                           	psect	text13
  2206  004DEE                     __ptext13:
  2207                           	callstack 0
  2208  004DEE                     _PWM1_16BIT_Slice1Output2_SetInterruptHandler:
  2209                           	callstack 119
  2210  004DEE                     
  2211                           ;mcc_generated_files/pwm1_16bit.c: 197: void PWM1_16BIT_Slice1Output2_SetInterruptHandle
      +                          r(void (* InterruptHandler)(void));mcc_generated_files/pwm1_16bit.c: 198: {;mcc_generate
      +                          d_files/pwm1_16bit.c: 199:     PWM1_16BIT_Slice1Output2_InterruptHandler = InterruptHand
      +                          ler;
  2212  004DEE  C5A9  F58C         	movff	PWM1_16BIT_Slice1Output2_SetInterruptHandler@InterruptHandler,_PWM1_16BIT_Slice1O
      +                          utput2_InterruptHandler
  2213  004DF2  C5AA  F58D         	movff	PWM1_16BIT_Slice1Output2_SetInterruptHandler@InterruptHandler+1,_PWM1_16BIT_Slice
      +                          1Output2_InterruptHandler+1
  2214  004DF6  0012               	return		;funcret
  2215  004DF8                     __end_of_PWM1_16BIT_Slice1Output2_SetInterruptHandler:
  2216                           	callstack 0
  2217                           
  2218 ;; *************** function _PWM1_16BIT_Slice1Output1_SetInterruptHandler *****************
  2219 ;; Defined at:
  2220 ;;		line 192 in file "mcc_generated_files/pwm1_16bit.c"
  2221 ;; Parameters:    Size  Location     Type
  2222 ;;  InterruptHan    2    0[BANK5 ] PTR FTN()void 
  2223 ;;		 -> PWM1_16BIT_Slice1Output1_DefaultInterruptHandler(1), 
  2224 ;; Auto vars:     Size  Location     Type
  2225 ;;		None
  2226 ;; Return value:  Size  Location     Type
  2227 ;;                  1    wreg      void 
  2228 ;; Registers used:
  2229 ;;		wreg, status,2, status,0
  2230 ;; Tracked objects:
  2231 ;;		On entry : 0/0
  2232 ;;		On exit  : 0/0
  2233 ;;		Unchanged: 0/0
  2234 ;; Data sizes:     COMRAM   BANK5   BANK6   BANK7   BANK8   BANK9  BANK10  BANK11  BANK12  BANK13  BANK14  BANK15  BANK1
      +6  BANK17  BANK18  BANK19  BANK20  BANK21  BANK22  BANK23  BANK24  BANK25  BANK26  BANK27  BANK28  BANK29  BANK30  BANK3
      +1  BANK32  BANK33  BANK34  BANK35  BANK36  BANK37
  2235 ;;      Params:         0       2       0       0       0       0       0       0       0       0       0       0       
      +0       0       0       0       0       0       0       0       0       0       0       0       0       0       0       
      +0       0       0       0       0       0       0
  2236 ;;      Locals:         0       0       0       0       0       0       0       0       0       0       0       0       
      +0       0       0       0       0       0       0       0       0       0       0       0       0       0       0       
      +0       0       0       0       0       0       0
  2237 ;;      Temps:          0       0       0       0       0       0       0       0       0       0       0       0       
      +0       0       0       0       0       0       0       0       0       0       0       0       0       0       0       
      +0       0       0       0       0       0       0
  2238 ;;      Totals:         0       2       0       0       0       0       0       0       0       0       0       0       
      +0       0       0       0       0       0       0       0       0       0       0       0       0       0       0       
      +0       0       0       0       0       0       0
  2239 ;;Total ram usage:        2 bytes
  2240 ;; Hardware stack levels used:    1
  2241 ;; Hardware stack levels required when called:    6
  2242 ;; This function calls:
  2243 ;;		Nothing
  2244 ;; This function is called by:
  2245 ;;		_PWM1_16BIT_Initialize
  2246 ;; This function uses a non-reentrant model
  2247 ;;
  2248                           
  2249                           	psect	text14
  2250  004DF8                     __ptext14:
  2251                           	callstack 0
  2252  004DF8                     _PWM1_16BIT_Slice1Output1_SetInterruptHandler:
  2253                           	callstack 119
  2254  004DF8                     
  2255                           ;mcc_generated_files/pwm1_16bit.c: 192: void PWM1_16BIT_Slice1Output1_SetInterruptHandle
      +                          r(void (* InterruptHandler)(void));mcc_generated_files/pwm1_16bit.c: 193: {;mcc_generate
      +                          d_files/pwm1_16bit.c: 194:     PWM1_16BIT_Slice1Output1_InterruptHandler = InterruptHand
      +                          ler;
  2256  004DF8  C5A9  F58E         	movff	PWM1_16BIT_Slice1Output1_SetInterruptHandler@InterruptHandler,_PWM1_16BIT_Slice1O
      +                          utput1_InterruptHandler
  2257  004DFC  C5AA  F58F         	movff	PWM1_16BIT_Slice1Output1_SetInterruptHandler@InterruptHandler+1,_PWM1_16BIT_Slice
      +                          1Output1_InterruptHandler+1
  2258  004E00  0012               	return		;funcret
  2259  004E02                     __end_of_PWM1_16BIT_Slice1Output1_SetInterruptHandler:
  2260                           	callstack 0
  2261                           
  2262 ;; *************** function _PWM1_16BIT_Period_SetInterruptHandler *****************
  2263 ;; Defined at:
  2264 ;;		line 202 in file "mcc_generated_files/pwm1_16bit.c"
  2265 ;; Parameters:    Size  Location     Type
  2266 ;;  InterruptHan    2    0[BANK5 ] PTR FTN()void 
  2267 ;;		 -> PWM1_16BIT_Period_DefaultInterruptHandler(1), 
  2268 ;; Auto vars:     Size  Location     Type
  2269 ;;		None
  2270 ;; Return value:  Size  Location     Type
  2271 ;;                  1    wreg      void 
  2272 ;; Registers used:
  2273 ;;		wreg, status,2, status,0
  2274 ;; Tracked objects:
  2275 ;;		On entry : 0/0
  2276 ;;		On exit  : 0/0
  2277 ;;		Unchanged: 0/0
  2278 ;; Data sizes:     COMRAM   BANK5   BANK6   BANK7   BANK8   BANK9  BANK10  BANK11  BANK12  BANK13  BANK14  BANK15  BANK1
      +6  BANK17  BANK18  BANK19  BANK20  BANK21  BANK22  BANK23  BANK24  BANK25  BANK26  BANK27  BANK28  BANK29  BANK30  BANK3
      +1  BANK32  BANK33  BANK34  BANK35  BANK36  BANK37
  2279 ;;      Params:         0       2       0       0       0       0       0       0       0       0       0       0       
      +0       0       0       0       0       0       0       0       0       0       0       0       0       0       0       
      +0       0       0       0       0       0       0
  2280 ;;      Locals:         0       0       0       0       0       0       0       0       0       0       0       0       
      +0       0       0       0       0       0       0       0       0       0       0       0       0       0       0       
      +0       0       0       0       0       0       0
  2281 ;;      Temps:          0       0       0       0       0       0       0       0       0       0       0       0       
      +0       0       0       0       0       0       0       0       0       0       0       0       0       0       0       
      +0       0       0       0       0       0       0
  2282 ;;      Totals:         0       2       0       0       0       0       0       0       0       0       0       0       
      +0       0       0       0       0       0       0       0       0       0       0       0       0       0       0       
      +0       0       0       0       0       0       0
  2283 ;;Total ram usage:        2 bytes
  2284 ;; Hardware stack levels used:    1
  2285 ;; Hardware stack levels required when called:    6
  2286 ;; This function calls:
  2287 ;;		Nothing
  2288 ;; This function is called by:
  2289 ;;		_PWM1_16BIT_Initialize
  2290 ;; This function uses a non-reentrant model
  2291 ;;
  2292                           
  2293                           	psect	text15
  2294  004E02                     __ptext15:
  2295                           	callstack 0
  2296  004E02                     _PWM1_16BIT_Period_SetInterruptHandler:
  2297                           	callstack 119
  2298  004E02                     
  2299                           ;mcc_generated_files/pwm1_16bit.c: 202: void PWM1_16BIT_Period_SetInterruptHandler(void 
      +                          (* InterruptHandler)(void));mcc_generated_files/pwm1_16bit.c: 203: {;mcc_generated_files
      +                          /pwm1_16bit.c: 204:     PWM1_16BIT_Period_InterruptHandler = InterruptHandler;
  2300  004E02  C5A9  F58A         	movff	PWM1_16BIT_Period_SetInterruptHandler@InterruptHandler,_PWM1_16BIT_Period_Interru
      +                          ptHandler
  2301  004E06  C5AA  F58B         	movff	PWM1_16BIT_Period_SetInterruptHandler@InterruptHandler+1,_PWM1_16BIT_Period_Inter
      +                          ruptHandler+1
  2302  004E0A  0012               	return		;funcret
  2303  004E0C                     __end_of_PWM1_16BIT_Period_SetInterruptHandler:
  2304                           	callstack 0
  2305                           
  2306 ;; *************** function _PMD_Initialize *****************
  2307 ;; Defined at:
  2308 ;;		line 80 in file "mcc_generated_files/mcc.c"
  2309 ;; Parameters:    Size  Location     Type
  2310 ;;		None
  2311 ;; Auto vars:     Size  Location     Type
  2312 ;;		None
  2313 ;; Return value:  Size  Location     Type
  2314 ;;                  1    wreg      void 
  2315 ;; Registers used:
  2316 ;;		wreg, status,2
  2317 ;; Tracked objects:
  2318 ;;		On entry : 0/0
  2319 ;;		On exit  : 0/0
  2320 ;;		Unchanged: 0/0
  2321 ;; Data sizes:     COMRAM   BANK5   BANK6   BANK7   BANK8   BANK9  BANK10  BANK11  BANK12  BANK13  BANK14  BANK15  BANK1
      +6  BANK17  BANK18  BANK19  BANK20  BANK21  BANK22  BANK23  BANK24  BANK25  BANK26  BANK27  BANK28  BANK29  BANK30  BANK3
      +1  BANK32  BANK33  BANK34  BANK35  BANK36  BANK37
  2322 ;;      Params:         0       0       0       0       0       0       0       0       0       0       0       0       
      +0       0       0       0       0       0       0       0       0       0       0       0       0       0       0       
      +0       0       0       0       0       0       0
  2323 ;;      Locals:         0       0       0       0       0       0       0       0       0       0       0       0       
      +0       0       0       0       0       0       0       0       0       0       0       0       0       0       0       
      +0       0       0       0       0       0       0
  2324 ;;      Temps:          0       0       0       0       0       0       0       0       0       0       0       0       
      +0       0       0       0       0       0       0       0       0       0       0       0       0       0       0       
      +0       0       0       0       0       0       0
  2325 ;;      Totals:         0       0       0       0       0       0       0       0       0       0       0       0       
      +0       0       0       0       0       0       0       0       0       0       0       0       0       0       0       
      +0       0       0       0       0       0       0
  2326 ;;Total ram usage:        0 bytes
  2327 ;; Hardware stack levels used:    1
  2328 ;; Hardware stack levels required when called:    6
  2329 ;; This function calls:
  2330 ;;		Nothing
  2331 ;; This function is called by:
  2332 ;;		_SYSTEM_Initialize
  2333 ;; This function uses a non-reentrant model
  2334 ;;
  2335                           
  2336                           	psect	text16
  2337  004CD4                     __ptext16:
  2338                           	callstack 0
  2339  004CD4                     _PMD_Initialize:
  2340                           	callstack 120
  2341  004CD4                     
  2342                           ;mcc_generated_files/mcc.c: 83:     PMD0 = 0x00;
  2343  004CD4  0E00               	movlw	0
  2344  004CD6  0100               	movlb	0	; () banked
  2345  004CD8  6F60               	movwf	96,b	;volatile
  2346                           
  2347                           ;mcc_generated_files/mcc.c: 85:     PMD1 = 0x00;
  2348  004CDA  0E00               	movlw	0
  2349  004CDC  6F61               	movwf	97,b	;volatile
  2350                           
  2351                           ;mcc_generated_files/mcc.c: 87:     PMD2 = 0x00;
  2352  004CDE  0E00               	movlw	0
  2353  004CE0  6F62               	movwf	98,b	;volatile
  2354                           
  2355                           ;mcc_generated_files/mcc.c: 89:     PMD3 = 0x00;
  2356  004CE2  0E00               	movlw	0
  2357  004CE4  6F63               	movwf	99,b	;volatile
  2358                           
  2359                           ;mcc_generated_files/mcc.c: 91:     PMD4 = 0x00;
  2360  004CE6  0E00               	movlw	0
  2361  004CE8  6F64               	movwf	100,b	;volatile
  2362                           
  2363                           ;mcc_generated_files/mcc.c: 93:     PMD5 = 0x00;
  2364  004CEA  0E00               	movlw	0
  2365  004CEC  6F65               	movwf	101,b	;volatile
  2366                           
  2367                           ;mcc_generated_files/mcc.c: 95:     PMD6 = 0x00;
  2368  004CEE  0E00               	movlw	0
  2369  004CF0  6F66               	movwf	102,b	;volatile
  2370                           
  2371                           ;mcc_generated_files/mcc.c: 97:     PMD7 = 0x00;
  2372  004CF2  0E00               	movlw	0
  2373  004CF4  6F67               	movwf	103,b	;volatile
  2374                           
  2375                           ;mcc_generated_files/mcc.c: 99:     PMD8 = 0x00;
  2376  004CF6  0E00               	movlw	0
  2377  004CF8  6F68               	movwf	104,b	;volatile
  2378  004CFA                     
  2379                           ; BSR set to: 0
  2380  004CFA  0012               	return		;funcret
  2381  004CFC                     __end_of_PMD_Initialize:
  2382                           	callstack 0
  2383                           
  2384 ;; *************** function _PIN_MANAGER_Initialize *****************
  2385 ;; Defined at:
  2386 ;;		line 55 in file "mcc_generated_files/pin_manager.c"
  2387 ;; Parameters:    Size  Location     Type
  2388 ;;		None
  2389 ;; Auto vars:     Size  Location     Type
  2390 ;;		None
  2391 ;; Return value:  Size  Location     Type
  2392 ;;                  1    wreg      void 
  2393 ;; Registers used:
  2394 ;;		wreg, status,2
  2395 ;; Tracked objects:
  2396 ;;		On entry : 0/0
  2397 ;;		On exit  : 0/0
  2398 ;;		Unchanged: 0/0
  2399 ;; Data sizes:     COMRAM   BANK5   BANK6   BANK7   BANK8   BANK9  BANK10  BANK11  BANK12  BANK13  BANK14  BANK15  BANK1
      +6  BANK17  BANK18  BANK19  BANK20  BANK21  BANK22  BANK23  BANK24  BANK25  BANK26  BANK27  BANK28  BANK29  BANK30  BANK3
      +1  BANK32  BANK33  BANK34  BANK35  BANK36  BANK37
  2400 ;;      Params:         0       0       0       0       0       0       0       0       0       0       0       0       
      +0       0       0       0       0       0       0       0       0       0       0       0       0       0       0       
      +0       0       0       0       0       0       0
  2401 ;;      Locals:         0       0       0       0       0       0       0       0       0       0       0       0       
      +0       0       0       0       0       0       0       0       0       0       0       0       0       0       0       
      +0       0       0       0       0       0       0
  2402 ;;      Temps:          0       0       0       0       0       0       0       0       0       0       0       0       
      +0       0       0       0       0       0       0       0       0       0       0       0       0       0       0       
      +0       0       0       0       0       0       0
  2403 ;;      Totals:         0       0       0       0       0       0       0       0       0       0       0       0       
      +0       0       0       0       0       0       0       0       0       0       0       0       0       0       0       
      +0       0       0       0       0       0       0
  2404 ;;Total ram usage:        0 bytes
  2405 ;; Hardware stack levels used:    1
  2406 ;; Hardware stack levels required when called:    6
  2407 ;; This function calls:
  2408 ;;		Nothing
  2409 ;; This function is called by:
  2410 ;;		_SYSTEM_Initialize
  2411 ;; This function uses a non-reentrant model
  2412 ;;
  2413                           
  2414                           	psect	text17
  2415  004822                     __ptext17:
  2416                           	callstack 0
  2417  004822                     _PIN_MANAGER_Initialize:
  2418                           	callstack 120
  2419  004822                     
  2420                           ;mcc_generated_files/pin_manager.c: 60:     LATA = 0x00;
  2421  004822  0E00               	movlw	0
  2422  004824  6EBE               	movwf	190,c	;volatile
  2423                           
  2424                           ;mcc_generated_files/pin_manager.c: 61:     LATB = 0x00;
  2425  004826  0E00               	movlw	0
  2426  004828  6EBF               	movwf	191,c	;volatile
  2427                           
  2428                           ;mcc_generated_files/pin_manager.c: 62:     LATC = 0x00;
  2429  00482A  0E00               	movlw	0
  2430  00482C  6EC0               	movwf	192,c	;volatile
  2431                           
  2432                           ;mcc_generated_files/pin_manager.c: 67:     TRISE = 0x08;
  2433  00482E  0E08               	movlw	8
  2434  004830  6ECA               	movwf	202,c	;volatile
  2435                           
  2436                           ;mcc_generated_files/pin_manager.c: 68:     TRISA = 0xEF;
  2437  004832  0EEF               	movlw	239
  2438  004834  6EC6               	movwf	198,c	;volatile
  2439                           
  2440                           ;mcc_generated_files/pin_manager.c: 69:     TRISB = 0xC8;
  2441  004836  0EC8               	movlw	200
  2442  004838  6EC7               	movwf	199,c	;volatile
  2443                           
  2444                           ;mcc_generated_files/pin_manager.c: 70:     TRISC = 0xDC;
  2445  00483A  0EDC               	movlw	220
  2446  00483C  6EC8               	movwf	200,c	;volatile
  2447                           
  2448                           ;mcc_generated_files/pin_manager.c: 75:     ANSELC = 0xF3;
  2449  00483E  0EF3               	movlw	243
  2450  004840  0104               	movlb	4	; () banked
  2451  004842  6F10               	movwf	16,b	;volatile
  2452                           
  2453                           ;mcc_generated_files/pin_manager.c: 76:     ANSELB = 0x77;
  2454  004844  0E77               	movlw	119
  2455  004846  6F08               	movwf	8,b	;volatile
  2456                           
  2457                           ;mcc_generated_files/pin_manager.c: 77:     ANSELA = 0xDF;
  2458  004848  0EDF               	movlw	223
  2459  00484A  6F00               	movwf	0,b	;volatile
  2460                           
  2461                           ;mcc_generated_files/pin_manager.c: 82:     WPUE = 0x00;
  2462  00484C  0E00               	movlw	0
  2463  00484E  6F21               	movwf	33,b	;volatile
  2464                           
  2465                           ;mcc_generated_files/pin_manager.c: 83:     WPUB = 0x00;
  2466  004850  0E00               	movlw	0
  2467  004852  6F09               	movwf	9,b	;volatile
  2468                           
  2469                           ;mcc_generated_files/pin_manager.c: 84:     WPUA = 0x00;
  2470  004854  0E00               	movlw	0
  2471  004856  6F01               	movwf	1,b	;volatile
  2472                           
  2473                           ;mcc_generated_files/pin_manager.c: 85:     WPUC = 0x00;
  2474  004858  0E00               	movlw	0
  2475  00485A  6F11               	movwf	17,b	;volatile
  2476                           
  2477                           ;mcc_generated_files/pin_manager.c: 90:     ODCONA = 0x00;
  2478  00485C  0E00               	movlw	0
  2479  00485E  6F02               	movwf	2,b	;volatile
  2480                           
  2481                           ;mcc_generated_files/pin_manager.c: 91:     ODCONB = 0x00;
  2482  004860  0E00               	movlw	0
  2483  004862  6F0A               	movwf	10,b	;volatile
  2484                           
  2485                           ;mcc_generated_files/pin_manager.c: 92:     ODCONC = 0x00;
  2486  004864  0E00               	movlw	0
  2487  004866  6F12               	movwf	18,b	;volatile
  2488  004868                     
  2489                           ; BSR set to: 4
  2490                           ;mcc_generated_files/pin_manager.c: 97:     SLRCONA = 0xFF;
  2491  004868  6903               	setf	3,b	;volatile
  2492  00486A                     
  2493                           ; BSR set to: 4
  2494                           ;mcc_generated_files/pin_manager.c: 98:     SLRCONB = 0xFF;
  2495  00486A  690B               	setf	11,b	;volatile
  2496  00486C                     
  2497                           ; BSR set to: 4
  2498                           ;mcc_generated_files/pin_manager.c: 99:     SLRCONC = 0xFF;
  2499  00486C  6913               	setf	19,b	;volatile
  2500  00486E                     
  2501                           ; BSR set to: 4
  2502                           ;mcc_generated_files/pin_manager.c: 104:     INLVLA = 0xFF;
  2503  00486E  6904               	setf	4,b	;volatile
  2504  004870                     
  2505                           ; BSR set to: 4
  2506                           ;mcc_generated_files/pin_manager.c: 105:     INLVLB = 0xFF;
  2507  004870  690C               	setf	12,b	;volatile
  2508  004872                     
  2509                           ; BSR set to: 4
  2510                           ;mcc_generated_files/pin_manager.c: 106:     INLVLC = 0xFF;
  2511  004872  6914               	setf	20,b	;volatile
  2512                           
  2513                           ;mcc_generated_files/pin_manager.c: 107:     INLVLE = 0x08;
  2514  004874  0E08               	movlw	8
  2515  004876  6F24               	movwf	36,b	;volatile
  2516                           
  2517                           ;mcc_generated_files/pin_manager.c: 116:     RC0PPS = 0x18;
  2518  004878  0E18               	movlw	24
  2519  00487A  0102               	movlb	2	; () banked
  2520  00487C  6F11               	movwf	17,b	;volatile
  2521                           
  2522                           ;mcc_generated_files/pin_manager.c: 117:     ADACTPPS = 0x0F;
  2523  00487E  0E0F               	movlw	15
  2524  004880  6F69               	movwf	105,b	;volatile
  2525                           
  2526                           ;mcc_generated_files/pin_manager.c: 118:     INT0PPS = 0x05;
  2527  004882  0E05               	movlw	5
  2528  004884  6F3E               	movwf	62,b	;volatile
  2529                           
  2530                           ;mcc_generated_files/pin_manager.c: 119:     RC1PPS = 0x1A;
  2531  004886  0E1A               	movlw	26
  2532  004888  6F12               	movwf	18,b	;volatile
  2533                           
  2534                           ;mcc_generated_files/pin_manager.c: 120:     CANRXPPS = 0x0B;
  2535  00488A  0E0B               	movlw	11
  2536  00488C  6F3D               	movwf	61,b	;volatile
  2537                           
  2538                           ;mcc_generated_files/pin_manager.c: 121:     RB4PPS = 0x46;
  2539  00488E  0E46               	movlw	70
  2540  004890  6F0D               	movwf	13,b	;volatile
  2541  004892                     
  2542                           ; BSR set to: 2
  2543  004892  0012               	return		;funcret
  2544  004894                     __end_of_PIN_MANAGER_Initialize:
  2545                           	callstack 0
  2546                           
  2547 ;; *************** function _OSCILLATOR_Initialize *****************
  2548 ;; Defined at:
  2549 ;;		line 66 in file "mcc_generated_files/mcc.c"
  2550 ;; Parameters:    Size  Location     Type
  2551 ;;		None
  2552 ;; Auto vars:     Size  Location     Type
  2553 ;;		None
  2554 ;; Return value:  Size  Location     Type
  2555 ;;                  1    wreg      void 
  2556 ;; Registers used:
  2557 ;;		wreg, status,2
  2558 ;; Tracked objects:
  2559 ;;		On entry : 0/0
  2560 ;;		On exit  : 0/0
  2561 ;;		Unchanged: 0/0
  2562 ;; Data sizes:     COMRAM   BANK5   BANK6   BANK7   BANK8   BANK9  BANK10  BANK11  BANK12  BANK13  BANK14  BANK15  BANK1
      +6  BANK17  BANK18  BANK19  BANK20  BANK21  BANK22  BANK23  BANK24  BANK25  BANK26  BANK27  BANK28  BANK29  BANK30  BANK3
      +1  BANK32  BANK33  BANK34  BANK35  BANK36  BANK37
  2563 ;;      Params:         0       0       0       0       0       0       0       0       0       0       0       0       
      +0       0       0       0       0       0       0       0       0       0       0       0       0       0       0       
      +0       0       0       0       0       0       0
  2564 ;;      Locals:         0       0       0       0       0       0       0       0       0       0       0       0       
      +0       0       0       0       0       0       0       0       0       0       0       0       0       0       0       
      +0       0       0       0       0       0       0
  2565 ;;      Temps:          0       0       0       0       0       0       0       0       0       0       0       0       
      +0       0       0       0       0       0       0       0       0       0       0       0       0       0       0       
      +0       0       0       0       0       0       0
  2566 ;;      Totals:         0       0       0       0       0       0       0       0       0       0       0       0       
      +0       0       0       0       0       0       0       0       0       0       0       0       0       0       0       
      +0       0       0       0       0       0       0
  2567 ;;Total ram usage:        0 bytes
  2568 ;; Hardware stack levels used:    1
  2569 ;; Hardware stack levels required when called:    6
  2570 ;; This function calls:
  2571 ;;		Nothing
  2572 ;; This function is called by:
  2573 ;;		_SYSTEM_Initialize
  2574 ;; This function uses a non-reentrant model
  2575 ;;
  2576                           
  2577                           	psect	text18
  2578  004CFC                     __ptext18:
  2579                           	callstack 0
  2580  004CFC                     _OSCILLATOR_Initialize:
  2581                           	callstack 120
  2582  004CFC                     
  2583                           ;mcc_generated_files/mcc.c: 69:     OSCCON1 = 0x70;
  2584  004CFC  0E70               	movlw	112
  2585  004CFE  0100               	movlb	0	; () banked
  2586  004D00  6FAD               	movwf	173,b	;volatile
  2587                           
  2588                           ;mcc_generated_files/mcc.c: 71:     OSCCON3 = 0x00;
  2589  004D02  0E00               	movlw	0
  2590  004D04  6FAF               	movwf	175,b	;volatile
  2591                           
  2592                           ;mcc_generated_files/mcc.c: 73:     OSCEN = 0x00;
  2593  004D06  0E00               	movlw	0
  2594  004D08  6FB3               	movwf	179,b	;volatile
  2595                           
  2596                           ;mcc_generated_files/mcc.c: 75:     OSCFRQ = 0x02;
  2597  004D0A  0E02               	movlw	2
  2598  004D0C  6FB1               	movwf	177,b	;volatile
  2599                           
  2600                           ;mcc_generated_files/mcc.c: 77:     OSCTUNE = 0x00;
  2601  004D0E  0E00               	movlw	0
  2602  004D10  6FB0               	movwf	176,b	;volatile
  2603  004D12                     
  2604                           ; BSR set to: 0
  2605  004D12  0012               	return		;funcret
  2606  004D14                     __end_of_OSCILLATOR_Initialize:
  2607                           	callstack 0
  2608                           
  2609 ;; *************** function _INTERRUPT_Initialize *****************
  2610 ;; Defined at:
  2611 ;;		line 52 in file "mcc_generated_files/interrupt_manager.c"
  2612 ;; Parameters:    Size  Location     Type
  2613 ;;		None
  2614 ;; Auto vars:     Size  Location     Type
  2615 ;;		None
  2616 ;; Return value:  Size  Location     Type
  2617 ;;                  1    wreg      void 
  2618 ;; Registers used:
  2619 ;;		None
  2620 ;; Tracked objects:
  2621 ;;		On entry : 0/0
  2622 ;;		On exit  : 0/0
  2623 ;;		Unchanged: 0/0
  2624 ;; Data sizes:     COMRAM   BANK5   BANK6   BANK7   BANK8   BANK9  BANK10  BANK11  BANK12  BANK13  BANK14  BANK15  BANK1
      +6  BANK17  BANK18  BANK19  BANK20  BANK21  BANK22  BANK23  BANK24  BANK25  BANK26  BANK27  BANK28  BANK29  BANK30  BANK3
      +1  BANK32  BANK33  BANK34  BANK35  BANK36  BANK37
  2625 ;;      Params:         0       0       0       0       0       0       0       0       0       0       0       0       
      +0       0       0       0       0       0       0       0       0       0       0       0       0       0       0       
      +0       0       0       0       0       0       0
  2626 ;;      Locals:         0       0       0       0       0       0       0       0       0       0       0       0       
      +0       0       0       0       0       0       0       0       0       0       0       0       0       0       0       
      +0       0       0       0       0       0       0
  2627 ;;      Temps:          0       0       0       0       0       0       0       0       0       0       0       0       
      +0       0       0       0       0       0       0       0       0       0       0       0       0       0       0       
      +0       0       0       0       0       0       0
  2628 ;;      Totals:         0       0       0       0       0       0       0       0       0       0       0       0       
      +0       0       0       0       0       0       0       0       0       0       0       0       0       0       0       
      +0       0       0       0       0       0       0
  2629 ;;Total ram usage:        0 bytes
  2630 ;; Hardware stack levels used:    1
  2631 ;; Hardware stack levels required when called:    6
  2632 ;; This function calls:
  2633 ;;		Nothing
  2634 ;; This function is called by:
  2635 ;;		_SYSTEM_Initialize
  2636 ;; This function uses a non-reentrant model
  2637 ;;
  2638                           
  2639                           	psect	text19
  2640  004EC8                     __ptext19:
  2641                           	callstack 0
  2642  004EC8                     _INTERRUPT_Initialize:
  2643                           	callstack 120
  2644  004EC8                     
  2645                           ;mcc_generated_files/interrupt_manager.c: 55:     INTCON0bits.IPEN = 0;
  2646  004EC8  9AD6               	bcf	214,5,c	;volatile
  2647  004ECA  0012               	return		;funcret
  2648  004ECC                     __end_of_INTERRUPT_Initialize:
  2649                           	callstack 0
  2650                           
  2651 ;; *************** function _EXT_INT_Initialize *****************
  2652 ;; Defined at:
  2653 ;;		line 62 in file "mcc_generated_files/ext_int.c"
  2654 ;; Parameters:    Size  Location     Type
  2655 ;;		None
  2656 ;; Auto vars:     Size  Location     Type
  2657 ;;		None
  2658 ;; Return value:  Size  Location     Type
  2659 ;;                  1    wreg      void 
  2660 ;; Registers used:
  2661 ;;		wreg, status,2, status,0, cstack
  2662 ;; Tracked objects:
  2663 ;;		On entry : 0/0
  2664 ;;		On exit  : 0/0
  2665 ;;		Unchanged: 0/0
  2666 ;; Data sizes:     COMRAM   BANK5   BANK6   BANK7   BANK8   BANK9  BANK10  BANK11  BANK12  BANK13  BANK14  BANK15  BANK1
      +6  BANK17  BANK18  BANK19  BANK20  BANK21  BANK22  BANK23  BANK24  BANK25  BANK26  BANK27  BANK28  BANK29  BANK30  BANK3
      +1  BANK32  BANK33  BANK34  BANK35  BANK36  BANK37
  2667 ;;      Params:         0       0       0       0       0       0       0       0       0       0       0       0       
      +0       0       0       0       0       0       0       0       0       0       0       0       0       0       0       
      +0       0       0       0       0       0       0
  2668 ;;      Locals:         0       0       0       0       0       0       0       0       0       0       0       0       
      +0       0       0       0       0       0       0       0       0       0       0       0       0       0       0       
      +0       0       0       0       0       0       0
  2669 ;;      Temps:          0       0       0       0       0       0       0       0       0       0       0       0       
      +0       0       0       0       0       0       0       0       0       0       0       0       0       0       0       
      +0       0       0       0       0       0       0
  2670 ;;      Totals:         0       0       0       0       0       0       0       0       0       0       0       0       
      +0       0       0       0       0       0       0       0       0       0       0       0       0       0       0       
      +0       0       0       0       0       0       0
  2671 ;;Total ram usage:        0 bytes
  2672 ;; Hardware stack levels used:    1
  2673 ;; Hardware stack levels required when called:    7
  2674 ;; This function calls:
  2675 ;;		_INT0_SetInterruptHandler
  2676 ;; This function is called by:
  2677 ;;		_SYSTEM_Initialize
  2678 ;; This function uses a non-reentrant model
  2679 ;;
  2680                           
  2681                           	psect	text20
  2682  004D14                     __ptext20:
  2683                           	callstack 0
  2684  004D14                     _EXT_INT_Initialize:
  2685                           	callstack 119
  2686  004D14                     
  2687                           ;mcc_generated_files/ext_int.c: 67:     (PIR1bits.INT0IF = 0);
  2688  004D14  90AF               	bcf	175,0,c	;volatile
  2689                           
  2690                           ;mcc_generated_files/ext_int.c: 68:     (INTCON0bits.INT0EDG = 1);
  2691  004D16  80D6               	bsf	214,0,c	;volatile
  2692  004D18                     
  2693                           ;mcc_generated_files/ext_int.c: 70:     INT0_SetInterruptHandler(INT0_DefaultInterruptHa
      +                          ndler);
  2694  004D18  0EE6               	movlw	low _INT0_DefaultInterruptHandler
  2695  004D1A  0105               	movlb	5	; () banked
  2696  004D1C  6FA9               	movwf	INT0_SetInterruptHandler@InterruptHandler& (0+255),b
  2697  004D1E  0E4E               	movlw	high _INT0_DefaultInterruptHandler
  2698  004D20  6FAA               	movwf	(INT0_SetInterruptHandler@InterruptHandler+1)& (0+255),b
  2699  004D22  EC06  F027         	call	_INT0_SetInterruptHandler	;wreg free
  2700  004D26                     
  2701                           ;mcc_generated_files/ext_int.c: 71:     (PIE1bits.INT0IE = 1);
  2702  004D26  809F               	bsf	159,0,c	;volatile
  2703  004D28  0012               	return		;funcret
  2704  004D2A                     __end_of_EXT_INT_Initialize:
  2705                           	callstack 0
  2706                           
  2707 ;; *************** function _INT0_SetInterruptHandler *****************
  2708 ;; Defined at:
  2709 ;;		line 53 in file "mcc_generated_files/ext_int.c"
  2710 ;; Parameters:    Size  Location     Type
  2711 ;;  InterruptHan    2    0[BANK5 ] PTR FTN()void 
  2712 ;;		 -> INT0_DefaultInterruptHandler(1), 
  2713 ;; Auto vars:     Size  Location     Type
  2714 ;;		None
  2715 ;; Return value:  Size  Location     Type
  2716 ;;                  1    wreg      void 
  2717 ;; Registers used:
  2718 ;;		wreg, status,2, status,0
  2719 ;; Tracked objects:
  2720 ;;		On entry : 0/0
  2721 ;;		On exit  : 0/0
  2722 ;;		Unchanged: 0/0
  2723 ;; Data sizes:     COMRAM   BANK5   BANK6   BANK7   BANK8   BANK9  BANK10  BANK11  BANK12  BANK13  BANK14  BANK15  BANK1
      +6  BANK17  BANK18  BANK19  BANK20  BANK21  BANK22  BANK23  BANK24  BANK25  BANK26  BANK27  BANK28  BANK29  BANK30  BANK3
      +1  BANK32  BANK33  BANK34  BANK35  BANK36  BANK37
  2724 ;;      Params:         0       2       0       0       0       0       0       0       0       0       0       0       
      +0       0       0       0       0       0       0       0       0       0       0       0       0       0       0       
      +0       0       0       0       0       0       0
  2725 ;;      Locals:         0       0       0       0       0       0       0       0       0       0       0       0       
      +0       0       0       0       0       0       0       0       0       0       0       0       0       0       0       
      +0       0       0       0       0       0       0
  2726 ;;      Temps:          0       0       0       0       0       0       0       0       0       0       0       0       
      +0       0       0       0       0       0       0       0       0       0       0       0       0       0       0       
      +0       0       0       0       0       0       0
  2727 ;;      Totals:         0       2       0       0       0       0       0       0       0       0       0       0       
      +0       0       0       0       0       0       0       0       0       0       0       0       0       0       0       
      +0       0       0       0       0       0       0
  2728 ;;Total ram usage:        2 bytes
  2729 ;; Hardware stack levels used:    1
  2730 ;; Hardware stack levels required when called:    6
  2731 ;; This function calls:
  2732 ;;		Nothing
  2733 ;; This function is called by:
  2734 ;;		_EXT_INT_Initialize
  2735 ;; This function uses a non-reentrant model
  2736 ;;
  2737                           
  2738                           	psect	text21
  2739  004E0C                     __ptext21:
  2740                           	callstack 0
  2741  004E0C                     _INT0_SetInterruptHandler:
  2742                           	callstack 119
  2743  004E0C                     
  2744                           ;mcc_generated_files/ext_int.c: 54:     INT0_InterruptHandler = InterruptHandler;
  2745  004E0C  C5A9  F5FC         	movff	INT0_SetInterruptHandler@InterruptHandler,_INT0_InterruptHandler
  2746  004E10  C5AA  F5FD         	movff	INT0_SetInterruptHandler@InterruptHandler+1,_INT0_InterruptHandler+1
  2747  004E14  0012               	return		;funcret
  2748  004E16                     __end_of_INT0_SetInterruptHandler:
  2749                           	callstack 0
  2750                           
  2751 ;; *************** function _CAN1_Initialize *****************
  2752 ;; Defined at:
  2753 ;;		line 237 in file "mcc_generated_files/can1.c"
  2754 ;; Parameters:    Size  Location     Type
  2755 ;;		None
  2756 ;; Auto vars:     Size  Location     Type
  2757 ;;		None
  2758 ;; Return value:  Size  Location     Type
  2759 ;;                  1    wreg      void 
  2760 ;; Registers used:
  2761 ;;		wreg, fsr2l, fsr2h, status,2, status,0, prodl, prodh, cstack
  2762 ;; Tracked objects:
  2763 ;;		On entry : 0/0
  2764 ;;		On exit  : 0/0
  2765 ;;		Unchanged: 0/0
  2766 ;; Data sizes:     COMRAM   BANK5   BANK6   BANK7   BANK8   BANK9  BANK10  BANK11  BANK12  BANK13  BANK14  BANK15  BANK1
      +6  BANK17  BANK18  BANK19  BANK20  BANK21  BANK22  BANK23  BANK24  BANK25  BANK26  BANK27  BANK28  BANK29  BANK30  BANK3
      +1  BANK32  BANK33  BANK34  BANK35  BANK36  BANK37
  2767 ;;      Params:         0       0       0       0       0       0       0       0       0       0       0       0       
      +0       0       0       0       0       0       0       0       0       0       0       0       0       0       0       
      +0       0       0       0       0       0       0
  2768 ;;      Locals:         0       0       0       0       0       0       0       0       0       0       0       0       
      +0       0       0       0       0       0       0       0       0       0       0       0       0       0       0       
      +0       0       0       0       0       0       0
  2769 ;;      Temps:          0       0       0       0       0       0       0       0       0       0       0       0       
      +0       0       0       0       0       0       0       0       0       0       0       0       0       0       0       
      +0       0       0       0       0       0       0
  2770 ;;      Totals:         0       0       0       0       0       0       0       0       0       0       0       0       
      +0       0       0       0       0       0       0       0       0       0       0       0       0       0       0       
      +0       0       0       0       0       0       0
  2771 ;;Total ram usage:        0 bytes
  2772 ;; Hardware stack levels used:    1
  2773 ;; Hardware stack levels required when called:    8
  2774 ;; This function calls:
  2775 ;;		_CAN1_BitRateConfiguration
  2776 ;;		_CAN1_ErrorNotificationInterruptEnable
  2777 ;;		_CAN1_OperationModeSet
  2778 ;;		_CAN1_RX_FIFO_Configuration
  2779 ;;		_CAN1_RX_FIFO_FilterMaskConfiguration
  2780 ;;		_CAN1_RX_FIFO_ResetInfo
  2781 ;;		_CAN1_TX_FIFO_Configuration
  2782 ;; This function is called by:
  2783 ;;		_SYSTEM_Initialize
  2784 ;; This function uses a non-reentrant model
  2785 ;;
  2786                           
  2787                           	psect	text22
  2788  00494C                     __ptext22:
  2789                           	callstack 0
  2790  00494C                     _CAN1_Initialize:
  2791                           	callstack 118
  2792  00494C                     
  2793                           ;mcc_generated_files/can1.c: 240:     C1CONHbits.ON = 1;
  2794  00494C  0101               	movlb	1	; () banked
  2795  00494E  8F01               	bsf	1,7,b	;volatile
  2796  004950                     
  2797                           ; BSR set to: 1
  2798                           ;mcc_generated_files/can1.c: 242:     if (CAN_OP_MODE_REQUEST_SUCCESS == CAN1_OperationM
      +                          odeSet(CAN_CONFIGURATION_MODE))
  2799  004950  0E04               	movlw	4
  2800  004952  ECD9  F022         	call	_CAN1_OperationModeSet
  2801  004956  0900               	iorlw	0
  2802  004958  A4D8               	btfss	status,2,c
  2803  00495A  EFB1  F024         	goto	u5431
  2804  00495E  EFB3  F024         	goto	u5430
  2805  004962                     u5431:
  2806  004962  EFD1  F024         	goto	l792
  2807  004966                     u5430:
  2808  004966                     
  2809                           ;mcc_generated_files/can1.c: 243:     {;mcc_generated_files/can1.c: 245:         C1FIFOB
      +                          A = 0x2600;
  2810  004966  0E00               	movlw	0
  2811  004968  0101               	movlb	1	; () banked
  2812  00496A  6F4C               	movwf	76,b	;volatile
  2813  00496C  0E26               	movlw	38
  2814  00496E  6F4D               	movwf	77,b	;volatile
  2815  004970  0E00               	movlw	0
  2816  004972  6F4E               	movwf	78,b	;volatile
  2817  004974  0E00               	movlw	0
  2818  004976  6F4F               	movwf	79,b	;volatile
  2819                           
  2820                           ;mcc_generated_files/can1.c: 248:         C1CONL = 0x60;
  2821  004978  0E60               	movlw	96
  2822  00497A  6F00               	movwf	0,b	;volatile
  2823                           
  2824                           ;mcc_generated_files/can1.c: 251:         C1CONH = 0x97;
  2825  00497C  0E97               	movlw	151
  2826  00497E  6F01               	movwf	1,b	;volatile
  2827                           
  2828                           ;mcc_generated_files/can1.c: 254:         C1CONU = 0x10;
  2829  004980  0E10               	movlw	16
  2830  004982  6F02               	movwf	2,b	;volatile
  2831  004984                     
  2832                           ; BSR set to: 1
  2833                           ;mcc_generated_files/can1.c: 256:         CAN1_BitRateConfiguration();
  2834  004984  ECA9  F026         	call	_CAN1_BitRateConfiguration	;wreg free
  2835  004988                     
  2836                           ;mcc_generated_files/can1.c: 257:         CAN1_TX_FIFO_Configuration();
  2837  004988  EC95  F026         	call	_CAN1_TX_FIFO_Configuration	;wreg free
  2838  00498C                     
  2839                           ;mcc_generated_files/can1.c: 258:         CAN1_RX_FIFO_Configuration();
  2840  00498C  EC9F  F026         	call	_CAN1_RX_FIFO_Configuration	;wreg free
  2841                           
  2842                           ;mcc_generated_files/can1.c: 259:         CAN1_RX_FIFO_FilterMaskConfiguration();
  2843  004990  EC6F  F027         	call	_CAN1_RX_FIFO_FilterMaskConfiguration	;wreg free
  2844  004994                     
  2845                           ;mcc_generated_files/can1.c: 260:         CAN1_RX_FIFO_ResetInfo();
  2846  004994  ECB6  F025         	call	_CAN1_RX_FIFO_ResetInfo	;wreg free
  2847  004998                     
  2848                           ;mcc_generated_files/can1.c: 261:         CAN1_ErrorNotificationInterruptEnable();
  2849  004998  EC25  F023         	call	_CAN1_ErrorNotificationInterruptEnable	;wreg free
  2850  00499C                     
  2851                           ;mcc_generated_files/can1.c: 262:         CAN1_OperationModeSet(CAN_NORMAL_2_0_MODE);
  2852  00499C  0E06               	movlw	6
  2853  00499E  ECD9  F022         	call	_CAN1_OperationModeSet
  2854  0049A2                     l792:
  2855  0049A2  0012               	return		;funcret
  2856  0049A4                     __end_of_CAN1_Initialize:
  2857                           	callstack 0
  2858                           
  2859 ;; *************** function _CAN1_TX_FIFO_Configuration *****************
  2860 ;; Defined at:
  2861 ;;		line 179 in file "mcc_generated_files/can1.c"
  2862 ;; Parameters:    Size  Location     Type
  2863 ;;		None
  2864 ;; Auto vars:     Size  Location     Type
  2865 ;;		None
  2866 ;; Return value:  Size  Location     Type
  2867 ;;                  1    wreg      void 
  2868 ;; Registers used:
  2869 ;;		wreg, status,2
  2870 ;; Tracked objects:
  2871 ;;		On entry : 0/0
  2872 ;;		On exit  : 0/0
  2873 ;;		Unchanged: 0/0
  2874 ;; Data sizes:     COMRAM   BANK5   BANK6   BANK7   BANK8   BANK9  BANK10  BANK11  BANK12  BANK13  BANK14  BANK15  BANK1
      +6  BANK17  BANK18  BANK19  BANK20  BANK21  BANK22  BANK23  BANK24  BANK25  BANK26  BANK27  BANK28  BANK29  BANK30  BANK3
      +1  BANK32  BANK33  BANK34  BANK35  BANK36  BANK37
  2875 ;;      Params:         0       0       0       0       0       0       0       0       0       0       0       0       
      +0       0       0       0       0       0       0       0       0       0       0       0       0       0       0       
      +0       0       0       0       0       0       0
  2876 ;;      Locals:         0       0       0       0       0       0       0       0       0       0       0       0       
      +0       0       0       0       0       0       0       0       0       0       0       0       0       0       0       
      +0       0       0       0       0       0       0
  2877 ;;      Temps:          0       0       0       0       0       0       0       0       0       0       0       0       
      +0       0       0       0       0       0       0       0       0       0       0       0       0       0       0       
      +0       0       0       0       0       0       0
  2878 ;;      Totals:         0       0       0       0       0       0       0       0       0       0       0       0       
      +0       0       0       0       0       0       0       0       0       0       0       0       0       0       0       
      +0       0       0       0       0       0       0
  2879 ;;Total ram usage:        0 bytes
  2880 ;; Hardware stack levels used:    1
  2881 ;; Hardware stack levels required when called:    6
  2882 ;; This function calls:
  2883 ;;		Nothing
  2884 ;; This function is called by:
  2885 ;;		_CAN1_Initialize
  2886 ;; This function uses a non-reentrant model
  2887 ;;
  2888                           
  2889                           	psect	text23
  2890  004D2A                     __ptext23:
  2891                           	callstack 0
  2892  004D2A                     _CAN1_TX_FIFO_Configuration:
  2893                           	callstack 119
  2894  004D2A                     
  2895                           ;mcc_generated_files/can1.c: 182:     C1TXQCONL = 0x10;
  2896  004D2A  0E10               	movlw	16
  2897  004D2C  0101               	movlb	1	; () banked
  2898  004D2E  6F50               	movwf	80,b	;volatile
  2899                           
  2900                           ;mcc_generated_files/can1.c: 185:     C1TXQCONH = 0x04;
  2901  004D30  0E04               	movlw	4
  2902  004D32  6F51               	movwf	81,b	;volatile
  2903                           
  2904                           ;mcc_generated_files/can1.c: 188:     C1TXQCONU = 0x60;
  2905  004D34  0E60               	movlw	96
  2906  004D36  6F52               	movwf	82,b	;volatile
  2907                           
  2908                           ;mcc_generated_files/can1.c: 191:     C1TXQCONT = 0x05;
  2909  004D38  0E05               	movlw	5
  2910  004D3A  6F53               	movwf	83,b	;volatile
  2911  004D3C                     
  2912                           ; BSR set to: 1
  2913  004D3C  0012               	return		;funcret
  2914  004D3E                     __end_of_CAN1_TX_FIFO_Configuration:
  2915                           	callstack 0
  2916                           
  2917 ;; *************** function _CAN1_RX_FIFO_ResetInfo *****************
  2918 ;; Defined at:
  2919 ;;		line 149 in file "mcc_generated_files/can1.c"
  2920 ;; Parameters:    Size  Location     Type
  2921 ;;		None
  2922 ;; Auto vars:     Size  Location     Type
  2923 ;;  index           1    0[BANK5 ] unsigned char 
  2924 ;; Return value:  Size  Location     Type
  2925 ;;                  1    wreg      void 
  2926 ;; Registers used:
  2927 ;;		wreg, fsr2l, fsr2h, status,2, status,0, prodl, prodh
  2928 ;; Tracked objects:
  2929 ;;		On entry : 0/0
  2930 ;;		On exit  : 0/0
  2931 ;;		Unchanged: 0/0
  2932 ;; Data sizes:     COMRAM   BANK5   BANK6   BANK7   BANK8   BANK9  BANK10  BANK11  BANK12  BANK13  BANK14  BANK15  BANK1
      +6  BANK17  BANK18  BANK19  BANK20  BANK21  BANK22  BANK23  BANK24  BANK25  BANK26  BANK27  BANK28  BANK29  BANK30  BANK3
      +1  BANK32  BANK33  BANK34  BANK35  BANK36  BANK37
  2933 ;;      Params:         0       0       0       0       0       0       0       0       0       0       0       0       
      +0       0       0       0       0       0       0       0       0       0       0       0       0       0       0       
      +0       0       0       0       0       0       0
  2934 ;;      Locals:         0       1       0       0       0       0       0       0       0       0       0       0       
      +0       0       0       0       0       0       0       0       0       0       0       0       0       0       0       
      +0       0       0       0       0       0       0
  2935 ;;      Temps:          0       0       0       0       0       0       0       0       0       0       0       0       
      +0       0       0       0       0       0       0       0       0       0       0       0       0       0       0       
      +0       0       0       0       0       0       0
  2936 ;;      Totals:         0       1       0       0       0       0       0       0       0       0       0       0       
      +0       0       0       0       0       0       0       0       0       0       0       0       0       0       0       
      +0       0       0       0       0       0       0
  2937 ;;Total ram usage:        1 bytes
  2938 ;; Hardware stack levels used:    1
  2939 ;; Hardware stack levels required when called:    6
  2940 ;; This function calls:
  2941 ;;		Nothing
  2942 ;; This function is called by:
  2943 ;;		_CAN1_Initialize
  2944 ;; This function uses a non-reentrant model
  2945 ;;
  2946                           
  2947                           	psect	text24
  2948  004B6C                     __ptext24:
  2949                           	callstack 0
  2950  004B6C                     _CAN1_RX_FIFO_ResetInfo:
  2951                           	callstack 119
  2952  004B6C                     
  2953                           ;mcc_generated_files/can1.c: 151:     uint8_t index;;mcc_generated_files/can1.c: 153:   
      +                            for (index = 0; index < (1U); index++)
  2954  004B6C  0E00               	movlw	0
  2955  004B6E  0105               	movlb	5	; () banked
  2956  004B70  6FA9               	movwf	CAN1_RX_FIFO_ResetInfo@index& (0+255),b
  2957  004B72                     l5301:
  2958                           
  2959                           ; BSR set to: 5
  2960                           ;mcc_generated_files/can1.c: 154:     {;mcc_generated_files/can1.c: 155:         rxFifos
      +                          [index].fifoHead = 0;
  2961  004B72  51A9               	movf	CAN1_RX_FIFO_ResetInfo@index& (0+255),w,b
  2962  004B74  0D02               	mullw	2
  2963  004B76  0EFF               	movlw	low (_rxFifos+1)
  2964  004B78  24F3               	addwf	243,w,c
  2965  004B7A  6ED9               	movwf	fsr2l,c
  2966  004B7C  0E05               	movlw	high (_rxFifos+1)
  2967  004B7E  20F4               	addwfc	prodh,w,c
  2968  004B80  6EDA               	movwf	fsr2h,c
  2969  004B82  0E00               	movlw	0
  2970  004B84  6EDF               	movwf	indf2,c
  2971  004B86                     
  2972                           ; BSR set to: 5
  2973                           ;mcc_generated_files/can1.c: 156:     }
  2974  004B86  2BA9               	incf	CAN1_RX_FIFO_ResetInfo@index& (0+255),f,b
  2975  004B88                     
  2976                           ; BSR set to: 5
  2977  004B88  51A9               	movf	CAN1_RX_FIFO_ResetInfo@index& (0+255),w,b
  2978  004B8A  B4D8               	btfsc	status,2,c
  2979  004B8C  EFCA  F025         	goto	u4491
  2980  004B90  EFCC  F025         	goto	u4490
  2981  004B94                     u4491:
  2982  004B94  EFB9  F025         	goto	l5301
  2983  004B98                     u4490:
  2984  004B98                     
  2985                           ; BSR set to: 5
  2986  004B98  0012               	return		;funcret
  2987  004B9A                     __end_of_CAN1_RX_FIFO_ResetInfo:
  2988                           	callstack 0
  2989                           
  2990 ;; *************** function _CAN1_RX_FIFO_FilterMaskConfiguration *****************
  2991 ;; Defined at:
  2992 ;;		line 175 in file "mcc_generated_files/can1.c"
  2993 ;; Parameters:    Size  Location     Type
  2994 ;;		None
  2995 ;; Auto vars:     Size  Location     Type
  2996 ;;		None
  2997 ;; Return value:  Size  Location     Type
  2998 ;;                  1    wreg      void 
  2999 ;; Registers used:
  3000 ;;		None
  3001 ;; Tracked objects:
  3002 ;;		On entry : 0/0
  3003 ;;		On exit  : 0/0
  3004 ;;		Unchanged: 0/0
  3005 ;; Data sizes:     COMRAM   BANK5   BANK6   BANK7   BANK8   BANK9  BANK10  BANK11  BANK12  BANK13  BANK14  BANK15  BANK1
      +6  BANK17  BANK18  BANK19  BANK20  BANK21  BANK22  BANK23  BANK24  BANK25  BANK26  BANK27  BANK28  BANK29  BANK30  BANK3
      +1  BANK32  BANK33  BANK34  BANK35  BANK36  BANK37
  3006 ;;      Params:         0       0       0       0       0       0       0       0       0       0       0       0       
      +0       0       0       0       0       0       0       0       0       0       0       0       0       0       0       
      +0       0       0       0       0       0       0
  3007 ;;      Locals:         0       0       0       0       0       0       0       0       0       0       0       0       
      +0       0       0       0       0       0       0       0       0       0       0       0       0       0       0       
      +0       0       0       0       0       0       0
  3008 ;;      Temps:          0       0       0       0       0       0       0       0       0       0       0       0       
      +0       0       0       0       0       0       0       0       0       0       0       0       0       0       0       
      +0       0       0       0       0       0       0
  3009 ;;      Totals:         0       0       0       0       0       0       0       0       0       0       0       0       
      +0       0       0       0       0       0       0       0       0       0       0       0       0       0       0       
      +0       0       0       0       0       0       0
  3010 ;;Total ram usage:        0 bytes
  3011 ;; Hardware stack levels used:    1
  3012 ;; Hardware stack levels required when called:    6
  3013 ;; This function calls:
  3014 ;;		Nothing
  3015 ;; This function is called by:
  3016 ;;		_CAN1_Initialize
  3017 ;; This function uses a non-reentrant model
  3018 ;;
  3019                           
  3020                           	psect	text25
  3021  004EDE                     __ptext25:
  3022                           	callstack 0
  3023  004EDE                     _CAN1_RX_FIFO_FilterMaskConfiguration:
  3024                           	callstack 119
  3025  004EDE  0012               	return		;funcret
  3026  004EE0                     __end_of_CAN1_RX_FIFO_FilterMaskConfiguration:
  3027                           	callstack 0
  3028                           
  3029 ;; *************** function _CAN1_RX_FIFO_Configuration *****************
  3030 ;; Defined at:
  3031 ;;		line 159 in file "mcc_generated_files/can1.c"
  3032 ;; Parameters:    Size  Location     Type
  3033 ;;		None
  3034 ;; Auto vars:     Size  Location     Type
  3035 ;;		None
  3036 ;; Return value:  Size  Location     Type
  3037 ;;                  1    wreg      void 
  3038 ;; Registers used:
  3039 ;;		wreg, status,2
  3040 ;; Tracked objects:
  3041 ;;		On entry : 0/0
  3042 ;;		On exit  : 0/0
  3043 ;;		Unchanged: 0/0
  3044 ;; Data sizes:     COMRAM   BANK5   BANK6   BANK7   BANK8   BANK9  BANK10  BANK11  BANK12  BANK13  BANK14  BANK15  BANK1
      +6  BANK17  BANK18  BANK19  BANK20  BANK21  BANK22  BANK23  BANK24  BANK25  BANK26  BANK27  BANK28  BANK29  BANK30  BANK3
      +1  BANK32  BANK33  BANK34  BANK35  BANK36  BANK37
  3045 ;;      Params:         0       0       0       0       0       0       0       0       0       0       0       0       
      +0       0       0       0       0       0       0       0       0       0       0       0       0       0       0       
      +0       0       0       0       0       0       0
  3046 ;;      Locals:         0       0       0       0       0       0       0       0       0       0       0       0       
      +0       0       0       0       0       0       0       0       0       0       0       0       0       0       0       
      +0       0       0       0       0       0       0
  3047 ;;      Temps:          0       0       0       0       0       0       0       0       0       0       0       0       
      +0       0       0       0       0       0       0       0       0       0       0       0       0       0       0       
      +0       0       0       0       0       0       0
  3048 ;;      Totals:         0       0       0       0       0       0       0       0       0       0       0       0       
      +0       0       0       0       0       0       0       0       0       0       0       0       0       0       0       
      +0       0       0       0       0       0       0
  3049 ;;Total ram usage:        0 bytes
  3050 ;; Hardware stack levels used:    1
  3051 ;; Hardware stack levels required when called:    6
  3052 ;; This function calls:
  3053 ;;		Nothing
  3054 ;; This function is called by:
  3055 ;;		_CAN1_Initialize
  3056 ;; This function uses a non-reentrant model
  3057 ;;
  3058                           
  3059                           	psect	text26
  3060  004D3E                     __ptext26:
  3061                           	callstack 0
  3062  004D3E                     _CAN1_RX_FIFO_Configuration:
  3063                           	callstack 119
  3064  004D3E                     
  3065                           ;mcc_generated_files/can1.c: 162:     C1FIFOCON1L = 0x08;
  3066  004D3E  0E08               	movlw	8
  3067  004D40  0101               	movlb	1	; () banked
  3068  004D42  6F5C               	movwf	92,b	;volatile
  3069                           
  3070                           ;mcc_generated_files/can1.c: 165:     C1FIFOCON1H = 0x04;
  3071  004D44  0E04               	movlw	4
  3072  004D46  6F5D               	movwf	93,b	;volatile
  3073                           
  3074                           ;mcc_generated_files/can1.c: 168:     C1FIFOCON1U = 0x60;
  3075  004D48  0E60               	movlw	96
  3076  004D4A  6F5E               	movwf	94,b	;volatile
  3077                           
  3078                           ;mcc_generated_files/can1.c: 171:     C1FIFOCON1T = 0x05;
  3079  004D4C  0E05               	movlw	5
  3080  004D4E  6F5F               	movwf	95,b	;volatile
  3081  004D50                     
  3082                           ; BSR set to: 1
  3083  004D50  0012               	return		;funcret
  3084  004D52                     __end_of_CAN1_RX_FIFO_Configuration:
  3085                           	callstack 0
  3086                           
  3087 ;; *************** function _CAN1_OperationModeSet *****************
  3088 ;; Defined at:
  3089 ;;		line 266 in file "mcc_generated_files/can1.c"
  3090 ;; Parameters:    Size  Location     Type
  3091 ;;  requestMode     1    wreg     const enum E22346
  3092 ;; Auto vars:     Size  Location     Type
  3093 ;;  requestMode     1    2[BANK5 ] const enum E22346
  3094 ;;  status          1    1[BANK5 ] enum E22356
  3095 ;;  opMode          1    0[BANK5 ] enum E22346
  3096 ;; Return value:  Size  Location     Type
  3097 ;;                  1    wreg      enum E22356
  3098 ;; Registers used:
  3099 ;;		wreg, status,2, status,0, cstack
  3100 ;; Tracked objects:
  3101 ;;		On entry : 0/0
  3102 ;;		On exit  : 0/0
  3103 ;;		Unchanged: 0/0
  3104 ;; Data sizes:     COMRAM   BANK5   BANK6   BANK7   BANK8   BANK9  BANK10  BANK11  BANK12  BANK13  BANK14  BANK15  BANK1
      +6  BANK17  BANK18  BANK19  BANK20  BANK21  BANK22  BANK23  BANK24  BANK25  BANK26  BANK27  BANK28  BANK29  BANK30  BANK3
      +1  BANK32  BANK33  BANK34  BANK35  BANK36  BANK37
  3105 ;;      Params:         0       0       0       0       0       0       0       0       0       0       0       0       
      +0       0       0       0       0       0       0       0       0       0       0       0       0       0       0       
      +0       0       0       0       0       0       0
  3106 ;;      Locals:         0       3       0       0       0       0       0       0       0       0       0       0       
      +0       0       0       0       0       0       0       0       0       0       0       0       0       0       0       
      +0       0       0       0       0       0       0
  3107 ;;      Temps:          0       0       0       0       0       0       0       0       0       0       0       0       
      +0       0       0       0       0       0       0       0       0       0       0       0       0       0       0       
      +0       0       0       0       0       0       0
  3108 ;;      Totals:         0       3       0       0       0       0       0       0       0       0       0       0       
      +0       0       0       0       0       0       0       0       0       0       0       0       0       0       0       
      +0       0       0       0       0       0       0
  3109 ;;Total ram usage:        3 bytes
  3110 ;; Hardware stack levels used:    1
  3111 ;; Hardware stack levels required when called:    7
  3112 ;; This function calls:
  3113 ;;		_CAN1_OperationModeGet
  3114 ;; This function is called by:
  3115 ;;		_CAN1_Initialize
  3116 ;;		_CAN1_Sleep
  3117 ;; This function uses a non-reentrant model
  3118 ;;
  3119                           
  3120                           	psect	text27
  3121  0045B2                     __ptext27:
  3122                           	callstack 0
  3123  0045B2                     _CAN1_OperationModeSet:
  3124                           	callstack 118
  3125                           
  3126                           ; BSR set to: 1
  3127                           ;incstack = 0
  3128                           ;CAN1_OperationModeSet@requestMode stored from wreg
  3129  0045B2  0105               	movlb	5	; () banked
  3130  0045B4  6FAB               	movwf	CAN1_OperationModeSet@requestMode& (0+255),b
  3131  0045B6                     
  3132                           ;mcc_generated_files/can1.c: 266: CAN_OP_MODE_STATUS CAN1_OperationModeSet(const CAN_OP_
      +                          MODES requestMode);mcc_generated_files/can1.c: 267: {;mcc_generated_files/can1.c: 268:  
      +                             CAN_OP_MODE_STATUS status = CAN_OP_MODE_REQUEST_SUCCESS;
  3133  0045B6  0E00               	movlw	0
  3134  0045B8  0105               	movlb	5	; () banked
  3135  0045BA  6FAA               	movwf	CAN1_OperationModeSet@status& (0+255),b
  3136  0045BC                     
  3137                           ; BSR set to: 5
  3138                           ;mcc_generated_files/can1.c: 269:     CAN_OP_MODES opMode = CAN1_OperationModeGet();
  3139  0045BC  EC0B  F027         	call	_CAN1_OperationModeGet	;wreg free
  3140  0045C0  0105               	movlb	5	; () banked
  3141  0045C2  6FA9               	movwf	CAN1_OperationModeSet@opMode& (0+255),b
  3142  0045C4                     
  3143                           ; BSR set to: 5
  3144                           ;mcc_generated_files/can1.c: 271:     if (CAN_CONFIGURATION_MODE == opMode
  3145  0045C4  0E04               	movlw	4
  3146  0045C6  19A9               	xorwf	CAN1_OperationModeSet@opMode& (0+255),w,b
  3147  0045C8  B4D8               	btfsc	status,2,c
  3148  0045CA  EFE9  F022         	goto	u4501
  3149  0045CE  EFEB  F022         	goto	u4500
  3150  0045D2                     u4501:
  3151  0045D2  EFFC  F022         	goto	l5337
  3152  0045D6                     u4500:
  3153  0045D6                     
  3154                           ; BSR set to: 5
  3155  0045D6  05AB               	decf	CAN1_OperationModeSet@requestMode& (0+255),w,b
  3156  0045D8  B4D8               	btfsc	status,2,c
  3157  0045DA  EFF1  F022         	goto	u4511
  3158  0045DE  EFF3  F022         	goto	u4510
  3159  0045E2                     u4511:
  3160  0045E2  EFFC  F022         	goto	l5337
  3161  0045E6                     u4510:
  3162  0045E6                     
  3163                           ; BSR set to: 5
  3164  0045E6  0E04               	movlw	4
  3165  0045E8  19AB               	xorwf	CAN1_OperationModeSet@requestMode& (0+255),w,b
  3166  0045EA  A4D8               	btfss	status,2,c
  3167  0045EC  EFFA  F022         	goto	u4521
  3168  0045F0  EFFC  F022         	goto	u4520
  3169  0045F4                     u4521:
  3170  0045F4  EF21  F023         	goto	l5343
  3171  0045F8                     u4520:
  3172  0045F8                     l5337:
  3173                           
  3174                           ; BSR set to: 5
  3175                           ;mcc_generated_files/can1.c: 274:     {;mcc_generated_files/can1.c: 275:         C1CONTb
      +                          its.REQOP = requestMode;
  3176  0045F8  0101               	movlb	1	; () banked
  3177  0045FA  5103               	movf	3,w,b	;volatile
  3178  0045FC  0105               	movlb	5	; () banked
  3179  0045FE  19AB               	xorwf	CAN1_OperationModeSet@requestMode& (0+255),w,b
  3180  004600  0BF8               	andlw	-8
  3181  004602  19AB               	xorwf	CAN1_OperationModeSet@requestMode& (0+255),w,b
  3182  004604  0101               	movlb	1	; () banked
  3183  004606  6F03               	movwf	3,b	;volatile
  3184                           
  3185                           ;mcc_generated_files/can1.c: 277:         while (C1CONUbits.OPMOD != requestMode)
  3186  004608  EF13  F023         	goto	l5341
  3187  00460C                     l799:
  3188                           
  3189                           ; BSR set to: 5
  3190                           ;mcc_generated_files/can1.c: 278:         {;mcc_generated_files/can1.c: 280:            
      +                           if (1 == C1INTHbits.SERRIF)
  3191  00460C  0101               	movlb	1	; () banked
  3192  00460E  A91D               	btfss	29,4,b	;volatile
  3193  004610  EF0C  F023         	goto	u4531
  3194  004614  EF0E  F023         	goto	u4530
  3195  004618                     u4531:
  3196  004618  EF13  F023         	goto	l5341
  3197  00461C                     u4530:
  3198  00461C                     
  3199                           ; BSR set to: 1
  3200                           ;mcc_generated_files/can1.c: 281:             {;mcc_generated_files/can1.c: 282:        
      +                                   status = CAN_OP_MODE_SYS_ERROR_OCCURED;
  3201  00461C  0E02               	movlw	2
  3202  00461E  0105               	movlb	5	; () banked
  3203  004620  6FAA               	movwf	CAN1_OperationModeSet@status& (0+255),b
  3204                           
  3205                           ;mcc_generated_files/can1.c: 283:                 break;
  3206  004622  EF23  F023         	goto	l802
  3207  004626                     l5341:
  3208                           
  3209                           ; BSR set to: 1
  3210                           ;mcc_generated_files/can1.c: 277:         while (C1CONUbits.OPMOD != requestMode)
  3211  004626  3902               	swapf	2,w,b	;volatile
  3212  004628  32E8               	rrcf	wreg,f,c
  3213  00462A  0B07               	andlw	7
  3214  00462C  0105               	movlb	5	; () banked
  3215  00462E  19AB               	xorwf	CAN1_OperationModeSet@requestMode& (0+255),w,b
  3216  004630  A4D8               	btfss	status,2,c
  3217  004632  EF1D  F023         	goto	u4541
  3218  004636  EF1F  F023         	goto	u4540
  3219  00463A                     u4541:
  3220  00463A  EF06  F023         	goto	l799
  3221  00463E                     u4540:
  3222  00463E  EF23  F023         	goto	l802
  3223  004642                     l5343:
  3224                           
  3225                           ; BSR set to: 5
  3226                           ;mcc_generated_files/can1.c: 288:     {;mcc_generated_files/can1.c: 289:         status 
      +                          = CAN_OP_MODE_REQUEST_FAIL;
  3227  004642  0E01               	movlw	1
  3228  004644  6FAA               	movwf	CAN1_OperationModeSet@status& (0+255),b
  3229  004646                     l802:
  3230                           
  3231                           ; BSR set to: 5
  3232                           ;mcc_generated_files/can1.c: 292:     return status;
  3233  004646  51AA               	movf	CAN1_OperationModeSet@status& (0+255),w,b
  3234  004648                     
  3235                           ; BSR set to: 5
  3236  004648  0012               	return		;funcret
  3237  00464A                     __end_of_CAN1_OperationModeSet:
  3238                           	callstack 0
  3239                           
  3240 ;; *************** function _CAN1_OperationModeGet *****************
  3241 ;; Defined at:
  3242 ;;		line 295 in file "mcc_generated_files/can1.c"
  3243 ;; Parameters:    Size  Location     Type
  3244 ;;		None
  3245 ;; Auto vars:     Size  Location     Type
  3246 ;;		None
  3247 ;; Return value:  Size  Location     Type
  3248 ;;                  1    wreg      enum E22346
  3249 ;; Registers used:
  3250 ;;		wreg, status,2, status,0
  3251 ;; Tracked objects:
  3252 ;;		On entry : 0/0
  3253 ;;		On exit  : 0/0
  3254 ;;		Unchanged: 0/0
  3255 ;; Data sizes:     COMRAM   BANK5   BANK6   BANK7   BANK8   BANK9  BANK10  BANK11  BANK12  BANK13  BANK14  BANK15  BANK1
      +6  BANK17  BANK18  BANK19  BANK20  BANK21  BANK22  BANK23  BANK24  BANK25  BANK26  BANK27  BANK28  BANK29  BANK30  BANK3
      +1  BANK32  BANK33  BANK34  BANK35  BANK36  BANK37
  3256 ;;      Params:         0       0       0       0       0       0       0       0       0       0       0       0       
      +0       0       0       0       0       0       0       0       0       0       0       0       0       0       0       
      +0       0       0       0       0       0       0
  3257 ;;      Locals:         0       0       0       0       0       0       0       0       0       0       0       0       
      +0       0       0       0       0       0       0       0       0       0       0       0       0       0       0       
      +0       0       0       0       0       0       0
  3258 ;;      Temps:          0       0       0       0       0       0       0       0       0       0       0       0       
      +0       0       0       0       0       0       0       0       0       0       0       0       0       0       0       
      +0       0       0       0       0       0       0
  3259 ;;      Totals:         0       0       0       0       0       0       0       0       0       0       0       0       
      +0       0       0       0       0       0       0       0       0       0       0       0       0       0       0       
      +0       0       0       0       0       0       0
  3260 ;;Total ram usage:        0 bytes
  3261 ;; Hardware stack levels used:    1
  3262 ;; Hardware stack levels required when called:    6
  3263 ;; This function calls:
  3264 ;;		Nothing
  3265 ;; This function is called by:
  3266 ;;		_CAN1_OperationModeSet
  3267 ;;		_ValidateTransmission
  3268 ;; This function uses a non-reentrant model
  3269 ;;
  3270                           
  3271                           	psect	text28
  3272  004E16                     __ptext28:
  3273                           	callstack 0
  3274  004E16                     _CAN1_OperationModeGet:
  3275                           	callstack 118
  3276  004E16                     
  3277                           ;mcc_generated_files/can1.c: 297:     return C1CONUbits.OPMOD;
  3278  004E16  0101               	movlb	1	; () banked
  3279  004E18  3902               	swapf	2,w,b	;volatile
  3280  004E1A  32E8               	rrcf	wreg,f,c
  3281  004E1C  0B07               	andlw	7
  3282  004E1E                     
  3283                           ; BSR set to: 1
  3284  004E1E  0012               	return		;funcret
  3285  004E20                     __end_of_CAN1_OperationModeGet:
  3286                           	callstack 0
  3287                           
  3288 ;; *************** function _CAN1_ErrorNotificationInterruptEnable *****************
  3289 ;; Defined at:
  3290 ;;		line 211 in file "mcc_generated_files/can1.c"
  3291 ;; Parameters:    Size  Location     Type
  3292 ;;		None
  3293 ;; Auto vars:     Size  Location     Type
  3294 ;;		None
  3295 ;; Return value:  Size  Location     Type
  3296 ;;                  1    wreg      void 
  3297 ;; Registers used:
  3298 ;;		wreg, status,2, status,0, cstack
  3299 ;; Tracked objects:
  3300 ;;		On entry : 0/0
  3301 ;;		On exit  : 0/0
  3302 ;;		Unchanged: 0/0
  3303 ;; Data sizes:     COMRAM   BANK5   BANK6   BANK7   BANK8   BANK9  BANK10  BANK11  BANK12  BANK13  BANK14  BANK15  BANK1
      +6  BANK17  BANK18  BANK19  BANK20  BANK21  BANK22  BANK23  BANK24  BANK25  BANK26  BANK27  BANK28  BANK29  BANK30  BANK3
      +1  BANK32  BANK33  BANK34  BANK35  BANK36  BANK37
  3304 ;;      Params:         0       0       0       0       0       0       0       0       0       0       0       0       
      +0       0       0       0       0       0       0       0       0       0       0       0       0       0       0       
      +0       0       0       0       0       0       0
  3305 ;;      Locals:         0       0       0       0       0       0       0       0       0       0       0       0       
      +0       0       0       0       0       0       0       0       0       0       0       0       0       0       0       
      +0       0       0       0       0       0       0
  3306 ;;      Temps:          0       0       0       0       0       0       0       0       0       0       0       0       
      +0       0       0       0       0       0       0       0       0       0       0       0       0       0       0       
      +0       0       0       0       0       0       0
  3307 ;;      Totals:         0       0       0       0       0       0       0       0       0       0       0       0       
      +0       0       0       0       0       0       0       0       0       0       0       0       0       0       0       
      +0       0       0       0       0       0       0
  3308 ;;Total ram usage:        0 bytes
  3309 ;; Hardware stack levels used:    1
  3310 ;; Hardware stack levels required when called:    7
  3311 ;; This function calls:
  3312 ;;		_CAN1_SetBusErrorInterruptHandler
  3313 ;;		_CAN1_SetBusWakeUpActivityInterruptHandler
  3314 ;;		_CAN1_SetInvalidMessageInterruptHandler
  3315 ;;		_CAN1_SetModeChangeInterruptHandler
  3316 ;;		_CAN1_SetRxBufferOverFlowInterruptHandler
  3317 ;;		_CAN1_SetSystemErrorInterruptHandler
  3318 ;;		_CAN1_SetTxAttemptInterruptHandler
  3319 ;; This function is called by:
  3320 ;;		_CAN1_Initialize
  3321 ;; This function uses a non-reentrant model
  3322 ;;
  3323                           
  3324                           	psect	text29
  3325  00464A                     __ptext29:
  3326                           	callstack 0
  3327  00464A                     _CAN1_ErrorNotificationInterruptEnable:
  3328                           	callstack 118
  3329  00464A                     
  3330                           ;mcc_generated_files/can1.c: 213:     CAN1_SetInvalidMessageInterruptHandler(DefaultInva
      +                          lidMessageHandler);
  3331  00464A  0EF0               	movlw	low _DefaultInvalidMessageHandler
  3332  00464C  0105               	movlb	5	; () banked
  3333  00464E  6FA9               	movwf	CAN1_SetInvalidMessageInterruptHandler@handler& (0+255),b
  3334  004650  0E4E               	movlw	high _DefaultInvalidMessageHandler
  3335  004652  6FAA               	movwf	(CAN1_SetInvalidMessageInterruptHandler@handler+1)& (0+255),b
  3336  004654  EC24  F027         	call	_CAN1_SetInvalidMessageInterruptHandler	;wreg free
  3337                           
  3338                           ;mcc_generated_files/can1.c: 214:     CAN1_SetBusWakeUpActivityInterruptHandler(DefaultB
      +                          usWakeUpActivityHandler);
  3339  004658  0EF2               	movlw	low _DefaultBusWakeUpActivityHandler
  3340  00465A  0105               	movlb	5	; () banked
  3341  00465C  6FA9               	movwf	CAN1_SetBusWakeUpActivityInterruptHandler@handler& (0+255),b
  3342  00465E  0E4E               	movlw	high _DefaultBusWakeUpActivityHandler
  3343  004660  6FAA               	movwf	(CAN1_SetBusWakeUpActivityInterruptHandler@handler+1)& (0+255),b
  3344  004662  EC29  F027         	call	_CAN1_SetBusWakeUpActivityInterruptHandler	;wreg free
  3345                           
  3346                           ;mcc_generated_files/can1.c: 215:     CAN1_SetBusErrorInterruptHandler(DefaultBusErrorHa
      +                          ndler);
  3347  004666  0EF4               	movlw	low _DefaultBusErrorHandler
  3348  004668  0105               	movlb	5	; () banked
  3349  00466A  6FA9               	movwf	CAN1_SetBusErrorInterruptHandler@handler& (0+255),b
  3350  00466C  0E4E               	movlw	high _DefaultBusErrorHandler
  3351  00466E  6FAA               	movwf	(CAN1_SetBusErrorInterruptHandler@handler+1)& (0+255),b
  3352  004670  EC2E  F027         	call	_CAN1_SetBusErrorInterruptHandler	;wreg free
  3353                           
  3354                           ;mcc_generated_files/can1.c: 216:     CAN1_SetModeChangeInterruptHandler(DefaultModeChan
      +                          geHandler);
  3355  004674  0EEE               	movlw	low _DefaultModeChangeHandler
  3356  004676  0105               	movlb	5	; () banked
  3357  004678  6FA9               	movwf	CAN1_SetModeChangeInterruptHandler@handler& (0+255),b
  3358  00467A  0E4E               	movlw	high _DefaultModeChangeHandler
  3359  00467C  6FAA               	movwf	(CAN1_SetModeChangeInterruptHandler@handler+1)& (0+255),b
  3360  00467E  EC1F  F027         	call	_CAN1_SetModeChangeInterruptHandler	;wreg free
  3361                           
  3362                           ;mcc_generated_files/can1.c: 217:     CAN1_SetSystemErrorInterruptHandler(DefaultSystemE
      +                          rrorHandler);
  3363  004682  0EEA               	movlw	low _DefaultSystemErrorHandler
  3364  004684  0105               	movlb	5	; () banked
  3365  004686  6FA9               	movwf	CAN1_SetSystemErrorInterruptHandler@handler& (0+255),b
  3366  004688  0E4E               	movlw	high _DefaultSystemErrorHandler
  3367  00468A  6FAA               	movwf	(CAN1_SetSystemErrorInterruptHandler@handler+1)& (0+255),b
  3368  00468C  EC15  F027         	call	_CAN1_SetSystemErrorInterruptHandler	;wreg free
  3369                           
  3370                           ;mcc_generated_files/can1.c: 218:     CAN1_SetTxAttemptInterruptHandler(DefaultTxAttempt
      +                          Handler);
  3371  004690  0EE8               	movlw	low _DefaultTxAttemptHandler
  3372  004692  0105               	movlb	5	; () banked
  3373  004694  6FA9               	movwf	CAN1_SetTxAttemptInterruptHandler@handler& (0+255),b
  3374  004696  0E4E               	movlw	high _DefaultTxAttemptHandler
  3375  004698  6FAA               	movwf	(CAN1_SetTxAttemptInterruptHandler@handler+1)& (0+255),b
  3376  00469A  EC10  F027         	call	_CAN1_SetTxAttemptInterruptHandler	;wreg free
  3377                           
  3378                           ;mcc_generated_files/can1.c: 219:     CAN1_SetRxBufferOverFlowInterruptHandler(DefaultRx
      +                          BufferOverflowHandler);
  3379  00469E  0EEC               	movlw	low _DefaultRxBufferOverflowHandler
  3380  0046A0  0105               	movlb	5	; () banked
  3381  0046A2  6FA9               	movwf	CAN1_SetRxBufferOverFlowInterruptHandler@handler& (0+255),b
  3382  0046A4  0E4E               	movlw	high _DefaultRxBufferOverflowHandler
  3383  0046A6  6FAA               	movwf	(CAN1_SetRxBufferOverFlowInterruptHandler@handler+1)& (0+255),b
  3384  0046A8  EC1A  F027         	call	_CAN1_SetRxBufferOverFlowInterruptHandler	;wreg free
  3385  0046AC                     
  3386                           ;mcc_generated_files/can1.c: 220:     PIR0bits.CANIF = 0;
  3387  0046AC  9CAE               	bcf	174,6,c	;volatile
  3388  0046AE                     
  3389                           ;mcc_generated_files/can1.c: 223:     C1INTL = 0x00;
  3390  0046AE  0E00               	movlw	0
  3391  0046B0  0101               	movlb	1	; () banked
  3392  0046B2  6F1C               	movwf	28,b	;volatile
  3393  0046B4                     
  3394                           ; BSR set to: 1
  3395                           ;mcc_generated_files/can1.c: 226:     C1INTH = 0x00;
  3396  0046B4  0E00               	movlw	0
  3397  0046B6  6F1D               	movwf	29,b	;volatile
  3398  0046B8                     
  3399                           ; BSR set to: 1
  3400                           ;mcc_generated_files/can1.c: 229:     C1INTU = 0x08;
  3401  0046B8  0E08               	movlw	8
  3402  0046BA  6F1E               	movwf	30,b	;volatile
  3403  0046BC                     
  3404                           ; BSR set to: 1
  3405                           ;mcc_generated_files/can1.c: 232:     C1INTT = 0xFC;
  3406  0046BC  0EFC               	movlw	252
  3407  0046BE  6F1F               	movwf	31,b	;volatile
  3408  0046C0                     
  3409                           ; BSR set to: 1
  3410                           ;mcc_generated_files/can1.c: 234:     PIE0bits.CANIE = 1;
  3411  0046C0  8C9E               	bsf	158,6,c	;volatile
  3412  0046C2                     
  3413                           ; BSR set to: 1
  3414  0046C2  0012               	return		;funcret
  3415  0046C4                     __end_of_CAN1_ErrorNotificationInterruptEnable:
  3416                           	callstack 0
  3417                           
  3418 ;; *************** function _CAN1_SetTxAttemptInterruptHandler *****************
  3419 ;; Defined at:
  3420 ;;		line 608 in file "mcc_generated_files/can1.c"
  3421 ;; Parameters:    Size  Location     Type
  3422 ;;  handler         2    0[BANK5 ] PTR FTN()void 
  3423 ;;		 -> DefaultTxAttemptHandler(1), 
  3424 ;; Auto vars:     Size  Location     Type
  3425 ;;		None
  3426 ;; Return value:  Size  Location     Type
  3427 ;;                  1    wreg      void 
  3428 ;; Registers used:
  3429 ;;		wreg, status,2, status,0
  3430 ;; Tracked objects:
  3431 ;;		On entry : 0/0
  3432 ;;		On exit  : 0/0
  3433 ;;		Unchanged: 0/0
  3434 ;; Data sizes:     COMRAM   BANK5   BANK6   BANK7   BANK8   BANK9  BANK10  BANK11  BANK12  BANK13  BANK14  BANK15  BANK1
      +6  BANK17  BANK18  BANK19  BANK20  BANK21  BANK22  BANK23  BANK24  BANK25  BANK26  BANK27  BANK28  BANK29  BANK30  BANK3
      +1  BANK32  BANK33  BANK34  BANK35  BANK36  BANK37
  3435 ;;      Params:         0       2       0       0       0       0       0       0       0       0       0       0       
      +0       0       0       0       0       0       0       0       0       0       0       0       0       0       0       
      +0       0       0       0       0       0       0
  3436 ;;      Locals:         0       0       0       0       0       0       0       0       0       0       0       0       
      +0       0       0       0       0       0       0       0       0       0       0       0       0       0       0       
      +0       0       0       0       0       0       0
  3437 ;;      Temps:          0       0       0       0       0       0       0       0       0       0       0       0       
      +0       0       0       0       0       0       0       0       0       0       0       0       0       0       0       
      +0       0       0       0       0       0       0
  3438 ;;      Totals:         0       2       0       0       0       0       0       0       0       0       0       0       
      +0       0       0       0       0       0       0       0       0       0       0       0       0       0       0       
      +0       0       0       0       0       0       0
  3439 ;;Total ram usage:        2 bytes
  3440 ;; Hardware stack levels used:    1
  3441 ;; Hardware stack levels required when called:    6
  3442 ;; This function calls:
  3443 ;;		Nothing
  3444 ;; This function is called by:
  3445 ;;		_CAN1_ErrorNotificationInterruptEnable
  3446 ;; This function uses a non-reentrant model
  3447 ;;
  3448                           
  3449                           	psect	text30
  3450  004E20                     __ptext30:
  3451                           	callstack 0
  3452  004E20                     _CAN1_SetTxAttemptInterruptHandler:
  3453                           	callstack 118
  3454  004E20                     
  3455                           ;mcc_generated_files/can1.c: 608: void CAN1_SetTxAttemptInterruptHandler(void (*handler)
      +                          (void));mcc_generated_files/can1.c: 609: {;mcc_generated_files/can1.c: 610:     CAN1_TxA
      +                          ttemptHandler = handler;
  3456  004E20  C5A9  F57E         	movff	CAN1_SetTxAttemptInterruptHandler@handler,_CAN1_TxAttemptHandler
  3457  004E24  C5AA  F57F         	movff	CAN1_SetTxAttemptInterruptHandler@handler+1,_CAN1_TxAttemptHandler+1
  3458  004E28  0012               	return		;funcret
  3459  004E2A                     __end_of_CAN1_SetTxAttemptInterruptHandler:
  3460                           	callstack 0
  3461                           
  3462 ;; *************** function _CAN1_SetSystemErrorInterruptHandler *****************
  3463 ;; Defined at:
  3464 ;;		line 603 in file "mcc_generated_files/can1.c"
  3465 ;; Parameters:    Size  Location     Type
  3466 ;;  handler         2    0[BANK5 ] PTR FTN()void 
  3467 ;;		 -> DefaultSystemErrorHandler(1), 
  3468 ;; Auto vars:     Size  Location     Type
  3469 ;;		None
  3470 ;; Return value:  Size  Location     Type
  3471 ;;                  1    wreg      void 
  3472 ;; Registers used:
  3473 ;;		wreg, status,2, status,0
  3474 ;; Tracked objects:
  3475 ;;		On entry : 0/0
  3476 ;;		On exit  : 0/0
  3477 ;;		Unchanged: 0/0
  3478 ;; Data sizes:     COMRAM   BANK5   BANK6   BANK7   BANK8   BANK9  BANK10  BANK11  BANK12  BANK13  BANK14  BANK15  BANK1
      +6  BANK17  BANK18  BANK19  BANK20  BANK21  BANK22  BANK23  BANK24  BANK25  BANK26  BANK27  BANK28  BANK29  BANK30  BANK3
      +1  BANK32  BANK33  BANK34  BANK35  BANK36  BANK37
  3479 ;;      Params:         0       2       0       0       0       0       0       0       0       0       0       0       
      +0       0       0       0       0       0       0       0       0       0       0       0       0       0       0       
      +0       0       0       0       0       0       0
  3480 ;;      Locals:         0       0       0       0       0       0       0       0       0       0       0       0       
      +0       0       0       0       0       0       0       0       0       0       0       0       0       0       0       
      +0       0       0       0       0       0       0
  3481 ;;      Temps:          0       0       0       0       0       0       0       0       0       0       0       0       
      +0       0       0       0       0       0       0       0       0       0       0       0       0       0       0       
      +0       0       0       0       0       0       0
  3482 ;;      Totals:         0       2       0       0       0       0       0       0       0       0       0       0       
      +0       0       0       0       0       0       0       0       0       0       0       0       0       0       0       
      +0       0       0       0       0       0       0
  3483 ;;Total ram usage:        2 bytes
  3484 ;; Hardware stack levels used:    1
  3485 ;; Hardware stack levels required when called:    6
  3486 ;; This function calls:
  3487 ;;		Nothing
  3488 ;; This function is called by:
  3489 ;;		_CAN1_ErrorNotificationInterruptEnable
  3490 ;; This function uses a non-reentrant model
  3491 ;;
  3492                           
  3493                           	psect	text31
  3494  004E2A                     __ptext31:
  3495                           	callstack 0
  3496  004E2A                     _CAN1_SetSystemErrorInterruptHandler:
  3497                           	callstack 118
  3498  004E2A                     
  3499                           ;mcc_generated_files/can1.c: 603: void CAN1_SetSystemErrorInterruptHandler(void (*handle
      +                          r)(void));mcc_generated_files/can1.c: 604: {;mcc_generated_files/can1.c: 605:     CAN1_S
      +                          ystemErrorHandler = handler;
  3500  004E2A  C5A9  F580         	movff	CAN1_SetSystemErrorInterruptHandler@handler,_CAN1_SystemErrorHandler
  3501  004E2E  C5AA  F581         	movff	CAN1_SetSystemErrorInterruptHandler@handler+1,_CAN1_SystemErrorHandler+1
  3502  004E32  0012               	return		;funcret
  3503  004E34                     __end_of_CAN1_SetSystemErrorInterruptHandler:
  3504                           	callstack 0
  3505                           
  3506 ;; *************** function _CAN1_SetRxBufferOverFlowInterruptHandler *****************
  3507 ;; Defined at:
  3508 ;;		line 613 in file "mcc_generated_files/can1.c"
  3509 ;; Parameters:    Size  Location     Type
  3510 ;;  handler         2    0[BANK5 ] PTR FTN()void 
  3511 ;;		 -> DefaultRxBufferOverflowHandler(1), 
  3512 ;; Auto vars:     Size  Location     Type
  3513 ;;		None
  3514 ;; Return value:  Size  Location     Type
  3515 ;;                  1    wreg      void 
  3516 ;; Registers used:
  3517 ;;		wreg, status,2, status,0
  3518 ;; Tracked objects:
  3519 ;;		On entry : 0/0
  3520 ;;		On exit  : 0/0
  3521 ;;		Unchanged: 0/0
  3522 ;; Data sizes:     COMRAM   BANK5   BANK6   BANK7   BANK8   BANK9  BANK10  BANK11  BANK12  BANK13  BANK14  BANK15  BANK1
      +6  BANK17  BANK18  BANK19  BANK20  BANK21  BANK22  BANK23  BANK24  BANK25  BANK26  BANK27  BANK28  BANK29  BANK30  BANK3
      +1  BANK32  BANK33  BANK34  BANK35  BANK36  BANK37
  3523 ;;      Params:         0       2       0       0       0       0       0       0       0       0       0       0       
      +0       0       0       0       0       0       0       0       0       0       0       0       0       0       0       
      +0       0       0       0       0       0       0
  3524 ;;      Locals:         0       0       0       0       0       0       0       0       0       0       0       0       
      +0       0       0       0       0       0       0       0       0       0       0       0       0       0       0       
      +0       0       0       0       0       0       0
  3525 ;;      Temps:          0       0       0       0       0       0       0       0       0       0       0       0       
      +0       0       0       0       0       0       0       0       0       0       0       0       0       0       0       
      +0       0       0       0       0       0       0
  3526 ;;      Totals:         0       2       0       0       0       0       0       0       0       0       0       0       
      +0       0       0       0       0       0       0       0       0       0       0       0       0       0       0       
      +0       0       0       0       0       0       0
  3527 ;;Total ram usage:        2 bytes
  3528 ;; Hardware stack levels used:    1
  3529 ;; Hardware stack levels required when called:    6
  3530 ;; This function calls:
  3531 ;;		Nothing
  3532 ;; This function is called by:
  3533 ;;		_CAN1_ErrorNotificationInterruptEnable
  3534 ;; This function uses a non-reentrant model
  3535 ;;
  3536                           
  3537                           	psect	text32
  3538  004E34                     __ptext32:
  3539                           	callstack 0
  3540  004E34                     _CAN1_SetRxBufferOverFlowInterruptHandler:
  3541                           	callstack 118
  3542  004E34                     
  3543                           ;mcc_generated_files/can1.c: 613: void CAN1_SetRxBufferOverFlowInterruptHandler(void (*h
      +                          andler)(void));mcc_generated_files/can1.c: 614: {;mcc_generated_files/can1.c: 615:     C
      +                          AN1_RxBufferOverflowHandler = handler;
  3544  004E34  C5A9  F57C         	movff	CAN1_SetRxBufferOverFlowInterruptHandler@handler,_CAN1_RxBufferOverflowHandler
  3545  004E38  C5AA  F57D         	movff	CAN1_SetRxBufferOverFlowInterruptHandler@handler+1,_CAN1_RxBufferOverflowHandler+
      +                          1
  3546  004E3C  0012               	return		;funcret
  3547  004E3E                     __end_of_CAN1_SetRxBufferOverFlowInterruptHandler:
  3548                           	callstack 0
  3549                           
  3550 ;; *************** function _CAN1_SetModeChangeInterruptHandler *****************
  3551 ;; Defined at:
  3552 ;;		line 598 in file "mcc_generated_files/can1.c"
  3553 ;; Parameters:    Size  Location     Type
  3554 ;;  handler         2    0[BANK5 ] PTR FTN()void 
  3555 ;;		 -> DefaultModeChangeHandler(1), 
  3556 ;; Auto vars:     Size  Location     Type
  3557 ;;		None
  3558 ;; Return value:  Size  Location     Type
  3559 ;;                  1    wreg      void 
  3560 ;; Registers used:
  3561 ;;		wreg, status,2, status,0
  3562 ;; Tracked objects:
  3563 ;;		On entry : 0/0
  3564 ;;		On exit  : 0/0
  3565 ;;		Unchanged: 0/0
  3566 ;; Data sizes:     COMRAM   BANK5   BANK6   BANK7   BANK8   BANK9  BANK10  BANK11  BANK12  BANK13  BANK14  BANK15  BANK1
      +6  BANK17  BANK18  BANK19  BANK20  BANK21  BANK22  BANK23  BANK24  BANK25  BANK26  BANK27  BANK28  BANK29  BANK30  BANK3
      +1  BANK32  BANK33  BANK34  BANK35  BANK36  BANK37
  3567 ;;      Params:         0       2       0       0       0       0       0       0       0       0       0       0       
      +0       0       0       0       0       0       0       0       0       0       0       0       0       0       0       
      +0       0       0       0       0       0       0
  3568 ;;      Locals:         0       0       0       0       0       0       0       0       0       0       0       0       
      +0       0       0       0       0       0       0       0       0       0       0       0       0       0       0       
      +0       0       0       0       0       0       0
  3569 ;;      Temps:          0       0       0       0       0       0       0       0       0       0       0       0       
      +0       0       0       0       0       0       0       0       0       0       0       0       0       0       0       
      +0       0       0       0       0       0       0
  3570 ;;      Totals:         0       2       0       0       0       0       0       0       0       0       0       0       
      +0       0       0       0       0       0       0       0       0       0       0       0       0       0       0       
      +0       0       0       0       0       0       0
  3571 ;;Total ram usage:        2 bytes
  3572 ;; Hardware stack levels used:    1
  3573 ;; Hardware stack levels required when called:    6
  3574 ;; This function calls:
  3575 ;;		Nothing
  3576 ;; This function is called by:
  3577 ;;		_CAN1_ErrorNotificationInterruptEnable
  3578 ;; This function uses a non-reentrant model
  3579 ;;
  3580                           
  3581                           	psect	text33
  3582  004E3E                     __ptext33:
  3583                           	callstack 0
  3584  004E3E                     _CAN1_SetModeChangeInterruptHandler:
  3585                           	callstack 118
  3586  004E3E                     
  3587                           ;mcc_generated_files/can1.c: 598: void CAN1_SetModeChangeInterruptHandler(void (*handler
      +                          )(void));mcc_generated_files/can1.c: 599: {;mcc_generated_files/can1.c: 600:     CAN1_Mo
      +                          deChangeHandler = handler;
  3588  004E3E  C5A9  F582         	movff	CAN1_SetModeChangeInterruptHandler@handler,_CAN1_ModeChangeHandler
  3589  004E42  C5AA  F583         	movff	CAN1_SetModeChangeInterruptHandler@handler+1,_CAN1_ModeChangeHandler+1
  3590  004E46  0012               	return		;funcret
  3591  004E48                     __end_of_CAN1_SetModeChangeInterruptHandler:
  3592                           	callstack 0
  3593                           
  3594 ;; *************** function _CAN1_SetInvalidMessageInterruptHandler *****************
  3595 ;; Defined at:
  3596 ;;		line 583 in file "mcc_generated_files/can1.c"
  3597 ;; Parameters:    Size  Location     Type
  3598 ;;  handler         2    0[BANK5 ] PTR FTN()void 
  3599 ;;		 -> DefaultInvalidMessageHandler(1), 
  3600 ;; Auto vars:     Size  Location     Type
  3601 ;;		None
  3602 ;; Return value:  Size  Location     Type
  3603 ;;                  1    wreg      void 
  3604 ;; Registers used:
  3605 ;;		wreg, status,2, status,0
  3606 ;; Tracked objects:
  3607 ;;		On entry : 0/0
  3608 ;;		On exit  : 0/0
  3609 ;;		Unchanged: 0/0
  3610 ;; Data sizes:     COMRAM   BANK5   BANK6   BANK7   BANK8   BANK9  BANK10  BANK11  BANK12  BANK13  BANK14  BANK15  BANK1
      +6  BANK17  BANK18  BANK19  BANK20  BANK21  BANK22  BANK23  BANK24  BANK25  BANK26  BANK27  BANK28  BANK29  BANK30  BANK3
      +1  BANK32  BANK33  BANK34  BANK35  BANK36  BANK37
  3611 ;;      Params:         0       2       0       0       0       0       0       0       0       0       0       0       
      +0       0       0       0       0       0       0       0       0       0       0       0       0       0       0       
      +0       0       0       0       0       0       0
  3612 ;;      Locals:         0       0       0       0       0       0       0       0       0       0       0       0       
      +0       0       0       0       0       0       0       0       0       0       0       0       0       0       0       
      +0       0       0       0       0       0       0
  3613 ;;      Temps:          0       0       0       0       0       0       0       0       0       0       0       0       
      +0       0       0       0       0       0       0       0       0       0       0       0       0       0       0       
      +0       0       0       0       0       0       0
  3614 ;;      Totals:         0       2       0       0       0       0       0       0       0       0       0       0       
      +0       0       0       0       0       0       0       0       0       0       0       0       0       0       0       
      +0       0       0       0       0       0       0
  3615 ;;Total ram usage:        2 bytes
  3616 ;; Hardware stack levels used:    1
  3617 ;; Hardware stack levels required when called:    6
  3618 ;; This function calls:
  3619 ;;		Nothing
  3620 ;; This function is called by:
  3621 ;;		_CAN1_ErrorNotificationInterruptEnable
  3622 ;; This function uses a non-reentrant model
  3623 ;;
  3624                           
  3625                           	psect	text34
  3626  004E48                     __ptext34:
  3627                           	callstack 0
  3628  004E48                     _CAN1_SetInvalidMessageInterruptHandler:
  3629                           	callstack 118
  3630  004E48                     
  3631                           ;mcc_generated_files/can1.c: 583: void CAN1_SetInvalidMessageInterruptHandler(void (*han
      +                          dler)(void));mcc_generated_files/can1.c: 584: {;mcc_generated_files/can1.c: 585:     CAN
      +                          1_InvalidMessageHandler = handler;
  3632  004E48  C5A9  F588         	movff	CAN1_SetInvalidMessageInterruptHandler@handler,_CAN1_InvalidMessageHandler
  3633  004E4C  C5AA  F589         	movff	CAN1_SetInvalidMessageInterruptHandler@handler+1,_CAN1_InvalidMessageHandler+1
  3634  004E50  0012               	return		;funcret
  3635  004E52                     __end_of_CAN1_SetInvalidMessageInterruptHandler:
  3636                           	callstack 0
  3637                           
  3638 ;; *************** function _CAN1_SetBusWakeUpActivityInterruptHandler *****************
  3639 ;; Defined at:
  3640 ;;		line 588 in file "mcc_generated_files/can1.c"
  3641 ;; Parameters:    Size  Location     Type
  3642 ;;  handler         2    0[BANK5 ] PTR FTN()void 
  3643 ;;		 -> DefaultBusWakeUpActivityHandler(1), 
  3644 ;; Auto vars:     Size  Location     Type
  3645 ;;		None
  3646 ;; Return value:  Size  Location     Type
  3647 ;;                  1    wreg      void 
  3648 ;; Registers used:
  3649 ;;		wreg, status,2, status,0
  3650 ;; Tracked objects:
  3651 ;;		On entry : 0/0
  3652 ;;		On exit  : 0/0
  3653 ;;		Unchanged: 0/0
  3654 ;; Data sizes:     COMRAM   BANK5   BANK6   BANK7   BANK8   BANK9  BANK10  BANK11  BANK12  BANK13  BANK14  BANK15  BANK1
      +6  BANK17  BANK18  BANK19  BANK20  BANK21  BANK22  BANK23  BANK24  BANK25  BANK26  BANK27  BANK28  BANK29  BANK30  BANK3
      +1  BANK32  BANK33  BANK34  BANK35  BANK36  BANK37
  3655 ;;      Params:         0       2       0       0       0       0       0       0       0       0       0       0       
      +0       0       0       0       0       0       0       0       0       0       0       0       0       0       0       
      +0       0       0       0       0       0       0
  3656 ;;      Locals:         0       0       0       0       0       0       0       0       0       0       0       0       
      +0       0       0       0       0       0       0       0       0       0       0       0       0       0       0       
      +0       0       0       0       0       0       0
  3657 ;;      Temps:          0       0       0       0       0       0       0       0       0       0       0       0       
      +0       0       0       0       0       0       0       0       0       0       0       0       0       0       0       
      +0       0       0       0       0       0       0
  3658 ;;      Totals:         0       2       0       0       0       0       0       0       0       0       0       0       
      +0       0       0       0       0       0       0       0       0       0       0       0       0       0       0       
      +0       0       0       0       0       0       0
  3659 ;;Total ram usage:        2 bytes
  3660 ;; Hardware stack levels used:    1
  3661 ;; Hardware stack levels required when called:    6
  3662 ;; This function calls:
  3663 ;;		Nothing
  3664 ;; This function is called by:
  3665 ;;		_CAN1_ErrorNotificationInterruptEnable
  3666 ;; This function uses a non-reentrant model
  3667 ;;
  3668                           
  3669                           	psect	text35
  3670  004E52                     __ptext35:
  3671                           	callstack 0
  3672  004E52                     _CAN1_SetBusWakeUpActivityInterruptHandler:
  3673                           	callstack 118
  3674  004E52                     
  3675                           ;mcc_generated_files/can1.c: 588: void CAN1_SetBusWakeUpActivityInterruptHandler(void (*
      +                          handler)(void));mcc_generated_files/can1.c: 589: {;mcc_generated_files/can1.c: 590:     
      +                          CAN1_BusWakeUpActivityHandler = handler;
  3676  004E52  C5A9  F586         	movff	CAN1_SetBusWakeUpActivityInterruptHandler@handler,_CAN1_BusWakeUpActivityHandler
  3677  004E56  C5AA  F587         	movff	CAN1_SetBusWakeUpActivityInterruptHandler@handler+1,_CAN1_BusWakeUpActivityHandle
      +                          r+1
  3678  004E5A  0012               	return		;funcret
  3679  004E5C                     __end_of_CAN1_SetBusWakeUpActivityInterruptHandler:
  3680                           	callstack 0
  3681                           
  3682 ;; *************** function _CAN1_SetBusErrorInterruptHandler *****************
  3683 ;; Defined at:
  3684 ;;		line 593 in file "mcc_generated_files/can1.c"
  3685 ;; Parameters:    Size  Location     Type
  3686 ;;  handler         2    0[BANK5 ] PTR FTN()void 
  3687 ;;		 -> DefaultBusErrorHandler(1), 
  3688 ;; Auto vars:     Size  Location     Type
  3689 ;;		None
  3690 ;; Return value:  Size  Location     Type
  3691 ;;                  1    wreg      void 
  3692 ;; Registers used:
  3693 ;;		wreg, status,2, status,0
  3694 ;; Tracked objects:
  3695 ;;		On entry : 0/0
  3696 ;;		On exit  : 0/0
  3697 ;;		Unchanged: 0/0
  3698 ;; Data sizes:     COMRAM   BANK5   BANK6   BANK7   BANK8   BANK9  BANK10  BANK11  BANK12  BANK13  BANK14  BANK15  BANK1
      +6  BANK17  BANK18  BANK19  BANK20  BANK21  BANK22  BANK23  BANK24  BANK25  BANK26  BANK27  BANK28  BANK29  BANK30  BANK3
      +1  BANK32  BANK33  BANK34  BANK35  BANK36  BANK37
  3699 ;;      Params:         0       2       0       0       0       0       0       0       0       0       0       0       
      +0       0       0       0       0       0       0       0       0       0       0       0       0       0       0       
      +0       0       0       0       0       0       0
  3700 ;;      Locals:         0       0       0       0       0       0       0       0       0       0       0       0       
      +0       0       0       0       0       0       0       0       0       0       0       0       0       0       0       
      +0       0       0       0       0       0       0
  3701 ;;      Temps:          0       0       0       0       0       0       0       0       0       0       0       0       
      +0       0       0       0       0       0       0       0       0       0       0       0       0       0       0       
      +0       0       0       0       0       0       0
  3702 ;;      Totals:         0       2       0       0       0       0       0       0       0       0       0       0       
      +0       0       0       0       0       0       0       0       0       0       0       0       0       0       0       
      +0       0       0       0       0       0       0
  3703 ;;Total ram usage:        2 bytes
  3704 ;; Hardware stack levels used:    1
  3705 ;; Hardware stack levels required when called:    6
  3706 ;; This function calls:
  3707 ;;		Nothing
  3708 ;; This function is called by:
  3709 ;;		_CAN1_ErrorNotificationInterruptEnable
  3710 ;; This function uses a non-reentrant model
  3711 ;;
  3712                           
  3713                           	psect	text36
  3714  004E5C                     __ptext36:
  3715                           	callstack 0
  3716  004E5C                     _CAN1_SetBusErrorInterruptHandler:
  3717                           	callstack 118
  3718  004E5C                     
  3719                           ;mcc_generated_files/can1.c: 593: void CAN1_SetBusErrorInterruptHandler(void (*handler)(
      +                          void));mcc_generated_files/can1.c: 594: {;mcc_generated_files/can1.c: 595:     CAN1_BusE
      +                          rrorHandler = handler;
  3720  004E5C  C5A9  F584         	movff	CAN1_SetBusErrorInterruptHandler@handler,_CAN1_BusErrorHandler
  3721  004E60  C5AA  F585         	movff	CAN1_SetBusErrorInterruptHandler@handler+1,_CAN1_BusErrorHandler+1
  3722  004E64  0012               	return		;funcret
  3723  004E66                     __end_of_CAN1_SetBusErrorInterruptHandler:
  3724                           	callstack 0
  3725                           
  3726 ;; *************** function _CAN1_BitRateConfiguration *****************
  3727 ;; Defined at:
  3728 ;;		line 195 in file "mcc_generated_files/can1.c"
  3729 ;; Parameters:    Size  Location     Type
  3730 ;;		None
  3731 ;; Auto vars:     Size  Location     Type
  3732 ;;		None
  3733 ;; Return value:  Size  Location     Type
  3734 ;;                  1    wreg      void 
  3735 ;; Registers used:
  3736 ;;		wreg, status,2
  3737 ;; Tracked objects:
  3738 ;;		On entry : 0/0
  3739 ;;		On exit  : 0/0
  3740 ;;		Unchanged: 0/0
  3741 ;; Data sizes:     COMRAM   BANK5   BANK6   BANK7   BANK8   BANK9  BANK10  BANK11  BANK12  BANK13  BANK14  BANK15  BANK1
      +6  BANK17  BANK18  BANK19  BANK20  BANK21  BANK22  BANK23  BANK24  BANK25  BANK26  BANK27  BANK28  BANK29  BANK30  BANK3
      +1  BANK32  BANK33  BANK34  BANK35  BANK36  BANK37
  3742 ;;      Params:         0       0       0       0       0       0       0       0       0       0       0       0       
      +0       0       0       0       0       0       0       0       0       0       0       0       0       0       0       
      +0       0       0       0       0       0       0
  3743 ;;      Locals:         0       0       0       0       0       0       0       0       0       0       0       0       
      +0       0       0       0       0       0       0       0       0       0       0       0       0       0       0       
      +0       0       0       0       0       0       0
  3744 ;;      Temps:          0       0       0       0       0       0       0       0       0       0       0       0       
      +0       0       0       0       0       0       0       0       0       0       0       0       0       0       0       
      +0       0       0       0       0       0       0
  3745 ;;      Totals:         0       0       0       0       0       0       0       0       0       0       0       0       
      +0       0       0       0       0       0       0       0       0       0       0       0       0       0       0       
      +0       0       0       0       0       0       0
  3746 ;;Total ram usage:        0 bytes
  3747 ;; Hardware stack levels used:    1
  3748 ;; Hardware stack levels required when called:    6
  3749 ;; This function calls:
  3750 ;;		Nothing
  3751 ;; This function is called by:
  3752 ;;		_CAN1_Initialize
  3753 ;; This function uses a non-reentrant model
  3754 ;;
  3755                           
  3756                           	psect	text37
  3757  004D52                     __ptext37:
  3758                           	callstack 0
  3759  004D52                     _CAN1_BitRateConfiguration:
  3760                           	callstack 119
  3761  004D52                     
  3762                           ;mcc_generated_files/can1.c: 198:     C1NBTCFGL = 0x01;
  3763  004D52  0E01               	movlw	1
  3764  004D54  0101               	movlb	1	; () banked
  3765  004D56  6F04               	movwf	4,b	;volatile
  3766                           
  3767                           ;mcc_generated_files/can1.c: 201:     C1NBTCFGH = 0x01;
  3768  004D58  0E01               	movlw	1
  3769  004D5A  6F05               	movwf	5,b	;volatile
  3770                           
  3771                           ;mcc_generated_files/can1.c: 204:     C1NBTCFGU = 0x06;
  3772  004D5C  0E06               	movlw	6
  3773  004D5E  6F06               	movwf	6,b	;volatile
  3774                           
  3775                           ;mcc_generated_files/can1.c: 207:     C1NBTCFGT = 0x00;
  3776  004D60  0E00               	movlw	0
  3777  004D62  6F07               	movwf	7,b	;volatile
  3778  004D64                     
  3779                           ; BSR set to: 1
  3780  004D64  0012               	return		;funcret
  3781  004D66                     __end_of_CAN1_BitRateConfiguration:
  3782                           	callstack 0
  3783                           
  3784 ;; *************** function _ADC_Initialize *****************
  3785 ;; Defined at:
  3786 ;;		line 71 in file "mcc_generated_files/adc.c"
  3787 ;; Parameters:    Size  Location     Type
  3788 ;;		None
  3789 ;; Auto vars:     Size  Location     Type
  3790 ;;		None
  3791 ;; Return value:  Size  Location     Type
  3792 ;;                  1    wreg      void 
  3793 ;; Registers used:
  3794 ;;		wreg, status,2, status,0, cstack
  3795 ;; Tracked objects:
  3796 ;;		On entry : 0/0
  3797 ;;		On exit  : 0/0
  3798 ;;		Unchanged: 0/0
  3799 ;; Data sizes:     COMRAM   BANK5   BANK6   BANK7   BANK8   BANK9  BANK10  BANK11  BANK12  BANK13  BANK14  BANK15  BANK1
      +6  BANK17  BANK18  BANK19  BANK20  BANK21  BANK22  BANK23  BANK24  BANK25  BANK26  BANK27  BANK28  BANK29  BANK30  BANK3
      +1  BANK32  BANK33  BANK34  BANK35  BANK36  BANK37
  3800 ;;      Params:         0       0       0       0       0       0       0       0       0       0       0       0       
      +0       0       0       0       0       0       0       0       0       0       0       0       0       0       0       
      +0       0       0       0       0       0       0
  3801 ;;      Locals:         0       0       0       0       0       0       0       0       0       0       0       0       
      +0       0       0       0       0       0       0       0       0       0       0       0       0       0       0       
      +0       0       0       0       0       0       0
  3802 ;;      Temps:          0       0       0       0       0       0       0       0       0       0       0       0       
      +0       0       0       0       0       0       0       0       0       0       0       0       0       0       0       
      +0       0       0       0       0       0       0
  3803 ;;      Totals:         0       0       0       0       0       0       0       0       0       0       0       0       
      +0       0       0       0       0       0       0       0       0       0       0       0       0       0       0       
      +0       0       0       0       0       0       0
  3804 ;;Total ram usage:        0 bytes
  3805 ;; Hardware stack levels used:    1
  3806 ;; Hardware stack levels required when called:    7
  3807 ;; This function calls:
  3808 ;;		_ADC_SetADIInterruptHandler
  3809 ;;		_ADC_SetActiveClockTuningInterruptHandler
  3810 ;;		_ADC_SetContext1ThresholdInterruptHandler
  3811 ;;		_ADC_SetContext2ThresholdInterruptHandler
  3812 ;;		_ADC_SetContext3ThresholdInterruptHandler
  3813 ;;		_ADC_SetContext4ThresholdInterruptHandler
  3814 ;; This function is called by:
  3815 ;;		_SYSTEM_Initialize
  3816 ;; This function uses a non-reentrant model
  3817 ;;
  3818                           
  3819                           	psect	text38
  3820  003778                     __ptext38:
  3821                           	callstack 0
  3822  003778                     _ADC_Initialize:
  3823                           	callstack 119
  3824  003778                     
  3825                           ;mcc_generated_files/adc.c: 74:     ADACT = 0x04;
  3826  003778  0E04               	movlw	4
  3827  00377A  0103               	movlb	3	; () banked
  3828  00377C  6FF9               	movwf	249,b	;volatile
  3829                           
  3830                           ;mcc_generated_files/adc.c: 77:     ADCLK = 0x00;
  3831  00377E  0E00               	movlw	0
  3832  003780  6FFA               	movwf	250,b	;volatile
  3833                           
  3834                           ;mcc_generated_files/adc.c: 80:     ADCP = 0x00;
  3835  003782  0E00               	movlw	0
  3836  003784  6FD8               	movwf	216,b	;volatile
  3837                           
  3838                           ;mcc_generated_files/adc.c: 86:     ADCTX = 0x0;
  3839  003786  0E00               	movlw	0
  3840  003788  6FFB               	movwf	251,b	;volatile
  3841                           
  3842                           ;mcc_generated_files/adc.c: 89:     ADLTHL = 0x00;
  3843  00378A  0E00               	movlw	0
  3844  00378C  6FD9               	movwf	217,b	;volatile
  3845                           
  3846                           ;mcc_generated_files/adc.c: 92:     ADLTHH = 0x00;
  3847  00378E  0E00               	movlw	0
  3848  003790  6FDA               	movwf	218,b	;volatile
  3849                           
  3850                           ;mcc_generated_files/adc.c: 95:     ADUTHL = 0x00;
  3851  003792  0E00               	movlw	0
  3852  003794  6FDB               	movwf	219,b	;volatile
  3853                           
  3854                           ;mcc_generated_files/adc.c: 98:     ADUTHH = 0x00;
  3855  003796  0E00               	movlw	0
  3856  003798  6FDC               	movwf	220,b	;volatile
  3857                           
  3858                           ;mcc_generated_files/adc.c: 101:     ADSTPTL = 0x00;
  3859  00379A  0E00               	movlw	0
  3860  00379C  6FDF               	movwf	223,b	;volatile
  3861                           
  3862                           ;mcc_generated_files/adc.c: 104:     ADSTPTH = 0x00;
  3863  00379E  0E00               	movlw	0
  3864  0037A0  6FE0               	movwf	224,b	;volatile
  3865                           
  3866                           ;mcc_generated_files/adc.c: 107:     ADACCL = 0x00;
  3867  0037A2  0E00               	movlw	0
  3868  0037A4  6FE3               	movwf	227,b	;volatile
  3869                           
  3870                           ;mcc_generated_files/adc.c: 110:     ADACCH = 0x00;
  3871  0037A6  0E00               	movlw	0
  3872  0037A8  6FE4               	movwf	228,b	;volatile
  3873                           
  3874                           ;mcc_generated_files/adc.c: 113:     ADACCU = 0x00;
  3875  0037AA  0E00               	movlw	0
  3876  0037AC  6FE5               	movwf	229,b	;volatile
  3877                           
  3878                           ;mcc_generated_files/adc.c: 116:     ADCNT = 0x00;
  3879  0037AE  0E00               	movlw	0
  3880  0037B0  6FE6               	movwf	230,b	;volatile
  3881                           
  3882                           ;mcc_generated_files/adc.c: 119:     ADRPT = 0x00;
  3883  0037B2  0E00               	movlw	0
  3884  0037B4  6FE7               	movwf	231,b	;volatile
  3885                           
  3886                           ;mcc_generated_files/adc.c: 122:     ADRESL = 0x00;
  3887  0037B6  0E00               	movlw	0
  3888  0037B8  6FEA               	movwf	234,b	;volatile
  3889                           
  3890                           ;mcc_generated_files/adc.c: 125:     ADRESH = 0x00;
  3891  0037BA  0E00               	movlw	0
  3892  0037BC  6FEB               	movwf	235,b	;volatile
  3893                           
  3894                           ;mcc_generated_files/adc.c: 128:     ADPCH = 0x00;
  3895  0037BE  0E00               	movlw	0
  3896  0037C0  6FEC               	movwf	236,b	;volatile
  3897                           
  3898                           ;mcc_generated_files/adc.c: 131:     ADACQL = 0x00;
  3899  0037C2  0E00               	movlw	0
  3900  0037C4  6FEE               	movwf	238,b	;volatile
  3901                           
  3902                           ;mcc_generated_files/adc.c: 134:     ADACQH = 0x00;
  3903  0037C6  0E00               	movlw	0
  3904  0037C8  6FEF               	movwf	239,b	;volatile
  3905                           
  3906                           ;mcc_generated_files/adc.c: 137:     ADCAP = 0x00;
  3907  0037CA  0E00               	movlw	0
  3908  0037CC  6FF0               	movwf	240,b	;volatile
  3909                           
  3910                           ;mcc_generated_files/adc.c: 140:     ADPREL = 0x00;
  3911  0037CE  0E00               	movlw	0
  3912  0037D0  6FF1               	movwf	241,b	;volatile
  3913                           
  3914                           ;mcc_generated_files/adc.c: 143:     ADPREH = 0x00;
  3915  0037D2  0E00               	movlw	0
  3916  0037D4  6FF2               	movwf	242,b	;volatile
  3917                           
  3918                           ;mcc_generated_files/adc.c: 146:     ADCON0 = 0x00;
  3919  0037D6  0E00               	movlw	0
  3920  0037D8  6FF3               	movwf	243,b	;volatile
  3921                           
  3922                           ;mcc_generated_files/adc.c: 149:     ADCON1 = 0x00;
  3923  0037DA  0E00               	movlw	0
  3924  0037DC  6FF4               	movwf	244,b	;volatile
  3925                           
  3926                           ;mcc_generated_files/adc.c: 152:     ADCON2 = 0x10;
  3927  0037DE  0E10               	movlw	16
  3928  0037E0  6FF5               	movwf	245,b	;volatile
  3929                           
  3930                           ;mcc_generated_files/adc.c: 155:     ADCON3 = 0x00;
  3931  0037E2  0E00               	movlw	0
  3932  0037E4  6FF6               	movwf	246,b	;volatile
  3933                           
  3934                           ;mcc_generated_files/adc.c: 158:     ADSTAT = 0x00;
  3935  0037E6  0E00               	movlw	0
  3936  0037E8  6FF7               	movwf	247,b	;volatile
  3937                           
  3938                           ;mcc_generated_files/adc.c: 161:     ADREF = 0x12;
  3939  0037EA  0E12               	movlw	18
  3940  0037EC  6FF8               	movwf	248,b	;volatile
  3941                           
  3942                           ;mcc_generated_files/adc.c: 164:     ADCSEL1 = 0x00;
  3943  0037EE  0E00               	movlw	0
  3944  0037F0  6FFC               	movwf	252,b	;volatile
  3945                           
  3946                           ;mcc_generated_files/adc.c: 169:     ADCTX = 0x1;
  3947  0037F2  0E01               	movlw	1
  3948  0037F4  6FFB               	movwf	251,b	;volatile
  3949                           
  3950                           ;mcc_generated_files/adc.c: 172:     ADLTHL = 0x00;
  3951  0037F6  0E00               	movlw	0
  3952  0037F8  6FD9               	movwf	217,b	;volatile
  3953                           
  3954                           ;mcc_generated_files/adc.c: 175:     ADLTHH = 0x00;
  3955  0037FA  0E00               	movlw	0
  3956  0037FC  6FDA               	movwf	218,b	;volatile
  3957                           
  3958                           ;mcc_generated_files/adc.c: 178:     ADUTHL = 0x00;
  3959  0037FE  0E00               	movlw	0
  3960  003800  6FDB               	movwf	219,b	;volatile
  3961                           
  3962                           ;mcc_generated_files/adc.c: 181:     ADUTHH = 0x00;
  3963  003802  0E00               	movlw	0
  3964  003804  6FDC               	movwf	220,b	;volatile
  3965                           
  3966                           ;mcc_generated_files/adc.c: 184:     ADSTPTL = 0x00;
  3967  003806  0E00               	movlw	0
  3968  003808  6FDF               	movwf	223,b	;volatile
  3969                           
  3970                           ;mcc_generated_files/adc.c: 187:     ADSTPTH = 0x00;
  3971  00380A  0E00               	movlw	0
  3972  00380C  6FE0               	movwf	224,b	;volatile
  3973                           
  3974                           ;mcc_generated_files/adc.c: 190:     ADACCL = 0x00;
  3975  00380E  0E00               	movlw	0
  3976  003810  6FE3               	movwf	227,b	;volatile
  3977                           
  3978                           ;mcc_generated_files/adc.c: 193:     ADACCH = 0x00;
  3979  003812  0E00               	movlw	0
  3980  003814  6FE4               	movwf	228,b	;volatile
  3981                           
  3982                           ;mcc_generated_files/adc.c: 196:     ADACCU = 0x00;
  3983  003816  0E00               	movlw	0
  3984  003818  6FE5               	movwf	229,b	;volatile
  3985                           
  3986                           ;mcc_generated_files/adc.c: 199:     ADCNT = 0x00;
  3987  00381A  0E00               	movlw	0
  3988  00381C  6FE6               	movwf	230,b	;volatile
  3989                           
  3990                           ;mcc_generated_files/adc.c: 202:     ADRPT = 0x00;
  3991  00381E  0E00               	movlw	0
  3992  003820  6FE7               	movwf	231,b	;volatile
  3993                           
  3994                           ;mcc_generated_files/adc.c: 205:     ADRESL = 0x00;
  3995  003822  0E00               	movlw	0
  3996  003824  6FEA               	movwf	234,b	;volatile
  3997                           
  3998                           ;mcc_generated_files/adc.c: 208:     ADRESH = 0x00;
  3999  003826  0E00               	movlw	0
  4000  003828  6FEB               	movwf	235,b	;volatile
  4001                           
  4002                           ;mcc_generated_files/adc.c: 211:     ADPCH = 0x01;
  4003  00382A  0E01               	movlw	1
  4004  00382C  6FEC               	movwf	236,b	;volatile
  4005                           
  4006                           ;mcc_generated_files/adc.c: 214:     ADACQL = 0x00;
  4007  00382E  0E00               	movlw	0
  4008  003830  6FEE               	movwf	238,b	;volatile
  4009                           
  4010                           ;mcc_generated_files/adc.c: 217:     ADACQH = 0x00;
  4011  003832  0E00               	movlw	0
  4012  003834  6FEF               	movwf	239,b	;volatile
  4013                           
  4014                           ;mcc_generated_files/adc.c: 220:     ADCAP = 0x00;
  4015  003836  0E00               	movlw	0
  4016  003838  6FF0               	movwf	240,b	;volatile
  4017                           
  4018                           ;mcc_generated_files/adc.c: 223:     ADPREL = 0x00;
  4019  00383A  0E00               	movlw	0
  4020  00383C  6FF1               	movwf	241,b	;volatile
  4021                           
  4022                           ;mcc_generated_files/adc.c: 226:     ADPREH = 0x00;
  4023  00383E  0E00               	movlw	0
  4024  003840  6FF2               	movwf	242,b	;volatile
  4025                           
  4026                           ;mcc_generated_files/adc.c: 229:     ADCON0 = 0x00;
  4027  003842  0E00               	movlw	0
  4028  003844  6FF3               	movwf	243,b	;volatile
  4029                           
  4030                           ;mcc_generated_files/adc.c: 232:     ADCON1 = 0x00;
  4031  003846  0E00               	movlw	0
  4032  003848  6FF4               	movwf	244,b	;volatile
  4033                           
  4034                           ;mcc_generated_files/adc.c: 235:     ADCON2 = 0x10;
  4035  00384A  0E10               	movlw	16
  4036  00384C  6FF5               	movwf	245,b	;volatile
  4037                           
  4038                           ;mcc_generated_files/adc.c: 238:     ADCON3 = 0x00;
  4039  00384E  0E00               	movlw	0
  4040  003850  6FF6               	movwf	246,b	;volatile
  4041                           
  4042                           ;mcc_generated_files/adc.c: 241:     ADSTAT = 0x00;
  4043  003852  0E00               	movlw	0
  4044  003854  6FF7               	movwf	247,b	;volatile
  4045                           
  4046                           ;mcc_generated_files/adc.c: 244:     ADREF = 0x00;
  4047  003856  0E00               	movlw	0
  4048  003858  6FF8               	movwf	248,b	;volatile
  4049                           
  4050                           ;mcc_generated_files/adc.c: 247:     ADCSEL2 = 0x00;
  4051  00385A  0E00               	movlw	0
  4052  00385C  6FFD               	movwf	253,b	;volatile
  4053                           
  4054                           ;mcc_generated_files/adc.c: 252:     ADCTX = 0x2;
  4055  00385E  0E02               	movlw	2
  4056  003860  6FFB               	movwf	251,b	;volatile
  4057                           
  4058                           ;mcc_generated_files/adc.c: 255:     ADLTHL = 0x00;
  4059  003862  0E00               	movlw	0
  4060  003864  6FD9               	movwf	217,b	;volatile
  4061                           
  4062                           ;mcc_generated_files/adc.c: 258:     ADLTHH = 0x00;
  4063  003866  0E00               	movlw	0
  4064  003868  6FDA               	movwf	218,b	;volatile
  4065                           
  4066                           ;mcc_generated_files/adc.c: 261:     ADUTHL = 0x00;
  4067  00386A  0E00               	movlw	0
  4068  00386C  6FDB               	movwf	219,b	;volatile
  4069                           
  4070                           ;mcc_generated_files/adc.c: 264:     ADUTHH = 0x00;
  4071  00386E  0E00               	movlw	0
  4072  003870  6FDC               	movwf	220,b	;volatile
  4073                           
  4074                           ;mcc_generated_files/adc.c: 267:     ADSTPTL = 0x00;
  4075  003872  0E00               	movlw	0
  4076  003874  6FDF               	movwf	223,b	;volatile
  4077                           
  4078                           ;mcc_generated_files/adc.c: 270:     ADSTPTH = 0x00;
  4079  003876  0E00               	movlw	0
  4080  003878  6FE0               	movwf	224,b	;volatile
  4081                           
  4082                           ;mcc_generated_files/adc.c: 273:     ADACCL = 0x00;
  4083  00387A  0E00               	movlw	0
  4084  00387C  6FE3               	movwf	227,b	;volatile
  4085                           
  4086                           ;mcc_generated_files/adc.c: 276:     ADACCH = 0x00;
  4087  00387E  0E00               	movlw	0
  4088  003880  6FE4               	movwf	228,b	;volatile
  4089                           
  4090                           ;mcc_generated_files/adc.c: 279:     ADACCU = 0x00;
  4091  003882  0E00               	movlw	0
  4092  003884  6FE5               	movwf	229,b	;volatile
  4093                           
  4094                           ;mcc_generated_files/adc.c: 282:     ADCNT = 0x00;
  4095  003886  0E00               	movlw	0
  4096  003888  6FE6               	movwf	230,b	;volatile
  4097                           
  4098                           ;mcc_generated_files/adc.c: 285:     ADRPT = 0x00;
  4099  00388A  0E00               	movlw	0
  4100  00388C  6FE7               	movwf	231,b	;volatile
  4101                           
  4102                           ;mcc_generated_files/adc.c: 288:     ADRESL = 0x00;
  4103  00388E  0E00               	movlw	0
  4104  003890  6FEA               	movwf	234,b	;volatile
  4105                           
  4106                           ;mcc_generated_files/adc.c: 291:     ADRESH = 0x00;
  4107  003892  0E00               	movlw	0
  4108  003894  6FEB               	movwf	235,b	;volatile
  4109                           
  4110                           ;mcc_generated_files/adc.c: 294:     ADPCH = 0x16;
  4111  003896  0E16               	movlw	22
  4112  003898  6FEC               	movwf	236,b	;volatile
  4113                           
  4114                           ;mcc_generated_files/adc.c: 297:     ADACQL = 0x00;
  4115  00389A  0E00               	movlw	0
  4116  00389C  6FEE               	movwf	238,b	;volatile
  4117                           
  4118                           ;mcc_generated_files/adc.c: 300:     ADACQH = 0x00;
  4119  00389E  0E00               	movlw	0
  4120  0038A0  6FEF               	movwf	239,b	;volatile
  4121                           
  4122                           ;mcc_generated_files/adc.c: 303:     ADCAP = 0x00;
  4123  0038A2  0E00               	movlw	0
  4124  0038A4  6FF0               	movwf	240,b	;volatile
  4125                           
  4126                           ;mcc_generated_files/adc.c: 306:     ADPREL = 0x00;
  4127  0038A6  0E00               	movlw	0
  4128  0038A8  6FF1               	movwf	241,b	;volatile
  4129                           
  4130                           ;mcc_generated_files/adc.c: 309:     ADPREH = 0x00;
  4131  0038AA  0E00               	movlw	0
  4132  0038AC  6FF2               	movwf	242,b	;volatile
  4133                           
  4134                           ;mcc_generated_files/adc.c: 312:     ADCON0 = 0x00;
  4135  0038AE  0E00               	movlw	0
  4136  0038B0  6FF3               	movwf	243,b	;volatile
  4137                           
  4138                           ;mcc_generated_files/adc.c: 315:     ADCON1 = 0x00;
  4139  0038B2  0E00               	movlw	0
  4140  0038B4  6FF4               	movwf	244,b	;volatile
  4141                           
  4142                           ;mcc_generated_files/adc.c: 318:     ADCON2 = 0x10;
  4143  0038B6  0E10               	movlw	16
  4144  0038B8  6FF5               	movwf	245,b	;volatile
  4145                           
  4146                           ;mcc_generated_files/adc.c: 321:     ADCON3 = 0x00;
  4147  0038BA  0E00               	movlw	0
  4148  0038BC  6FF6               	movwf	246,b	;volatile
  4149                           
  4150                           ;mcc_generated_files/adc.c: 324:     ADSTAT = 0x00;
  4151  0038BE  0E00               	movlw	0
  4152  0038C0  6FF7               	movwf	247,b	;volatile
  4153                           
  4154                           ;mcc_generated_files/adc.c: 327:     ADREF = 0x00;
  4155  0038C2  0E00               	movlw	0
  4156  0038C4  6FF8               	movwf	248,b	;volatile
  4157                           
  4158                           ;mcc_generated_files/adc.c: 330:     ADCSEL3 = 0x00;
  4159  0038C6  0E00               	movlw	0
  4160  0038C8  6FFE               	movwf	254,b	;volatile
  4161                           
  4162                           ;mcc_generated_files/adc.c: 335:     ADCTX = 0x3;
  4163  0038CA  0E03               	movlw	3
  4164  0038CC  6FFB               	movwf	251,b	;volatile
  4165                           
  4166                           ;mcc_generated_files/adc.c: 338:     ADLTHL = 0x00;
  4167  0038CE  0E00               	movlw	0
  4168  0038D0  6FD9               	movwf	217,b	;volatile
  4169                           
  4170                           ;mcc_generated_files/adc.c: 341:     ADLTHH = 0x00;
  4171  0038D2  0E00               	movlw	0
  4172  0038D4  6FDA               	movwf	218,b	;volatile
  4173                           
  4174                           ;mcc_generated_files/adc.c: 344:     ADUTHL = 0x00;
  4175  0038D6  0E00               	movlw	0
  4176  0038D8  6FDB               	movwf	219,b	;volatile
  4177                           
  4178                           ;mcc_generated_files/adc.c: 347:     ADUTHH = 0x00;
  4179  0038DA  0E00               	movlw	0
  4180  0038DC  6FDC               	movwf	220,b	;volatile
  4181                           
  4182                           ;mcc_generated_files/adc.c: 350:     ADSTPTL = 0x00;
  4183  0038DE  0E00               	movlw	0
  4184  0038E0  6FDF               	movwf	223,b	;volatile
  4185                           
  4186                           ;mcc_generated_files/adc.c: 353:     ADSTPTH = 0x00;
  4187  0038E2  0E00               	movlw	0
  4188  0038E4  6FE0               	movwf	224,b	;volatile
  4189                           
  4190                           ;mcc_generated_files/adc.c: 356:     ADACCL = 0x00;
  4191  0038E6  0E00               	movlw	0
  4192  0038E8  6FE3               	movwf	227,b	;volatile
  4193                           
  4194                           ;mcc_generated_files/adc.c: 359:     ADACCH = 0x00;
  4195  0038EA  0E00               	movlw	0
  4196  0038EC  6FE4               	movwf	228,b	;volatile
  4197                           
  4198                           ;mcc_generated_files/adc.c: 362:     ADACCU = 0x00;
  4199  0038EE  0E00               	movlw	0
  4200  0038F0  6FE5               	movwf	229,b	;volatile
  4201                           
  4202                           ;mcc_generated_files/adc.c: 365:     ADCNT = 0x00;
  4203  0038F2  0E00               	movlw	0
  4204  0038F4  6FE6               	movwf	230,b	;volatile
  4205                           
  4206                           ;mcc_generated_files/adc.c: 368:     ADRPT = 0x00;
  4207  0038F6  0E00               	movlw	0
  4208  0038F8  6FE7               	movwf	231,b	;volatile
  4209                           
  4210                           ;mcc_generated_files/adc.c: 371:     ADRESL = 0x00;
  4211  0038FA  0E00               	movlw	0
  4212  0038FC  6FEA               	movwf	234,b	;volatile
  4213                           
  4214                           ;mcc_generated_files/adc.c: 374:     ADRESH = 0x00;
  4215  0038FE  0E00               	movlw	0
  4216  003900  6FEB               	movwf	235,b	;volatile
  4217                           
  4218                           ;mcc_generated_files/adc.c: 377:     ADPCH = 0x17;
  4219  003902  0E17               	movlw	23
  4220  003904  6FEC               	movwf	236,b	;volatile
  4221                           
  4222                           ;mcc_generated_files/adc.c: 380:     ADACQL = 0x00;
  4223  003906  0E00               	movlw	0
  4224  003908  6FEE               	movwf	238,b	;volatile
  4225                           
  4226                           ;mcc_generated_files/adc.c: 383:     ADACQH = 0x00;
  4227  00390A  0E00               	movlw	0
  4228  00390C  6FEF               	movwf	239,b	;volatile
  4229                           
  4230                           ;mcc_generated_files/adc.c: 386:     ADCAP = 0x00;
  4231  00390E  0E00               	movlw	0
  4232  003910  6FF0               	movwf	240,b	;volatile
  4233                           
  4234                           ;mcc_generated_files/adc.c: 389:     ADPREL = 0x00;
  4235  003912  0E00               	movlw	0
  4236  003914  6FF1               	movwf	241,b	;volatile
  4237                           
  4238                           ;mcc_generated_files/adc.c: 392:     ADPREH = 0x00;
  4239  003916  0E00               	movlw	0
  4240  003918  6FF2               	movwf	242,b	;volatile
  4241                           
  4242                           ;mcc_generated_files/adc.c: 395:     ADCON0 = 0x00;
  4243  00391A  0E00               	movlw	0
  4244  00391C  6FF3               	movwf	243,b	;volatile
  4245                           
  4246                           ;mcc_generated_files/adc.c: 398:     ADCON1 = 0x00;
  4247  00391E  0E00               	movlw	0
  4248  003920  6FF4               	movwf	244,b	;volatile
  4249                           
  4250                           ;mcc_generated_files/adc.c: 401:     ADCON2 = 0x10;
  4251  003922  0E10               	movlw	16
  4252  003924  6FF5               	movwf	245,b	;volatile
  4253                           
  4254                           ;mcc_generated_files/adc.c: 404:     ADCON3 = 0x00;
  4255  003926  0E00               	movlw	0
  4256  003928  6FF6               	movwf	246,b	;volatile
  4257                           
  4258                           ;mcc_generated_files/adc.c: 407:     ADSTAT = 0x00;
  4259  00392A  0E00               	movlw	0
  4260  00392C  6FF7               	movwf	247,b	;volatile
  4261                           
  4262                           ;mcc_generated_files/adc.c: 410:     ADREF = 0x00;
  4263  00392E  0E00               	movlw	0
  4264  003930  6FF8               	movwf	248,b	;volatile
  4265                           
  4266                           ;mcc_generated_files/adc.c: 413:     ADCSEL4 = 0x00;
  4267  003932  0E00               	movlw	0
  4268  003934  6FFF               	movwf	255,b	;volatile
  4269  003936                     
  4270                           ; BSR set to: 3
  4271                           ;mcc_generated_files/adc.c: 416:     PIR1bits.ADIF = 0;
  4272  003936  94AF               	bcf	175,2,c	;volatile
  4273  003938                     
  4274                           ; BSR set to: 3
  4275                           ;mcc_generated_files/adc.c: 419:     PIR1bits.ACTIF = 0;
  4276  003938  96AF               	bcf	175,3,c	;volatile
  4277  00393A                     
  4278                           ; BSR set to: 3
  4279                           ;mcc_generated_files/adc.c: 422:     PIR2bits.ADCH1IF = 0;
  4280  00393A  90B0               	bcf	176,0,c	;volatile
  4281  00393C                     
  4282                           ; BSR set to: 3
  4283                           ;mcc_generated_files/adc.c: 423:     PIR2bits.ADCH2IF = 0;
  4284  00393C  92B0               	bcf	176,1,c	;volatile
  4285  00393E                     
  4286                           ; BSR set to: 3
  4287                           ;mcc_generated_files/adc.c: 424:     PIR2bits.ADCH3IF = 0;
  4288  00393E  94B0               	bcf	176,2,c	;volatile
  4289  003940                     
  4290                           ; BSR set to: 3
  4291                           ;mcc_generated_files/adc.c: 425:     PIR2bits.ADCH4IF = 0;
  4292  003940  96B0               	bcf	176,3,c	;volatile
  4293  003942                     
  4294                           ; BSR set to: 3
  4295                           ;mcc_generated_files/adc.c: 429:     ADC_SetADIInterruptHandler(ADC_DefaultADI_ISR);
  4296  003942  0E00               	movlw	0
  4297  003944  0105               	movlb	5	; () banked
  4298  003946  6FA9               	movwf	ADC_SetADIInterruptHandler@InterruptHandler& (0+255),b
  4299  003948  0E00               	movlw	0
  4300  00394A  6FAA               	movwf	(ADC_SetADIInterruptHandler@InterruptHandler+1)& (0+255),b
  4301  00394C  EC4C  F027         	call	_ADC_SetADIInterruptHandler	;wreg free
  4302  003950                     
  4303                           ;mcc_generated_files/adc.c: 430:     ADC_SetContext1ThresholdInterruptHandler(ADC_Defaul
      +                          tContext1Threshold_ISR);
  4304  003950  0E00               	movlw	0
  4305  003952  0105               	movlb	5	; () banked
  4306  003954  6FA9               	movwf	ADC_SetContext1ThresholdInterruptHandler@InterruptHandler& (0+255),b
  4307  003956  0E00               	movlw	0
  4308  003958  6FAA               	movwf	(ADC_SetContext1ThresholdInterruptHandler@InterruptHandler+1)& (0+255),b
  4309  00395A  EC42  F027         	call	_ADC_SetContext1ThresholdInterruptHandler	;wreg free
  4310  00395E                     
  4311                           ;mcc_generated_files/adc.c: 431:     ADC_SetContext2ThresholdInterruptHandler(ADC_Defaul
      +                          tContext2Threshold_ISR);
  4312  00395E  0E00               	movlw	0
  4313  003960  0105               	movlb	5	; () banked
  4314  003962  6FA9               	movwf	ADC_SetContext2ThresholdInterruptHandler@InterruptHandler& (0+255),b
  4315  003964  0E00               	movlw	0
  4316  003966  6FAA               	movwf	(ADC_SetContext2ThresholdInterruptHandler@InterruptHandler+1)& (0+255),b
  4317  003968  EC3D  F027         	call	_ADC_SetContext2ThresholdInterruptHandler	;wreg free
  4318  00396C                     
  4319                           ;mcc_generated_files/adc.c: 432:     ADC_SetContext3ThresholdInterruptHandler(ADC_Defaul
      +                          tContext3Threshold_ISR);
  4320  00396C  0E00               	movlw	0
  4321  00396E  0105               	movlb	5	; () banked
  4322  003970  6FA9               	movwf	ADC_SetContext3ThresholdInterruptHandler@InterruptHandler& (0+255),b
  4323  003972  0E00               	movlw	0
  4324  003974  6FAA               	movwf	(ADC_SetContext3ThresholdInterruptHandler@InterruptHandler+1)& (0+255),b
  4325  003976  EC38  F027         	call	_ADC_SetContext3ThresholdInterruptHandler	;wreg free
  4326  00397A                     
  4327                           ;mcc_generated_files/adc.c: 433:     ADC_SetContext4ThresholdInterruptHandler(ADC_Defaul
      +                          tContext4Threshold_ISR);
  4328  00397A  0E00               	movlw	0
  4329  00397C  0105               	movlb	5	; () banked
  4330  00397E  6FA9               	movwf	ADC_SetContext4ThresholdInterruptHandler@InterruptHandler& (0+255),b
  4331  003980  0E00               	movlw	0
  4332  003982  6FAA               	movwf	(ADC_SetContext4ThresholdInterruptHandler@InterruptHandler+1)& (0+255),b
  4333  003984  EC33  F027         	call	_ADC_SetContext4ThresholdInterruptHandler	;wreg free
  4334  003988                     
  4335                           ;mcc_generated_files/adc.c: 434:     ADC_SetActiveClockTuningInterruptHandler(ADC_Defaul
      +                          tActiveClockTuning_ISR);
  4336  003988  0E00               	movlw	0
  4337  00398A  0105               	movlb	5	; () banked
  4338  00398C  6FA9               	movwf	ADC_SetActiveClockTuningInterruptHandler@InterruptHandler& (0+255),b
  4339  00398E  0E00               	movlw	0
  4340  003990  6FAA               	movwf	(ADC_SetActiveClockTuningInterruptHandler@InterruptHandler+1)& (0+255),b
  4341  003992  EC47  F027         	call	_ADC_SetActiveClockTuningInterruptHandler	;wreg free
  4342                           
  4343                           ;mcc_generated_files/adc.c: 437:     ADCON0 = 0x84;
  4344  003996  0E84               	movlw	132
  4345  003998  0103               	movlb	3	; () banked
  4346  00399A  6FF3               	movwf	243,b	;volatile
  4347  00399C                     
  4348                           ; BSR set to: 3
  4349  00399C  0012               	return		;funcret
  4350  00399E                     __end_of_ADC_Initialize:
  4351                           	callstack 0
  4352                           
  4353 ;; *************** function _ADC_SetContext4ThresholdInterruptHandler *****************
  4354 ;; Defined at:
  4355 ;;		line 738 in file "mcc_generated_files/adc.c"
  4356 ;; Parameters:    Size  Location     Type
  4357 ;;  InterruptHan    2    0[BANK5 ] PTR FTN()void 
  4358 ;;		 -> ADC_DefaultContext4Threshold_ISR(1), 
  4359 ;; Auto vars:     Size  Location     Type
  4360 ;;		None
  4361 ;; Return value:  Size  Location     Type
  4362 ;;                  1    wreg      void 
  4363 ;; Registers used:
  4364 ;;		wreg, status,2, status,0
  4365 ;; Tracked objects:
  4366 ;;		On entry : 0/0
  4367 ;;		On exit  : 0/0
  4368 ;;		Unchanged: 0/0
  4369 ;; Data sizes:     COMRAM   BANK5   BANK6   BANK7   BANK8   BANK9  BANK10  BANK11  BANK12  BANK13  BANK14  BANK15  BANK1
      +6  BANK17  BANK18  BANK19  BANK20  BANK21  BANK22  BANK23  BANK24  BANK25  BANK26  BANK27  BANK28  BANK29  BANK30  BANK3
      +1  BANK32  BANK33  BANK34  BANK35  BANK36  BANK37
  4370 ;;      Params:         0       2       0       0       0       0       0       0       0       0       0       0       
      +0       0       0       0       0       0       0       0       0       0       0       0       0       0       0       
      +0       0       0       0       0       0       0
  4371 ;;      Locals:         0       0       0       0       0       0       0       0       0       0       0       0       
      +0       0       0       0       0       0       0       0       0       0       0       0       0       0       0       
      +0       0       0       0       0       0       0
  4372 ;;      Temps:          0       0       0       0       0       0       0       0       0       0       0       0       
      +0       0       0       0       0       0       0       0       0       0       0       0       0       0       0       
      +0       0       0       0       0       0       0
  4373 ;;      Totals:         0       2       0       0       0       0       0       0       0       0       0       0       
      +0       0       0       0       0       0       0       0       0       0       0       0       0       0       0       
      +0       0       0       0       0       0       0
  4374 ;;Total ram usage:        2 bytes
  4375 ;; Hardware stack levels used:    1
  4376 ;; Hardware stack levels required when called:    6
  4377 ;; This function calls:
  4378 ;;		Nothing
  4379 ;; This function is called by:
  4380 ;;		_ADC_Initialize
  4381 ;; This function uses a non-reentrant model
  4382 ;;
  4383                           
  4384                           	psect	text39
  4385  004E66                     __ptext39:
  4386                           	callstack 0
  4387  004E66                     _ADC_SetContext4ThresholdInterruptHandler:
  4388                           	callstack 119
  4389  004E66                     
  4390                           ;mcc_generated_files/adc.c: 738: void ADC_SetContext4ThresholdInterruptHandler(void (* I
      +                          nterruptHandler)(void));mcc_generated_files/adc.c: 739: {;mcc_generated_files/adc.c: 740
      +                          :     ADC_Context4Thereshld_ISR = InterruptHandler;
  4391  004E66  C5A9  F5F2         	movff	ADC_SetContext4ThresholdInterruptHandler@InterruptHandler,_ADC_Context4Thereshld_
      +                          ISR
  4392  004E6A  C5AA  F5F3         	movff	ADC_SetContext4ThresholdInterruptHandler@InterruptHandler+1,_ADC_Context4Thereshl
      +                          d_ISR+1
  4393  004E6E  0012               	return		;funcret
  4394  004E70                     __end_of_ADC_SetContext4ThresholdInterruptHandler:
  4395                           	callstack 0
  4396                           
  4397 ;; *************** function _ADC_SetContext3ThresholdInterruptHandler *****************
  4398 ;; Defined at:
  4399 ;;		line 733 in file "mcc_generated_files/adc.c"
  4400 ;; Parameters:    Size  Location     Type
  4401 ;;  InterruptHan    2    0[BANK5 ] PTR FTN()void 
  4402 ;;		 -> ADC_DefaultContext3Threshold_ISR(1), 
  4403 ;; Auto vars:     Size  Location     Type
  4404 ;;		None
  4405 ;; Return value:  Size  Location     Type
  4406 ;;                  1    wreg      void 
  4407 ;; Registers used:
  4408 ;;		wreg, status,2, status,0
  4409 ;; Tracked objects:
  4410 ;;		On entry : 0/0
  4411 ;;		On exit  : 0/0
  4412 ;;		Unchanged: 0/0
  4413 ;; Data sizes:     COMRAM   BANK5   BANK6   BANK7   BANK8   BANK9  BANK10  BANK11  BANK12  BANK13  BANK14  BANK15  BANK1
      +6  BANK17  BANK18  BANK19  BANK20  BANK21  BANK22  BANK23  BANK24  BANK25  BANK26  BANK27  BANK28  BANK29  BANK30  BANK3
      +1  BANK32  BANK33  BANK34  BANK35  BANK36  BANK37
  4414 ;;      Params:         0       2       0       0       0       0       0       0       0       0       0       0       
      +0       0       0       0       0       0       0       0       0       0       0       0       0       0       0       
      +0       0       0       0       0       0       0
  4415 ;;      Locals:         0       0       0       0       0       0       0       0       0       0       0       0       
      +0       0       0       0       0       0       0       0       0       0       0       0       0       0       0       
      +0       0       0       0       0       0       0
  4416 ;;      Temps:          0       0       0       0       0       0       0       0       0       0       0       0       
      +0       0       0       0       0       0       0       0       0       0       0       0       0       0       0       
      +0       0       0       0       0       0       0
  4417 ;;      Totals:         0       2       0       0       0       0       0       0       0       0       0       0       
      +0       0       0       0       0       0       0       0       0       0       0       0       0       0       0       
      +0       0       0       0       0       0       0
  4418 ;;Total ram usage:        2 bytes
  4419 ;; Hardware stack levels used:    1
  4420 ;; Hardware stack levels required when called:    6
  4421 ;; This function calls:
  4422 ;;		Nothing
  4423 ;; This function is called by:
  4424 ;;		_ADC_Initialize
  4425 ;; This function uses a non-reentrant model
  4426 ;;
  4427                           
  4428                           	psect	text40
  4429  004E70                     __ptext40:
  4430                           	callstack 0
  4431  004E70                     _ADC_SetContext3ThresholdInterruptHandler:
  4432                           	callstack 119
  4433  004E70                     
  4434                           ;mcc_generated_files/adc.c: 733: void ADC_SetContext3ThresholdInterruptHandler(void (* I
      +                          nterruptHandler)(void));mcc_generated_files/adc.c: 734: {;mcc_generated_files/adc.c: 735
      +                          :     ADC_Context3Thereshld_ISR = InterruptHandler;
  4435  004E70  C5A9  F5F4         	movff	ADC_SetContext3ThresholdInterruptHandler@InterruptHandler,_ADC_Context3Thereshld_
      +                          ISR
  4436  004E74  C5AA  F5F5         	movff	ADC_SetContext3ThresholdInterruptHandler@InterruptHandler+1,_ADC_Context3Thereshl
      +                          d_ISR+1
  4437  004E78  0012               	return		;funcret
  4438  004E7A                     __end_of_ADC_SetContext3ThresholdInterruptHandler:
  4439                           	callstack 0
  4440                           
  4441 ;; *************** function _ADC_SetContext2ThresholdInterruptHandler *****************
  4442 ;; Defined at:
  4443 ;;		line 728 in file "mcc_generated_files/adc.c"
  4444 ;; Parameters:    Size  Location     Type
  4445 ;;  InterruptHan    2    0[BANK5 ] PTR FTN()void 
  4446 ;;		 -> ADC_DefaultContext2Threshold_ISR(1), 
  4447 ;; Auto vars:     Size  Location     Type
  4448 ;;		None
  4449 ;; Return value:  Size  Location     Type
  4450 ;;                  1    wreg      void 
  4451 ;; Registers used:
  4452 ;;		wreg, status,2, status,0
  4453 ;; Tracked objects:
  4454 ;;		On entry : 0/0
  4455 ;;		On exit  : 0/0
  4456 ;;		Unchanged: 0/0
  4457 ;; Data sizes:     COMRAM   BANK5   BANK6   BANK7   BANK8   BANK9  BANK10  BANK11  BANK12  BANK13  BANK14  BANK15  BANK1
      +6  BANK17  BANK18  BANK19  BANK20  BANK21  BANK22  BANK23  BANK24  BANK25  BANK26  BANK27  BANK28  BANK29  BANK30  BANK3
      +1  BANK32  BANK33  BANK34  BANK35  BANK36  BANK37
  4458 ;;      Params:         0       2       0       0       0       0       0       0       0       0       0       0       
      +0       0       0       0       0       0       0       0       0       0       0       0       0       0       0       
      +0       0       0       0       0       0       0
  4459 ;;      Locals:         0       0       0       0       0       0       0       0       0       0       0       0       
      +0       0       0       0       0       0       0       0       0       0       0       0       0       0       0       
      +0       0       0       0       0       0       0
  4460 ;;      Temps:          0       0       0       0       0       0       0       0       0       0       0       0       
      +0       0       0       0       0       0       0       0       0       0       0       0       0       0       0       
      +0       0       0       0       0       0       0
  4461 ;;      Totals:         0       2       0       0       0       0       0       0       0       0       0       0       
      +0       0       0       0       0       0       0       0       0       0       0       0       0       0       0       
      +0       0       0       0       0       0       0
  4462 ;;Total ram usage:        2 bytes
  4463 ;; Hardware stack levels used:    1
  4464 ;; Hardware stack levels required when called:    6
  4465 ;; This function calls:
  4466 ;;		Nothing
  4467 ;; This function is called by:
  4468 ;;		_ADC_Initialize
  4469 ;; This function uses a non-reentrant model
  4470 ;;
  4471                           
  4472                           	psect	text41
  4473  004E7A                     __ptext41:
  4474                           	callstack 0
  4475  004E7A                     _ADC_SetContext2ThresholdInterruptHandler:
  4476                           	callstack 119
  4477  004E7A                     
  4478                           ;mcc_generated_files/adc.c: 728: void ADC_SetContext2ThresholdInterruptHandler(void (* I
      +                          nterruptHandler)(void));mcc_generated_files/adc.c: 729: {;mcc_generated_files/adc.c: 730
      +                          :     ADC_Context2Thereshld_ISR = InterruptHandler;
  4479  004E7A  C5A9  F5F6         	movff	ADC_SetContext2ThresholdInterruptHandler@InterruptHandler,_ADC_Context2Thereshld_
      +                          ISR
  4480  004E7E  C5AA  F5F7         	movff	ADC_SetContext2ThresholdInterruptHandler@InterruptHandler+1,_ADC_Context2Thereshl
      +                          d_ISR+1
  4481  004E82  0012               	return		;funcret
  4482  004E84                     __end_of_ADC_SetContext2ThresholdInterruptHandler:
  4483                           	callstack 0
  4484                           
  4485 ;; *************** function _ADC_SetContext1ThresholdInterruptHandler *****************
  4486 ;; Defined at:
  4487 ;;		line 723 in file "mcc_generated_files/adc.c"
  4488 ;; Parameters:    Size  Location     Type
  4489 ;;  InterruptHan    2    0[BANK5 ] PTR FTN()void 
  4490 ;;		 -> ADC_DefaultContext1Threshold_ISR(1), 
  4491 ;; Auto vars:     Size  Location     Type
  4492 ;;		None
  4493 ;; Return value:  Size  Location     Type
  4494 ;;                  1    wreg      void 
  4495 ;; Registers used:
  4496 ;;		wreg, status,2, status,0
  4497 ;; Tracked objects:
  4498 ;;		On entry : 0/0
  4499 ;;		On exit  : 0/0
  4500 ;;		Unchanged: 0/0
  4501 ;; Data sizes:     COMRAM   BANK5   BANK6   BANK7   BANK8   BANK9  BANK10  BANK11  BANK12  BANK13  BANK14  BANK15  BANK1
      +6  BANK17  BANK18  BANK19  BANK20  BANK21  BANK22  BANK23  BANK24  BANK25  BANK26  BANK27  BANK28  BANK29  BANK30  BANK3
      +1  BANK32  BANK33  BANK34  BANK35  BANK36  BANK37
  4502 ;;      Params:         0       2       0       0       0       0       0       0       0       0       0       0       
      +0       0       0       0       0       0       0       0       0       0       0       0       0       0       0       
      +0       0       0       0       0       0       0
  4503 ;;      Locals:         0       0       0       0       0       0       0       0       0       0       0       0       
      +0       0       0       0       0       0       0       0       0       0       0       0       0       0       0       
      +0       0       0       0       0       0       0
  4504 ;;      Temps:          0       0       0       0       0       0       0       0       0       0       0       0       
      +0       0       0       0       0       0       0       0       0       0       0       0       0       0       0       
      +0       0       0       0       0       0       0
  4505 ;;      Totals:         0       2       0       0       0       0       0       0       0       0       0       0       
      +0       0       0       0       0       0       0       0       0       0       0       0       0       0       0       
      +0       0       0       0       0       0       0
  4506 ;;Total ram usage:        2 bytes
  4507 ;; Hardware stack levels used:    1
  4508 ;; Hardware stack levels required when called:    6
  4509 ;; This function calls:
  4510 ;;		Nothing
  4511 ;; This function is called by:
  4512 ;;		_ADC_Initialize
  4513 ;; This function uses a non-reentrant model
  4514 ;;
  4515                           
  4516                           	psect	text42
  4517  004E84                     __ptext42:
  4518                           	callstack 0
  4519  004E84                     _ADC_SetContext1ThresholdInterruptHandler:
  4520                           	callstack 119
  4521  004E84                     
  4522                           ;mcc_generated_files/adc.c: 723: void ADC_SetContext1ThresholdInterruptHandler(void (* I
      +                          nterruptHandler)(void));mcc_generated_files/adc.c: 724: {;mcc_generated_files/adc.c: 725
      +                          :     ADC_Context1Thereshld_ISR = InterruptHandler;
  4523  004E84  C5A9  F5F8         	movff	ADC_SetContext1ThresholdInterruptHandler@InterruptHandler,_ADC_Context1Thereshld_
      +                          ISR
  4524  004E88  C5AA  F5F9         	movff	ADC_SetContext1ThresholdInterruptHandler@InterruptHandler+1,_ADC_Context1Thereshl
      +                          d_ISR+1
  4525  004E8C  0012               	return		;funcret
  4526  004E8E                     __end_of_ADC_SetContext1ThresholdInterruptHandler:
  4527                           	callstack 0
  4528                           
  4529 ;; *************** function _ADC_SetActiveClockTuningInterruptHandler *****************
  4530 ;; Defined at:
  4531 ;;		line 743 in file "mcc_generated_files/adc.c"
  4532 ;; Parameters:    Size  Location     Type
  4533 ;;  InterruptHan    2    0[BANK5 ] PTR FTN()void 
  4534 ;;		 -> ADC_DefaultActiveClockTuning_ISR(1), 
  4535 ;; Auto vars:     Size  Location     Type
  4536 ;;		None
  4537 ;; Return value:  Size  Location     Type
  4538 ;;                  1    wreg      void 
  4539 ;; Registers used:
  4540 ;;		wreg, status,2, status,0
  4541 ;; Tracked objects:
  4542 ;;		On entry : 0/0
  4543 ;;		On exit  : 0/0
  4544 ;;		Unchanged: 0/0
  4545 ;; Data sizes:     COMRAM   BANK5   BANK6   BANK7   BANK8   BANK9  BANK10  BANK11  BANK12  BANK13  BANK14  BANK15  BANK1
      +6  BANK17  BANK18  BANK19  BANK20  BANK21  BANK22  BANK23  BANK24  BANK25  BANK26  BANK27  BANK28  BANK29  BANK30  BANK3
      +1  BANK32  BANK33  BANK34  BANK35  BANK36  BANK37
  4546 ;;      Params:         0       2       0       0       0       0       0       0       0       0       0       0       
      +0       0       0       0       0       0       0       0       0       0       0       0       0       0       0       
      +0       0       0       0       0       0       0
  4547 ;;      Locals:         0       0       0       0       0       0       0       0       0       0       0       0       
      +0       0       0       0       0       0       0       0       0       0       0       0       0       0       0       
      +0       0       0       0       0       0       0
  4548 ;;      Temps:          0       0       0       0       0       0       0       0       0       0       0       0       
      +0       0       0       0       0       0       0       0       0       0       0       0       0       0       0       
      +0       0       0       0       0       0       0
  4549 ;;      Totals:         0       2       0       0       0       0       0       0       0       0       0       0       
      +0       0       0       0       0       0       0       0       0       0       0       0       0       0       0       
      +0       0       0       0       0       0       0
  4550 ;;Total ram usage:        2 bytes
  4551 ;; Hardware stack levels used:    1
  4552 ;; Hardware stack levels required when called:    6
  4553 ;; This function calls:
  4554 ;;		Nothing
  4555 ;; This function is called by:
  4556 ;;		_ADC_Initialize
  4557 ;; This function uses a non-reentrant model
  4558 ;;
  4559                           
  4560                           	psect	text43
  4561  004E8E                     __ptext43:
  4562                           	callstack 0
  4563  004E8E                     _ADC_SetActiveClockTuningInterruptHandler:
  4564                           	callstack 119
  4565  004E8E                     
  4566                           ;mcc_generated_files/adc.c: 743: void ADC_SetActiveClockTuningInterruptHandler(void (* I
      +                          nterruptHandler)(void));mcc_generated_files/adc.c: 744: {;mcc_generated_files/adc.c: 745
      +                          :     ADC_ActiveClockTuning_ISR = InterruptHandler;
  4567  004E8E  C5A9  F5F0         	movff	ADC_SetActiveClockTuningInterruptHandler@InterruptHandler,_ADC_ActiveClockTuning_
      +                          ISR
  4568  004E92  C5AA  F5F1         	movff	ADC_SetActiveClockTuningInterruptHandler@InterruptHandler+1,_ADC_ActiveClockTunin
      +                          g_ISR+1
  4569  004E96  0012               	return		;funcret
  4570  004E98                     __end_of_ADC_SetActiveClockTuningInterruptHandler:
  4571                           	callstack 0
  4572                           
  4573 ;; *************** function _ADC_SetADIInterruptHandler *****************
  4574 ;; Defined at:
  4575 ;;		line 718 in file "mcc_generated_files/adc.c"
  4576 ;; Parameters:    Size  Location     Type
  4577 ;;  InterruptHan    2    0[BANK5 ] PTR FTN()void 
  4578 ;;		 -> ADC_DefaultADI_ISR(1), 
  4579 ;; Auto vars:     Size  Location     Type
  4580 ;;		None
  4581 ;; Return value:  Size  Location     Type
  4582 ;;                  1    wreg      void 
  4583 ;; Registers used:
  4584 ;;		wreg, status,2, status,0
  4585 ;; Tracked objects:
  4586 ;;		On entry : 0/0
  4587 ;;		On exit  : 0/0
  4588 ;;		Unchanged: 0/0
  4589 ;; Data sizes:     COMRAM   BANK5   BANK6   BANK7   BANK8   BANK9  BANK10  BANK11  BANK12  BANK13  BANK14  BANK15  BANK1
      +6  BANK17  BANK18  BANK19  BANK20  BANK21  BANK22  BANK23  BANK24  BANK25  BANK26  BANK27  BANK28  BANK29  BANK30  BANK3
      +1  BANK32  BANK33  BANK34  BANK35  BANK36  BANK37
  4590 ;;      Params:         0       2       0       0       0       0       0       0       0       0       0       0       
      +0       0       0       0       0       0       0       0       0       0       0       0       0       0       0       
      +0       0       0       0       0       0       0
  4591 ;;      Locals:         0       0       0       0       0       0       0       0       0       0       0       0       
      +0       0       0       0       0       0       0       0       0       0       0       0       0       0       0       
      +0       0       0       0       0       0       0
  4592 ;;      Temps:          0       0       0       0       0       0       0       0       0       0       0       0       
      +0       0       0       0       0       0       0       0       0       0       0       0       0       0       0       
      +0       0       0       0       0       0       0
  4593 ;;      Totals:         0       2       0       0       0       0       0       0       0       0       0       0       
      +0       0       0       0       0       0       0       0       0       0       0       0       0       0       0       
      +0       0       0       0       0       0       0
  4594 ;;Total ram usage:        2 bytes
  4595 ;; Hardware stack levels used:    1
  4596 ;; Hardware stack levels required when called:    6
  4597 ;; This function calls:
  4598 ;;		Nothing
  4599 ;; This function is called by:
  4600 ;;		_ADC_Initialize
  4601 ;; This function uses a non-reentrant model
  4602 ;;
  4603                           
  4604                           	psect	text44
  4605  004E98                     __ptext44:
  4606                           	callstack 0
  4607  004E98                     _ADC_SetADIInterruptHandler:
  4608                           	callstack 119
  4609  004E98                     
  4610                           ;mcc_generated_files/adc.c: 718: void ADC_SetADIInterruptHandler(void (* InterruptHandle
      +                          r)(void));mcc_generated_files/adc.c: 719: {;mcc_generated_files/adc.c: 720:     ADC_Conv
      +                          ersionComplete_ISR = InterruptHandler;
  4611  004E98  C5A9  F5FA         	movff	ADC_SetADIInterruptHandler@InterruptHandler,_ADC_ConversionComplete_ISR
  4612  004E9C  C5AA  F5FB         	movff	ADC_SetADIInterruptHandler@InterruptHandler+1,_ADC_ConversionComplete_ISR+1
  4613  004EA0  0012               	return		;funcret
  4614  004EA2                     __end_of_ADC_SetADIInterruptHandler:
  4615                           	callstack 0
  4616                           
  4617 ;; *************** function _GPIO_PWM1_Control *****************
  4618 ;; Defined at:
  4619 ;;		line 28 in file "GPIO.c"
  4620 ;; Parameters:    Size  Location     Type
  4621 ;;  uiDutyCycle     2   54[BANK5 ] unsigned int 
  4622 ;;  uiFreq          2   56[BANK5 ] unsigned int 
  4623 ;; Auto vars:     Size  Location     Type
  4624 ;;  uiConvertedD    2   62[BANK5 ] unsigned int 
  4625 ;;  uiConvertedP    2   60[BANK5 ] unsigned int 
  4626 ;; Return value:  Size  Location     Type
  4627 ;;                  1    wreg      void 
  4628 ;; Registers used:
  4629 ;;		wreg, status,2, status,0, cstack
  4630 ;; Tracked objects:
  4631 ;;		On entry : 0/0
  4632 ;;		On exit  : 0/0
  4633 ;;		Unchanged: 0/0
  4634 ;; Data sizes:     COMRAM   BANK5   BANK6   BANK7   BANK8   BANK9  BANK10  BANK11  BANK12  BANK13  BANK14  BANK15  BANK1
      +6  BANK17  BANK18  BANK19  BANK20  BANK21  BANK22  BANK23  BANK24  BANK25  BANK26  BANK27  BANK28  BANK29  BANK30  BANK3
      +1  BANK32  BANK33  BANK34  BANK35  BANK36  BANK37
  4635 ;;      Params:         0       4       0       0       0       0       0       0       0       0       0       0       
      +0       0       0       0       0       0       0       0       0       0       0       0       0       0       0       
      +0       0       0       0       0       0       0
  4636 ;;      Locals:         0       4       0       0       0       0       0       0       0       0       0       0       
      +0       0       0       0       0       0       0       0       0       0       0       0       0       0       0       
      +0       0       0       0       0       0       0
  4637 ;;      Temps:          0       2       0       0       0       0       0       0       0       0       0       0       
      +0       0       0       0       0       0       0       0       0       0       0       0       0       0       0       
      +0       0       0       0       0       0       0
  4638 ;;      Totals:         0      10       0       0       0       0       0       0       0       0       0       0       
      +0       0       0       0       0       0       0       0       0       0       0       0       0       0       0       
      +0       0       0       0       0       0       0
  4639 ;;Total ram usage:       10 bytes
  4640 ;; Hardware stack levels used:    1
  4641 ;; Hardware stack levels required when called:    7
  4642 ;; This function calls:
  4643 ;;		_PWM1_16BIT_LoadBufferRegisters
  4644 ;;		_PWM1_16BIT_SetSlice1Output1DutyCycleRegister
  4645 ;;		_PWM1_16BIT_WritePeriodRegister
  4646 ;;		___aldiv
  4647 ;;		___fladd
  4648 ;;		___fltol
  4649 ;;		___xxtofl
  4650 ;; This function is called by:
  4651 ;;		_main
  4652 ;;		_SERVICEBRAKE_Move
  4653 ;; This function uses a non-reentrant model
  4654 ;;
  4655                           
  4656                           	psect	text45
  4657  0044FE                     __ptext45:
  4658                           	callstack 0
  4659  0044FE                     _GPIO_PWM1_Control:
  4660                           	callstack 120
  4661  0044FE                     
  4662                           ;GPIO.c: 28: void GPIO_PWM1_Control (unsigned int uiDutyCycle, unsigned int uiFreq);GPIO
      +                          .c: 29: {;GPIO.c: 30:     unsigned int uiConvertedPeriod;;GPIO.c: 31:     unsigned int u
      +                          iConvertedDC;;GPIO.c: 34:     uiConvertedPeriod = ( ( 39241/uiFreq ) - 1.1508 );
  4663  0044FE  0E6A               	movlw	106
  4664  004500  0105               	movlb	5	; () banked
  4665  004502  6FC9               	movwf	___fladd@a& (0+255),b
  4666  004504  0E4D               	movlw	77
  4667  004506  6FCA               	movwf	(___fladd@a+1)& (0+255),b
  4668  004508  0E93               	movlw	147
  4669  00450A  6FCB               	movwf	(___fladd@a+2)& (0+255),b
  4670  00450C  0EBF               	movlw	191
  4671  00450E  6FCC               	movwf	(___fladd@a+3)& (0+255),b
  4672  004510  C5E1  F5AD         	movff	GPIO_PWM1_Control@uiFreq,___aldiv@divisor
  4673  004514  C5E2  F5AE         	movff	GPIO_PWM1_Control@uiFreq+1,___aldiv@divisor+1
  4674  004518  6BAF               	clrf	(___aldiv@divisor+2)& (0+255),b
  4675  00451A  6BB0               	clrf	(___aldiv@divisor+3)& (0+255),b
  4676  00451C  0E49               	movlw	73
  4677  00451E  6FA9               	movwf	___aldiv@dividend& (0+255),b
  4678  004520  0E99               	movlw	153
  4679  004522  6FAA               	movwf	(___aldiv@dividend+1)& (0+255),b
  4680  004524  0E00               	movlw	0
  4681  004526  6FAB               	movwf	(___aldiv@dividend+2)& (0+255),b
  4682  004528  0E00               	movlw	0
  4683  00452A  6FAC               	movwf	(___aldiv@dividend+3)& (0+255),b
  4684  00452C  EC28  F020         	call	___aldiv	;wreg free
  4685  004530  C5A9  F5B7         	movff	?___aldiv,___xxtofl@val
  4686  004534  C5AA  F5B8         	movff	?___aldiv+1,___xxtofl@val+1
  4687  004538  C5AB  F5B9         	movff	?___aldiv+2,___xxtofl@val+2
  4688  00453C  C5AC  F5BA         	movff	?___aldiv+3,___xxtofl@val+3
  4689  004540  0E01               	movlw	1
  4690  004542  ECC7  F01D         	call	___xxtofl
  4691  004546  C5B7  F5C5         	movff	?___xxtofl,___fladd@b
  4692  00454A  C5B8  F5C6         	movff	?___xxtofl+1,___fladd@b+1
  4693  00454E  C5B9  F5C7         	movff	?___xxtofl+2,___fladd@b+2
  4694  004552  C5BA  F5C8         	movff	?___xxtofl+3,___fladd@b+3
  4695  004556  EC07  F013         	call	___fladd	;wreg free
  4696  00455A  C5C5  F5D5         	movff	?___fladd,___fltol@f1
  4697  00455E  C5C6  F5D6         	movff	?___fladd+1,___fltol@f1+1
  4698  004562  C5C7  F5D7         	movff	?___fladd+2,___fltol@f1+2
  4699  004566  C5C8  F5D8         	movff	?___fladd+3,___fltol@f1+3
  4700  00456A  ECAF  F020         	call	___fltol	;wreg free
  4701  00456E  C5D5  F5E5         	movff	?___fltol,GPIO_PWM1_Control@uiConvertedPeriod
  4702  004572  C5D6  F5E6         	movff	?___fltol+1,GPIO_PWM1_Control@uiConvertedPeriod+1
  4703  004576                     
  4704                           ;GPIO.c: 35:     uiConvertedDC = uiDutyCycle * 4;
  4705  004576  C5DF  F5E3         	movff	GPIO_PWM1_Control@uiDutyCycle,??_GPIO_PWM1_Control
  4706  00457A  C5E0  F5E4         	movff	GPIO_PWM1_Control@uiDutyCycle+1,??_GPIO_PWM1_Control+1
  4707  00457E  0105               	movlb	5	; () banked
  4708  004580  90D8               	bcf	status,0,c
  4709  004582  37E3               	rlcf	??_GPIO_PWM1_Control& (0+255),f,b
  4710  004584  37E4               	rlcf	(??_GPIO_PWM1_Control+1)& (0+255),f,b
  4711  004586  90D8               	bcf	status,0,c
  4712  004588  37E3               	rlcf	??_GPIO_PWM1_Control& (0+255),f,b
  4713  00458A  37E4               	rlcf	(??_GPIO_PWM1_Control+1)& (0+255),f,b
  4714  00458C  C5E3  F5E7         	movff	??_GPIO_PWM1_Control,GPIO_PWM1_Control@uiConvertedDC
  4715  004590  C5E4  F5E8         	movff	??_GPIO_PWM1_Control+1,GPIO_PWM1_Control@uiConvertedDC+1
  4716  004594                     
  4717                           ; BSR set to: 5
  4718                           ;GPIO.c: 38:     PWM1_16BIT_SetSlice1Output1DutyCycleRegister(uiConvertedDC);
  4719  004594  C5E7  F5A9         	movff	GPIO_PWM1_Control@uiConvertedDC,PWM1_16BIT_SetSlice1Output1DutyCycleRegister@regi
      +                          sterValue
  4720  004598  C5E8  F5AA         	movff	GPIO_PWM1_Control@uiConvertedDC+1,PWM1_16BIT_SetSlice1Output1DutyCycleRegister@re
      +                          gisterValue+1
  4721  00459C  ECC4  F026         	call	_PWM1_16BIT_SetSlice1Output1DutyCycleRegister	;wreg free
  4722  0045A0                     
  4723                           ;GPIO.c: 39:     PWM1_16BIT_WritePeriodRegister(uiConvertedPeriod);
  4724  0045A0  C5E5  F5A9         	movff	GPIO_PWM1_Control@uiConvertedPeriod,PWM1_16BIT_WritePeriodRegister@periodCount
  4725  0045A4  C5E6  F5AA         	movff	GPIO_PWM1_Control@uiConvertedPeriod+1,PWM1_16BIT_WritePeriodRegister@periodCount+
      +                          1
  4726  0045A8  ECBD  F026         	call	_PWM1_16BIT_WritePeriodRegister	;wreg free
  4727  0045AC                     
  4728                           ;GPIO.c: 40:     PWM1_16BIT_LoadBufferRegisters();
  4729  0045AC  EC66  F027         	call	_PWM1_16BIT_LoadBufferRegisters	;wreg free
  4730  0045B0  0012               	return		;funcret
  4731  0045B2                     __end_of_GPIO_PWM1_Control:
  4732                           	callstack 0
  4733                           
  4734 ;; *************** function _PWM1_16BIT_WritePeriodRegister *****************
  4735 ;; Defined at:
  4736 ;;		line 144 in file "mcc_generated_files/pwm1_16bit.c"
  4737 ;; Parameters:    Size  Location     Type
  4738 ;;  periodCount     2    0[BANK5 ] unsigned short 
  4739 ;; Auto vars:     Size  Location     Type
  4740 ;;		None
  4741 ;; Return value:  Size  Location     Type
  4742 ;;                  1    wreg      void 
  4743 ;; Registers used:
  4744 ;;		wreg, status,2
  4745 ;; Tracked objects:
  4746 ;;		On entry : 0/0
  4747 ;;		On exit  : 0/0
  4748 ;;		Unchanged: 0/0
  4749 ;; Data sizes:     COMRAM   BANK5   BANK6   BANK7   BANK8   BANK9  BANK10  BANK11  BANK12  BANK13  BANK14  BANK15  BANK1
      +6  BANK17  BANK18  BANK19  BANK20  BANK21  BANK22  BANK23  BANK24  BANK25  BANK26  BANK27  BANK28  BANK29  BANK30  BANK3
      +1  BANK32  BANK33  BANK34  BANK35  BANK36  BANK37
  4750 ;;      Params:         0       2       0       0       0       0       0       0       0       0       0       0       
      +0       0       0       0       0       0       0       0       0       0       0       0       0       0       0       
      +0       0       0       0       0       0       0
  4751 ;;      Locals:         0       0       0       0       0       0       0       0       0       0       0       0       
      +0       0       0       0       0       0       0       0       0       0       0       0       0       0       0       
      +0       0       0       0       0       0       0
  4752 ;;      Temps:          0       0       0       0       0       0       0       0       0       0       0       0       
      +0       0       0       0       0       0       0       0       0       0       0       0       0       0       0       
      +0       0       0       0       0       0       0
  4753 ;;      Totals:         0       2       0       0       0       0       0       0       0       0       0       0       
      +0       0       0       0       0       0       0       0       0       0       0       0       0       0       0       
      +0       0       0       0       0       0       0
  4754 ;;Total ram usage:        2 bytes
  4755 ;; Hardware stack levels used:    1
  4756 ;; Hardware stack levels required when called:    6
  4757 ;; This function calls:
  4758 ;;		Nothing
  4759 ;; This function is called by:
  4760 ;;		_GPIO_PWM1_Control
  4761 ;; This function uses a non-reentrant model
  4762 ;;
  4763                           
  4764                           	psect	text46
  4765  004D7A                     __ptext46:
  4766                           	callstack 0
  4767  004D7A                     _PWM1_16BIT_WritePeriodRegister:
  4768                           	callstack 120
  4769  004D7A                     
  4770                           ;mcc_generated_files/pwm1_16bit.c: 144: void PWM1_16BIT_WritePeriodRegister(uint16_t per
      +                          iodCount);mcc_generated_files/pwm1_16bit.c: 145: {;mcc_generated_files/pwm1_16bit.c: 146
      +                          :     PWM1PRL = (uint8_t)periodCount;
  4771  004D7A  0061  F6A4  F463   	movff	PWM1_16BIT_WritePeriodRegister@periodCount,1123	;volatile
  4772  004D80                     
  4773                           ;mcc_generated_files/pwm1_16bit.c: 147:     PWM1PRH = (uint8_t)(periodCount >> 8);
  4774  004D80  0105               	movlb	5	; () banked
  4775  004D82  51AA               	movf	(PWM1_16BIT_WritePeriodRegister@periodCount+1)& (0+255),w,b
  4776  004D84  6E64               	movwf	100,c	;volatile
  4777  004D86                     
  4778                           ; BSR set to: 5
  4779  004D86  0012               	return		;funcret
  4780  004D88                     __end_of_PWM1_16BIT_WritePeriodRegister:
  4781                           	callstack 0
  4782                           
  4783 ;; *************** function _PWM1_16BIT_SetSlice1Output1DutyCycleRegister *****************
  4784 ;; Defined at:
  4785 ;;		line 150 in file "mcc_generated_files/pwm1_16bit.c"
  4786 ;; Parameters:    Size  Location     Type
  4787 ;;  registerValu    2    0[BANK5 ] unsigned short 
  4788 ;; Auto vars:     Size  Location     Type
  4789 ;;		None
  4790 ;; Return value:  Size  Location     Type
  4791 ;;                  1    wreg      void 
  4792 ;; Registers used:
  4793 ;;		wreg, status,2
  4794 ;; Tracked objects:
  4795 ;;		On entry : 0/0
  4796 ;;		On exit  : 0/0
  4797 ;;		Unchanged: 0/0
  4798 ;; Data sizes:     COMRAM   BANK5   BANK6   BANK7   BANK8   BANK9  BANK10  BANK11  BANK12  BANK13  BANK14  BANK15  BANK1
      +6  BANK17  BANK18  BANK19  BANK20  BANK21  BANK22  BANK23  BANK24  BANK25  BANK26  BANK27  BANK28  BANK29  BANK30  BANK3
      +1  BANK32  BANK33  BANK34  BANK35  BANK36  BANK37
  4799 ;;      Params:         0       2       0       0       0       0       0       0       0       0       0       0       
      +0       0       0       0       0       0       0       0       0       0       0       0       0       0       0       
      +0       0       0       0       0       0       0
  4800 ;;      Locals:         0       0       0       0       0       0       0       0       0       0       0       0       
      +0       0       0       0       0       0       0       0       0       0       0       0       0       0       0       
      +0       0       0       0       0       0       0
  4801 ;;      Temps:          0       0       0       0       0       0       0       0       0       0       0       0       
      +0       0       0       0       0       0       0       0       0       0       0       0       0       0       0       
      +0       0       0       0       0       0       0
  4802 ;;      Totals:         0       2       0       0       0       0       0       0       0       0       0       0       
      +0       0       0       0       0       0       0       0       0       0       0       0       0       0       0       
      +0       0       0       0       0       0       0
  4803 ;;Total ram usage:        2 bytes
  4804 ;; Hardware stack levels used:    1
  4805 ;; Hardware stack levels required when called:    6
  4806 ;; This function calls:
  4807 ;;		Nothing
  4808 ;; This function is called by:
  4809 ;;		_GPIO_PWM1_Control
  4810 ;; This function uses a non-reentrant model
  4811 ;;
  4812                           
  4813                           	psect	text47
  4814  004D88                     __ptext47:
  4815                           	callstack 0
  4816  004D88                     _PWM1_16BIT_SetSlice1Output1DutyCycleRegister:
  4817                           	callstack 120
  4818  004D88                     
  4819                           ;mcc_generated_files/pwm1_16bit.c: 150: void PWM1_16BIT_SetSlice1Output1DutyCycleRegiste
      +                          r(uint16_t registerValue);mcc_generated_files/pwm1_16bit.c: 151: {;mcc_generated_files/p
      +                          wm1_16bit.c: 152:     PWM1S1P1L = (uint8_t)(registerValue);
  4820  004D88  0061  F6A4  F46B   	movff	PWM1_16BIT_SetSlice1Output1DutyCycleRegister@registerValue,1131	;volatile
  4821  004D8E                     
  4822                           ;mcc_generated_files/pwm1_16bit.c: 153:     PWM1S1P1H = (uint8_t)(registerValue >> 8);
  4823  004D8E  0105               	movlb	5	; () banked
  4824  004D90  51AA               	movf	(PWM1_16BIT_SetSlice1Output1DutyCycleRegister@registerValue+1)& (0+255),w,b
  4825  004D92  6E6C               	movwf	108,c	;volatile
  4826  004D94                     
  4827                           ; BSR set to: 5
  4828  004D94  0012               	return		;funcret
  4829  004D96                     __end_of_PWM1_16BIT_SetSlice1Output1DutyCycleRegister:
  4830                           	callstack 0
  4831                           
  4832 ;; *************** function _PWM1_16BIT_LoadBufferRegisters *****************
  4833 ;; Defined at:
  4834 ;;		line 162 in file "mcc_generated_files/pwm1_16bit.c"
  4835 ;; Parameters:    Size  Location     Type
  4836 ;;		None
  4837 ;; Auto vars:     Size  Location     Type
  4838 ;;		None
  4839 ;; Return value:  Size  Location     Type
  4840 ;;                  1    wreg      void 
  4841 ;; Registers used:
  4842 ;;		None
  4843 ;; Tracked objects:
  4844 ;;		On entry : 0/0
  4845 ;;		On exit  : 0/0
  4846 ;;		Unchanged: 0/0
  4847 ;; Data sizes:     COMRAM   BANK5   BANK6   BANK7   BANK8   BANK9  BANK10  BANK11  BANK12  BANK13  BANK14  BANK15  BANK1
      +6  BANK17  BANK18  BANK19  BANK20  BANK21  BANK22  BANK23  BANK24  BANK25  BANK26  BANK27  BANK28  BANK29  BANK30  BANK3
      +1  BANK32  BANK33  BANK34  BANK35  BANK36  BANK37
  4848 ;;      Params:         0       0       0       0       0       0       0       0       0       0       0       0       
      +0       0       0       0       0       0       0       0       0       0       0       0       0       0       0       
      +0       0       0       0       0       0       0
  4849 ;;      Locals:         0       0       0       0       0       0       0       0       0       0       0       0       
      +0       0       0       0       0       0       0       0       0       0       0       0       0       0       0       
      +0       0       0       0       0       0       0
  4850 ;;      Temps:          0       0       0       0       0       0       0       0       0       0       0       0       
      +0       0       0       0       0       0       0       0       0       0       0       0       0       0       0       
      +0       0       0       0       0       0       0
  4851 ;;      Totals:         0       0       0       0       0       0       0       0       0       0       0       0       
      +0       0       0       0       0       0       0       0       0       0       0       0       0       0       0       
      +0       0       0       0       0       0       0
  4852 ;;Total ram usage:        0 bytes
  4853 ;; Hardware stack levels used:    1
  4854 ;; Hardware stack levels required when called:    6
  4855 ;; This function calls:
  4856 ;;		Nothing
  4857 ;; This function is called by:
  4858 ;;		_GPIO_PWM1_Control
  4859 ;; This function uses a non-reentrant model
  4860 ;;
  4861                           
  4862                           	psect	text48
  4863  004ECC                     __ptext48:
  4864                           	callstack 0
  4865  004ECC                     _PWM1_16BIT_LoadBufferRegisters:
  4866                           	callstack 120
  4867  004ECC                     
  4868                           ;mcc_generated_files/pwm1_16bit.c: 165:     PWM1CONbits.LD = 1;
  4869  004ECC  8469               	bsf	105,2,c	;volatile
  4870  004ECE  0012               	return		;funcret
  4871  004ED0                     __end_of_PWM1_16BIT_LoadBufferRegisters:
  4872                           	callstack 0
  4873                           
  4874 ;; *************** function _EBS_Watchdog *****************
  4875 ;; Defined at:
  4876 ;;		line 148 in file "EBS.c"
  4877 ;; Parameters:    Size  Location     Type
  4878 ;;  ucWDState       1    wreg     unsigned char 
  4879 ;; Auto vars:     Size  Location     Type
  4880 ;;  ucWDState       1   66[BANK5 ] unsigned char 
  4881 ;; Return value:  Size  Location     Type
  4882 ;;                  1    wreg      void 
  4883 ;; Registers used:
  4884 ;;		wreg, status,2, status,0, prodl, prodh, cstack
  4885 ;; Tracked objects:
  4886 ;;		On entry : 0/0
  4887 ;;		On exit  : 0/0
  4888 ;;		Unchanged: 0/0
  4889 ;; Data sizes:     COMRAM   BANK5   BANK6   BANK7   BANK8   BANK9  BANK10  BANK11  BANK12  BANK13  BANK14  BANK15  BANK1
      +6  BANK17  BANK18  BANK19  BANK20  BANK21  BANK22  BANK23  BANK24  BANK25  BANK26  BANK27  BANK28  BANK29  BANK30  BANK3
      +1  BANK32  BANK33  BANK34  BANK35  BANK36  BANK37
  4890 ;;      Params:         0       0       0       0       0       0       0       0       0       0       0       0       
      +0       0       0       0       0       0       0       0       0       0       0       0       0       0       0       
      +0       0       0       0       0       0       0
  4891 ;;      Locals:         0       1       0       0       0       0       0       0       0       0       0       0       
      +0       0       0       0       0       0       0       0       0       0       0       0       0       0       0       
      +0       0       0       0       0       0       0
  4892 ;;      Temps:          0       2       0       0       0       0       0       0       0       0       0       0       
      +0       0       0       0       0       0       0       0       0       0       0       0       0       0       0       
      +0       0       0       0       0       0       0
  4893 ;;      Totals:         0       3       0       0       0       0       0       0       0       0       0       0       
      +0       0       0       0       0       0       0       0       0       0       0       0       0       0       0       
      +0       0       0       0       0       0       0
  4894 ;;Total ram usage:        3 bytes
  4895 ;; Hardware stack levels used:    1
  4896 ;; Hardware stack levels required when called:    8
  4897 ;; This function calls:
  4898 ;;		_GPIO_PWM2_Control
  4899 ;;		_PWM2_16BIT_Disable
  4900 ;;		_PWM2_16BIT_Enable
  4901 ;; This function is called by:
  4902 ;;		_main
  4903 ;;		_EBS_CheckUP_Routine
  4904 ;; This function uses a non-reentrant model
  4905 ;;
  4906                           
  4907                           	psect	text49
  4908  0048F0                     __ptext49:
  4909                           	callstack 0
  4910  0048F0                     _EBS_Watchdog:
  4911                           	callstack 119
  4912                           
  4913                           ;incstack = 0
  4914                           ;EBS_Watchdog@ucWDState stored from wreg
  4915  0048F0  0105               	movlb	5	; () banked
  4916  0048F2  6FEB               	movwf	EBS_Watchdog@ucWDState& (0+255),b
  4917  0048F4                     
  4918                           ;EBS.c: 148: void EBS_Watchdog (unsigned char ucWDState);EBS.c: 149: {;EBS.c: 150:     s
      +                          witch ( ucWDState )
  4919  0048F4  EF8F  F024         	goto	l6293
  4920  0048F8                     l6285:
  4921                           
  4922                           ; BSR set to: 5
  4923                           ;EBS.c: 153:             PWM2_16BIT_Disable();
  4924  0048F8  EC6A  F027         	call	_PWM2_16BIT_Disable	;wreg free
  4925                           
  4926                           ;EBS.c: 154:             break;
  4927  0048FC  EFA5  F024         	goto	l1613
  4928  004900                     l6287:
  4929                           
  4930                           ; BSR set to: 5
  4931                           ;EBS.c: 156:             PWM2_16BIT_Enable();
  4932  004900  EC68  F027         	call	_PWM2_16BIT_Enable	;wreg free
  4933  004904                     
  4934                           ;EBS.c: 157:             GPIO_PWM2_Control(25, 10);
  4935  004904  0E00               	movlw	0
  4936  004906  0105               	movlb	5	; () banked
  4937  004908  6FE0               	movwf	(GPIO_PWM2_Control@uiDutyCycle+1)& (0+255),b
  4938  00490A  0E19               	movlw	25
  4939  00490C  6FDF               	movwf	GPIO_PWM2_Control@uiDutyCycle& (0+255),b
  4940  00490E  0E00               	movlw	0
  4941  004910  6FE2               	movwf	(GPIO_PWM2_Control@uiFreq+1)& (0+255),b
  4942  004912  0E0A               	movlw	10
  4943  004914  6FE1               	movwf	GPIO_PWM2_Control@uiFreq& (0+255),b
  4944  004916  ECB6  F021         	call	_GPIO_PWM2_Control	;wreg free
  4945                           
  4946                           ;EBS.c: 158:             break;
  4947  00491A  EFA5  F024         	goto	l1613
  4948  00491E                     l6293:
  4949  00491E  0105               	movlb	5	; () banked
  4950  004920  51EB               	movf	EBS_Watchdog@ucWDState& (0+255),w,b
  4951  004922  6FE9               	movwf	??_EBS_Watchdog& (0+255),b
  4952  004924  6BEA               	clrf	(??_EBS_Watchdog+1)& (0+255),b
  4953                           
  4954                           ; Switch on 2 bytes has been partitioned into a top level switch of size 1, and 1 sub-sw
      +                          itches
  4955                           ; Switch size 1, requested type "simple"
  4956                           ; Number of cases is 1, Range of values is 0 to 0
  4957                           ; switch strategies available:
  4958                           ; Name         Instructions Cycles
  4959                           ; simple_byte            4     3 (average)
  4960                           ;	Chosen strategy is simple_byte
  4961  004926  51EA               	movf	(??_EBS_Watchdog+1)& (0+255),w,b
  4962  004928  0A00               	xorlw	0	; case 0
  4963  00492A  B4D8               	btfsc	status,2,c
  4964  00492C  EF9A  F024         	goto	l6725
  4965  004930  EFA5  F024         	goto	l1613
  4966  004934                     l6725:
  4967                           
  4968                           ; BSR set to: 5
  4969                           ; Switch size 1, requested type "simple"
  4970                           ; Number of cases is 2, Range of values is 0 to 1
  4971                           ; switch strategies available:
  4972                           ; Name         Instructions Cycles
  4973                           ; simple_byte            7     4 (average)
  4974                           ;	Chosen strategy is simple_byte
  4975  004934  51E9               	movf	??_EBS_Watchdog& (0+255),w,b
  4976  004936  0A00               	xorlw	0	; case 0
  4977  004938  B4D8               	btfsc	status,2,c
  4978  00493A  EF7C  F024         	goto	l6285
  4979  00493E  0A01               	xorlw	1	; case 1
  4980  004940  B4D8               	btfsc	status,2,c
  4981  004942  EF80  F024         	goto	l6287
  4982  004946  EFA5  F024         	goto	l1613
  4983  00494A                     l1613:
  4984  00494A  0012               	return		;funcret
  4985  00494C                     __end_of_EBS_Watchdog:
  4986                           	callstack 0
  4987                           
  4988 ;; *************** function _PWM2_16BIT_Enable *****************
  4989 ;; Defined at:
  4990 ;;		line 134 in file "mcc_generated_files/pwm2_16bit.c"
  4991 ;; Parameters:    Size  Location     Type
  4992 ;;		None
  4993 ;; Auto vars:     Size  Location     Type
  4994 ;;		None
  4995 ;; Return value:  Size  Location     Type
  4996 ;;                  1    wreg      void 
  4997 ;; Registers used:
  4998 ;;		status,2, status,0
  4999 ;; Tracked objects:
  5000 ;;		On entry : 0/0
  5001 ;;		On exit  : 0/0
  5002 ;;		Unchanged: 0/0
  5003 ;; Data sizes:     COMRAM   BANK5   BANK6   BANK7   BANK8   BANK9  BANK10  BANK11  BANK12  BANK13  BANK14  BANK15  BANK1
      +6  BANK17  BANK18  BANK19  BANK20  BANK21  BANK22  BANK23  BANK24  BANK25  BANK26  BANK27  BANK28  BANK29  BANK30  BANK3
      +1  BANK32  BANK33  BANK34  BANK35  BANK36  BANK37
  5004 ;;      Params:         0       0       0       0       0       0       0       0       0       0       0       0       
      +0       0       0       0       0       0       0       0       0       0       0       0       0       0       0       
      +0       0       0       0       0       0       0
  5005 ;;      Locals:         0       0       0       0       0       0       0       0       0       0       0       0       
      +0       0       0       0       0       0       0       0       0       0       0       0       0       0       0       
      +0       0       0       0       0       0       0
  5006 ;;      Temps:          0       0       0       0       0       0       0       0       0       0       0       0       
      +0       0       0       0       0       0       0       0       0       0       0       0       0       0       0       
      +0       0       0       0       0       0       0
  5007 ;;      Totals:         0       0       0       0       0       0       0       0       0       0       0       0       
      +0       0       0       0       0       0       0       0       0       0       0       0       0       0       0       
      +0       0       0       0       0       0       0
  5008 ;;Total ram usage:        0 bytes
  5009 ;; Hardware stack levels used:    1
  5010 ;; Hardware stack levels required when called:    6
  5011 ;; This function calls:
  5012 ;;		Nothing
  5013 ;; This function is called by:
  5014 ;;		_EBS_Watchdog
  5015 ;; This function uses a non-reentrant model
  5016 ;;
  5017                           
  5018                           	psect	text50
  5019  004ED0                     __ptext50:
  5020                           	callstack 0
  5021  004ED0                     _PWM2_16BIT_Enable:
  5022                           	callstack 120
  5023  004ED0                     
  5024                           ;mcc_generated_files/pwm2_16bit.c: 136:     PWM2CON |= 0x80;
  5025  004ED0  8E78               	bsf	120,7,c	;volatile
  5026  004ED2  0012               	return		;funcret
  5027  004ED4                     __end_of_PWM2_16BIT_Enable:
  5028                           	callstack 0
  5029                           
  5030 ;; *************** function _PWM2_16BIT_Disable *****************
  5031 ;; Defined at:
  5032 ;;		line 139 in file "mcc_generated_files/pwm2_16bit.c"
  5033 ;; Parameters:    Size  Location     Type
  5034 ;;		None
  5035 ;; Auto vars:     Size  Location     Type
  5036 ;;		None
  5037 ;; Return value:  Size  Location     Type
  5038 ;;                  1    wreg      void 
  5039 ;; Registers used:
  5040 ;;		status,2, status,0
  5041 ;; Tracked objects:
  5042 ;;		On entry : 0/0
  5043 ;;		On exit  : 0/0
  5044 ;;		Unchanged: 0/0
  5045 ;; Data sizes:     COMRAM   BANK5   BANK6   BANK7   BANK8   BANK9  BANK10  BANK11  BANK12  BANK13  BANK14  BANK15  BANK1
      +6  BANK17  BANK18  BANK19  BANK20  BANK21  BANK22  BANK23  BANK24  BANK25  BANK26  BANK27  BANK28  BANK29  BANK30  BANK3
      +1  BANK32  BANK33  BANK34  BANK35  BANK36  BANK37
  5046 ;;      Params:         0       0       0       0       0       0       0       0       0       0       0       0       
      +0       0       0       0       0       0       0       0       0       0       0       0       0       0       0       
      +0       0       0       0       0       0       0
  5047 ;;      Locals:         0       0       0       0       0       0       0       0       0       0       0       0       
      +0       0       0       0       0       0       0       0       0       0       0       0       0       0       0       
      +0       0       0       0       0       0       0
  5048 ;;      Temps:          0       0       0       0       0       0       0       0       0       0       0       0       
      +0       0       0       0       0       0       0       0       0       0       0       0       0       0       0       
      +0       0       0       0       0       0       0
  5049 ;;      Totals:         0       0       0       0       0       0       0       0       0       0       0       0       
      +0       0       0       0       0       0       0       0       0       0       0       0       0       0       0       
      +0       0       0       0       0       0       0
  5050 ;;Total ram usage:        0 bytes
  5051 ;; Hardware stack levels used:    1
  5052 ;; Hardware stack levels required when called:    6
  5053 ;; This function calls:
  5054 ;;		Nothing
  5055 ;; This function is called by:
  5056 ;;		_EBS_Watchdog
  5057 ;; This function uses a non-reentrant model
  5058 ;;
  5059                           
  5060                           	psect	text51
  5061  004ED4                     __ptext51:
  5062                           	callstack 0
  5063  004ED4                     _PWM2_16BIT_Disable:
  5064                           	callstack 120
  5065  004ED4                     
  5066                           ;mcc_generated_files/pwm2_16bit.c: 141:     PWM2CON &= (~0x80);
  5067  004ED4  9E78               	bcf	120,7,c	;volatile
  5068  004ED6  0012               	return		;funcret
  5069  004ED8                     __end_of_PWM2_16BIT_Disable:
  5070                           	callstack 0
  5071                           
  5072 ;; *************** function _GPIO_PWM2_Control *****************
  5073 ;; Defined at:
  5074 ;;		line 46 in file "GPIO.c"
  5075 ;; Parameters:    Size  Location     Type
  5076 ;;  uiDutyCycle     2   54[BANK5 ] unsigned int 
  5077 ;;  uiFreq          2   56[BANK5 ] unsigned int 
  5078 ;; Auto vars:     Size  Location     Type
  5079 ;;  uiConvertedD    2   62[BANK5 ] unsigned int 
  5080 ;;  uiConvertedP    2   60[BANK5 ] unsigned int 
  5081 ;; Return value:  Size  Location     Type
  5082 ;;                  1    wreg      void 
  5083 ;; Registers used:
  5084 ;;		wreg, status,2, status,0, prodl, prodh, cstack
  5085 ;; Tracked objects:
  5086 ;;		On entry : 0/0
  5087 ;;		On exit  : 0/0
  5088 ;;		Unchanged: 0/0
  5089 ;; Data sizes:     COMRAM   BANK5   BANK6   BANK7   BANK8   BANK9  BANK10  BANK11  BANK12  BANK13  BANK14  BANK15  BANK1
      +6  BANK17  BANK18  BANK19  BANK20  BANK21  BANK22  BANK23  BANK24  BANK25  BANK26  BANK27  BANK28  BANK29  BANK30  BANK3
      +1  BANK32  BANK33  BANK34  BANK35  BANK36  BANK37
  5090 ;;      Params:         0       4       0       0       0       0       0       0       0       0       0       0       
      +0       0       0       0       0       0       0       0       0       0       0       0       0       0       0       
      +0       0       0       0       0       0       0
  5091 ;;      Locals:         0       4       0       0       0       0       0       0       0       0       0       0       
      +0       0       0       0       0       0       0       0       0       0       0       0       0       0       0       
      +0       0       0       0       0       0       0
  5092 ;;      Temps:          0       2       0       0       0       0       0       0       0       0       0       0       
      +0       0       0       0       0       0       0       0       0       0       0       0       0       0       0       
      +0       0       0       0       0       0       0
  5093 ;;      Totals:         0      10       0       0       0       0       0       0       0       0       0       0       
      +0       0       0       0       0       0       0       0       0       0       0       0       0       0       0       
      +0       0       0       0       0       0       0
  5094 ;;Total ram usage:       10 bytes
  5095 ;; Hardware stack levels used:    1
  5096 ;; Hardware stack levels required when called:    7
  5097 ;; This function calls:
  5098 ;;		_PWM2_16BIT_LoadBufferRegisters
  5099 ;;		_PWM2_16BIT_SetSlice1Output1DutyCycleRegister
  5100 ;;		_PWM2_16BIT_WritePeriodRegister
  5101 ;;		___aldiv
  5102 ;;		___fladd
  5103 ;;		___fltol
  5104 ;;		___lwdiv
  5105 ;;		___wmul
  5106 ;;		___xxtofl
  5107 ;; This function is called by:
  5108 ;;		_EBS_Watchdog
  5109 ;; This function uses a non-reentrant model
  5110 ;;
  5111                           
  5112                           	psect	text52
  5113  00436C                     __ptext52:
  5114                           	callstack 0
  5115  00436C                     _GPIO_PWM2_Control:
  5116                           	callstack 119
  5117  00436C                     
  5118                           ;GPIO.c: 46: void GPIO_PWM2_Control (unsigned int uiDutyCycle, unsigned int uiFreq);GPIO
      +                          .c: 47: {;GPIO.c: 48:     unsigned int uiConvertedPeriod;;GPIO.c: 49:     unsigned int u
      +                          iConvertedDC;;GPIO.c: 52:     uiConvertedPeriod = ( ( 39241/uiFreq ) - 1.1508 );
  5119  00436C  0E6A               	movlw	106
  5120  00436E  0105               	movlb	5	; () banked
  5121  004370  6FC9               	movwf	___fladd@a& (0+255),b
  5122  004372  0E4D               	movlw	77
  5123  004374  6FCA               	movwf	(___fladd@a+1)& (0+255),b
  5124  004376  0E93               	movlw	147
  5125  004378  6FCB               	movwf	(___fladd@a+2)& (0+255),b
  5126  00437A  0EBF               	movlw	191
  5127  00437C  6FCC               	movwf	(___fladd@a+3)& (0+255),b
  5128  00437E  C5E1  F5AD         	movff	GPIO_PWM2_Control@uiFreq,___aldiv@divisor
  5129  004382  C5E2  F5AE         	movff	GPIO_PWM2_Control@uiFreq+1,___aldiv@divisor+1
  5130  004386  6BAF               	clrf	(___aldiv@divisor+2)& (0+255),b
  5131  004388  6BB0               	clrf	(___aldiv@divisor+3)& (0+255),b
  5132  00438A  0E49               	movlw	73
  5133  00438C  6FA9               	movwf	___aldiv@dividend& (0+255),b
  5134  00438E  0E99               	movlw	153
  5135  004390  6FAA               	movwf	(___aldiv@dividend+1)& (0+255),b
  5136  004392  0E00               	movlw	0
  5137  004394  6FAB               	movwf	(___aldiv@dividend+2)& (0+255),b
  5138  004396  0E00               	movlw	0
  5139  004398  6FAC               	movwf	(___aldiv@dividend+3)& (0+255),b
  5140  00439A  EC28  F020         	call	___aldiv	;wreg free
  5141  00439E  C5A9  F5B7         	movff	?___aldiv,___xxtofl@val
  5142  0043A2  C5AA  F5B8         	movff	?___aldiv+1,___xxtofl@val+1
  5143  0043A6  C5AB  F5B9         	movff	?___aldiv+2,___xxtofl@val+2
  5144  0043AA  C5AC  F5BA         	movff	?___aldiv+3,___xxtofl@val+3
  5145  0043AE  0E01               	movlw	1
  5146  0043B0  ECC7  F01D         	call	___xxtofl
  5147  0043B4  C5B7  F5C5         	movff	?___xxtofl,___fladd@b
  5148  0043B8  C5B8  F5C6         	movff	?___xxtofl+1,___fladd@b+1
  5149  0043BC  C5B9  F5C7         	movff	?___xxtofl+2,___fladd@b+2
  5150  0043C0  C5BA  F5C8         	movff	?___xxtofl+3,___fladd@b+3
  5151  0043C4  EC07  F013         	call	___fladd	;wreg free
  5152  0043C8  C5C5  F5D5         	movff	?___fladd,___fltol@f1
  5153  0043CC  C5C6  F5D6         	movff	?___fladd+1,___fltol@f1+1
  5154  0043D0  C5C7  F5D7         	movff	?___fladd+2,___fltol@f1+2
  5155  0043D4  C5C8  F5D8         	movff	?___fladd+3,___fltol@f1+3
  5156  0043D8  ECAF  F020         	call	___fltol	;wreg free
  5157  0043DC  C5D5  F5E5         	movff	?___fltol,GPIO_PWM2_Control@uiConvertedPeriod
  5158  0043E0  C5D6  F5E6         	movff	?___fltol+1,GPIO_PWM2_Control@uiConvertedPeriod+1
  5159  0043E4                     
  5160                           ;GPIO.c: 53:     uiConvertedDC = ( uiDutyCycle * 4 ) * ( 100/uiFreq );
  5161  0043E4  C5DF  F5E3         	movff	GPIO_PWM2_Control@uiDutyCycle,??_GPIO_PWM2_Control
  5162  0043E8  C5E0  F5E4         	movff	GPIO_PWM2_Control@uiDutyCycle+1,??_GPIO_PWM2_Control+1
  5163  0043EC  0105               	movlb	5	; () banked
  5164  0043EE  90D8               	bcf	status,0,c
  5165  0043F0  37E3               	rlcf	??_GPIO_PWM2_Control& (0+255),f,b
  5166  0043F2  37E4               	rlcf	(??_GPIO_PWM2_Control+1)& (0+255),f,b
  5167  0043F4  90D8               	bcf	status,0,c
  5168  0043F6  37E3               	rlcf	??_GPIO_PWM2_Control& (0+255),f,b
  5169  0043F8  37E4               	rlcf	(??_GPIO_PWM2_Control+1)& (0+255),f,b
  5170  0043FA  C5E3  F5B0         	movff	??_GPIO_PWM2_Control,___wmul@multiplier
  5171  0043FE  C5E4  F5B1         	movff	??_GPIO_PWM2_Control+1,___wmul@multiplier+1
  5172  004402  C5E1  F5AB         	movff	GPIO_PWM2_Control@uiFreq,___lwdiv@divisor
  5173  004406  C5E2  F5AC         	movff	GPIO_PWM2_Control@uiFreq+1,___lwdiv@divisor+1
  5174  00440A  0E00               	movlw	0
  5175  00440C  6FAA               	movwf	(___lwdiv@dividend+1)& (0+255),b
  5176  00440E  0E64               	movlw	100
  5177  004410  6FA9               	movwf	___lwdiv@dividend& (0+255),b
  5178  004412  EC62  F023         	call	___lwdiv	;wreg free
  5179  004416  C5A9  F5B2         	movff	?___lwdiv,___wmul@multiplicand
  5180  00441A  C5AA  F5B3         	movff	?___lwdiv+1,___wmul@multiplicand+1
  5181  00441E  EC40  F026         	call	___wmul	;wreg free
  5182  004422  C5B0  F5E7         	movff	?___wmul,GPIO_PWM2_Control@uiConvertedDC
  5183  004426  C5B1  F5E8         	movff	?___wmul+1,GPIO_PWM2_Control@uiConvertedDC+1
  5184  00442A                     
  5185                           ;GPIO.c: 56:     PWM2_16BIT_SetSlice1Output1DutyCycleRegister(uiConvertedDC);
  5186  00442A  C5E7  F5A9         	movff	GPIO_PWM2_Control@uiConvertedDC,PWM2_16BIT_SetSlice1Output1DutyCycleRegister@regi
      +                          sterValue
  5187  00442E  C5E8  F5AA         	movff	GPIO_PWM2_Control@uiConvertedDC+1,PWM2_16BIT_SetSlice1Output1DutyCycleRegister@re
      +                          gisterValue+1
  5188  004432  ECD2  F026         	call	_PWM2_16BIT_SetSlice1Output1DutyCycleRegister	;wreg free
  5189  004436                     
  5190                           ;GPIO.c: 57:     PWM2_16BIT_WritePeriodRegister(uiConvertedPeriod);
  5191  004436  C5E5  F5A9         	movff	GPIO_PWM2_Control@uiConvertedPeriod,PWM2_16BIT_WritePeriodRegister@periodCount
  5192  00443A  C5E6  F5AA         	movff	GPIO_PWM2_Control@uiConvertedPeriod+1,PWM2_16BIT_WritePeriodRegister@periodCount+
      +                          1
  5193  00443E  ECCB  F026         	call	_PWM2_16BIT_WritePeriodRegister	;wreg free
  5194  004442                     
  5195                           ;GPIO.c: 58:     PWM2_16BIT_LoadBufferRegisters();
  5196  004442  EC6C  F027         	call	_PWM2_16BIT_LoadBufferRegisters	;wreg free
  5197  004446  0012               	return		;funcret
  5198  004448                     __end_of_GPIO_PWM2_Control:
  5199                           	callstack 0
  5200                           
  5201 ;; *************** function ___xxtofl *****************
  5202 ;; Defined at:
  5203 ;;		line 10 in file "C:\Program Files\Microchip\xc8\v2.31\pic\sources\c99\common\xxtofl.c"
  5204 ;; Parameters:    Size  Location     Type
  5205 ;;  sign            1    wreg     unsigned char 
  5206 ;;  val             4   14[BANK5 ] long 
  5207 ;; Auto vars:     Size  Location     Type
  5208 ;;  sign            1   22[BANK5 ] unsigned char 
  5209 ;;  arg             4   24[BANK5 ] unsigned long 
  5210 ;;  exp             1   23[BANK5 ] unsigned char 
  5211 ;; Return value:  Size  Location     Type
  5212 ;;                  4   14[BANK5 ] unsigned char 
  5213 ;; Registers used:
  5214 ;;		wreg, status,2, status,0
  5215 ;; Tracked objects:
  5216 ;;		On entry : 0/0
  5217 ;;		On exit  : 0/0
  5218 ;;		Unchanged: 0/0
  5219 ;; Data sizes:     COMRAM   BANK5   BANK6   BANK7   BANK8   BANK9  BANK10  BANK11  BANK12  BANK13  BANK14  BANK15  BANK1
      +6  BANK17  BANK18  BANK19  BANK20  BANK21  BANK22  BANK23  BANK24  BANK25  BANK26  BANK27  BANK28  BANK29  BANK30  BANK3
      +1  BANK32  BANK33  BANK34  BANK35  BANK36  BANK37
  5220 ;;      Params:         0       4       0       0       0       0       0       0       0       0       0       0       
      +0       0       0       0       0       0       0       0       0       0       0       0       0       0       0       
      +0       0       0       0       0       0       0
  5221 ;;      Locals:         0       6       0       0       0       0       0       0       0       0       0       0       
      +0       0       0       0       0       0       0       0       0       0       0       0       0       0       0       
      +0       0       0       0       0       0       0
  5222 ;;      Temps:          0       4       0       0       0       0       0       0       0       0       0       0       
      +0       0       0       0       0       0       0       0       0       0       0       0       0       0       0       
      +0       0       0       0       0       0       0
  5223 ;;      Totals:         0      14       0       0       0       0       0       0       0       0       0       0       
      +0       0       0       0       0       0       0       0       0       0       0       0       0       0       0       
      +0       0       0       0       0       0       0
  5224 ;;Total ram usage:       14 bytes
  5225 ;; Hardware stack levels used:    1
  5226 ;; Hardware stack levels required when called:    6
  5227 ;; This function calls:
  5228 ;;		Nothing
  5229 ;; This function is called by:
  5230 ;;		_GPIO_PWM1_Control
  5231 ;;		_GPIO_PWM2_Control
  5232 ;; This function uses a non-reentrant model
  5233 ;;
  5234                           
  5235                           	psect	text53
  5236  003B8E                     __ptext53:
  5237                           	callstack 0
  5238  003B8E                     ___xxtofl:
  5239                           	callstack 120
  5240                           
  5241                           ;incstack = 0
  5242                           ;___xxtofl@sign stored from wreg
  5243  003B8E  0105               	movlb	5	; () banked
  5244  003B90  6FBF               	movwf	___xxtofl@sign& (0+255),b
  5245  003B92  0105               	movlb	5	; () banked
  5246  003B94  51BF               	movf	___xxtofl@sign& (0+255),w,b
  5247  003B96  B4D8               	btfsc	status,2,c
  5248  003B98  EFD0  F01D         	goto	u5311
  5249  003B9C  EFD2  F01D         	goto	u5310
  5250  003BA0                     u5311:
  5251  003BA0  EFF4  F01D         	goto	l2271
  5252  003BA4                     u5310:
  5253  003BA4                     
  5254                           ; BSR set to: 5
  5255  003BA4  BFBA               	btfsc	(___xxtofl@val+3)& (0+255),7,b
  5256  003BA6  EFD9  F01D         	goto	u5320
  5257  003BAA  EFD7  F01D         	goto	u5321
  5258  003BAE                     u5321:
  5259  003BAE  EFF4  F01D         	goto	l2271
  5260  003BB2                     u5320:
  5261  003BB2                     
  5262                           ; BSR set to: 5
  5263  003BB2  C5B7  F5BB         	movff	___xxtofl@val,??___xxtofl
  5264  003BB6  C5B8  F5BC         	movff	___xxtofl@val+1,??___xxtofl+1
  5265  003BBA  C5B9  F5BD         	movff	___xxtofl@val+2,??___xxtofl+2
  5266  003BBE  C5BA  F5BE         	movff	___xxtofl@val+3,??___xxtofl+3
  5267  003BC2  1FBB               	comf	??___xxtofl& (0+255),f,b
  5268  003BC4  1FBC               	comf	(??___xxtofl+1)& (0+255),f,b
  5269  003BC6  1FBD               	comf	(??___xxtofl+2)& (0+255),f,b
  5270  003BC8  1FBE               	comf	(??___xxtofl+3)& (0+255),f,b
  5271  003BCA  2BBB               	incf	??___xxtofl& (0+255),f,b
  5272  003BCC  0E00               	movlw	0
  5273  003BCE  23BC               	addwfc	(??___xxtofl+1)& (0+255),f,b
  5274  003BD0  23BD               	addwfc	(??___xxtofl+2)& (0+255),f,b
  5275  003BD2  23BE               	addwfc	(??___xxtofl+3)& (0+255),f,b
  5276  003BD4  C5BB  F5C1         	movff	??___xxtofl,___xxtofl@arg
  5277  003BD8  C5BC  F5C2         	movff	??___xxtofl+1,___xxtofl@arg+1
  5278  003BDC  C5BD  F5C3         	movff	??___xxtofl+2,___xxtofl@arg+2
  5279  003BE0  C5BE  F5C4         	movff	??___xxtofl+3,___xxtofl@arg+3
  5280  003BE4  EFFC  F01D         	goto	l5783
  5281  003BE8                     l2271:
  5282                           
  5283                           ; BSR set to: 5
  5284  003BE8  C5B7  F5C1         	movff	___xxtofl@val,___xxtofl@arg
  5285  003BEC  C5B8  F5C2         	movff	___xxtofl@val+1,___xxtofl@arg+1
  5286  003BF0  C5B9  F5C3         	movff	___xxtofl@val+2,___xxtofl@arg+2
  5287  003BF4  C5BA  F5C4         	movff	___xxtofl@val+3,___xxtofl@arg+3
  5288  003BF8                     l5783:
  5289                           
  5290                           ; BSR set to: 5
  5291  003BF8  51B7               	movf	___xxtofl@val& (0+255),w,b
  5292  003BFA  11B8               	iorwf	(___xxtofl@val+1)& (0+255),w,b
  5293  003BFC  11B9               	iorwf	(___xxtofl@val+2)& (0+255),w,b
  5294  003BFE  11BA               	iorwf	(___xxtofl@val+3)& (0+255),w,b
  5295  003C00  A4D8               	btfss	status,2,c
  5296  003C02  EF05  F01E         	goto	u5331
  5297  003C06  EF07  F01E         	goto	u5330
  5298  003C0A                     u5331:
  5299  003C0A  EF11  F01E         	goto	l5789
  5300  003C0E                     u5330:
  5301  003C0E                     
  5302                           ; BSR set to: 5
  5303  003C0E  0E00               	movlw	0
  5304  003C10  6FB7               	movwf	?___xxtofl& (0+255),b
  5305  003C12  0E00               	movlw	0
  5306  003C14  6FB8               	movwf	(?___xxtofl+1)& (0+255),b
  5307  003C16  0E00               	movlw	0
  5308  003C18  6FB9               	movwf	(?___xxtofl+2)& (0+255),b
  5309  003C1A  0E00               	movlw	0
  5310  003C1C  6FBA               	movwf	(?___xxtofl+3)& (0+255),b
  5311  003C1E  EFA2  F01E         	goto	l2274
  5312  003C22                     l5789:
  5313                           
  5314                           ; BSR set to: 5
  5315  003C22  0E96               	movlw	150
  5316  003C24  6FC0               	movwf	___xxtofl@exp& (0+255),b
  5317  003C26  EF1B  F01E         	goto	l5793
  5318  003C2A                     l5791:
  5319                           
  5320                           ; BSR set to: 5
  5321  003C2A  2BC0               	incf	___xxtofl@exp& (0+255),f,b
  5322  003C2C  90D8               	bcf	status,0,c
  5323  003C2E  33C4               	rrcf	(___xxtofl@arg+3)& (0+255),f,b
  5324  003C30  33C3               	rrcf	(___xxtofl@arg+2)& (0+255),f,b
  5325  003C32  33C2               	rrcf	(___xxtofl@arg+1)& (0+255),f,b
  5326  003C34  33C1               	rrcf	___xxtofl@arg& (0+255),f,b
  5327  003C36                     l5793:
  5328                           
  5329                           ; BSR set to: 5
  5330  003C36  0E00               	movlw	0
  5331  003C38  15C1               	andwf	___xxtofl@arg& (0+255),w,b
  5332  003C3A  6FBB               	movwf	??___xxtofl& (0+255),b
  5333  003C3C  0E00               	movlw	0
  5334  003C3E  15C2               	andwf	(___xxtofl@arg+1)& (0+255),w,b
  5335  003C40  6FBC               	movwf	(??___xxtofl+1)& (0+255),b
  5336  003C42  0E00               	movlw	0
  5337  003C44  15C3               	andwf	(___xxtofl@arg+2)& (0+255),w,b
  5338  003C46  6FBD               	movwf	(??___xxtofl+2)& (0+255),b
  5339  003C48  0EFE               	movlw	254
  5340  003C4A  15C4               	andwf	(___xxtofl@arg+3)& (0+255),w,b
  5341  003C4C  6FBE               	movwf	(??___xxtofl+3)& (0+255),b
  5342  003C4E  51BB               	movf	??___xxtofl& (0+255),w,b
  5343  003C50  11BC               	iorwf	(??___xxtofl+1)& (0+255),w,b
  5344  003C52  11BD               	iorwf	(??___xxtofl+2)& (0+255),w,b
  5345  003C54  11BE               	iorwf	(??___xxtofl+3)& (0+255),w,b
  5346  003C56  A4D8               	btfss	status,2,c
  5347  003C58  EF30  F01E         	goto	u5341
  5348  003C5C  EF32  F01E         	goto	u5340
  5349  003C60                     u5341:
  5350  003C60  EF15  F01E         	goto	l5791
  5351  003C64                     u5340:
  5352  003C64  EF40  F01E         	goto	l2278
  5353  003C68                     l5795:
  5354                           
  5355                           ; BSR set to: 5
  5356  003C68  2BC0               	incf	___xxtofl@exp& (0+255),f,b
  5357  003C6A                     
  5358                           ; BSR set to: 5
  5359  003C6A  0E01               	movlw	1
  5360  003C6C  27C1               	addwf	___xxtofl@arg& (0+255),f,b
  5361  003C6E  0E00               	movlw	0
  5362  003C70  23C2               	addwfc	(___xxtofl@arg+1)& (0+255),f,b
  5363  003C72  23C3               	addwfc	(___xxtofl@arg+2)& (0+255),f,b
  5364  003C74  23C4               	addwfc	(___xxtofl@arg+3)& (0+255),f,b
  5365  003C76                     
  5366                           ; BSR set to: 5
  5367  003C76  90D8               	bcf	status,0,c
  5368  003C78  33C4               	rrcf	(___xxtofl@arg+3)& (0+255),f,b
  5369  003C7A  33C3               	rrcf	(___xxtofl@arg+2)& (0+255),f,b
  5370  003C7C  33C2               	rrcf	(___xxtofl@arg+1)& (0+255),f,b
  5371  003C7E  33C1               	rrcf	___xxtofl@arg& (0+255),f,b
  5372  003C80                     l2278:
  5373                           
  5374                           ; BSR set to: 5
  5375  003C80  0E00               	movlw	0
  5376  003C82  15C1               	andwf	___xxtofl@arg& (0+255),w,b
  5377  003C84  6FBB               	movwf	??___xxtofl& (0+255),b
  5378  003C86  0E00               	movlw	0
  5379  003C88  15C2               	andwf	(___xxtofl@arg+1)& (0+255),w,b
  5380  003C8A  6FBC               	movwf	(??___xxtofl+1)& (0+255),b
  5381  003C8C  0E00               	movlw	0
  5382  003C8E  15C3               	andwf	(___xxtofl@arg+2)& (0+255),w,b
  5383  003C90  6FBD               	movwf	(??___xxtofl+2)& (0+255),b
  5384  003C92  0EFF               	movlw	255
  5385  003C94  15C4               	andwf	(___xxtofl@arg+3)& (0+255),w,b
  5386  003C96  6FBE               	movwf	(??___xxtofl+3)& (0+255),b
  5387  003C98  51BB               	movf	??___xxtofl& (0+255),w,b
  5388  003C9A  11BC               	iorwf	(??___xxtofl+1)& (0+255),w,b
  5389  003C9C  11BD               	iorwf	(??___xxtofl+2)& (0+255),w,b
  5390  003C9E  11BE               	iorwf	(??___xxtofl+3)& (0+255),w,b
  5391  003CA0  A4D8               	btfss	status,2,c
  5392  003CA2  EF55  F01E         	goto	u5351
  5393  003CA6  EF57  F01E         	goto	u5350
  5394  003CAA                     u5351:
  5395  003CAA  EF34  F01E         	goto	l5795
  5396  003CAE                     u5350:
  5397  003CAE  EF5F  F01E         	goto	l5803
  5398  003CB2                     l5801:
  5399                           
  5400                           ; BSR set to: 5
  5401  003CB2  07C0               	decf	___xxtofl@exp& (0+255),f,b
  5402  003CB4  90D8               	bcf	status,0,c
  5403  003CB6  37C1               	rlcf	___xxtofl@arg& (0+255),f,b
  5404  003CB8  37C2               	rlcf	(___xxtofl@arg+1)& (0+255),f,b
  5405  003CBA  37C3               	rlcf	(___xxtofl@arg+2)& (0+255),f,b
  5406  003CBC  37C4               	rlcf	(___xxtofl@arg+3)& (0+255),f,b
  5407  003CBE                     l5803:
  5408                           
  5409                           ; BSR set to: 5
  5410  003CBE  BFC3               	btfsc	(___xxtofl@arg+2)& (0+255),7,b
  5411  003CC0  EF64  F01E         	goto	u5361
  5412  003CC4  EF66  F01E         	goto	u5360
  5413  003CC8                     u5361:
  5414  003CC8  EF6E  F01E         	goto	l2285
  5415  003CCC                     u5360:
  5416  003CCC                     
  5417                           ; BSR set to: 5
  5418  003CCC  0E02               	movlw	2
  5419  003CCE  61C0               	cpfslt	___xxtofl@exp& (0+255),b
  5420  003CD0  EF6C  F01E         	goto	u5371
  5421  003CD4  EF6E  F01E         	goto	u5370
  5422  003CD8                     u5371:
  5423  003CD8  EF59  F01E         	goto	l5801
  5424  003CDC                     u5370:
  5425  003CDC                     l2285:
  5426                           
  5427                           ; BSR set to: 5
  5428  003CDC  B1C0               	btfsc	___xxtofl@exp& (0+255),0,b
  5429  003CDE  EF73  F01E         	goto	u5381
  5430  003CE2  EF75  F01E         	goto	u5380
  5431  003CE6                     u5381:
  5432  003CE6  EF76  F01E         	goto	l5809
  5433  003CEA                     u5380:
  5434  003CEA                     
  5435                           ; BSR set to: 5
  5436  003CEA  9FC3               	bcf	(___xxtofl@arg+2)& (0+255),7,b
  5437  003CEC                     l5809:
  5438                           
  5439                           ; BSR set to: 5
  5440  003CEC  90D8               	bcf	status,0,c
  5441  003CEE  33C0               	rrcf	___xxtofl@exp& (0+255),f,b
  5442  003CF0                     
  5443                           ; BSR set to: 5
  5444  003CF0  C5C0  F5BB         	movff	___xxtofl@exp,??___xxtofl
  5445  003CF4  6BBC               	clrf	(??___xxtofl+1)& (0+255),b
  5446  003CF6  6BBD               	clrf	(??___xxtofl+2)& (0+255),b
  5447  003CF8  6BBE               	clrf	(??___xxtofl+3)& (0+255),b
  5448  003CFA  C5BB  F5BE         	movff	??___xxtofl,??___xxtofl+3
  5449  003CFE  6BBD               	clrf	(??___xxtofl+2)& (0+255),b
  5450  003D00  6BBC               	clrf	(??___xxtofl+1)& (0+255),b
  5451  003D02  6BBB               	clrf	??___xxtofl& (0+255),b
  5452  003D04  51BB               	movf	??___xxtofl& (0+255),w,b
  5453  003D06  13C1               	iorwf	___xxtofl@arg& (0+255),f,b
  5454  003D08  51BC               	movf	(??___xxtofl+1)& (0+255),w,b
  5455  003D0A  13C2               	iorwf	(___xxtofl@arg+1)& (0+255),f,b
  5456  003D0C  51BD               	movf	(??___xxtofl+2)& (0+255),w,b
  5457  003D0E  13C3               	iorwf	(___xxtofl@arg+2)& (0+255),f,b
  5458  003D10  51BE               	movf	(??___xxtofl+3)& (0+255),w,b
  5459  003D12  13C4               	iorwf	(___xxtofl@arg+3)& (0+255),f,b
  5460  003D14                     
  5461                           ; BSR set to: 5
  5462  003D14  51BF               	movf	___xxtofl@sign& (0+255),w,b
  5463  003D16  B4D8               	btfsc	status,2,c
  5464  003D18  EF90  F01E         	goto	u5391
  5465  003D1C  EF92  F01E         	goto	u5390
  5466  003D20                     u5391:
  5467  003D20  EF9A  F01E         	goto	l5819
  5468  003D24                     u5390:
  5469  003D24                     
  5470                           ; BSR set to: 5
  5471  003D24  BFBA               	btfsc	(___xxtofl@val+3)& (0+255),7,b
  5472  003D26  EF99  F01E         	goto	u5400
  5473  003D2A  EF97  F01E         	goto	u5401
  5474  003D2E                     u5401:
  5475  003D2E  EF9A  F01E         	goto	l5819
  5476  003D32                     u5400:
  5477  003D32                     
  5478                           ; BSR set to: 5
  5479  003D32  8FC4               	bsf	(___xxtofl@arg+3)& (0+255),7,b
  5480  003D34                     l5819:
  5481                           
  5482                           ; BSR set to: 5
  5483  003D34  C5C1  F5B7         	movff	___xxtofl@arg,?___xxtofl
  5484  003D38  C5C2  F5B8         	movff	___xxtofl@arg+1,?___xxtofl+1
  5485  003D3C  C5C3  F5B9         	movff	___xxtofl@arg+2,?___xxtofl+2
  5486  003D40  C5C4  F5BA         	movff	___xxtofl@arg+3,?___xxtofl+3
  5487  003D44                     l2274:
  5488                           
  5489                           ; BSR set to: 5
  5490  003D44  0012               	return		;funcret
  5491  003D46                     __end_of___xxtofl:
  5492                           	callstack 0
  5493                           
  5494 ;; *************** function ___wmul *****************
  5495 ;; Defined at:
  5496 ;;		line 15 in file "C:\Program Files\Microchip\xc8\v2.31\pic\sources\c99\common\Umul16.c"
  5497 ;; Parameters:    Size  Location     Type
  5498 ;;  multiplier      2    7[BANK5 ] unsigned int 
  5499 ;;  multiplicand    2    9[BANK5 ] unsigned int 
  5500 ;; Auto vars:     Size  Location     Type
  5501 ;;  product         2   11[BANK5 ] unsigned int 
  5502 ;; Return value:  Size  Location     Type
  5503 ;;                  2    7[BANK5 ] unsigned int 
  5504 ;; Registers used:
  5505 ;;		wreg, status,2, status,0, prodl, prodh
  5506 ;; Tracked objects:
  5507 ;;		On entry : 0/0
  5508 ;;		On exit  : 0/0
  5509 ;;		Unchanged: 0/0
  5510 ;; Data sizes:     COMRAM   BANK5   BANK6   BANK7   BANK8   BANK9  BANK10  BANK11  BANK12  BANK13  BANK14  BANK15  BANK1
      +6  BANK17  BANK18  BANK19  BANK20  BANK21  BANK22  BANK23  BANK24  BANK25  BANK26  BANK27  BANK28  BANK29  BANK30  BANK3
      +1  BANK32  BANK33  BANK34  BANK35  BANK36  BANK37
  5511 ;;      Params:         0       4       0       0       0       0       0       0       0       0       0       0       
      +0       0       0       0       0       0       0       0       0       0       0       0       0       0       0       
      +0       0       0       0       0       0       0
  5512 ;;      Locals:         0       2       0       0       0       0       0       0       0       0       0       0       
      +0       0       0       0       0       0       0       0       0       0       0       0       0       0       0       
      +0       0       0       0       0       0       0
  5513 ;;      Temps:          0       0       0       0       0       0       0       0       0       0       0       0       
      +0       0       0       0       0       0       0       0       0       0       0       0       0       0       0       
      +0       0       0       0       0       0       0
  5514 ;;      Totals:         0       6       0       0       0       0       0       0       0       0       0       0       
      +0       0       0       0       0       0       0       0       0       0       0       0       0       0       0       
      +0       0       0       0       0       0       0
  5515 ;;Total ram usage:        6 bytes
  5516 ;; Hardware stack levels used:    1
  5517 ;; Hardware stack levels required when called:    6
  5518 ;; This function calls:
  5519 ;;		Nothing
  5520 ;; This function is called by:
  5521 ;;		_GPIO_PWM2_Control
  5522 ;; This function uses a non-reentrant model
  5523 ;;
  5524                           
  5525                           	psect	text54
  5526  004C80                     __ptext54:
  5527                           	callstack 0
  5528  004C80                     ___wmul:
  5529                           	callstack 119
  5530  004C80  0105               	movlb	5	; () banked
  5531  004C82  51B0               	movf	___wmul@multiplier& (0+255),w,b
  5532  004C84  03B2               	mulwf	___wmul@multiplicand& (0+255),b
  5533  004C86  0061 F3CC  F5B4    	movff	prodl,___wmul@product
  5534  004C8C  0061 F3D0  F5B5    	movff	prodh,___wmul@product+1
  5535  004C92  51B0               	movf	___wmul@multiplier& (0+255),w,b
  5536  004C94  03B3               	mulwf	(___wmul@multiplicand+1)& (0+255),b
  5537  004C96  50F3               	movf	243,w,c
  5538  004C98  27B5               	addwf	(___wmul@product+1)& (0+255),f,b
  5539  004C9A  51B1               	movf	(___wmul@multiplier+1)& (0+255),w,b
  5540  004C9C  03B2               	mulwf	___wmul@multiplicand& (0+255),b
  5541  004C9E  50F3               	movf	243,w,c
  5542  004CA0  27B5               	addwf	(___wmul@product+1)& (0+255),f,b
  5543  004CA2                     
  5544                           ; BSR set to: 5
  5545  004CA2  C5B4  F5B0         	movff	___wmul@product,?___wmul
  5546  004CA6  C5B5  F5B1         	movff	___wmul@product+1,?___wmul+1
  5547  004CAA                     
  5548                           ; BSR set to: 5
  5549  004CAA  0012               	return		;funcret
  5550  004CAC                     __end_of___wmul:
  5551                           	callstack 0
  5552                           
  5553 ;; *************** function ___lwdiv *****************
  5554 ;; Defined at:
  5555 ;;		line 7 in file "C:\Program Files\Microchip\xc8\v2.31\pic\sources\c99\common\lwdiv.c"
  5556 ;; Parameters:    Size  Location     Type
  5557 ;;  dividend        2    0[BANK5 ] unsigned int 
  5558 ;;  divisor         2    2[BANK5 ] unsigned int 
  5559 ;; Auto vars:     Size  Location     Type
  5560 ;;  quotient        2    4[BANK5 ] unsigned int 
  5561 ;;  counter         1    6[BANK5 ] unsigned char 
  5562 ;; Return value:  Size  Location     Type
  5563 ;;                  2    0[BANK5 ] unsigned int 
  5564 ;; Registers used:
  5565 ;;		wreg, status,2, status,0
  5566 ;; Tracked objects:
  5567 ;;		On entry : 0/0
  5568 ;;		On exit  : 0/0
  5569 ;;		Unchanged: 0/0
  5570 ;; Data sizes:     COMRAM   BANK5   BANK6   BANK7   BANK8   BANK9  BANK10  BANK11  BANK12  BANK13  BANK14  BANK15  BANK1
      +6  BANK17  BANK18  BANK19  BANK20  BANK21  BANK22  BANK23  BANK24  BANK25  BANK26  BANK27  BANK28  BANK29  BANK30  BANK3
      +1  BANK32  BANK33  BANK34  BANK35  BANK36  BANK37
  5571 ;;      Params:         0       4       0       0       0       0       0       0       0       0       0       0       
      +0       0       0       0       0       0       0       0       0       0       0       0       0       0       0       
      +0       0       0       0       0       0       0
  5572 ;;      Locals:         0       3       0       0       0       0       0       0       0       0       0       0       
      +0       0       0       0       0       0       0       0       0       0       0       0       0       0       0       
      +0       0       0       0       0       0       0
  5573 ;;      Temps:          0       0       0       0       0       0       0       0       0       0       0       0       
      +0       0       0       0       0       0       0       0       0       0       0       0       0       0       0       
      +0       0       0       0       0       0       0
  5574 ;;      Totals:         0       7       0       0       0       0       0       0       0       0       0       0       
      +0       0       0       0       0       0       0       0       0       0       0       0       0       0       0       
      +0       0       0       0       0       0       0
  5575 ;;Total ram usage:        7 bytes
  5576 ;; Hardware stack levels used:    1
  5577 ;; Hardware stack levels required when called:    6
  5578 ;; This function calls:
  5579 ;;		Nothing
  5580 ;; This function is called by:
  5581 ;;		_GPIO_PWM2_Control
  5582 ;; This function uses a non-reentrant model
  5583 ;;
  5584                           
  5585                           	psect	text55
  5586  0046C4                     __ptext55:
  5587                           	callstack 0
  5588  0046C4                     ___lwdiv:
  5589                           	callstack 119
  5590  0046C4  0E00               	movlw	0
  5591  0046C6  0105               	movlb	5	; () banked
  5592  0046C8  6FAE               	movwf	(___lwdiv@quotient+1)& (0+255),b
  5593  0046CA  0E00               	movlw	0
  5594  0046CC  6FAD               	movwf	___lwdiv@quotient& (0+255),b
  5595  0046CE                     
  5596                           ; BSR set to: 5
  5597  0046CE  51AB               	movf	___lwdiv@divisor& (0+255),w,b
  5598  0046D0  11AC               	iorwf	(___lwdiv@divisor+1)& (0+255),w,b
  5599  0046D2  B4D8               	btfsc	status,2,c
  5600  0046D4  EF6E  F023         	goto	u5281
  5601  0046D8  EF70  F023         	goto	u5280
  5602  0046DC                     u5281:
  5603  0046DC  EF98  F023         	goto	l2107
  5604  0046E0                     u5280:
  5605  0046E0                     
  5606                           ; BSR set to: 5
  5607  0046E0  0E01               	movlw	1
  5608  0046E2  6FAF               	movwf	___lwdiv@counter& (0+255),b
  5609  0046E4  EF78  F023         	goto	l5763
  5610  0046E8                     l5761:
  5611                           
  5612                           ; BSR set to: 5
  5613  0046E8  90D8               	bcf	status,0,c
  5614  0046EA  37AB               	rlcf	___lwdiv@divisor& (0+255),f,b
  5615  0046EC  37AC               	rlcf	(___lwdiv@divisor+1)& (0+255),f,b
  5616  0046EE  2BAF               	incf	___lwdiv@counter& (0+255),f,b
  5617  0046F0                     l5763:
  5618                           
  5619                           ; BSR set to: 5
  5620  0046F0  AFAC               	btfss	(___lwdiv@divisor+1)& (0+255),7,b
  5621  0046F2  EF7D  F023         	goto	u5291
  5622  0046F6  EF7F  F023         	goto	u5290
  5623  0046FA                     u5291:
  5624  0046FA  EF74  F023         	goto	l5761
  5625  0046FE                     u5290:
  5626  0046FE                     l5765:
  5627                           
  5628                           ; BSR set to: 5
  5629  0046FE  90D8               	bcf	status,0,c
  5630  004700  37AD               	rlcf	___lwdiv@quotient& (0+255),f,b
  5631  004702  37AE               	rlcf	(___lwdiv@quotient+1)& (0+255),f,b
  5632  004704                     
  5633                           ; BSR set to: 5
  5634  004704  51AB               	movf	___lwdiv@divisor& (0+255),w,b
  5635  004706  5DA9               	subwf	___lwdiv@dividend& (0+255),w,b
  5636  004708  51AC               	movf	(___lwdiv@divisor+1)& (0+255),w,b
  5637  00470A  59AA               	subwfb	(___lwdiv@dividend+1)& (0+255),w,b
  5638  00470C  A0D8               	btfss	status,0,c
  5639  00470E  EF8B  F023         	goto	u5301
  5640  004712  EF8D  F023         	goto	u5300
  5641  004716                     u5301:
  5642  004716  EF92  F023         	goto	l5773
  5643  00471A                     u5300:
  5644  00471A                     
  5645                           ; BSR set to: 5
  5646  00471A  51AB               	movf	___lwdiv@divisor& (0+255),w,b
  5647  00471C  5FA9               	subwf	___lwdiv@dividend& (0+255),f,b
  5648  00471E  51AC               	movf	(___lwdiv@divisor+1)& (0+255),w,b
  5649  004720  5BAA               	subwfb	(___lwdiv@dividend+1)& (0+255),f,b
  5650  004722                     
  5651                           ; BSR set to: 5
  5652  004722  81AD               	bsf	___lwdiv@quotient& (0+255),0,b
  5653  004724                     l5773:
  5654                           
  5655                           ; BSR set to: 5
  5656  004724  90D8               	bcf	status,0,c
  5657  004726  33AC               	rrcf	(___lwdiv@divisor+1)& (0+255),f,b
  5658  004728  33AB               	rrcf	___lwdiv@divisor& (0+255),f,b
  5659  00472A                     
  5660                           ; BSR set to: 5
  5661  00472A  2FAF               	decfsz	___lwdiv@counter& (0+255),f,b
  5662  00472C  EF7F  F023         	goto	l5765
  5663  004730                     l2107:
  5664                           
  5665                           ; BSR set to: 5
  5666  004730  C5AD  F5A9         	movff	___lwdiv@quotient,?___lwdiv
  5667  004734  C5AE  F5AA         	movff	___lwdiv@quotient+1,?___lwdiv+1
  5668  004738                     
  5669                           ; BSR set to: 5
  5670  004738  0012               	return		;funcret
  5671  00473A                     __end_of___lwdiv:
  5672                           	callstack 0
  5673                           
  5674 ;; *************** function ___fltol *****************
  5675 ;; Defined at:
  5676 ;;		line 43 in file "C:\Program Files\Microchip\xc8\v2.31\pic\sources\c99\common\fltol.c"
  5677 ;; Parameters:    Size  Location     Type
  5678 ;;  f1              4   44[BANK5 ] unsigned int 
  5679 ;; Auto vars:     Size  Location     Type
  5680 ;;  exp1            1   53[BANK5 ] unsigned char 
  5681 ;;  sign1           1   52[BANK5 ] unsigned char 
  5682 ;; Return value:  Size  Location     Type
  5683 ;;                  4   44[BANK5 ] long 
  5684 ;; Registers used:
  5685 ;;		wreg, status,2, status,0
  5686 ;; Tracked objects:
  5687 ;;		On entry : 0/0
  5688 ;;		On exit  : 0/0
  5689 ;;		Unchanged: 0/0
  5690 ;; Data sizes:     COMRAM   BANK5   BANK6   BANK7   BANK8   BANK9  BANK10  BANK11  BANK12  BANK13  BANK14  BANK15  BANK1
      +6  BANK17  BANK18  BANK19  BANK20  BANK21  BANK22  BANK23  BANK24  BANK25  BANK26  BANK27  BANK28  BANK29  BANK30  BANK3
      +1  BANK32  BANK33  BANK34  BANK35  BANK36  BANK37
  5691 ;;      Params:         0       4       0       0       0       0       0       0       0       0       0       0       
      +0       0       0       0       0       0       0       0       0       0       0       0       0       0       0       
      +0       0       0       0       0       0       0
  5692 ;;      Locals:         0       2       0       0       0       0       0       0       0       0       0       0       
      +0       0       0       0       0       0       0       0       0       0       0       0       0       0       0       
      +0       0       0       0       0       0       0
  5693 ;;      Temps:          0       4       0       0       0       0       0       0       0       0       0       0       
      +0       0       0       0       0       0       0       0       0       0       0       0       0       0       0       
      +0       0       0       0       0       0       0
  5694 ;;      Totals:         0      10       0       0       0       0       0       0       0       0       0       0       
      +0       0       0       0       0       0       0       0       0       0       0       0       0       0       0       
      +0       0       0       0       0       0       0
  5695 ;;Total ram usage:       10 bytes
  5696 ;; Hardware stack levels used:    1
  5697 ;; Hardware stack levels required when called:    6
  5698 ;; This function calls:
  5699 ;;		Nothing
  5700 ;; This function is called by:
  5701 ;;		_GPIO_PWM1_Control
  5702 ;;		_GPIO_PWM2_Control
  5703 ;; This function uses a non-reentrant model
  5704 ;;
  5705                           
  5706                           	psect	text56
  5707  00415E                     __ptext56:
  5708                           	callstack 0
  5709  00415E                     ___fltol:
  5710                           	callstack 120
  5711  00415E  0105               	movlb	5	; () banked
  5712  004160  35D7               	rlcf	(___fltol@f1+2)& (0+255),w,b
  5713  004162  35D8               	rlcf	(___fltol@f1+3)& (0+255),w,b
  5714  004164  6FDE               	movwf	___fltol@exp1& (0+255),b
  5715  004166  51DE               	movf	___fltol@exp1& (0+255),w,b
  5716  004168  A4D8               	btfss	status,2,c
  5717  00416A  EFB9  F020         	goto	u5211
  5718  00416E  EFBB  F020         	goto	u5210
  5719  004172                     u5211:
  5720  004172  EFC5  F020         	goto	l5717
  5721  004176                     u5210:
  5722  004176                     l5713:
  5723                           
  5724                           ; BSR set to: 5
  5725  004176  0E00               	movlw	0
  5726  004178  6FD5               	movwf	?___fltol& (0+255),b
  5727  00417A  0E00               	movlw	0
  5728  00417C  6FD6               	movwf	(?___fltol+1)& (0+255),b
  5729  00417E  0E00               	movlw	0
  5730  004180  6FD7               	movwf	(?___fltol+2)& (0+255),b
  5731  004182  0E00               	movlw	0
  5732  004184  6FD8               	movwf	(?___fltol+3)& (0+255),b
  5733  004186  EF32  F021         	goto	l1913
  5734  00418A                     l5717:
  5735                           
  5736                           ; BSR set to: 5
  5737  00418A  C5D5  F5D9         	movff	___fltol@f1,??___fltol
  5738  00418E  C5D6  F5DA         	movff	___fltol@f1+1,??___fltol+1
  5739  004192  C5D7  F5DB         	movff	___fltol@f1+2,??___fltol+2
  5740  004196  C5D8  F5DC         	movff	___fltol@f1+3,??___fltol+3
  5741  00419A  0E20               	movlw	32
  5742  00419C  EFD5  F020         	goto	u5220
  5743  0041A0                     u5225:
  5744  0041A0  90D8               	bcf	status,0,c
  5745  0041A2  33DC               	rrcf	(??___fltol+3)& (0+255),f,b
  5746  0041A4  33DB               	rrcf	(??___fltol+2)& (0+255),f,b
  5747  0041A6  33DA               	rrcf	(??___fltol+1)& (0+255),f,b
  5748  0041A8  33D9               	rrcf	??___fltol& (0+255),f,b
  5749  0041AA                     u5220:
  5750  0041AA  2EE8               	decfsz	wreg,f,c
  5751  0041AC  EFD0  F020         	goto	u5225
  5752  0041B0  51D9               	movf	??___fltol& (0+255),w,b
  5753  0041B2  6FDD               	movwf	___fltol@sign1& (0+255),b
  5754  0041B4                     
  5755                           ; BSR set to: 5
  5756  0041B4  8FD7               	bsf	(___fltol@f1+2)& (0+255),7,b
  5757  0041B6                     
  5758                           ; BSR set to: 5
  5759  0041B6  0EFF               	movlw	255
  5760  0041B8  17D5               	andwf	___fltol@f1& (0+255),f,b
  5761  0041BA  0EFF               	movlw	255
  5762  0041BC  17D6               	andwf	(___fltol@f1+1)& (0+255),f,b
  5763  0041BE  0EFF               	movlw	255
  5764  0041C0  17D7               	andwf	(___fltol@f1+2)& (0+255),f,b
  5765  0041C2  0E00               	movlw	0
  5766  0041C4  17D8               	andwf	(___fltol@f1+3)& (0+255),f,b
  5767  0041C6                     
  5768                           ; BSR set to: 5
  5769  0041C6  0E96               	movlw	150
  5770  0041C8  5FDE               	subwf	___fltol@exp1& (0+255),f,b
  5771  0041CA                     
  5772                           ; BSR set to: 5
  5773  0041CA  BFDE               	btfsc	___fltol@exp1& (0+255),7,b
  5774  0041CC  EFEC  F020         	goto	u5230
  5775  0041D0  EFEA  F020         	goto	u5231
  5776  0041D4                     u5231:
  5777  0041D4  EF02  F021         	goto	l5737
  5778  0041D8                     u5230:
  5779  0041D8                     
  5780                           ; BSR set to: 5
  5781  0041D8  51DE               	movf	___fltol@exp1& (0+255),w,b
  5782  0041DA  0A80               	xorlw	128
  5783  0041DC  0F97               	addlw	151
  5784  0041DE  B0D8               	btfsc	status,0,c
  5785  0041E0  EFF4  F020         	goto	u5241
  5786  0041E4  EFF6  F020         	goto	u5240
  5787  0041E8                     u5241:
  5788  0041E8  EFF8  F020         	goto	l5733
  5789  0041EC                     u5240:
  5790  0041EC  EFBB  F020         	goto	l5713
  5791  0041F0                     l5733:
  5792                           
  5793                           ; BSR set to: 5
  5794  0041F0  90D8               	bcf	status,0,c
  5795  0041F2  33D8               	rrcf	(___fltol@f1+3)& (0+255),f,b
  5796  0041F4  33D7               	rrcf	(___fltol@f1+2)& (0+255),f,b
  5797  0041F6  33D6               	rrcf	(___fltol@f1+1)& (0+255),f,b
  5798  0041F8  33D5               	rrcf	___fltol@f1& (0+255),f,b
  5799  0041FA                     
  5800                           ; BSR set to: 5
  5801  0041FA  3FDE               	incfsz	___fltol@exp1& (0+255),f,b
  5802  0041FC  EFF8  F020         	goto	l5733
  5803  004200  EF1A  F021         	goto	l5747
  5804  004204                     l5737:
  5805                           
  5806                           ; BSR set to: 5
  5807  004204  0E1F               	movlw	31
  5808  004206  65DE               	cpfsgt	___fltol@exp1& (0+255),b
  5809  004208  EF08  F021         	goto	u5251
  5810  00420C  EF0A  F021         	goto	u5250
  5811  004210                     u5251:
  5812  004210  EF12  F021         	goto	l5745
  5813  004214                     u5250:
  5814  004214  EFBB  F020         	goto	l5713
  5815  004218                     l5743:
  5816                           
  5817                           ; BSR set to: 5
  5818  004218  90D8               	bcf	status,0,c
  5819  00421A  37D5               	rlcf	___fltol@f1& (0+255),f,b
  5820  00421C  37D6               	rlcf	(___fltol@f1+1)& (0+255),f,b
  5821  00421E  37D7               	rlcf	(___fltol@f1+2)& (0+255),f,b
  5822  004220  37D8               	rlcf	(___fltol@f1+3)& (0+255),f,b
  5823  004222  07DE               	decf	___fltol@exp1& (0+255),f,b
  5824  004224                     l5745:
  5825                           
  5826                           ; BSR set to: 5
  5827  004224  51DE               	movf	___fltol@exp1& (0+255),w,b
  5828  004226  A4D8               	btfss	status,2,c
  5829  004228  EF18  F021         	goto	u5261
  5830  00422C  EF1A  F021         	goto	u5260
  5831  004230                     u5261:
  5832  004230  EF0C  F021         	goto	l5743
  5833  004234                     u5260:
  5834  004234                     l5747:
  5835                           
  5836                           ; BSR set to: 5
  5837  004234  51DD               	movf	___fltol@sign1& (0+255),w,b
  5838  004236  B4D8               	btfsc	status,2,c
  5839  004238  EF20  F021         	goto	u5271
  5840  00423C  EF22  F021         	goto	u5270
  5841  004240                     u5271:
  5842  004240  EF2A  F021         	goto	l5751
  5843  004244                     u5270:
  5844  004244                     
  5845                           ; BSR set to: 5
  5846  004244  1FD8               	comf	(___fltol@f1+3)& (0+255),f,b
  5847  004246  1FD7               	comf	(___fltol@f1+2)& (0+255),f,b
  5848  004248  1FD6               	comf	(___fltol@f1+1)& (0+255),f,b
  5849  00424A  6DD5               	negf	___fltol@f1& (0+255),b
  5850  00424C  0E00               	movlw	0
  5851  00424E  23D6               	addwfc	(___fltol@f1+1)& (0+255),f,b
  5852  004250  23D7               	addwfc	(___fltol@f1+2)& (0+255),f,b
  5853  004252  23D8               	addwfc	(___fltol@f1+3)& (0+255),f,b
  5854  004254                     l5751:
  5855                           
  5856                           ; BSR set to: 5
  5857  004254  C5D5  F5D5         	movff	___fltol@f1,?___fltol
  5858  004258  C5D6  F5D6         	movff	___fltol@f1+1,?___fltol+1
  5859  00425C  C5D7  F5D7         	movff	___fltol@f1+2,?___fltol+2
  5860  004260  C5D8  F5D8         	movff	___fltol@f1+3,?___fltol+3
  5861  004264                     l1913:
  5862                           
  5863                           ; BSR set to: 5
  5864  004264  0012               	return		;funcret
  5865  004266                     __end_of___fltol:
  5866                           	callstack 0
  5867                           
  5868 ;; *************** function ___fladd *****************
  5869 ;; Defined at:
  5870 ;;		line 10 in file "C:\Program Files\Microchip\xc8\v2.31\pic\sources\c99\common\sprcadd.c"
  5871 ;; Parameters:    Size  Location     Type
  5872 ;;  b               4   28[BANK5 ] long 
  5873 ;;  a               4   32[BANK5 ] long 
  5874 ;; Auto vars:     Size  Location     Type
  5875 ;;  grs             1   43[BANK5 ] unsigned char 
  5876 ;;  bexp            1   42[BANK5 ] unsigned char 
  5877 ;;  aexp            1   41[BANK5 ] unsigned char 
  5878 ;;  signs           1   40[BANK5 ] unsigned char 
  5879 ;; Return value:  Size  Location     Type
  5880 ;;                  4   28[BANK5 ] unsigned char 
  5881 ;; Registers used:
  5882 ;;		wreg, status,2, status,0
  5883 ;; Tracked objects:
  5884 ;;		On entry : 0/0
  5885 ;;		On exit  : 0/0
  5886 ;;		Unchanged: 0/0
  5887 ;; Data sizes:     COMRAM   BANK5   BANK6   BANK7   BANK8   BANK9  BANK10  BANK11  BANK12  BANK13  BANK14  BANK15  BANK1
      +6  BANK17  BANK18  BANK19  BANK20  BANK21  BANK22  BANK23  BANK24  BANK25  BANK26  BANK27  BANK28  BANK29  BANK30  BANK3
      +1  BANK32  BANK33  BANK34  BANK35  BANK36  BANK37
  5888 ;;      Params:         0       8       0       0       0       0       0       0       0       0       0       0       
      +0       0       0       0       0       0       0       0       0       0       0       0       0       0       0       
      +0       0       0       0       0       0       0
  5889 ;;      Locals:         0       4       0       0       0       0       0       0       0       0       0       0       
      +0       0       0       0       0       0       0       0       0       0       0       0       0       0       0       
      +0       0       0       0       0       0       0
  5890 ;;      Temps:          0       4       0       0       0       0       0       0       0       0       0       0       
      +0       0       0       0       0       0       0       0       0       0       0       0       0       0       0       
      +0       0       0       0       0       0       0
  5891 ;;      Totals:         0      16       0       0       0       0       0       0       0       0       0       0       
      +0       0       0       0       0       0       0       0       0       0       0       0       0       0       0       
      +0       0       0       0       0       0       0
  5892 ;;Total ram usage:       16 bytes
  5893 ;; Hardware stack levels used:    1
  5894 ;; Hardware stack levels required when called:    6
  5895 ;; This function calls:
  5896 ;;		Nothing
  5897 ;; This function is called by:
  5898 ;;		_GPIO_PWM1_Control
  5899 ;;		_GPIO_PWM2_Control
  5900 ;; This function uses a non-reentrant model
  5901 ;;
  5902                           
  5903                           	psect	text57
  5904  00260E                     __ptext57:
  5905                           	callstack 0
  5906  00260E                     ___fladd:
  5907                           	callstack 120
  5908  00260E  0105               	movlb	5	; () banked
  5909  002610  51C8               	movf	(___fladd@b+3)& (0+255),w,b
  5910  002612  0B80               	andlw	128
  5911  002614  6FD1               	movwf	___fladd@signs& (0+255),b
  5912  002616  51C8               	movf	(___fladd@b+3)& (0+255),w,b
  5913  002618  25C8               	addwf	(___fladd@b+3)& (0+255),w,b
  5914  00261A  6FD3               	movwf	___fladd@bexp& (0+255),b
  5915  00261C                     
  5916                           ; BSR set to: 5
  5917  00261C  AFC7               	btfss	(___fladd@b+2)& (0+255),7,b
  5918  00261E  EF13  F013         	goto	u4821
  5919  002622  EF15  F013         	goto	u4820
  5920  002626                     u4821:
  5921  002626  EF16  F013         	goto	l5515
  5922  00262A                     u4820:
  5923  00262A                     
  5924                           ; BSR set to: 5
  5925  00262A  81D3               	bsf	___fladd@bexp& (0+255),0,b
  5926  00262C                     l5515:
  5927                           
  5928                           ; BSR set to: 5
  5929  00262C  51D3               	movf	___fladd@bexp& (0+255),w,b
  5930  00262E  B4D8               	btfsc	status,2,c
  5931  002630  EF1C  F013         	goto	u4831
  5932  002634  EF1E  F013         	goto	u4830
  5933  002638                     u4831:
  5934  002638  EF33  F013         	goto	l5525
  5935  00263C                     u4830:
  5936  00263C                     
  5937                           ; BSR set to: 5
  5938  00263C  29D3               	incf	___fladd@bexp& (0+255),w,b
  5939  00263E  A4D8               	btfss	status,2,c
  5940  002640  EF24  F013         	goto	u4841
  5941  002644  EF26  F013         	goto	u4840
  5942  002648                     u4841:
  5943  002648  EF2E  F013         	goto	l5521
  5944  00264C                     u4840:
  5945  00264C                     
  5946                           ; BSR set to: 5
  5947  00264C  0E00               	movlw	0
  5948  00264E  6FC5               	movwf	___fladd@b& (0+255),b
  5949  002650  0E00               	movlw	0
  5950  002652  6FC6               	movwf	(___fladd@b+1)& (0+255),b
  5951  002654  0E00               	movlw	0
  5952  002656  6FC7               	movwf	(___fladd@b+2)& (0+255),b
  5953  002658  0E00               	movlw	0
  5954  00265A  6FC8               	movwf	(___fladd@b+3)& (0+255),b
  5955  00265C                     l5521:
  5956                           
  5957                           ; BSR set to: 5
  5958  00265C  8FC7               	bsf	(___fladd@b+2)& (0+255),7,b
  5959  00265E                     
  5960                           ; BSR set to: 5
  5961  00265E  0E00               	movlw	0
  5962  002660  6FC8               	movwf	(___fladd@b+3)& (0+255),b
  5963  002662  EF3B  F013         	goto	l5527
  5964  002666                     l5525:
  5965                           
  5966                           ; BSR set to: 5
  5967  002666  0E00               	movlw	0
  5968  002668  6FC5               	movwf	___fladd@b& (0+255),b
  5969  00266A  0E00               	movlw	0
  5970  00266C  6FC6               	movwf	(___fladd@b+1)& (0+255),b
  5971  00266E  0E00               	movlw	0
  5972  002670  6FC7               	movwf	(___fladd@b+2)& (0+255),b
  5973  002672  0E00               	movlw	0
  5974  002674  6FC8               	movwf	(___fladd@b+3)& (0+255),b
  5975  002676                     l5527:
  5976                           
  5977                           ; BSR set to: 5
  5978  002676  51CC               	movf	(___fladd@a+3)& (0+255),w,b
  5979  002678  0B80               	andlw	128
  5980  00267A  6FD2               	movwf	___fladd@aexp& (0+255),b
  5981  00267C                     
  5982                           ; BSR set to: 5
  5983  00267C  51D1               	movf	___fladd@signs& (0+255),w,b
  5984  00267E  19D2               	xorwf	___fladd@aexp& (0+255),w,b
  5985  002680  B4D8               	btfsc	status,2,c
  5986  002682  EF45  F013         	goto	u4851
  5987  002686  EF47  F013         	goto	u4850
  5988  00268A                     u4851:
  5989  00268A  EF48  F013         	goto	l5533
  5990  00268E                     u4850:
  5991  00268E                     
  5992                           ; BSR set to: 5
  5993  00268E  8DD1               	bsf	___fladd@signs& (0+255),6,b
  5994  002690                     l5533:
  5995                           
  5996                           ; BSR set to: 5
  5997  002690  51CC               	movf	(___fladd@a+3)& (0+255),w,b
  5998  002692  25CC               	addwf	(___fladd@a+3)& (0+255),w,b
  5999  002694  6FD2               	movwf	___fladd@aexp& (0+255),b
  6000  002696                     
  6001                           ; BSR set to: 5
  6002  002696  AFCB               	btfss	(___fladd@a+2)& (0+255),7,b
  6003  002698  EF50  F013         	goto	u4861
  6004  00269C  EF52  F013         	goto	u4860
  6005  0026A0                     u4861:
  6006  0026A0  EF53  F013         	goto	l5539
  6007  0026A4                     u4860:
  6008  0026A4                     
  6009                           ; BSR set to: 5
  6010  0026A4  81D2               	bsf	___fladd@aexp& (0+255),0,b
  6011  0026A6                     l5539:
  6012                           
  6013                           ; BSR set to: 5
  6014  0026A6  51D2               	movf	___fladd@aexp& (0+255),w,b
  6015  0026A8  B4D8               	btfsc	status,2,c
  6016  0026AA  EF59  F013         	goto	u4871
  6017  0026AE  EF5B  F013         	goto	u4870
  6018  0026B2                     u4871:
  6019  0026B2  EF70  F013         	goto	l5549
  6020  0026B6                     u4870:
  6021  0026B6                     
  6022                           ; BSR set to: 5
  6023  0026B6  29D2               	incf	___fladd@aexp& (0+255),w,b
  6024  0026B8  A4D8               	btfss	status,2,c
  6025  0026BA  EF61  F013         	goto	u4881
  6026  0026BE  EF63  F013         	goto	u4880
  6027  0026C2                     u4881:
  6028  0026C2  EF6B  F013         	goto	l5545
  6029  0026C6                     u4880:
  6030  0026C6                     
  6031                           ; BSR set to: 5
  6032  0026C6  0E00               	movlw	0
  6033  0026C8  6FC9               	movwf	___fladd@a& (0+255),b
  6034  0026CA  0E00               	movlw	0
  6035  0026CC  6FCA               	movwf	(___fladd@a+1)& (0+255),b
  6036  0026CE  0E00               	movlw	0
  6037  0026D0  6FCB               	movwf	(___fladd@a+2)& (0+255),b
  6038  0026D2  0E00               	movlw	0
  6039  0026D4  6FCC               	movwf	(___fladd@a+3)& (0+255),b
  6040  0026D6                     l5545:
  6041                           
  6042                           ; BSR set to: 5
  6043  0026D6  8FCB               	bsf	(___fladd@a+2)& (0+255),7,b
  6044  0026D8                     
  6045                           ; BSR set to: 5
  6046  0026D8  0E00               	movlw	0
  6047  0026DA  6FCC               	movwf	(___fladd@a+3)& (0+255),b
  6048  0026DC  EF78  F013         	goto	l5551
  6049  0026E0                     l5549:
  6050                           
  6051                           ; BSR set to: 5
  6052  0026E0  0E00               	movlw	0
  6053  0026E2  6FC9               	movwf	___fladd@a& (0+255),b
  6054  0026E4  0E00               	movlw	0
  6055  0026E6  6FCA               	movwf	(___fladd@a+1)& (0+255),b
  6056  0026E8  0E00               	movlw	0
  6057  0026EA  6FCB               	movwf	(___fladd@a+2)& (0+255),b
  6058  0026EC  0E00               	movlw	0
  6059  0026EE  6FCC               	movwf	(___fladd@a+3)& (0+255),b
  6060  0026F0                     l5551:
  6061                           
  6062                           ; BSR set to: 5
  6063  0026F0  51D3               	movf	___fladd@bexp& (0+255),w,b
  6064  0026F2  5DD2               	subwf	___fladd@aexp& (0+255),w,b
  6065  0026F4  B0D8               	btfsc	status,0,c
  6066  0026F6  EF7F  F013         	goto	u4891
  6067  0026FA  EF81  F013         	goto	u4890
  6068  0026FE                     u4891:
  6069  0026FE  EFA8  F013         	goto	l5587
  6070  002702                     u4890:
  6071  002702                     
  6072                           ; BSR set to: 5
  6073  002702  ADD1               	btfss	___fladd@signs& (0+255),6,b
  6074  002704  EF86  F013         	goto	u4901
  6075  002708  EF88  F013         	goto	u4900
  6076  00270C                     u4901:
  6077  00270C  EF8A  F013         	goto	l5557
  6078  002710                     u4900:
  6079  002710                     
  6080                           ; BSR set to: 5
  6081  002710  0E80               	movlw	128
  6082  002712  1BD1               	xorwf	___fladd@signs& (0+255),f,b
  6083  002714                     l5557:
  6084                           
  6085                           ; BSR set to: 5
  6086  002714  C5D3  F5D4         	movff	___fladd@bexp,___fladd@grs
  6087  002718                     
  6088                           ; BSR set to: 5
  6089  002718  C5D2  F5D3         	movff	___fladd@aexp,___fladd@bexp
  6090  00271C                     
  6091                           ; BSR set to: 5
  6092  00271C  C5D4  F5D2         	movff	___fladd@grs,___fladd@aexp
  6093  002720                     
  6094                           ; BSR set to: 5
  6095  002720  C5C5  F5D4         	movff	___fladd@b,___fladd@grs
  6096  002724                     
  6097                           ; BSR set to: 5
  6098  002724  C5C9  F5C5         	movff	___fladd@a,___fladd@b
  6099  002728                     
  6100                           ; BSR set to: 5
  6101  002728  C5D4  F5C9         	movff	___fladd@grs,___fladd@a
  6102  00272C                     
  6103                           ; BSR set to: 5
  6104  00272C  C5C6  F5D4         	movff	___fladd@b+1,___fladd@grs
  6105  002730                     
  6106                           ; BSR set to: 5
  6107  002730  C5CA  F5C6         	movff	___fladd@a+1,___fladd@b+1
  6108  002734                     
  6109                           ; BSR set to: 5
  6110  002734  C5D4  F5CA         	movff	___fladd@grs,___fladd@a+1
  6111  002738                     
  6112                           ; BSR set to: 5
  6113  002738  C5C7  F5D4         	movff	___fladd@b+2,___fladd@grs
  6114  00273C                     
  6115                           ; BSR set to: 5
  6116  00273C  C5CB  F5C7         	movff	___fladd@a+2,___fladd@b+2
  6117  002740                     
  6118                           ; BSR set to: 5
  6119  002740  C5D4  F5CB         	movff	___fladd@grs,___fladd@a+2
  6120  002744                     
  6121                           ; BSR set to: 5
  6122  002744  C5C8  F5D4         	movff	___fladd@b+3,___fladd@grs
  6123  002748                     
  6124                           ; BSR set to: 5
  6125  002748  C5CC  F5C8         	movff	___fladd@a+3,___fladd@b+3
  6126  00274C                     
  6127                           ; BSR set to: 5
  6128  00274C  C5D4  F5CC         	movff	___fladd@grs,___fladd@a+3
  6129  002750                     l5587:
  6130                           
  6131                           ; BSR set to: 5
  6132  002750  0E00               	movlw	0
  6133  002752  6FD4               	movwf	___fladd@grs& (0+255),b
  6134  002754                     
  6135                           ; BSR set to: 5
  6136  002754  51D3               	movf	___fladd@bexp& (0+255),w,b
  6137  002756  C5D2  F5CD         	movff	___fladd@aexp,??___fladd
  6138  00275A  6BCE               	clrf	(??___fladd+1)& (0+255),b
  6139  00275C  5FCD               	subwf	??___fladd& (0+255),f,b
  6140  00275E  0E00               	movlw	0
  6141  002760  5BCE               	subwfb	(??___fladd+1)& (0+255),f,b
  6142  002762  BFCE               	btfsc	(??___fladd+1)& (0+255),7,b
  6143  002764  EFBD  F013         	goto	u4911
  6144  002768  51CE               	movf	(??___fladd+1)& (0+255),w,b
  6145  00276A  E109               	bnz	u4910
  6146  00276C  0E1A               	movlw	26
  6147  00276E  5DCD               	subwf	??___fladd& (0+255),w,b
  6148  002770  A0D8               	btfss	status,0,c
  6149  002772  EFBD  F013         	goto	u4911
  6150  002776  EFBF  F013         	goto	u4910
  6151  00277A                     u4911:
  6152  00277A  EFF6  F013         	goto	l2145
  6153  00277E                     u4910:
  6154  00277E                     
  6155                           ; BSR set to: 5
  6156  00277E  51C5               	movf	___fladd@b& (0+255),w,b
  6157  002780  11C6               	iorwf	(___fladd@b+1)& (0+255),w,b
  6158  002782  11C7               	iorwf	(___fladd@b+2)& (0+255),w,b
  6159  002784  11C8               	iorwf	(___fladd@b+3)& (0+255),w,b
  6160  002786  A4D8               	btfss	status,2,c
  6161  002788  EFC8  F013         	goto	u4921
  6162  00278C  EFCB  F013         	goto	u4920
  6163  002790                     u4921:
  6164  002790  0E01               	movlw	1
  6165  002792  EFCC  F013         	goto	u4930
  6166  002796                     u4920:
  6167  002796  0E00               	movlw	0
  6168  002798                     u4930:
  6169  002798  6FD4               	movwf	___fladd@grs& (0+255),b
  6170  00279A                     
  6171                           ; BSR set to: 5
  6172  00279A  0E00               	movlw	0
  6173  00279C  6FC5               	movwf	___fladd@b& (0+255),b
  6174  00279E  0E00               	movlw	0
  6175  0027A0  6FC6               	movwf	(___fladd@b+1)& (0+255),b
  6176  0027A2  0E00               	movlw	0
  6177  0027A4  6FC7               	movwf	(___fladd@b+2)& (0+255),b
  6178  0027A6  0E00               	movlw	0
  6179  0027A8  6FC8               	movwf	(___fladd@b+3)& (0+255),b
  6180  0027AA                     
  6181                           ; BSR set to: 5
  6182  0027AA  C5D2  F5D3         	movff	___fladd@aexp,___fladd@bexp
  6183  0027AE  EFFF  F013         	goto	l2144
  6184  0027B2                     l2146:
  6185                           
  6186                           ; BSR set to: 5
  6187  0027B2  A1D4               	btfss	___fladd@grs& (0+255),0,b
  6188  0027B4  EFDE  F013         	goto	u4941
  6189  0027B8  EFE0  F013         	goto	u4940
  6190  0027BC                     u4941:
  6191  0027BC  EFE6  F013         	goto	l5599
  6192  0027C0                     u4940:
  6193  0027C0                     
  6194                           ; BSR set to: 5
  6195  0027C0  90D8               	bcf	status,0,c
  6196  0027C2  31D4               	rrcf	___fladd@grs& (0+255),w,b
  6197  0027C4  0901               	iorlw	1
  6198  0027C6  6FD4               	movwf	___fladd@grs& (0+255),b
  6199  0027C8  EFE8  F013         	goto	l5601
  6200  0027CC                     l5599:
  6201                           
  6202                           ; BSR set to: 5
  6203  0027CC  90D8               	bcf	status,0,c
  6204  0027CE  33D4               	rrcf	___fladd@grs& (0+255),f,b
  6205  0027D0                     l5601:
  6206                           
  6207                           ; BSR set to: 5
  6208  0027D0  A1C5               	btfss	___fladd@b& (0+255),0,b
  6209  0027D2  EFED  F013         	goto	u4951
  6210  0027D6  EFEF  F013         	goto	u4950
  6211  0027DA                     u4951:
  6212  0027DA  EFF0  F013         	goto	l5605
  6213  0027DE                     u4950:
  6214  0027DE                     
  6215                           ; BSR set to: 5
  6216  0027DE  8FD4               	bsf	___fladd@grs& (0+255),7,b
  6217  0027E0                     l5605:
  6218                           
  6219                           ; BSR set to: 5
  6220  0027E0  35C8               	rlcf	(___fladd@b+3)& (0+255),w,b
  6221  0027E2  33C8               	rrcf	(___fladd@b+3)& (0+255),f,b
  6222  0027E4  33C7               	rrcf	(___fladd@b+2)& (0+255),f,b
  6223  0027E6  33C6               	rrcf	(___fladd@b+1)& (0+255),f,b
  6224  0027E8  33C5               	rrcf	___fladd@b& (0+255),f,b
  6225  0027EA                     
  6226                           ; BSR set to: 5
  6227  0027EA  2BD3               	incf	___fladd@bexp& (0+255),f,b
  6228  0027EC                     l2145:
  6229                           
  6230                           ; BSR set to: 5
  6231  0027EC  51D2               	movf	___fladd@aexp& (0+255),w,b
  6232  0027EE  5DD3               	subwf	___fladd@bexp& (0+255),w,b
  6233  0027F0  A0D8               	btfss	status,0,c
  6234  0027F2  EFFD  F013         	goto	u4961
  6235  0027F6  EFFF  F013         	goto	u4960
  6236  0027FA                     u4961:
  6237  0027FA  EFD9  F013         	goto	l2146
  6238  0027FE                     u4960:
  6239  0027FE                     l2144:
  6240                           
  6241                           ; BSR set to: 5
  6242  0027FE  BDD1               	btfsc	___fladd@signs& (0+255),6,b
  6243  002800  EF04  F014         	goto	u4971
  6244  002804  EF06  F014         	goto	u4970
  6245  002808                     u4971:
  6246  002808  EF46  F014         	goto	l5633
  6247  00280C                     u4970:
  6248  00280C                     
  6249                           ; BSR set to: 5
  6250  00280C  51D3               	movf	___fladd@bexp& (0+255),w,b
  6251  00280E  A4D8               	btfss	status,2,c
  6252  002810  EF0C  F014         	goto	u4981
  6253  002814  EF0E  F014         	goto	u4980
  6254  002818                     u4981:
  6255  002818  EF18  F014         	goto	l5615
  6256  00281C                     u4980:
  6257  00281C                     
  6258                           ; BSR set to: 5
  6259  00281C  0E00               	movlw	0
  6260  00281E  6FC5               	movwf	?___fladd& (0+255),b
  6261  002820  0E00               	movlw	0
  6262  002822  6FC6               	movwf	(?___fladd+1)& (0+255),b
  6263  002824  0E00               	movlw	0
  6264  002826  6FC7               	movwf	(?___fladd+2)& (0+255),b
  6265  002828  0E00               	movlw	0
  6266  00282A  6FC8               	movwf	(?___fladd+3)& (0+255),b
  6267  00282C  EF67  F015         	goto	l2153
  6268  002830                     l5615:
  6269                           
  6270                           ; BSR set to: 5
  6271  002830  51C9               	movf	___fladd@a& (0+255),w,b
  6272  002832  27C5               	addwf	___fladd@b& (0+255),f,b
  6273  002834  51CA               	movf	(___fladd@a+1)& (0+255),w,b
  6274  002836  23C6               	addwfc	(___fladd@b+1)& (0+255),f,b
  6275  002838  51CB               	movf	(___fladd@a+2)& (0+255),w,b
  6276  00283A  23C7               	addwfc	(___fladd@b+2)& (0+255),f,b
  6277  00283C  51CC               	movf	(___fladd@a+3)& (0+255),w,b
  6278  00283E  23C8               	addwfc	(___fladd@b+3)& (0+255),f,b
  6279  002840                     
  6280                           ; BSR set to: 5
  6281  002840  A1C8               	btfss	(___fladd@b+3)& (0+255),0,b
  6282  002842  EF25  F014         	goto	u4991
  6283  002846  EF27  F014         	goto	u4990
  6284  00284A                     u4991:
  6285  00284A  EFD3  F014         	goto	l5669
  6286  00284E                     u4990:
  6287  00284E                     
  6288                           ; BSR set to: 5
  6289  00284E  A1D4               	btfss	___fladd@grs& (0+255),0,b
  6290  002850  EF2C  F014         	goto	u5001
  6291  002854  EF2E  F014         	goto	u5000
  6292  002858                     u5001:
  6293  002858  EF34  F014         	goto	l5623
  6294  00285C                     u5000:
  6295  00285C                     
  6296                           ; BSR set to: 5
  6297  00285C  90D8               	bcf	status,0,c
  6298  00285E  31D4               	rrcf	___fladd@grs& (0+255),w,b
  6299  002860  0901               	iorlw	1
  6300  002862  6FD4               	movwf	___fladd@grs& (0+255),b
  6301  002864  EF36  F014         	goto	l5625
  6302  002868                     l5623:
  6303                           
  6304                           ; BSR set to: 5
  6305  002868  90D8               	bcf	status,0,c
  6306  00286A  33D4               	rrcf	___fladd@grs& (0+255),f,b
  6307  00286C                     l5625:
  6308                           
  6309                           ; BSR set to: 5
  6310  00286C  A1C5               	btfss	___fladd@b& (0+255),0,b
  6311  00286E  EF3B  F014         	goto	u5011
  6312  002872  EF3D  F014         	goto	u5010
  6313  002876                     u5011:
  6314  002876  EF3E  F014         	goto	l5629
  6315  00287A                     u5010:
  6316  00287A                     
  6317                           ; BSR set to: 5
  6318  00287A  8FD4               	bsf	___fladd@grs& (0+255),7,b
  6319  00287C                     l5629:
  6320                           
  6321                           ; BSR set to: 5
  6322  00287C  35C8               	rlcf	(___fladd@b+3)& (0+255),w,b
  6323  00287E  33C8               	rrcf	(___fladd@b+3)& (0+255),f,b
  6324  002880  33C7               	rrcf	(___fladd@b+2)& (0+255),f,b
  6325  002882  33C6               	rrcf	(___fladd@b+1)& (0+255),f,b
  6326  002884  33C5               	rrcf	___fladd@b& (0+255),f,b
  6327  002886                     
  6328                           ; BSR set to: 5
  6329  002886  2BD3               	incf	___fladd@bexp& (0+255),f,b
  6330  002888  EFD3  F014         	goto	l5669
  6331  00288C                     l5633:
  6332                           
  6333                           ; BSR set to: 5
  6334  00288C  51C9               	movf	___fladd@a& (0+255),w,b
  6335  00288E  5DC5               	subwf	___fladd@b& (0+255),w,b
  6336  002890  51CA               	movf	(___fladd@a+1)& (0+255),w,b
  6337  002892  59C6               	subwfb	(___fladd@b+1)& (0+255),w,b
  6338  002894  51CB               	movf	(___fladd@a+2)& (0+255),w,b
  6339  002896  59C7               	subwfb	(___fladd@b+2)& (0+255),w,b
  6340  002898  51C8               	movf	(___fladd@b+3)& (0+255),w,b
  6341  00289A  0A80               	xorlw	128
  6342  00289C  6FCD               	movwf	??___fladd& (0+255),b
  6343  00289E  51CC               	movf	(___fladd@a+3)& (0+255),w,b
  6344  0028A0  0A80               	xorlw	128
  6345  0028A2  59CD               	subwfb	??___fladd& (0+255),w,b
  6346  0028A4  B0D8               	btfsc	status,0,c
  6347  0028A6  EF57  F014         	goto	u5021
  6348  0028AA  EF59  F014         	goto	u5020
  6349  0028AE                     u5021:
  6350  0028AE  EF84  F014         	goto	l5643
  6351  0028B2                     u5020:
  6352  0028B2                     
  6353                           ; BSR set to: 5
  6354  0028B2  51C5               	movf	___fladd@b& (0+255),w,b
  6355  0028B4  5DC9               	subwf	___fladd@a& (0+255),w,b
  6356  0028B6  6FCD               	movwf	??___fladd& (0+255),b
  6357  0028B8  51C6               	movf	(___fladd@b+1)& (0+255),w,b
  6358  0028BA  59CA               	subwfb	(___fladd@a+1)& (0+255),w,b
  6359  0028BC  6FCE               	movwf	(??___fladd+1)& (0+255),b
  6360  0028BE  51C7               	movf	(___fladd@b+2)& (0+255),w,b
  6361  0028C0  59CB               	subwfb	(___fladd@a+2)& (0+255),w,b
  6362  0028C2  6FCF               	movwf	(??___fladd+2)& (0+255),b
  6363  0028C4  51C8               	movf	(___fladd@b+3)& (0+255),w,b
  6364  0028C6  59CC               	subwfb	(___fladd@a+3)& (0+255),w,b
  6365  0028C8  6FD0               	movwf	(??___fladd+3)& (0+255),b
  6366  0028CA  0EFF               	movlw	255
  6367  0028CC  25CD               	addwf	??___fladd& (0+255),w,b
  6368  0028CE  6FC5               	movwf	___fladd@b& (0+255),b
  6369  0028D0  0EFF               	movlw	255
  6370  0028D2  21CE               	addwfc	(??___fladd+1)& (0+255),w,b
  6371  0028D4  6FC6               	movwf	(___fladd@b+1)& (0+255),b
  6372  0028D6  0EFF               	movlw	255
  6373  0028D8  21CF               	addwfc	(??___fladd+2)& (0+255),w,b
  6374  0028DA  6FC7               	movwf	(___fladd@b+2)& (0+255),b
  6375  0028DC  0EFF               	movlw	255
  6376  0028DE  21D0               	addwfc	(??___fladd+3)& (0+255),w,b
  6377  0028E0  6FC8               	movwf	(___fladd@b+3)& (0+255),b
  6378  0028E2  0E80               	movlw	128
  6379  0028E4  1BD1               	xorwf	___fladd@signs& (0+255),f,b
  6380  0028E6                     
  6381                           ; BSR set to: 5
  6382  0028E6  6DD4               	negf	___fladd@grs& (0+255),b
  6383  0028E8                     
  6384                           ; BSR set to: 5
  6385  0028E8  51D4               	movf	___fladd@grs& (0+255),w,b
  6386  0028EA  A4D8               	btfss	status,2,c
  6387  0028EC  EF7A  F014         	goto	u5031
  6388  0028F0  EF7C  F014         	goto	u5030
  6389  0028F4                     u5031:
  6390  0028F4  EF8C  F014         	goto	l2161
  6391  0028F8                     u5030:
  6392  0028F8                     
  6393                           ; BSR set to: 5
  6394  0028F8  0E01               	movlw	1
  6395  0028FA  27C5               	addwf	___fladd@b& (0+255),f,b
  6396  0028FC  0E00               	movlw	0
  6397  0028FE  23C6               	addwfc	(___fladd@b+1)& (0+255),f,b
  6398  002900  23C7               	addwfc	(___fladd@b+2)& (0+255),f,b
  6399  002902  23C8               	addwfc	(___fladd@b+3)& (0+255),f,b
  6400  002904  EF8C  F014         	goto	l2161
  6401  002908                     l5643:
  6402                           
  6403                           ; BSR set to: 5
  6404  002908  51C9               	movf	___fladd@a& (0+255),w,b
  6405  00290A  5FC5               	subwf	___fladd@b& (0+255),f,b
  6406  00290C  51CA               	movf	(___fladd@a+1)& (0+255),w,b
  6407  00290E  5BC6               	subwfb	(___fladd@b+1)& (0+255),f,b
  6408  002910  51CB               	movf	(___fladd@a+2)& (0+255),w,b
  6409  002912  5BC7               	subwfb	(___fladd@b+2)& (0+255),f,b
  6410  002914  51CC               	movf	(___fladd@a+3)& (0+255),w,b
  6411  002916  5BC8               	subwfb	(___fladd@b+3)& (0+255),f,b
  6412  002918                     l2161:
  6413                           
  6414                           ; BSR set to: 5
  6415  002918  51C5               	movf	___fladd@b& (0+255),w,b
  6416  00291A  11C6               	iorwf	(___fladd@b+1)& (0+255),w,b
  6417  00291C  11C7               	iorwf	(___fladd@b+2)& (0+255),w,b
  6418  00291E  11C8               	iorwf	(___fladd@b+3)& (0+255),w,b
  6419  002920  A4D8               	btfss	status,2,c
  6420  002922  EF95  F014         	goto	u5041
  6421  002926  EF97  F014         	goto	u5040
  6422  00292A                     u5041:
  6423  00292A  EFCC  F014         	goto	l5667
  6424  00292E                     u5040:
  6425  00292E                     
  6426                           ; BSR set to: 5
  6427  00292E  51D4               	movf	___fladd@grs& (0+255),w,b
  6428  002930  A4D8               	btfss	status,2,c
  6429  002932  EF9D  F014         	goto	u5051
  6430  002936  EF9F  F014         	goto	u5050
  6431  00293A                     u5051:
  6432  00293A  EFCC  F014         	goto	l5667
  6433  00293E                     u5050:
  6434  00293E                     
  6435                           ; BSR set to: 5
  6436  00293E  0E00               	movlw	0
  6437  002940  6FC5               	movwf	?___fladd& (0+255),b
  6438  002942  0E00               	movlw	0
  6439  002944  6FC6               	movwf	(?___fladd+1)& (0+255),b
  6440  002946  0E00               	movlw	0
  6441  002948  6FC7               	movwf	(?___fladd+2)& (0+255),b
  6442  00294A  0E00               	movlw	0
  6443  00294C  6FC8               	movwf	(?___fladd+3)& (0+255),b
  6444  00294E  EF67  F015         	goto	l2153
  6445  002952                     l5651:
  6446                           
  6447                           ; BSR set to: 5
  6448  002952  90D8               	bcf	status,0,c
  6449  002954  37C5               	rlcf	___fladd@b& (0+255),f,b
  6450  002956  37C6               	rlcf	(___fladd@b+1)& (0+255),f,b
  6451  002958  37C7               	rlcf	(___fladd@b+2)& (0+255),f,b
  6452  00295A  37C8               	rlcf	(___fladd@b+3)& (0+255),f,b
  6453  00295C                     
  6454                           ; BSR set to: 5
  6455  00295C  AFD4               	btfss	___fladd@grs& (0+255),7,b
  6456  00295E  EFB3  F014         	goto	u5061
  6457  002962  EFB5  F014         	goto	u5060
  6458  002966                     u5061:
  6459  002966  EFB6  F014         	goto	l5657
  6460  00296A                     u5060:
  6461  00296A                     
  6462                           ; BSR set to: 5
  6463  00296A  81C5               	bsf	___fladd@b& (0+255),0,b
  6464  00296C                     l5657:
  6465                           
  6466                           ; BSR set to: 5
  6467  00296C  A1D4               	btfss	___fladd@grs& (0+255),0,b
  6468  00296E  EFBB  F014         	goto	u5071
  6469  002972  EFBD  F014         	goto	u5070
  6470  002976                     u5071:
  6471  002976  EFC1  F014         	goto	l5661
  6472  00297A                     u5070:
  6473  00297A                     
  6474                           ; BSR set to: 5
  6475  00297A  80D8               	bsf	status,0,c
  6476  00297C  37D4               	rlcf	___fladd@grs& (0+255),f,b
  6477  00297E  EFC3  F014         	goto	l5663
  6478  002982                     l5661:
  6479                           
  6480                           ; BSR set to: 5
  6481  002982  90D8               	bcf	status,0,c
  6482  002984  37D4               	rlcf	___fladd@grs& (0+255),f,b
  6483  002986                     l5663:
  6484                           
  6485                           ; BSR set to: 5
  6486  002986  51D3               	movf	___fladd@bexp& (0+255),w,b
  6487  002988  B4D8               	btfsc	status,2,c
  6488  00298A  EFC9  F014         	goto	u5081
  6489  00298E  EFCB  F014         	goto	u5080
  6490  002992                     u5081:
  6491  002992  EFCC  F014         	goto	l5667
  6492  002996                     u5080:
  6493  002996                     
  6494                           ; BSR set to: 5
  6495  002996  07D3               	decf	___fladd@bexp& (0+255),f,b
  6496  002998                     l5667:
  6497                           
  6498                           ; BSR set to: 5
  6499  002998  AFC7               	btfss	(___fladd@b+2)& (0+255),7,b
  6500  00299A  EFD1  F014         	goto	u5091
  6501  00299E  EFD3  F014         	goto	u5090
  6502  0029A2                     u5091:
  6503  0029A2  EFA9  F014         	goto	l5651
  6504  0029A6                     u5090:
  6505  0029A6                     l5669:
  6506                           
  6507                           ; BSR set to: 5
  6508  0029A6  0E00               	movlw	0
  6509  0029A8  6FD2               	movwf	___fladd@aexp& (0+255),b
  6510  0029AA                     
  6511                           ; BSR set to: 5
  6512  0029AA  AFD4               	btfss	___fladd@grs& (0+255),7,b
  6513  0029AC  EFDA  F014         	goto	u5101
  6514  0029B0  EFDC  F014         	goto	u5100
  6515  0029B4                     u5101:
  6516  0029B4  EFF4  F014         	goto	l2170
  6517  0029B8                     u5100:
  6518  0029B8                     
  6519                           ; BSR set to: 5
  6520  0029B8  C5D4  F5CD         	movff	___fladd@grs,??___fladd
  6521  0029BC  0E7F               	movlw	127
  6522  0029BE  17CD               	andwf	??___fladd& (0+255),f,b
  6523  0029C0  B4D8               	btfsc	status,2,c
  6524  0029C2  EFE5  F014         	goto	u5111
  6525  0029C6  EFE7  F014         	goto	u5110
  6526  0029CA                     u5111:
  6527  0029CA  EFEB  F014         	goto	l2171
  6528  0029CE                     u5110:
  6529  0029CE                     l5675:
  6530                           
  6531                           ; BSR set to: 5
  6532  0029CE  0E01               	movlw	1
  6533  0029D0  6FD2               	movwf	___fladd@aexp& (0+255),b
  6534  0029D2  EFF4  F014         	goto	l2170
  6535  0029D6                     l2171:
  6536                           
  6537                           ; BSR set to: 5
  6538  0029D6  A1C5               	btfss	___fladd@b& (0+255),0,b
  6539  0029D8  EFF0  F014         	goto	u5121
  6540  0029DC  EFF2  F014         	goto	u5120
  6541  0029E0                     u5121:
  6542  0029E0  EFF4  F014         	goto	l2170
  6543  0029E4                     u5120:
  6544  0029E4  EFE7  F014         	goto	l5675
  6545  0029E8                     l2170:
  6546                           
  6547                           ; BSR set to: 5
  6548  0029E8  51D2               	movf	___fladd@aexp& (0+255),w,b
  6549  0029EA  B4D8               	btfsc	status,2,c
  6550  0029EC  EFFA  F014         	goto	u5131
  6551  0029F0  EFFC  F014         	goto	u5130
  6552  0029F4                     u5131:
  6553  0029F4  EF27  F015         	goto	l5687
  6554  0029F8                     u5130:
  6555  0029F8                     
  6556                           ; BSR set to: 5
  6557  0029F8  0E01               	movlw	1
  6558  0029FA  27C5               	addwf	___fladd@b& (0+255),f,b
  6559  0029FC  0E00               	movlw	0
  6560  0029FE  23C6               	addwfc	(___fladd@b+1)& (0+255),f,b
  6561  002A00  23C7               	addwfc	(___fladd@b+2)& (0+255),f,b
  6562  002A02  23C8               	addwfc	(___fladd@b+3)& (0+255),f,b
  6563  002A04                     
  6564                           ; BSR set to: 5
  6565  002A04  A1C8               	btfss	(___fladd@b+3)& (0+255),0,b
  6566  002A06  EF07  F015         	goto	u5141
  6567  002A0A  EF09  F015         	goto	u5140
  6568  002A0E                     u5141:
  6569  002A0E  EF27  F015         	goto	l5687
  6570  002A12                     u5140:
  6571  002A12                     
  6572                           ; BSR set to: 5
  6573  002A12  C5C5  F5CD         	movff	___fladd@b,??___fladd
  6574  002A16  C5C6  F5CE         	movff	___fladd@b+1,??___fladd+1
  6575  002A1A  C5C7  F5CF         	movff	___fladd@b+2,??___fladd+2
  6576  002A1E  C5C8  F5D0         	movff	___fladd@b+3,??___fladd+3
  6577  002A22  35D0               	rlcf	(??___fladd+3)& (0+255),w,b
  6578  002A24  33D0               	rrcf	(??___fladd+3)& (0+255),f,b
  6579  002A26  33CF               	rrcf	(??___fladd+2)& (0+255),f,b
  6580  002A28  33CE               	rrcf	(??___fladd+1)& (0+255),f,b
  6581  002A2A  33CD               	rrcf	??___fladd& (0+255),f,b
  6582  002A2C  C5CD  F5C5         	movff	??___fladd,___fladd@b
  6583  002A30  C5CE  F5C6         	movff	??___fladd+1,___fladd@b+1
  6584  002A34  C5CF  F5C7         	movff	??___fladd+2,___fladd@b+2
  6585  002A38  C5D0  F5C8         	movff	??___fladd+3,___fladd@b+3
  6586  002A3C  29D3               	incf	___fladd@bexp& (0+255),w,b
  6587  002A3E  B4D8               	btfsc	status,2,c
  6588  002A40  EF24  F015         	goto	u5151
  6589  002A44  EF26  F015         	goto	u5150
  6590  002A48                     u5151:
  6591  002A48  EF27  F015         	goto	l5687
  6592  002A4C                     u5150:
  6593  002A4C                     
  6594                           ; BSR set to: 5
  6595  002A4C  2BD3               	incf	___fladd@bexp& (0+255),f,b
  6596  002A4E                     l5687:
  6597                           
  6598                           ; BSR set to: 5
  6599  002A4E  29D3               	incf	___fladd@bexp& (0+255),w,b
  6600  002A50  B4D8               	btfsc	status,2,c
  6601  002A52  EF2D  F015         	goto	u5161
  6602  002A56  EF2F  F015         	goto	u5160
  6603  002A5A                     u5161:
  6604  002A5A  EF37  F015         	goto	l5691
  6605  002A5E                     u5160:
  6606  002A5E                     
  6607                           ; BSR set to: 5
  6608  002A5E  51D3               	movf	___fladd@bexp& (0+255),w,b
  6609  002A60  A4D8               	btfss	status,2,c
  6610  002A62  EF35  F015         	goto	u5171
  6611  002A66  EF37  F015         	goto	u5170
  6612  002A6A                     u5171:
  6613  002A6A  EF49  F015         	goto	l5695
  6614  002A6E                     u5170:
  6615  002A6E                     l5691:
  6616                           
  6617                           ; BSR set to: 5
  6618  002A6E  0E00               	movlw	0
  6619  002A70  6FC5               	movwf	___fladd@b& (0+255),b
  6620  002A72  0E00               	movlw	0
  6621  002A74  6FC6               	movwf	(___fladd@b+1)& (0+255),b
  6622  002A76  0E00               	movlw	0
  6623  002A78  6FC7               	movwf	(___fladd@b+2)& (0+255),b
  6624  002A7A  0E00               	movlw	0
  6625  002A7C  6FC8               	movwf	(___fladd@b+3)& (0+255),b
  6626  002A7E  51D3               	movf	___fladd@bexp& (0+255),w,b
  6627  002A80  A4D8               	btfss	status,2,c
  6628  002A82  EF45  F015         	goto	u5181
  6629  002A86  EF47  F015         	goto	u5180
  6630  002A8A                     u5181:
  6631  002A8A  EF49  F015         	goto	l5695
  6632  002A8E                     u5180:
  6633  002A8E                     
  6634                           ; BSR set to: 5
  6635  002A8E  0E00               	movlw	0
  6636  002A90  6FD1               	movwf	___fladd@signs& (0+255),b
  6637  002A92                     l5695:
  6638                           
  6639                           ; BSR set to: 5
  6640  002A92  A1D3               	btfss	___fladd@bexp& (0+255),0,b
  6641  002A94  EF4E  F015         	goto	u5191
  6642  002A98  EF50  F015         	goto	u5190
  6643  002A9C                     u5191:
  6644  002A9C  EF53  F015         	goto	l5699
  6645  002AA0                     u5190:
  6646  002AA0                     
  6647                           ; BSR set to: 5
  6648  002AA0  8FC7               	bsf	(___fladd@b+2)& (0+255),7,b
  6649  002AA2  EF54  F015         	goto	l5701
  6650  002AA6                     l5699:
  6651                           
  6652                           ; BSR set to: 5
  6653  002AA6  9FC7               	bcf	(___fladd@b+2)& (0+255),7,b
  6654  002AA8                     l5701:
  6655                           
  6656                           ; BSR set to: 5
  6657  002AA8  90D8               	bcf	status,0,c
  6658  002AAA  31D3               	rrcf	___fladd@bexp& (0+255),w,b
  6659  002AAC  6FC8               	movwf	(___fladd@b+3)& (0+255),b
  6660  002AAE                     
  6661                           ; BSR set to: 5
  6662  002AAE  AFD1               	btfss	___fladd@signs& (0+255),7,b
  6663  002AB0  EF5C  F015         	goto	u5201
  6664  002AB4  EF5E  F015         	goto	u5200
  6665  002AB8                     u5201:
  6666  002AB8  EF5F  F015         	goto	l5707
  6667  002ABC                     u5200:
  6668  002ABC                     
  6669                           ; BSR set to: 5
  6670  002ABC  8FC8               	bsf	(___fladd@b+3)& (0+255),7,b
  6671  002ABE                     l5707:
  6672                           
  6673                           ; BSR set to: 5
  6674  002ABE  C5C5  F5C5         	movff	___fladd@b,?___fladd
  6675  002AC2  C5C6  F5C6         	movff	___fladd@b+1,?___fladd+1
  6676  002AC6  C5C7  F5C7         	movff	___fladd@b+2,?___fladd+2
  6677  002ACA  C5C8  F5C8         	movff	___fladd@b+3,?___fladd+3
  6678  002ACE                     l2153:
  6679                           
  6680                           ; BSR set to: 5
  6681  002ACE  0012               	return		;funcret
  6682  002AD0                     __end_of___fladd:
  6683                           	callstack 0
  6684                           
  6685 ;; *************** function ___aldiv *****************
  6686 ;; Defined at:
  6687 ;;		line 7 in file "C:\Program Files\Microchip\xc8\v2.31\pic\sources\c99\common\aldiv.c"
  6688 ;; Parameters:    Size  Location     Type
  6689 ;;  dividend        4    0[BANK5 ] long 
  6690 ;;  divisor         4    4[BANK5 ] long 
  6691 ;; Auto vars:     Size  Location     Type
  6692 ;;  quotient        4   10[BANK5 ] long 
  6693 ;;  sign            1    9[BANK5 ] unsigned char 
  6694 ;;  counter         1    8[BANK5 ] unsigned char 
  6695 ;; Return value:  Size  Location     Type
  6696 ;;                  4    0[BANK5 ] long 
  6697 ;; Registers used:
  6698 ;;		wreg, status,2, status,0
  6699 ;; Tracked objects:
  6700 ;;		On entry : 0/0
  6701 ;;		On exit  : 0/0
  6702 ;;		Unchanged: 0/0
  6703 ;; Data sizes:     COMRAM   BANK5   BANK6   BANK7   BANK8   BANK9  BANK10  BANK11  BANK12  BANK13  BANK14  BANK15  BANK1
      +6  BANK17  BANK18  BANK19  BANK20  BANK21  BANK22  BANK23  BANK24  BANK25  BANK26  BANK27  BANK28  BANK29  BANK30  BANK3
      +1  BANK32  BANK33  BANK34  BANK35  BANK36  BANK37
  6704 ;;      Params:         0       8       0       0       0       0       0       0       0       0       0       0       
      +0       0       0       0       0       0       0       0       0       0       0       0       0       0       0       
      +0       0       0       0       0       0       0
  6705 ;;      Locals:         0       6       0       0       0       0       0       0       0       0       0       0       
      +0       0       0       0       0       0       0       0       0       0       0       0       0       0       0       
      +0       0       0       0       0       0       0
  6706 ;;      Temps:          0       0       0       0       0       0       0       0       0       0       0       0       
      +0       0       0       0       0       0       0       0       0       0       0       0       0       0       0       
      +0       0       0       0       0       0       0
  6707 ;;      Totals:         0      14       0       0       0       0       0       0       0       0       0       0       
      +0       0       0       0       0       0       0       0       0       0       0       0       0       0       0       
      +0       0       0       0       0       0       0
  6708 ;;Total ram usage:       14 bytes
  6709 ;; Hardware stack levels used:    1
  6710 ;; Hardware stack levels required when called:    6
  6711 ;; This function calls:
  6712 ;;		Nothing
  6713 ;; This function is called by:
  6714 ;;		_GPIO_PWM1_Control
  6715 ;;		_GPIO_PWM2_Control
  6716 ;; This function uses a non-reentrant model
  6717 ;;
  6718                           
  6719                           	psect	text58
  6720  004050                     __ptext58:
  6721                           	callstack 0
  6722  004050                     ___aldiv:
  6723                           	callstack 120
  6724  004050  0E00               	movlw	0
  6725  004052  0105               	movlb	5	; () banked
  6726  004054  6FB2               	movwf	___aldiv@sign& (0+255),b
  6727  004056                     
  6728                           ; BSR set to: 5
  6729  004056  BFB0               	btfsc	(___aldiv@divisor+3)& (0+255),7,b
  6730  004058  EF32  F020         	goto	u4760
  6731  00405C  EF30  F020         	goto	u4761
  6732  004060                     u4761:
  6733  004060  EF3C  F020         	goto	l5473
  6734  004064                     u4760:
  6735  004064                     
  6736                           ; BSR set to: 5
  6737  004064  1FB0               	comf	(___aldiv@divisor+3)& (0+255),f,b
  6738  004066  1FAF               	comf	(___aldiv@divisor+2)& (0+255),f,b
  6739  004068  1FAE               	comf	(___aldiv@divisor+1)& (0+255),f,b
  6740  00406A  6DAD               	negf	___aldiv@divisor& (0+255),b
  6741  00406C  0E00               	movlw	0
  6742  00406E  23AE               	addwfc	(___aldiv@divisor+1)& (0+255),f,b
  6743  004070  23AF               	addwfc	(___aldiv@divisor+2)& (0+255),f,b
  6744  004072  23B0               	addwfc	(___aldiv@divisor+3)& (0+255),f,b
  6745  004074                     
  6746                           ; BSR set to: 5
  6747  004074  0E01               	movlw	1
  6748  004076  6FB2               	movwf	___aldiv@sign& (0+255),b
  6749  004078                     l5473:
  6750                           
  6751                           ; BSR set to: 5
  6752  004078  BFAC               	btfsc	(___aldiv@dividend+3)& (0+255),7,b
  6753  00407A  EF43  F020         	goto	u4770
  6754  00407E  EF41  F020         	goto	u4771
  6755  004082                     u4771:
  6756  004082  EF4D  F020         	goto	l5479
  6757  004086                     u4770:
  6758  004086                     
  6759                           ; BSR set to: 5
  6760  004086  1FAC               	comf	(___aldiv@dividend+3)& (0+255),f,b
  6761  004088  1FAB               	comf	(___aldiv@dividend+2)& (0+255),f,b
  6762  00408A  1FAA               	comf	(___aldiv@dividend+1)& (0+255),f,b
  6763  00408C  6DA9               	negf	___aldiv@dividend& (0+255),b
  6764  00408E  0E00               	movlw	0
  6765  004090  23AA               	addwfc	(___aldiv@dividend+1)& (0+255),f,b
  6766  004092  23AB               	addwfc	(___aldiv@dividend+2)& (0+255),f,b
  6767  004094  23AC               	addwfc	(___aldiv@dividend+3)& (0+255),f,b
  6768  004096                     
  6769                           ; BSR set to: 5
  6770  004096  0E01               	movlw	1
  6771  004098  1BB2               	xorwf	___aldiv@sign& (0+255),f,b
  6772  00409A                     l5479:
  6773                           
  6774                           ; BSR set to: 5
  6775  00409A  0E00               	movlw	0
  6776  00409C  6FB3               	movwf	___aldiv@quotient& (0+255),b
  6777  00409E  0E00               	movlw	0
  6778  0040A0  6FB4               	movwf	(___aldiv@quotient+1)& (0+255),b
  6779  0040A2  0E00               	movlw	0
  6780  0040A4  6FB5               	movwf	(___aldiv@quotient+2)& (0+255),b
  6781  0040A6  0E00               	movlw	0
  6782  0040A8  6FB6               	movwf	(___aldiv@quotient+3)& (0+255),b
  6783  0040AA                     
  6784                           ; BSR set to: 5
  6785  0040AA  51AD               	movf	___aldiv@divisor& (0+255),w,b
  6786  0040AC  11AE               	iorwf	(___aldiv@divisor+1)& (0+255),w,b
  6787  0040AE  11AF               	iorwf	(___aldiv@divisor+2)& (0+255),w,b
  6788  0040B0  11B0               	iorwf	(___aldiv@divisor+3)& (0+255),w,b
  6789  0040B2  B4D8               	btfsc	status,2,c
  6790  0040B4  EF5E  F020         	goto	u4781
  6791  0040B8  EF60  F020         	goto	u4780
  6792  0040BC                     u4781:
  6793  0040BC  EF96  F020         	goto	l5501
  6794  0040C0                     u4780:
  6795  0040C0                     
  6796                           ; BSR set to: 5
  6797  0040C0  0E01               	movlw	1
  6798  0040C2  6FB1               	movwf	___aldiv@counter& (0+255),b
  6799  0040C4  EF6A  F020         	goto	l5487
  6800  0040C8                     l5485:
  6801                           
  6802                           ; BSR set to: 5
  6803  0040C8  90D8               	bcf	status,0,c
  6804  0040CA  37AD               	rlcf	___aldiv@divisor& (0+255),f,b
  6805  0040CC  37AE               	rlcf	(___aldiv@divisor+1)& (0+255),f,b
  6806  0040CE  37AF               	rlcf	(___aldiv@divisor+2)& (0+255),f,b
  6807  0040D0  37B0               	rlcf	(___aldiv@divisor+3)& (0+255),f,b
  6808  0040D2  2BB1               	incf	___aldiv@counter& (0+255),f,b
  6809  0040D4                     l5487:
  6810                           
  6811                           ; BSR set to: 5
  6812  0040D4  AFB0               	btfss	(___aldiv@divisor+3)& (0+255),7,b
  6813  0040D6  EF6F  F020         	goto	u4791
  6814  0040DA  EF71  F020         	goto	u4790
  6815  0040DE                     u4791:
  6816  0040DE  EF64  F020         	goto	l5485
  6817  0040E2                     u4790:
  6818  0040E2                     l5489:
  6819                           
  6820                           ; BSR set to: 5
  6821  0040E2  90D8               	bcf	status,0,c
  6822  0040E4  37B3               	rlcf	___aldiv@quotient& (0+255),f,b
  6823  0040E6  37B4               	rlcf	(___aldiv@quotient+1)& (0+255),f,b
  6824  0040E8  37B5               	rlcf	(___aldiv@quotient+2)& (0+255),f,b
  6825  0040EA  37B6               	rlcf	(___aldiv@quotient+3)& (0+255),f,b
  6826  0040EC                     
  6827                           ; BSR set to: 5
  6828  0040EC  51AD               	movf	___aldiv@divisor& (0+255),w,b
  6829  0040EE  5DA9               	subwf	___aldiv@dividend& (0+255),w,b
  6830  0040F0  51AE               	movf	(___aldiv@divisor+1)& (0+255),w,b
  6831  0040F2  59AA               	subwfb	(___aldiv@dividend+1)& (0+255),w,b
  6832  0040F4  51AF               	movf	(___aldiv@divisor+2)& (0+255),w,b
  6833  0040F6  59AB               	subwfb	(___aldiv@dividend+2)& (0+255),w,b
  6834  0040F8  51B0               	movf	(___aldiv@divisor+3)& (0+255),w,b
  6835  0040FA  59AC               	subwfb	(___aldiv@dividend+3)& (0+255),w,b
  6836  0040FC  A0D8               	btfss	status,0,c
  6837  0040FE  EF83  F020         	goto	u4801
  6838  004102  EF85  F020         	goto	u4800
  6839  004106                     u4801:
  6840  004106  EF8E  F020         	goto	l5497
  6841  00410A                     u4800:
  6842  00410A                     
  6843                           ; BSR set to: 5
  6844  00410A  51AD               	movf	___aldiv@divisor& (0+255),w,b
  6845  00410C  5FA9               	subwf	___aldiv@dividend& (0+255),f,b
  6846  00410E  51AE               	movf	(___aldiv@divisor+1)& (0+255),w,b
  6847  004110  5BAA               	subwfb	(___aldiv@dividend+1)& (0+255),f,b
  6848  004112  51AF               	movf	(___aldiv@divisor+2)& (0+255),w,b
  6849  004114  5BAB               	subwfb	(___aldiv@dividend+2)& (0+255),f,b
  6850  004116  51B0               	movf	(___aldiv@divisor+3)& (0+255),w,b
  6851  004118  5BAC               	subwfb	(___aldiv@dividend+3)& (0+255),f,b
  6852  00411A                     
  6853                           ; BSR set to: 5
  6854  00411A  81B3               	bsf	___aldiv@quotient& (0+255),0,b
  6855  00411C                     l5497:
  6856                           
  6857                           ; BSR set to: 5
  6858  00411C  90D8               	bcf	status,0,c
  6859  00411E  33B0               	rrcf	(___aldiv@divisor+3)& (0+255),f,b
  6860  004120  33AF               	rrcf	(___aldiv@divisor+2)& (0+255),f,b
  6861  004122  33AE               	rrcf	(___aldiv@divisor+1)& (0+255),f,b
  6862  004124  33AD               	rrcf	___aldiv@divisor& (0+255),f,b
  6863  004126                     
  6864                           ; BSR set to: 5
  6865  004126  2FB1               	decfsz	___aldiv@counter& (0+255),f,b
  6866  004128  EF71  F020         	goto	l5489
  6867  00412C                     l5501:
  6868                           
  6869                           ; BSR set to: 5
  6870  00412C  51B2               	movf	___aldiv@sign& (0+255),w,b
  6871  00412E  B4D8               	btfsc	status,2,c
  6872  004130  EF9C  F020         	goto	u4811
  6873  004134  EF9E  F020         	goto	u4810
  6874  004138                     u4811:
  6875  004138  EFA6  F020         	goto	l5505
  6876  00413C                     u4810:
  6877  00413C                     
  6878                           ; BSR set to: 5
  6879  00413C  1FB6               	comf	(___aldiv@quotient+3)& (0+255),f,b
  6880  00413E  1FB5               	comf	(___aldiv@quotient+2)& (0+255),f,b
  6881  004140  1FB4               	comf	(___aldiv@quotient+1)& (0+255),f,b
  6882  004142  6DB3               	negf	___aldiv@quotient& (0+255),b
  6883  004144  0E00               	movlw	0
  6884  004146  23B4               	addwfc	(___aldiv@quotient+1)& (0+255),f,b
  6885  004148  23B5               	addwfc	(___aldiv@quotient+2)& (0+255),f,b
  6886  00414A  23B6               	addwfc	(___aldiv@quotient+3)& (0+255),f,b
  6887  00414C                     l5505:
  6888                           
  6889                           ; BSR set to: 5
  6890  00414C  C5B3  F5A9         	movff	___aldiv@quotient,?___aldiv
  6891  004150  C5B4  F5AA         	movff	___aldiv@quotient+1,?___aldiv+1
  6892  004154  C5B5  F5AB         	movff	___aldiv@quotient+2,?___aldiv+2
  6893  004158  C5B6  F5AC         	movff	___aldiv@quotient+3,?___aldiv+3
  6894  00415C                     
  6895                           ; BSR set to: 5
  6896  00415C  0012               	return		;funcret
  6897  00415E                     __end_of___aldiv:
  6898                           	callstack 0
  6899                           
  6900 ;; *************** function _PWM2_16BIT_WritePeriodRegister *****************
  6901 ;; Defined at:
  6902 ;;		line 144 in file "mcc_generated_files/pwm2_16bit.c"
  6903 ;; Parameters:    Size  Location     Type
  6904 ;;  periodCount     2    0[BANK5 ] unsigned short 
  6905 ;; Auto vars:     Size  Location     Type
  6906 ;;		None
  6907 ;; Return value:  Size  Location     Type
  6908 ;;                  1    wreg      void 
  6909 ;; Registers used:
  6910 ;;		wreg, status,2
  6911 ;; Tracked objects:
  6912 ;;		On entry : 0/0
  6913 ;;		On exit  : 0/0
  6914 ;;		Unchanged: 0/0
  6915 ;; Data sizes:     COMRAM   BANK5   BANK6   BANK7   BANK8   BANK9  BANK10  BANK11  BANK12  BANK13  BANK14  BANK15  BANK1
      +6  BANK17  BANK18  BANK19  BANK20  BANK21  BANK22  BANK23  BANK24  BANK25  BANK26  BANK27  BANK28  BANK29  BANK30  BANK3
      +1  BANK32  BANK33  BANK34  BANK35  BANK36  BANK37
  6916 ;;      Params:         0       2       0       0       0       0       0       0       0       0       0       0       
      +0       0       0       0       0       0       0       0       0       0       0       0       0       0       0       
      +0       0       0       0       0       0       0
  6917 ;;      Locals:         0       0       0       0       0       0       0       0       0       0       0       0       
      +0       0       0       0       0       0       0       0       0       0       0       0       0       0       0       
      +0       0       0       0       0       0       0
  6918 ;;      Temps:          0       0       0       0       0       0       0       0       0       0       0       0       
      +0       0       0       0       0       0       0       0       0       0       0       0       0       0       0       
      +0       0       0       0       0       0       0
  6919 ;;      Totals:         0       2       0       0       0       0       0       0       0       0       0       0       
      +0       0       0       0       0       0       0       0       0       0       0       0       0       0       0       
      +0       0       0       0       0       0       0
  6920 ;;Total ram usage:        2 bytes
  6921 ;; Hardware stack levels used:    1
  6922 ;; Hardware stack levels required when called:    6
  6923 ;; This function calls:
  6924 ;;		Nothing
  6925 ;; This function is called by:
  6926 ;;		_GPIO_PWM2_Control
  6927 ;; This function uses a non-reentrant model
  6928 ;;
  6929                           
  6930                           	psect	text59
  6931  004D96                     __ptext59:
  6932                           	callstack 0
  6933  004D96                     _PWM2_16BIT_WritePeriodRegister:
  6934                           	callstack 119
  6935  004D96                     
  6936                           ;mcc_generated_files/pwm2_16bit.c: 144: void PWM2_16BIT_WritePeriodRegister(uint16_t per
      +                          iodCount);mcc_generated_files/pwm2_16bit.c: 145: {;mcc_generated_files/pwm2_16bit.c: 146
      +                          :     PWM2PRL = (uint8_t)periodCount;
  6937  004D96  0061  F6A4  F472   	movff	PWM2_16BIT_WritePeriodRegister@periodCount,1138	;volatile
  6938  004D9C                     
  6939                           ;mcc_generated_files/pwm2_16bit.c: 147:     PWM2PRH = (uint8_t)(periodCount >> 8);
  6940  004D9C  0105               	movlb	5	; () banked
  6941  004D9E  51AA               	movf	(PWM2_16BIT_WritePeriodRegister@periodCount+1)& (0+255),w,b
  6942  004DA0  6E73               	movwf	115,c	;volatile
  6943  004DA2                     
  6944                           ; BSR set to: 5
  6945  004DA2  0012               	return		;funcret
  6946  004DA4                     __end_of_PWM2_16BIT_WritePeriodRegister:
  6947                           	callstack 0
  6948                           
  6949 ;; *************** function _PWM2_16BIT_SetSlice1Output1DutyCycleRegister *****************
  6950 ;; Defined at:
  6951 ;;		line 150 in file "mcc_generated_files/pwm2_16bit.c"
  6952 ;; Parameters:    Size  Location     Type
  6953 ;;  registerValu    2    0[BANK5 ] unsigned short 
  6954 ;; Auto vars:     Size  Location     Type
  6955 ;;		None
  6956 ;; Return value:  Size  Location     Type
  6957 ;;                  1    wreg      void 
  6958 ;; Registers used:
  6959 ;;		wreg, status,2
  6960 ;; Tracked objects:
  6961 ;;		On entry : 0/0
  6962 ;;		On exit  : 0/0
  6963 ;;		Unchanged: 0/0
  6964 ;; Data sizes:     COMRAM   BANK5   BANK6   BANK7   BANK8   BANK9  BANK10  BANK11  BANK12  BANK13  BANK14  BANK15  BANK1
      +6  BANK17  BANK18  BANK19  BANK20  BANK21  BANK22  BANK23  BANK24  BANK25  BANK26  BANK27  BANK28  BANK29  BANK30  BANK3
      +1  BANK32  BANK33  BANK34  BANK35  BANK36  BANK37
  6965 ;;      Params:         0       2       0       0       0       0       0       0       0       0       0       0       
      +0       0       0       0       0       0       0       0       0       0       0       0       0       0       0       
      +0       0       0       0       0       0       0
  6966 ;;      Locals:         0       0       0       0       0       0       0       0       0       0       0       0       
      +0       0       0       0       0       0       0       0       0       0       0       0       0       0       0       
      +0       0       0       0       0       0       0
  6967 ;;      Temps:          0       0       0       0       0       0       0       0       0       0       0       0       
      +0       0       0       0       0       0       0       0       0       0       0       0       0       0       0       
      +0       0       0       0       0       0       0
  6968 ;;      Totals:         0       2       0       0       0       0       0       0       0       0       0       0       
      +0       0       0       0       0       0       0       0       0       0       0       0       0       0       0       
      +0       0       0       0       0       0       0
  6969 ;;Total ram usage:        2 bytes
  6970 ;; Hardware stack levels used:    1
  6971 ;; Hardware stack levels required when called:    6
  6972 ;; This function calls:
  6973 ;;		Nothing
  6974 ;; This function is called by:
  6975 ;;		_GPIO_PWM2_Control
  6976 ;; This function uses a non-reentrant model
  6977 ;;
  6978                           
  6979                           	psect	text60
  6980  004DA4                     __ptext60:
  6981                           	callstack 0
  6982  004DA4                     _PWM2_16BIT_SetSlice1Output1DutyCycleRegister:
  6983                           	callstack 119
  6984  004DA4                     
  6985                           ;mcc_generated_files/pwm2_16bit.c: 150: void PWM2_16BIT_SetSlice1Output1DutyCycleRegiste
      +                          r(uint16_t registerValue);mcc_generated_files/pwm2_16bit.c: 151: {;mcc_generated_files/p
      +                          wm2_16bit.c: 152:     PWM2S1P1L = (uint8_t)(registerValue);
  6986  004DA4  0061  F6A4  F47A   	movff	PWM2_16BIT_SetSlice1Output1DutyCycleRegister@registerValue,1146	;volatile
  6987  004DAA                     
  6988                           ;mcc_generated_files/pwm2_16bit.c: 153:     PWM2S1P1H = (uint8_t)(registerValue >> 8);
  6989  004DAA  0105               	movlb	5	; () banked
  6990  004DAC  51AA               	movf	(PWM2_16BIT_SetSlice1Output1DutyCycleRegister@registerValue+1)& (0+255),w,b
  6991  004DAE  6E7B               	movwf	123,c	;volatile
  6992  004DB0                     
  6993                           ; BSR set to: 5
  6994  004DB0  0012               	return		;funcret
  6995  004DB2                     __end_of_PWM2_16BIT_SetSlice1Output1DutyCycleRegister:
  6996                           	callstack 0
  6997                           
  6998 ;; *************** function _PWM2_16BIT_LoadBufferRegisters *****************
  6999 ;; Defined at:
  7000 ;;		line 162 in file "mcc_generated_files/pwm2_16bit.c"
  7001 ;; Parameters:    Size  Location     Type
  7002 ;;		None
  7003 ;; Auto vars:     Size  Location     Type
  7004 ;;		None
  7005 ;; Return value:  Size  Location     Type
  7006 ;;                  1    wreg      void 
  7007 ;; Registers used:
  7008 ;;		None
  7009 ;; Tracked objects:
  7010 ;;		On entry : 0/0
  7011 ;;		On exit  : 0/0
  7012 ;;		Unchanged: 0/0
  7013 ;; Data sizes:     COMRAM   BANK5   BANK6   BANK7   BANK8   BANK9  BANK10  BANK11  BANK12  BANK13  BANK14  BANK15  BANK1
      +6  BANK17  BANK18  BANK19  BANK20  BANK21  BANK22  BANK23  BANK24  BANK25  BANK26  BANK27  BANK28  BANK29  BANK30  BANK3
      +1  BANK32  BANK33  BANK34  BANK35  BANK36  BANK37
  7014 ;;      Params:         0       0       0       0       0       0       0       0       0       0       0       0       
      +0       0       0       0       0       0       0       0       0       0       0       0       0       0       0       
      +0       0       0       0       0       0       0
  7015 ;;      Locals:         0       0       0       0       0       0       0       0       0       0       0       0       
      +0       0       0       0       0       0       0       0       0       0       0       0       0       0       0       
      +0       0       0       0       0       0       0
  7016 ;;      Temps:          0       0       0       0       0       0       0       0       0       0       0       0       
      +0       0       0       0       0       0       0       0       0       0       0       0       0       0       0       
      +0       0       0       0       0       0       0
  7017 ;;      Totals:         0       0       0       0       0       0       0       0       0       0       0       0       
      +0       0       0       0       0       0       0       0       0       0       0       0       0       0       0       
      +0       0       0       0       0       0       0
  7018 ;;Total ram usage:        0 bytes
  7019 ;; Hardware stack levels used:    1
  7020 ;; Hardware stack levels required when called:    6
  7021 ;; This function calls:
  7022 ;;		Nothing
  7023 ;; This function is called by:
  7024 ;;		_GPIO_PWM2_Control
  7025 ;; This function uses a non-reentrant model
  7026 ;;
  7027                           
  7028                           	psect	text61
  7029  004ED8                     __ptext61:
  7030                           	callstack 0
  7031  004ED8                     _PWM2_16BIT_LoadBufferRegisters:
  7032                           	callstack 119
  7033  004ED8                     
  7034                           ;mcc_generated_files/pwm2_16bit.c: 165:     PWM2CONbits.LD = 1;
  7035  004ED8  8478               	bsf	120,2,c	;volatile
  7036  004EDA  0012               	return		;funcret
  7037  004EDC                     __end_of_PWM2_16BIT_LoadBufferRegisters:
  7038                           	callstack 0
  7039                           
  7040 ;; *************** function _EBS_Init *****************
  7041 ;; Defined at:
  7042 ;;		line 18 in file "EBS.c"
  7043 ;; Parameters:    Size  Location     Type
  7044 ;;		None
  7045 ;; Auto vars:     Size  Location     Type
  7046 ;;		None
  7047 ;; Return value:  Size  Location     Type
  7048 ;;                  1    wreg      void 
  7049 ;; Registers used:
  7050 ;;		None
  7051 ;; Tracked objects:
  7052 ;;		On entry : 0/0
  7053 ;;		On exit  : 0/0
  7054 ;;		Unchanged: 0/0
  7055 ;; Data sizes:     COMRAM   BANK5   BANK6   BANK7   BANK8   BANK9  BANK10  BANK11  BANK12  BANK13  BANK14  BANK15  BANK1
      +6  BANK17  BANK18  BANK19  BANK20  BANK21  BANK22  BANK23  BANK24  BANK25  BANK26  BANK27  BANK28  BANK29  BANK30  BANK3
      +1  BANK32  BANK33  BANK34  BANK35  BANK36  BANK37
  7056 ;;      Params:         0       0       0       0       0       0       0       0       0       0       0       0       
      +0       0       0       0       0       0       0       0       0       0       0       0       0       0       0       
      +0       0       0       0       0       0       0
  7057 ;;      Locals:         0       0       0       0       0       0       0       0       0       0       0       0       
      +0       0       0       0       0       0       0       0       0       0       0       0       0       0       0       
      +0       0       0       0       0       0       0
  7058 ;;      Temps:          0       0       0       0       0       0       0       0       0       0       0       0       
      +0       0       0       0       0       0       0       0       0       0       0       0       0       0       0       
      +0       0       0       0       0       0       0
  7059 ;;      Totals:         0       0       0       0       0       0       0       0       0       0       0       0       
      +0       0       0       0       0       0       0       0       0       0       0       0       0       0       0       
      +0       0       0       0       0       0       0
  7060 ;;Total ram usage:        0 bytes
  7061 ;; Hardware stack levels used:    1
  7062 ;; Hardware stack levels required when called:    6
  7063 ;; This function calls:
  7064 ;;		Nothing
  7065 ;; This function is called by:
  7066 ;;		_main
  7067 ;; This function uses a non-reentrant model
  7068 ;;
  7069                           
  7070                           	psect	text62
  7071  004EBC                     __ptext62:
  7072                           	callstack 0
  7073  004EBC                     _EBS_Init:
  7074                           	callstack 121
  7075  004EBC  84BF               	bsf	191,2,c	;volatile
  7076  004EBE  82BF               	bsf	191,1,c	;volatile
  7077  004EC0  0012               	return		;funcret
  7078  004EC2                     __end_of_EBS_Init:
  7079                           	callstack 0
  7080                           
  7081 ;; *************** function _DELAY_milliseconds *****************
  7082 ;; Defined at:
  7083 ;;		line 38 in file "mcc_generated_files/delay.c"
  7084 ;; Parameters:    Size  Location     Type
  7085 ;;  milliseconds    2    0[BANK5 ] unsigned short 
  7086 ;; Auto vars:     Size  Location     Type
  7087 ;;		None
  7088 ;; Return value:  Size  Location     Type
  7089 ;;                  1    wreg      void 
  7090 ;; Registers used:
  7091 ;;		wreg, status,2, status,0
  7092 ;; Tracked objects:
  7093 ;;		On entry : 0/0
  7094 ;;		On exit  : 0/0
  7095 ;;		Unchanged: 0/0
  7096 ;; Data sizes:     COMRAM   BANK5   BANK6   BANK7   BANK8   BANK9  BANK10  BANK11  BANK12  BANK13  BANK14  BANK15  BANK1
      +6  BANK17  BANK18  BANK19  BANK20  BANK21  BANK22  BANK23  BANK24  BANK25  BANK26  BANK27  BANK28  BANK29  BANK30  BANK3
      +1  BANK32  BANK33  BANK34  BANK35  BANK36  BANK37
  7097 ;;      Params:         0       2       0       0       0       0       0       0       0       0       0       0       
      +0       0       0       0       0       0       0       0       0       0       0       0       0       0       0       
      +0       0       0       0       0       0       0
  7098 ;;      Locals:         0       0       0       0       0       0       0       0       0       0       0       0       
      +0       0       0       0       0       0       0       0       0       0       0       0       0       0       0       
      +0       0       0       0       0       0       0
  7099 ;;      Temps:          0       1       0       0       0       0       0       0       0       0       0       0       
      +0       0       0       0       0       0       0       0       0       0       0       0       0       0       0       
      +0       0       0       0       0       0       0
  7100 ;;      Totals:         0       3       0       0       0       0       0       0       0       0       0       0       
      +0       0       0       0       0       0       0       0       0       0       0       0       0       0       0       
      +0       0       0       0       0       0       0
  7101 ;;Total ram usage:        3 bytes
  7102 ;; Hardware stack levels used:    1
  7103 ;; Hardware stack levels required when called:    6
  7104 ;; This function calls:
  7105 ;;		Nothing
  7106 ;; This function is called by:
  7107 ;;		_main
  7108 ;;		_EBS_CheckUP_Routine
  7109 ;; This function uses a non-reentrant model
  7110 ;;
  7111                           
  7112                           	psect	text63
  7113  004A40                     __ptext63:
  7114                           	callstack 0
  7115  004A40                     _DELAY_milliseconds:
  7116                           	callstack 121
  7117  004A40                     
  7118                           ;mcc_generated_files/delay.c: 39:     while(milliseconds--){
  7119  004A40  EF2B  F025         	goto	l6117
  7120  004A44                     l6115:
  7121                           
  7122                           ; BSR set to: 5
  7123                           ;mcc_generated_files/delay.c: 40:         _delay((unsigned long)((1)*(10000000/4000.0)))
      +                          ;
  7124  004A44  0E04               	movlw	4
  7125  004A46  0105               	movlb	5	; () banked
  7126  004A48  6FAB               	movwf	??_DELAY_milliseconds& (0+255),b
  7127  004A4A  0E3D               	movlw	61
  7128  004A4C                     u6897:
  7129  004A4C  2EE8               	decfsz	wreg,f,c
  7130  004A4E  D7FE               	bra	u6897
  7131  004A50  2FAB               	decfsz	??_DELAY_milliseconds& (0+255),f,b
  7132  004A52  D7FC               	bra	u6897
  7133  004A54  D000               	nop2	
  7134  004A56                     l6117:
  7135                           
  7136                           ;mcc_generated_files/delay.c: 39:     while(milliseconds--){
  7137  004A56  0105               	movlb	5	; () banked
  7138  004A58  07A9               	decf	DELAY_milliseconds@milliseconds& (0+255),f,b
  7139  004A5A  A0D8               	btfss	status,0,c
  7140  004A5C  07AA               	decf	(DELAY_milliseconds@milliseconds+1)& (0+255),f,b
  7141  004A5E  29A9               	incf	DELAY_milliseconds@milliseconds& (0+255),w,b
  7142  004A60  E106               	bnz	u5701
  7143  004A62  29AA               	incf	(DELAY_milliseconds@milliseconds+1)& (0+255),w,b
  7144  004A64  A4D8               	btfss	status,2,c
  7145  004A66  EF37  F025         	goto	u5701
  7146  004A6A  EF39  F025         	goto	u5700
  7147  004A6E                     u5701:
  7148  004A6E  EF22  F025         	goto	l6115
  7149  004A72                     u5700:
  7150  004A72                     
  7151                           ; BSR set to: 5
  7152  004A72  0012               	return		;funcret
  7153  004A74                     __end_of_DELAY_milliseconds:
  7154                           	callstack 0
  7155                           
  7156 ;; *************** function _INTERRUPT_InterruptManager *****************
  7157 ;; Defined at:
  7158 ;;		line 58 in file "mcc_generated_files/interrupt_manager.c"
  7159 ;; Parameters:    Size  Location     Type
  7160 ;;		None
  7161 ;; Auto vars:     Size  Location     Type
  7162 ;;		None
  7163 ;; Return value:  Size  Location     Type
  7164 ;;                  1    wreg      void 
  7165 ;; Registers used:
  7166 ;;		wreg, status,2, status,0, pclath, tosl, prodl, prodh, cstack
  7167 ;; Tracked objects:
  7168 ;;		On entry : 0/0
  7169 ;;		On exit  : 0/0
  7170 ;;		Unchanged: 0/0
  7171 ;; Data sizes:     COMRAM   BANK5   BANK6   BANK7   BANK8   BANK9  BANK10  BANK11  BANK12  BANK13  BANK14  BANK15  BANK1
      +6  BANK17  BANK18  BANK19  BANK20  BANK21  BANK22  BANK23  BANK24  BANK25  BANK26  BANK27  BANK28  BANK29  BANK30  BANK3
      +1  BANK32  BANK33  BANK34  BANK35  BANK36  BANK37
  7172 ;;      Params:         0       0       0       0       0       0       0       0       0       0       0       0       
      +0       0       0       0       0       0       0       0       0       0       0       0       0       0       0       
      +0       0       0       0       0       0       0
  7173 ;;      Locals:         0       0       0       0       0       0       0       0       0       0       0       0       
      +0       0       0       0       0       0       0       0       0       0       0       0       0       0       0       
      +0       0       0       0       0       0       0
  7174 ;;      Temps:          0       0       0       0       0       0       0       0       0       0       0       0       
      +0       0       0       0       0       0       0       0       0       0       0       0       0       0       0       
      +0       0       0       0       0       0       0
  7175 ;;      Totals:         0       0       0       0       0       0       0       0       0       0       0       0       
      +0       0       0       0       0       0       0       0       0       0       0       0       0       0       0       
      +0       0       0       0       0       0       0
  7176 ;;Total ram usage:        0 bytes
  7177 ;; Hardware stack levels used:    1
  7178 ;; Hardware stack levels required when called:    5
  7179 ;; This function calls:
  7180 ;;		_CAN1_ISR
  7181 ;;		_INT0_ISR
  7182 ;;		_TMR0_ISR
  7183 ;;		_TMR1_ISR
  7184 ;;		_TMR2_ISR
  7185 ;; This function is called by:
  7186 ;;		Interrupt level 2
  7187 ;; This function uses a non-reentrant model
  7188 ;;
  7189                           
  7190                           	psect	text64
  7191  004448                     __ptext64:
  7192                           	callstack 0
  7193  004448                     _INTERRUPT_InterruptManager:
  7194                           	callstack 118
  7195  004448                     
  7196                           ;mcc_generated_files/interrupt_manager.c: 61:     if(PIE3bits.TMR0IE == 1 && PIR3bits.TM
      +                          R0IF == 1)
  7197  004448  AEA1               	btfss	161,7,c	;volatile
  7198  00444A  EF29  F022         	goto	i2u625_41
  7199  00444E  EF2B  F022         	goto	i2u625_40
  7200  004452                     i2u625_41:
  7201  004452  EF36  F022         	goto	i2l633
  7202  004456                     i2u625_40:
  7203  004456  AEB1               	btfss	177,7,c	;volatile
  7204  004458  EF30  F022         	goto	i2u626_41
  7205  00445C  EF32  F022         	goto	i2u626_40
  7206  004460                     i2u626_41:
  7207  004460  EF36  F022         	goto	i2l633
  7208  004464                     i2u626_40:
  7209  004464                     
  7210                           ;mcc_generated_files/interrupt_manager.c: 62:     {;mcc_generated_files/interrupt_manage
      +                          r.c: 63:         TMR0_ISR();
  7211  004464  EC56  F027         	call	_TMR0_ISR	;wreg free
  7212                           
  7213                           ;mcc_generated_files/interrupt_manager.c: 64:     }
  7214  004468  EF7E  F022         	goto	i2l643
  7215  00446C                     i2l633:
  7216  00446C  A09F               	btfss	159,0,c	;volatile
  7217  00446E  EF3B  F022         	goto	i2u627_41
  7218  004472  EF3D  F022         	goto	i2u627_40
  7219  004476                     i2u627_41:
  7220  004476  EF48  F022         	goto	i2l635
  7221  00447A                     i2u627_40:
  7222  00447A  A0AF               	btfss	175,0,c	;volatile
  7223  00447C  EF42  F022         	goto	i2u628_41
  7224  004480  EF44  F022         	goto	i2u628_40
  7225  004484                     i2u628_41:
  7226  004484  EF48  F022         	goto	i2l635
  7227  004488                     i2u628_40:
  7228  004488                     
  7229                           ;mcc_generated_files/interrupt_manager.c: 66:     {;mcc_generated_files/interrupt_manage
      +                          r.c: 67:         INT0_ISR();
  7230  004488  EC5A  F027         	call	_INT0_ISR	;wreg free
  7231                           
  7232                           ;mcc_generated_files/interrupt_manager.c: 68:     }
  7233  00448C  EF7E  F022         	goto	i2l643
  7234  004490                     i2l635:
  7235  004490  AC9E               	btfss	158,6,c	;volatile
  7236  004492  EF4D  F022         	goto	i2u629_41
  7237  004496  EF4F  F022         	goto	i2u629_40
  7238  00449A                     i2u629_41:
  7239  00449A  EF5A  F022         	goto	i2l637
  7240  00449E                     i2u629_40:
  7241  00449E  ACAE               	btfss	174,6,c	;volatile
  7242  0044A0  EF54  F022         	goto	i2u630_41
  7243  0044A4  EF56  F022         	goto	i2u630_40
  7244  0044A8                     i2u630_41:
  7245  0044A8  EF5A  F022         	goto	i2l637
  7246  0044AC                     i2u630_40:
  7247  0044AC                     
  7248                           ;mcc_generated_files/interrupt_manager.c: 70:     {;mcc_generated_files/interrupt_manage
      +                          r.c: 71:         CAN1_ISR();
  7249  0044AC  EC7D  F01F         	call	_CAN1_ISR	;wreg free
  7250                           
  7251                           ;mcc_generated_files/interrupt_manager.c: 72:     }
  7252  0044B0  EF7E  F022         	goto	i2l643
  7253  0044B4                     i2l637:
  7254  0044B4  A6A1               	btfss	161,3,c	;volatile
  7255  0044B6  EF5F  F022         	goto	i2u631_41
  7256  0044BA  EF61  F022         	goto	i2u631_40
  7257  0044BE                     i2u631_41:
  7258  0044BE  EF6C  F022         	goto	i2l639
  7259  0044C2                     i2u631_40:
  7260  0044C2  A6B1               	btfss	177,3,c	;volatile
  7261  0044C4  EF66  F022         	goto	i2u632_41
  7262  0044C8  EF68  F022         	goto	i2u632_40
  7263  0044CC                     i2u632_41:
  7264  0044CC  EF6C  F022         	goto	i2l639
  7265  0044D0                     i2u632_40:
  7266  0044D0                     
  7267                           ;mcc_generated_files/interrupt_manager.c: 74:     {;mcc_generated_files/interrupt_manage
      +                          r.c: 75:         TMR2_ISR();
  7268  0044D0  ECCD  F025         	call	_TMR2_ISR	;wreg free
  7269                           
  7270                           ;mcc_generated_files/interrupt_manager.c: 76:     }
  7271  0044D4  EF7E  F022         	goto	i2l643
  7272  0044D8                     i2l639:
  7273  0044D8  A8A1               	btfss	161,4,c	;volatile
  7274  0044DA  EF71  F022         	goto	i2u633_41
  7275  0044DE  EF73  F022         	goto	i2u633_40
  7276  0044E2                     i2u633_41:
  7277  0044E2  EF7E  F022         	goto	i2l638
  7278  0044E6                     i2u633_40:
  7279  0044E6  A8B1               	btfss	177,4,c	;volatile
  7280  0044E8  EF78  F022         	goto	i2u634_41
  7281  0044EC  EF7A  F022         	goto	i2u634_40
  7282  0044F0                     i2u634_41:
  7283  0044F0  EF7E  F022         	goto	i2l638
  7284  0044F4                     i2u634_40:
  7285  0044F4                     
  7286                           ;mcc_generated_files/interrupt_manager.c: 78:     {;mcc_generated_files/interrupt_manage
      +                          r.c: 79:         TMR1_ISR();
  7287  0044F4  ECB3  F026         	call	_TMR1_ISR	;wreg free
  7288                           
  7289                           ;mcc_generated_files/interrupt_manager.c: 80:     }
  7290  0044F8  EF7E  F022         	goto	i2l643
  7291  0044FC                     i2l638:
  7292  0044FC                     i2l643:
  7293  0044FC  0011               	retfie		f
  7294  0044FE                     __end_of_INTERRUPT_InterruptManager:
  7295                           	callstack 0
  7296                           
  7297 ;; *************** function _TMR2_ISR *****************
  7298 ;; Defined at:
  7299 ;;		line 166 in file "mcc_generated_files/tmr2.c"
  7300 ;; Parameters:    Size  Location     Type
  7301 ;;		None
  7302 ;; Auto vars:     Size  Location     Type
  7303 ;;		None
  7304 ;; Return value:  Size  Location     Type
  7305 ;;                  1    wreg      void 
  7306 ;; Registers used:
  7307 ;;		wreg, status,2, status,0, pclath, tosl, cstack
  7308 ;; Tracked objects:
  7309 ;;		On entry : 0/0
  7310 ;;		On exit  : 0/0
  7311 ;;		Unchanged: 0/0
  7312 ;; Data sizes:     COMRAM   BANK5   BANK6   BANK7   BANK8   BANK9  BANK10  BANK11  BANK12  BANK13  BANK14  BANK15  BANK1
      +6  BANK17  BANK18  BANK19  BANK20  BANK21  BANK22  BANK23  BANK24  BANK25  BANK26  BANK27  BANK28  BANK29  BANK30  BANK3
      +1  BANK32  BANK33  BANK34  BANK35  BANK36  BANK37
  7313 ;;      Params:         0       0       0       0       0       0       0       0       0       0       0       0       
      +0       0       0       0       0       0       0       0       0       0       0       0       0       0       0       
      +0       0       0       0       0       0       0
  7314 ;;      Locals:         0       0       0       0       0       0       0       0       0       0       0       0       
      +0       0       0       0       0       0       0       0       0       0       0       0       0       0       0       
      +0       0       0       0       0       0       0
  7315 ;;      Temps:          0       0       0       0       0       0       0       0       0       0       0       0       
      +0       0       0       0       0       0       0       0       0       0       0       0       0       0       0       
      +0       0       0       0       0       0       0
  7316 ;;      Totals:         0       0       0       0       0       0       0       0       0       0       0       0       
      +0       0       0       0       0       0       0       0       0       0       0       0       0       0       0       
      +0       0       0       0       0       0       0
  7317 ;;Total ram usage:        0 bytes
  7318 ;; Hardware stack levels used:    1
  7319 ;; Hardware stack levels required when called:    2
  7320 ;; This function calls:
  7321 ;;		_TMR2_CallBack
  7322 ;; This function is called by:
  7323 ;;		_INTERRUPT_InterruptManager
  7324 ;; This function uses a non-reentrant model
  7325 ;;
  7326                           
  7327                           	psect	text65
  7328  004B9A                     __ptext65:
  7329                           	callstack 0
  7330  004B9A                     _TMR2_ISR:
  7331                           	callstack 120
  7332  004B9A                     
  7333                           ;mcc_generated_files/tmr2.c: 168:     static volatile unsigned int CountCallBack = 0;;mc
      +                          c_generated_files/tmr2.c: 171:     PIR3bits.TMR2IF = 0;
  7334  004B9A  96B1               	bcf	177,3,c	;volatile
  7335  004B9C                     
  7336                           ;mcc_generated_files/tmr2.c: 174:     if (++CountCallBack >= 10)
  7337  004B9C  0105               	movlb	5	; () banked
  7338  004B9E  4B7A               	infsnz	TMR2_ISR@CountCallBack& (0+255),f,b	;volatile
  7339  004BA0  2B7B               	incf	(TMR2_ISR@CountCallBack+1)& (0+255),f,b	;volatile
  7340  004BA2  517B               	movf	(TMR2_ISR@CountCallBack+1)& (0+255),w,b	;volatile
  7341  004BA4  E109               	bnz	i2u587_40
  7342  004BA6  0E0A               	movlw	10
  7343  004BA8  5D7A               	subwf	TMR2_ISR@CountCallBack& (0+255),w,b	;volatile
  7344  004BAA  A0D8               	btfss	status,0,c
  7345  004BAC  EFDA  F025         	goto	i2u587_41
  7346  004BB0  EFDC  F025         	goto	i2u587_40
  7347  004BB4                     i2u587_41:
  7348  004BB4  EFE3  F025         	goto	i2l1184
  7349  004BB8                     i2u587_40:
  7350  004BB8                     
  7351                           ; BSR set to: 5
  7352                           ;mcc_generated_files/tmr2.c: 175:     {;mcc_generated_files/tmr2.c: 177:         TMR2_Ca
      +                          llBack();
  7353  004BB8  ECE4  F025         	call	_TMR2_CallBack	;wreg free
  7354  004BBC                     
  7355                           ;mcc_generated_files/tmr2.c: 180:         CountCallBack = 0;
  7356  004BBC  0E00               	movlw	0
  7357  004BBE  0105               	movlb	5	; () banked
  7358  004BC0  6F7B               	movwf	(TMR2_ISR@CountCallBack+1)& (0+255),b	;volatile
  7359  004BC2  0E00               	movlw	0
  7360  004BC4  6F7A               	movwf	TMR2_ISR@CountCallBack& (0+255),b	;volatile
  7361  004BC6                     i2l1184:
  7362                           
  7363                           ; BSR set to: 5
  7364  004BC6  0012               	return		;funcret
  7365  004BC8                     __end_of_TMR2_ISR:
  7366                           	callstack 0
  7367                           
  7368 ;; *************** function _TMR2_CallBack *****************
  7369 ;; Defined at:
  7370 ;;		line 184 in file "mcc_generated_files/tmr2.c"
  7371 ;; Parameters:    Size  Location     Type
  7372 ;;		None
  7373 ;; Auto vars:     Size  Location     Type
  7374 ;;		None
  7375 ;; Return value:  Size  Location     Type
  7376 ;;                  1    wreg      void 
  7377 ;; Registers used:
  7378 ;;		wreg, status,2, status,0, pclath, tosl, cstack
  7379 ;; Tracked objects:
  7380 ;;		On entry : 0/0
  7381 ;;		On exit  : 0/0
  7382 ;;		Unchanged: 0/0
  7383 ;; Data sizes:     COMRAM   BANK5   BANK6   BANK7   BANK8   BANK9  BANK10  BANK11  BANK12  BANK13  BANK14  BANK15  BANK1
      +6  BANK17  BANK18  BANK19  BANK20  BANK21  BANK22  BANK23  BANK24  BANK25  BANK26  BANK27  BANK28  BANK29  BANK30  BANK3
      +1  BANK32  BANK33  BANK34  BANK35  BANK36  BANK37
  7384 ;;      Params:         0       0       0       0       0       0       0       0       0       0       0       0       
      +0       0       0       0       0       0       0       0       0       0       0       0       0       0       0       
      +0       0       0       0       0       0       0
  7385 ;;      Locals:         0       0       0       0       0       0       0       0       0       0       0       0       
      +0       0       0       0       0       0       0       0       0       0       0       0       0       0       0       
      +0       0       0       0       0       0       0
  7386 ;;      Temps:          0       0       0       0       0       0       0       0       0       0       0       0       
      +0       0       0       0       0       0       0       0       0       0       0       0       0       0       0       
      +0       0       0       0       0       0       0
  7387 ;;      Totals:         0       0       0       0       0       0       0       0       0       0       0       0       
      +0       0       0       0       0       0       0       0       0       0       0       0       0       0       0       
      +0       0       0       0       0       0       0
  7388 ;;Total ram usage:        0 bytes
  7389 ;; Hardware stack levels used:    1
  7390 ;; Hardware stack levels required when called:    1
  7391 ;; This function calls:
  7392 ;;		Absolute function
  7393 ;;		_TMR2_DefaultInterruptHandler
  7394 ;; This function is called by:
  7395 ;;		_TMR2_ISR
  7396 ;; This function uses a non-reentrant model
  7397 ;;
  7398                           
  7399                           	psect	text66
  7400  004BC8                     __ptext66:
  7401                           	callstack 0
  7402  004BC8                     _TMR2_CallBack:
  7403                           	callstack 120
  7404  004BC8                     
  7405                           ;mcc_generated_files/tmr2.c: 188:     if(TMR2_InterruptHandler)
  7406  004BC8  0106               	movlb	6	; () banked
  7407  004BCA  5112               	movf	_TMR2_InterruptHandler& (0+255),w,b
  7408  004BCC  1113               	iorwf	(_TMR2_InterruptHandler+1)& (0+255),w,b
  7409  004BCE  B4D8               	btfsc	status,2,c
  7410  004BD0  EFEC  F025         	goto	i2u566_41
  7411  004BD4  EFEE  F025         	goto	i2u566_40
  7412  004BD8                     i2u566_41:
  7413  004BD8  EFFA  F025         	goto	i2l1188
  7414  004BDC                     i2u566_40:
  7415  004BDC                     
  7416                           ; BSR set to: 6
  7417                           ;mcc_generated_files/tmr2.c: 189:     {;mcc_generated_files/tmr2.c: 190:         TMR2_In
      +                          terruptHandler();
  7418  004BDC  D802               	call	i2u567_48
  7419  004BDE  EFFA  F025         	goto	i2u567_49
  7420  004BE2                     i2u567_48:
  7421  004BE2  0005               	push	
  7422  004BE4  6EFA               	movwf	pclath,c
  7423  004BE6  5112               	movf	_TMR2_InterruptHandler& (0+255),w,b
  7424  004BE8  6EFD               	movwf	tosl,c
  7425  004BEA  5113               	movf	(_TMR2_InterruptHandler+1)& (0+255),w,b
  7426  004BEC  6EFE               	movwf	tosh,c
  7427  004BEE  6AFF               	clrf	tosu,c
  7428  004BF0  50FA               	movf	pclath,w,c
  7429  004BF2  0012               	return		;indir
  7430  004BF4                     i2u567_49:
  7431  004BF4                     i2l1188:
  7432  004BF4  0012               	return		;funcret
  7433  004BF6                     __end_of_TMR2_CallBack:
  7434                           	callstack 0
  7435                           
  7436 ;; *************** function _TMR2_DefaultInterruptHandler *****************
  7437 ;; Defined at:
  7438 ;;		line 198 in file "mcc_generated_files/tmr2.c"
  7439 ;; Parameters:    Size  Location     Type
  7440 ;;		None
  7441 ;; Auto vars:     Size  Location     Type
  7442 ;;		None
  7443 ;; Return value:  Size  Location     Type
  7444 ;;                  1    wreg      void 
  7445 ;; Registers used:
  7446 ;;		None
  7447 ;; Tracked objects:
  7448 ;;		On entry : 0/0
  7449 ;;		On exit  : 0/0
  7450 ;;		Unchanged: 0/0
  7451 ;; Data sizes:     COMRAM   BANK5   BANK6   BANK7   BANK8   BANK9  BANK10  BANK11  BANK12  BANK13  BANK14  BANK15  BANK1
      +6  BANK17  BANK18  BANK19  BANK20  BANK21  BANK22  BANK23  BANK24  BANK25  BANK26  BANK27  BANK28  BANK29  BANK30  BANK3
      +1  BANK32  BANK33  BANK34  BANK35  BANK36  BANK37
  7452 ;;      Params:         0       0       0       0       0       0       0       0       0       0       0       0       
      +0       0       0       0       0       0       0       0       0       0       0       0       0       0       0       
      +0       0       0       0       0       0       0
  7453 ;;      Locals:         0       0       0       0       0       0       0       0       0       0       0       0       
      +0       0       0       0       0       0       0       0       0       0       0       0       0       0       0       
      +0       0       0       0       0       0       0
  7454 ;;      Temps:          0       0       0       0       0       0       0       0       0       0       0       0       
      +0       0       0       0       0       0       0       0       0       0       0       0       0       0       0       
      +0       0       0       0       0       0       0
  7455 ;;      Totals:         0       0       0       0       0       0       0       0       0       0       0       0       
      +0       0       0       0       0       0       0       0       0       0       0       0       0       0       0       
      +0       0       0       0       0       0       0
  7456 ;;Total ram usage:        0 bytes
  7457 ;; Hardware stack levels used:    1
  7458 ;; This function calls:
  7459 ;;		Nothing
  7460 ;; This function is called by:
  7461 ;;		_TMR2_Initialize
  7462 ;;		_TMR2_CallBack
  7463 ;; This function uses a non-reentrant model
  7464 ;;
  7465                           
  7466                           	psect	text67
  7467  004EE0                     __ptext67:
  7468                           	callstack 0
  7469  004EE0                     _TMR2_DefaultInterruptHandler:
  7470                           	callstack 120
  7471  004EE0  0012               	return		;funcret
  7472  004EE2                     __end_of_TMR2_DefaultInterruptHandler:
  7473                           	callstack 0
  7474                           
  7475 ;; *************** function _TMR1_ISR *****************
  7476 ;; Defined at:
  7477 ;;		line 164 in file "mcc_generated_files/tmr1.c"
  7478 ;; Parameters:    Size  Location     Type
  7479 ;;		None
  7480 ;; Auto vars:     Size  Location     Type
  7481 ;;		None
  7482 ;; Return value:  Size  Location     Type
  7483 ;;                  1    wreg      void 
  7484 ;; Registers used:
  7485 ;;		wreg, status,2, status,0, pclath, tosl, cstack
  7486 ;; Tracked objects:
  7487 ;;		On entry : 0/0
  7488 ;;		On exit  : 0/0
  7489 ;;		Unchanged: 0/0
  7490 ;; Data sizes:     COMRAM   BANK5   BANK6   BANK7   BANK8   BANK9  BANK10  BANK11  BANK12  BANK13  BANK14  BANK15  BANK1
      +6  BANK17  BANK18  BANK19  BANK20  BANK21  BANK22  BANK23  BANK24  BANK25  BANK26  BANK27  BANK28  BANK29  BANK30  BANK3
      +1  BANK32  BANK33  BANK34  BANK35  BANK36  BANK37
  7491 ;;      Params:         0       0       0       0       0       0       0       0       0       0       0       0       
      +0       0       0       0       0       0       0       0       0       0       0       0       0       0       0       
      +0       0       0       0       0       0       0
  7492 ;;      Locals:         0       0       0       0       0       0       0       0       0       0       0       0       
      +0       0       0       0       0       0       0       0       0       0       0       0       0       0       0       
      +0       0       0       0       0       0       0
  7493 ;;      Temps:          0       0       0       0       0       0       0       0       0       0       0       0       
      +0       0       0       0       0       0       0       0       0       0       0       0       0       0       0       
      +0       0       0       0       0       0       0
  7494 ;;      Totals:         0       0       0       0       0       0       0       0       0       0       0       0       
      +0       0       0       0       0       0       0       0       0       0       0       0       0       0       0       
      +0       0       0       0       0       0       0
  7495 ;;Total ram usage:        0 bytes
  7496 ;; Hardware stack levels used:    1
  7497 ;; Hardware stack levels required when called:    2
  7498 ;; This function calls:
  7499 ;;		_TMR1_CallBack
  7500 ;;		_TMR1_WriteTimer
  7501 ;; This function is called by:
  7502 ;;		_INTERRUPT_InterruptManager
  7503 ;; This function uses a non-reentrant model
  7504 ;;
  7505                           
  7506                           	psect	text68
  7507  004D66                     __ptext68:
  7508                           	callstack 0
  7509  004D66                     _TMR1_ISR:
  7510                           	callstack 120
  7511  004D66                     
  7512                           ;mcc_generated_files/tmr1.c: 168:     PIR3bits.TMR1IF = 0;
  7513  004D66  98B1               	bcf	177,4,c	;volatile
  7514  004D68                     
  7515                           ;mcc_generated_files/tmr1.c: 169:     TMR1_WriteTimer(timer1ReloadVal);
  7516  004D68  C5EC  F501         	movff	_timer1ReloadVal,TMR1_WriteTimer@timerVal	;volatile
  7517  004D6C  C5ED  F502         	movff	_timer1ReloadVal+1,TMR1_WriteTimer@timerVal+1	;volatile
  7518  004D70  ECFB  F025         	call	_TMR1_WriteTimer	;wreg free
  7519  004D74                     
  7520                           ;mcc_generated_files/tmr1.c: 173:     TMR1_CallBack();
  7521  004D74  EC12  F026         	call	_TMR1_CallBack	;wreg free
  7522  004D78  0012               	return		;funcret
  7523  004D7A                     __end_of_TMR1_ISR:
  7524                           	callstack 0
  7525                           
  7526 ;; *************** function _TMR1_WriteTimer *****************
  7527 ;; Defined at:
  7528 ;;		line 127 in file "mcc_generated_files/tmr1.c"
  7529 ;; Parameters:    Size  Location     Type
  7530 ;;  timerVal        2    0[COMRAM] unsigned short 
  7531 ;; Auto vars:     Size  Location     Type
  7532 ;;		None
  7533 ;; Return value:  Size  Location     Type
  7534 ;;                  1    wreg      void 
  7535 ;; Registers used:
  7536 ;;		wreg, status,2
  7537 ;; Tracked objects:
  7538 ;;		On entry : 0/0
  7539 ;;		On exit  : 0/0
  7540 ;;		Unchanged: 0/0
  7541 ;; Data sizes:     COMRAM   BANK5   BANK6   BANK7   BANK8   BANK9  BANK10  BANK11  BANK12  BANK13  BANK14  BANK15  BANK1
      +6  BANK17  BANK18  BANK19  BANK20  BANK21  BANK22  BANK23  BANK24  BANK25  BANK26  BANK27  BANK28  BANK29  BANK30  BANK3
      +1  BANK32  BANK33  BANK34  BANK35  BANK36  BANK37
  7542 ;;      Params:         2       0       0       0       0       0       0       0       0       0       0       0       
      +0       0       0       0       0       0       0       0       0       0       0       0       0       0       0       
      +0       0       0       0       0       0       0
  7543 ;;      Locals:         0       0       0       0       0       0       0       0       0       0       0       0       
      +0       0       0       0       0       0       0       0       0       0       0       0       0       0       0       
      +0       0       0       0       0       0       0
  7544 ;;      Temps:          0       0       0       0       0       0       0       0       0       0       0       0       
      +0       0       0       0       0       0       0       0       0       0       0       0       0       0       0       
      +0       0       0       0       0       0       0
  7545 ;;      Totals:         2       0       0       0       0       0       0       0       0       0       0       0       
      +0       0       0       0       0       0       0       0       0       0       0       0       0       0       0       
      +0       0       0       0       0       0       0
  7546 ;;Total ram usage:        2 bytes
  7547 ;; Hardware stack levels used:    1
  7548 ;; This function calls:
  7549 ;;		Nothing
  7550 ;; This function is called by:
  7551 ;;		_TMR1_ISR
  7552 ;;		_TMR1_Reload
  7553 ;; This function uses a non-reentrant model
  7554 ;;
  7555                           
  7556                           	psect	text69
  7557  004BF6                     __ptext69:
  7558                           	callstack 0
  7559  004BF6                     _TMR1_WriteTimer:
  7560                           	callstack 121
  7561  004BF6                     
  7562                           ;mcc_generated_files/tmr1.c: 127: void TMR1_WriteTimer(uint16_t timerVal);mcc_generated_
      +                          files/tmr1.c: 128: {;mcc_generated_files/tmr1.c: 129:     if (T1CONbits.NOT_SYNC == 1)
  7563  004BF6  0103               	movlb	3	; () banked
  7564  004BF8  A51E               	btfss	30,2,b	;volatile
  7565  004BFA  EF01  F026         	goto	i2u563_41
  7566  004BFE  EF03  F026         	goto	i2u563_40
  7567  004C02                     i2u563_41:
  7568  004C02  EF0C  F026         	goto	i2l6087
  7569  004C06                     i2u563_40:
  7570  004C06                     
  7571                           ; BSR set to: 3
  7572                           ;mcc_generated_files/tmr1.c: 130:     {;mcc_generated_files/tmr1.c: 132:         T1CONbi
      +                          ts.TMR1ON = 0;
  7573  004C06  911E               	bcf	30,0,b	;volatile
  7574  004C08                     
  7575                           ; BSR set to: 3
  7576                           ;mcc_generated_files/tmr1.c: 135:         TMR1H = (uint8_t)(timerVal >> 8);
  7577  004C08  5002               	movf	(TMR1_WriteTimer@timerVal+1)^(0+1280),w,c
  7578  004C0A  6F1D               	movwf	29,b	;volatile
  7579  004C0C                     
  7580                           ; BSR set to: 3
  7581                           ;mcc_generated_files/tmr1.c: 136:         TMR1L = (uint8_t)timerVal;
  7582  004C0C  0061  F404  F31C   	movff	TMR1_WriteTimer@timerVal,796	;volatile
  7583  004C12                     
  7584                           ; BSR set to: 3
  7585                           ;mcc_generated_files/tmr1.c: 139:         T1CONbits.TMR1ON =1;
  7586  004C12  811E               	bsf	30,0,b	;volatile
  7587                           
  7588                           ;mcc_generated_files/tmr1.c: 140:     }
  7589  004C14  EF11  F026         	goto	i2l1083
  7590  004C18                     i2l6087:
  7591                           
  7592                           ; BSR set to: 3
  7593                           ;mcc_generated_files/tmr1.c: 142:     {;mcc_generated_files/tmr1.c: 144:         TMR1H =
      +                           (uint8_t)(timerVal >> 8);
  7594  004C18  5002               	movf	(TMR1_WriteTimer@timerVal+1)^(0+1280),w,c
  7595  004C1A  6F1D               	movwf	29,b	;volatile
  7596  004C1C                     
  7597                           ; BSR set to: 3
  7598                           ;mcc_generated_files/tmr1.c: 145:         TMR1L = (uint8_t)timerVal;
  7599  004C1C  0061  F404  F31C   	movff	TMR1_WriteTimer@timerVal,796	;volatile
  7600  004C22                     i2l1083:
  7601                           
  7602                           ; BSR set to: 3
  7603  004C22  0012               	return		;funcret
  7604  004C24                     __end_of_TMR1_WriteTimer:
  7605                           	callstack 0
  7606                           
  7607 ;; *************** function _TMR1_CallBack *****************
  7608 ;; Defined at:
  7609 ;;		line 176 in file "mcc_generated_files/tmr1.c"
  7610 ;; Parameters:    Size  Location     Type
  7611 ;;		None
  7612 ;; Auto vars:     Size  Location     Type
  7613 ;;		None
  7614 ;; Return value:  Size  Location     Type
  7615 ;;                  1    wreg      void 
  7616 ;; Registers used:
  7617 ;;		wreg, status,2, status,0, pclath, tosl, cstack
  7618 ;; Tracked objects:
  7619 ;;		On entry : 0/0
  7620 ;;		On exit  : 0/0
  7621 ;;		Unchanged: 0/0
  7622 ;; Data sizes:     COMRAM   BANK5   BANK6   BANK7   BANK8   BANK9  BANK10  BANK11  BANK12  BANK13  BANK14  BANK15  BANK1
      +6  BANK17  BANK18  BANK19  BANK20  BANK21  BANK22  BANK23  BANK24  BANK25  BANK26  BANK27  BANK28  BANK29  BANK30  BANK3
      +1  BANK32  BANK33  BANK34  BANK35  BANK36  BANK37
  7623 ;;      Params:         0       0       0       0       0       0       0       0       0       0       0       0       
      +0       0       0       0       0       0       0       0       0       0       0       0       0       0       0       
      +0       0       0       0       0       0       0
  7624 ;;      Locals:         0       0       0       0       0       0       0       0       0       0       0       0       
      +0       0       0       0       0       0       0       0       0       0       0       0       0       0       0       
      +0       0       0       0       0       0       0
  7625 ;;      Temps:          0       0       0       0       0       0       0       0       0       0       0       0       
      +0       0       0       0       0       0       0       0       0       0       0       0       0       0       0       
      +0       0       0       0       0       0       0
  7626 ;;      Totals:         0       0       0       0       0       0       0       0       0       0       0       0       
      +0       0       0       0       0       0       0       0       0       0       0       0       0       0       0       
      +0       0       0       0       0       0       0
  7627 ;;Total ram usage:        0 bytes
  7628 ;; Hardware stack levels used:    1
  7629 ;; Hardware stack levels required when called:    1
  7630 ;; This function calls:
  7631 ;;		Absolute function
  7632 ;;		_TMR1_DefaultInterruptHandler
  7633 ;; This function is called by:
  7634 ;;		_TMR1_ISR
  7635 ;; This function uses a non-reentrant model
  7636 ;;
  7637                           
  7638                           	psect	text70
  7639  004C24                     __ptext70:
  7640                           	callstack 0
  7641  004C24                     _TMR1_CallBack:
  7642                           	callstack 120
  7643  004C24                     
  7644                           ;mcc_generated_files/tmr1.c: 179:     if(TMR1_InterruptHandler)
  7645  004C24  0106               	movlb	6	; () banked
  7646  004C26  5114               	movf	_TMR1_InterruptHandler& (0+255),w,b
  7647  004C28  1115               	iorwf	(_TMR1_InterruptHandler+1)& (0+255),w,b
  7648  004C2A  B4D8               	btfsc	status,2,c
  7649  004C2C  EF1A  F026         	goto	i2u564_41
  7650  004C30  EF1C  F026         	goto	i2u564_40
  7651  004C34                     i2u564_41:
  7652  004C34  EF28  F026         	goto	i2l1099
  7653  004C38                     i2u564_40:
  7654  004C38                     
  7655                           ; BSR set to: 6
  7656                           ;mcc_generated_files/tmr1.c: 180:     {;mcc_generated_files/tmr1.c: 181:         TMR1_In
      +                          terruptHandler();
  7657  004C38  D802               	call	i2u565_48
  7658  004C3A  EF28  F026         	goto	i2u565_49
  7659  004C3E                     i2u565_48:
  7660  004C3E  0005               	push	
  7661  004C40  6EFA               	movwf	pclath,c
  7662  004C42  5114               	movf	_TMR1_InterruptHandler& (0+255),w,b
  7663  004C44  6EFD               	movwf	tosl,c
  7664  004C46  5115               	movf	(_TMR1_InterruptHandler+1)& (0+255),w,b
  7665  004C48  6EFE               	movwf	tosh,c
  7666  004C4A  6AFF               	clrf	tosu,c
  7667  004C4C  50FA               	movf	pclath,w,c
  7668  004C4E  0012               	return		;indir
  7669  004C50                     i2u565_49:
  7670  004C50                     i2l1099:
  7671  004C50  0012               	return		;funcret
  7672  004C52                     __end_of_TMR1_CallBack:
  7673                           	callstack 0
  7674                           
  7675 ;; *************** function _TMR1_DefaultInterruptHandler *****************
  7676 ;; Defined at:
  7677 ;;		line 189 in file "mcc_generated_files/tmr1.c"
  7678 ;; Parameters:    Size  Location     Type
  7679 ;;		None
  7680 ;; Auto vars:     Size  Location     Type
  7681 ;;		None
  7682 ;; Return value:  Size  Location     Type
  7683 ;;                  1    wreg      void 
  7684 ;; Registers used:
  7685 ;;		None
  7686 ;; Tracked objects:
  7687 ;;		On entry : 0/0
  7688 ;;		On exit  : 0/0
  7689 ;;		Unchanged: 0/0
  7690 ;; Data sizes:     COMRAM   BANK5   BANK6   BANK7   BANK8   BANK9  BANK10  BANK11  BANK12  BANK13  BANK14  BANK15  BANK1
      +6  BANK17  BANK18  BANK19  BANK20  BANK21  BANK22  BANK23  BANK24  BANK25  BANK26  BANK27  BANK28  BANK29  BANK30  BANK3
      +1  BANK32  BANK33  BANK34  BANK35  BANK36  BANK37
  7691 ;;      Params:         0       0       0       0       0       0       0       0       0       0       0       0       
      +0       0       0       0       0       0       0       0       0       0       0       0       0       0       0       
      +0       0       0       0       0       0       0
  7692 ;;      Locals:         0       0       0       0       0       0       0       0       0       0       0       0       
      +0       0       0       0       0       0       0       0       0       0       0       0       0       0       0       
      +0       0       0       0       0       0       0
  7693 ;;      Temps:          0       0       0       0       0       0       0       0       0       0       0       0       
      +0       0       0       0       0       0       0       0       0       0       0       0       0       0       0       
      +0       0       0       0       0       0       0
  7694 ;;      Totals:         0       0       0       0       0       0       0       0       0       0       0       0       
      +0       0       0       0       0       0       0       0       0       0       0       0       0       0       0       
      +0       0       0       0       0       0       0
  7695 ;;Total ram usage:        0 bytes
  7696 ;; Hardware stack levels used:    1
  7697 ;; This function calls:
  7698 ;;		Nothing
  7699 ;; This function is called by:
  7700 ;;		_TMR1_Initialize
  7701 ;;		_TMR1_CallBack
  7702 ;; This function uses a non-reentrant model
  7703 ;;
  7704                           
  7705                           	psect	text71
  7706  004EE2                     __ptext71:
  7707                           	callstack 0
  7708  004EE2                     _TMR1_DefaultInterruptHandler:
  7709                           	callstack 120
  7710  004EE2  0012               	return		;funcret
  7711  004EE4                     __end_of_TMR1_DefaultInterruptHandler:
  7712                           	callstack 0
  7713                           
  7714 ;; *************** function _TMR0_ISR *****************
  7715 ;; Defined at:
  7716 ;;		line 121 in file "mcc_generated_files/tmr0.c"
  7717 ;; Parameters:    Size  Location     Type
  7718 ;;		None
  7719 ;; Auto vars:     Size  Location     Type
  7720 ;;		None
  7721 ;; Return value:  Size  Location     Type
  7722 ;;                  1    wreg      void 
  7723 ;; Registers used:
  7724 ;;		wreg, status,2, status,0, pclath, tosl, cstack
  7725 ;; Tracked objects:
  7726 ;;		On entry : 0/0
  7727 ;;		On exit  : 0/0
  7728 ;;		Unchanged: 0/0
  7729 ;; Data sizes:     COMRAM   BANK5   BANK6   BANK7   BANK8   BANK9  BANK10  BANK11  BANK12  BANK13  BANK14  BANK15  BANK1
      +6  BANK17  BANK18  BANK19  BANK20  BANK21  BANK22  BANK23  BANK24  BANK25  BANK26  BANK27  BANK28  BANK29  BANK30  BANK3
      +1  BANK32  BANK33  BANK34  BANK35  BANK36  BANK37
  7730 ;;      Params:         0       0       0       0       0       0       0       0       0       0       0       0       
      +0       0       0       0       0       0       0       0       0       0       0       0       0       0       0       
      +0       0       0       0       0       0       0
  7731 ;;      Locals:         0       0       0       0       0       0       0       0       0       0       0       0       
      +0       0       0       0       0       0       0       0       0       0       0       0       0       0       0       
      +0       0       0       0       0       0       0
  7732 ;;      Temps:          0       0       0       0       0       0       0       0       0       0       0       0       
      +0       0       0       0       0       0       0       0       0       0       0       0       0       0       0       
      +0       0       0       0       0       0       0
  7733 ;;      Totals:         0       0       0       0       0       0       0       0       0       0       0       0       
      +0       0       0       0       0       0       0       0       0       0       0       0       0       0       0       
      +0       0       0       0       0       0       0
  7734 ;;Total ram usage:        0 bytes
  7735 ;; Hardware stack levels used:    1
  7736 ;; Hardware stack levels required when called:    2
  7737 ;; This function calls:
  7738 ;;		_TMR0_CallBack
  7739 ;; This function is called by:
  7740 ;;		_INTERRUPT_InterruptManager
  7741 ;; This function uses a non-reentrant model
  7742 ;;
  7743                           
  7744                           	psect	text72
  7745  004EAC                     __ptext72:
  7746                           	callstack 0
  7747  004EAC                     _TMR0_ISR:
  7748                           	callstack 120
  7749  004EAC                     
  7750                           ;mcc_generated_files/tmr0.c: 124:     PIR3bits.TMR0IF = 0;
  7751  004EAC  9EB1               	bcf	177,7,c	;volatile
  7752  004EAE                     
  7753                           ;mcc_generated_files/tmr0.c: 127:     TMR0_CallBack();
  7754  004EAE  EC29  F026         	call	_TMR0_CallBack	;wreg free
  7755  004EB2  0012               	return		;funcret
  7756  004EB4                     __end_of_TMR0_ISR:
  7757                           	callstack 0
  7758                           
  7759 ;; *************** function _TMR0_CallBack *****************
  7760 ;; Defined at:
  7761 ;;		line 132 in file "mcc_generated_files/tmr0.c"
  7762 ;; Parameters:    Size  Location     Type
  7763 ;;		None
  7764 ;; Auto vars:     Size  Location     Type
  7765 ;;		None
  7766 ;; Return value:  Size  Location     Type
  7767 ;;                  1    wreg      void 
  7768 ;; Registers used:
  7769 ;;		wreg, status,2, status,0, pclath, tosl, cstack
  7770 ;; Tracked objects:
  7771 ;;		On entry : 0/0
  7772 ;;		On exit  : 0/0
  7773 ;;		Unchanged: 0/0
  7774 ;; Data sizes:     COMRAM   BANK5   BANK6   BANK7   BANK8   BANK9  BANK10  BANK11  BANK12  BANK13  BANK14  BANK15  BANK1
      +6  BANK17  BANK18  BANK19  BANK20  BANK21  BANK22  BANK23  BANK24  BANK25  BANK26  BANK27  BANK28  BANK29  BANK30  BANK3
      +1  BANK32  BANK33  BANK34  BANK35  BANK36  BANK37
  7775 ;;      Params:         0       0       0       0       0       0       0       0       0       0       0       0       
      +0       0       0       0       0       0       0       0       0       0       0       0       0       0       0       
      +0       0       0       0       0       0       0
  7776 ;;      Locals:         0       0       0       0       0       0       0       0       0       0       0       0       
      +0       0       0       0       0       0       0       0       0       0       0       0       0       0       0       
      +0       0       0       0       0       0       0
  7777 ;;      Temps:          0       0       0       0       0       0       0       0       0       0       0       0       
      +0       0       0       0       0       0       0       0       0       0       0       0       0       0       0       
      +0       0       0       0       0       0       0
  7778 ;;      Totals:         0       0       0       0       0       0       0       0       0       0       0       0       
      +0       0       0       0       0       0       0       0       0       0       0       0       0       0       0       
      +0       0       0       0       0       0       0
  7779 ;;Total ram usage:        0 bytes
  7780 ;; Hardware stack levels used:    1
  7781 ;; Hardware stack levels required when called:    1
  7782 ;; This function calls:
  7783 ;;		Absolute function
  7784 ;;		_TMR0_DefaultInterruptHandler
  7785 ;; This function is called by:
  7786 ;;		_TMR0_ISR
  7787 ;; This function uses a non-reentrant model
  7788 ;;
  7789                           
  7790                           	psect	text73
  7791  004C52                     __ptext73:
  7792                           	callstack 0
  7793  004C52                     _TMR0_CallBack:
  7794                           	callstack 120
  7795  004C52                     
  7796                           ;mcc_generated_files/tmr0.c: 136:     if(TMR0_InterruptHandler)
  7797  004C52  0106               	movlb	6	; () banked
  7798  004C54  5110               	movf	_TMR0_InterruptHandler& (0+255),w,b
  7799  004C56  1111               	iorwf	(_TMR0_InterruptHandler+1)& (0+255),w,b
  7800  004C58  B4D8               	btfsc	status,2,c
  7801  004C5A  EF31  F026         	goto	i2u568_41
  7802  004C5E  EF33  F026         	goto	i2u568_40
  7803  004C62                     i2u568_41:
  7804  004C62  EF3F  F026         	goto	i2l1241
  7805  004C66                     i2u568_40:
  7806  004C66                     
  7807                           ; BSR set to: 6
  7808                           ;mcc_generated_files/tmr0.c: 137:     {;mcc_generated_files/tmr0.c: 138:         TMR0_In
      +                          terruptHandler();
  7809  004C66  D802               	call	i2u569_48
  7810  004C68  EF3F  F026         	goto	i2u569_49
  7811  004C6C                     i2u569_48:
  7812  004C6C  0005               	push	
  7813  004C6E  6EFA               	movwf	pclath,c
  7814  004C70  5110               	movf	_TMR0_InterruptHandler& (0+255),w,b
  7815  004C72  6EFD               	movwf	tosl,c
  7816  004C74  5111               	movf	(_TMR0_InterruptHandler+1)& (0+255),w,b
  7817  004C76  6EFE               	movwf	tosh,c
  7818  004C78  6AFF               	clrf	tosu,c
  7819  004C7A  50FA               	movf	pclath,w,c
  7820  004C7C  0012               	return		;indir
  7821  004C7E                     i2u569_49:
  7822  004C7E                     i2l1241:
  7823  004C7E  0012               	return		;funcret
  7824  004C80                     __end_of_TMR0_CallBack:
  7825                           	callstack 0
  7826                           
  7827 ;; *************** function _TMR0_DefaultInterruptHandler *****************
  7828 ;; Defined at:
  7829 ;;		line 146 in file "mcc_generated_files/tmr0.c"
  7830 ;; Parameters:    Size  Location     Type
  7831 ;;		None
  7832 ;; Auto vars:     Size  Location     Type
  7833 ;;		None
  7834 ;; Return value:  Size  Location     Type
  7835 ;;                  1    wreg      void 
  7836 ;; Registers used:
  7837 ;;		None
  7838 ;; Tracked objects:
  7839 ;;		On entry : 0/0
  7840 ;;		On exit  : 0/0
  7841 ;;		Unchanged: 0/0
  7842 ;; Data sizes:     COMRAM   BANK5   BANK6   BANK7   BANK8   BANK9  BANK10  BANK11  BANK12  BANK13  BANK14  BANK15  BANK1
      +6  BANK17  BANK18  BANK19  BANK20  BANK21  BANK22  BANK23  BANK24  BANK25  BANK26  BANK27  BANK28  BANK29  BANK30  BANK3
      +1  BANK32  BANK33  BANK34  BANK35  BANK36  BANK37
  7843 ;;      Params:         0       0       0       0       0       0       0       0       0       0       0       0       
      +0       0       0       0       0       0       0       0       0       0       0       0       0       0       0       
      +0       0       0       0       0       0       0
  7844 ;;      Locals:         0       0       0       0       0       0       0       0       0       0       0       0       
      +0       0       0       0       0       0       0       0       0       0       0       0       0       0       0       
      +0       0       0       0       0       0       0
  7845 ;;      Temps:          0       0       0       0       0       0       0       0       0       0       0       0       
      +0       0       0       0       0       0       0       0       0       0       0       0       0       0       0       
      +0       0       0       0       0       0       0
  7846 ;;      Totals:         0       0       0       0       0       0       0       0       0       0       0       0       
      +0       0       0       0       0       0       0       0       0       0       0       0       0       0       0       
      +0       0       0       0       0       0       0
  7847 ;;Total ram usage:        0 bytes
  7848 ;; Hardware stack levels used:    1
  7849 ;; This function calls:
  7850 ;;		Nothing
  7851 ;; This function is called by:
  7852 ;;		_TMR0_Initialize
  7853 ;;		_TMR0_CallBack
  7854 ;; This function uses a non-reentrant model
  7855 ;;
  7856                           
  7857                           	psect	text74
  7858  004EE4                     __ptext74:
  7859                           	callstack 0
  7860  004EE4                     _TMR0_DefaultInterruptHandler:
  7861                           	callstack 120
  7862  004EE4  0012               	return		;funcret
  7863  004EE6                     __end_of_TMR0_DefaultInterruptHandler:
  7864                           	callstack 0
  7865                           
  7866 ;; *************** function _INT0_ISR *****************
  7867 ;; Defined at:
  7868 ;;		line 33 in file "mcc_generated_files/ext_int.c"
  7869 ;; Parameters:    Size  Location     Type
  7870 ;;		None
  7871 ;; Auto vars:     Size  Location     Type
  7872 ;;		None
  7873 ;; Return value:  Size  Location     Type
  7874 ;;                  1    wreg      void 
  7875 ;; Registers used:
  7876 ;;		wreg, status,2, status,0, pclath, tosl, prodl, prodh, cstack
  7877 ;; Tracked objects:
  7878 ;;		On entry : 0/0
  7879 ;;		On exit  : 0/0
  7880 ;;		Unchanged: 0/0
  7881 ;; Data sizes:     COMRAM   BANK5   BANK6   BANK7   BANK8   BANK9  BANK10  BANK11  BANK12  BANK13  BANK14  BANK15  BANK1
      +6  BANK17  BANK18  BANK19  BANK20  BANK21  BANK22  BANK23  BANK24  BANK25  BANK26  BANK27  BANK28  BANK29  BANK30  BANK3
      +1  BANK32  BANK33  BANK34  BANK35  BANK36  BANK37
  7882 ;;      Params:         0       0       0       0       0       0       0       0       0       0       0       0       
      +0       0       0       0       0       0       0       0       0       0       0       0       0       0       0       
      +0       0       0       0       0       0       0
  7883 ;;      Locals:         0       0       0       0       0       0       0       0       0       0       0       0       
      +0       0       0       0       0       0       0       0       0       0       0       0       0       0       0       
      +0       0       0       0       0       0       0
  7884 ;;      Temps:          0       0       0       0       0       0       0       0       0       0       0       0       
      +0       0       0       0       0       0       0       0       0       0       0       0       0       0       0       
      +0       0       0       0       0       0       0
  7885 ;;      Totals:         0       0       0       0       0       0       0       0       0       0       0       0       
      +0       0       0       0       0       0       0       0       0       0       0       0       0       0       0       
      +0       0       0       0       0       0       0
  7886 ;;Total ram usage:        0 bytes
  7887 ;; Hardware stack levels used:    1
  7888 ;; Hardware stack levels required when called:    4
  7889 ;; This function calls:
  7890 ;;		_INT0_CallBack
  7891 ;; This function is called by:
  7892 ;;		_INTERRUPT_InterruptManager
  7893 ;; This function uses a non-reentrant model
  7894 ;;
  7895                           
  7896                           	psect	text75
  7897  004EB4                     __ptext75:
  7898                           	callstack 0
  7899  004EB4                     _INT0_ISR:
  7900                           	callstack 118
  7901  004EB4                     
  7902                           ;mcc_generated_files/ext_int.c: 35:     (PIR1bits.INT0IF = 0);
  7903  004EB4  90AF               	bcf	175,0,c	;volatile
  7904  004EB6                     
  7905                           ;mcc_generated_files/ext_int.c: 38:     INT0_CallBack();
  7906  004EB6  EC53  F025         	call	_INT0_CallBack	;wreg free
  7907  004EBA  0012               	return		;funcret
  7908  004EBC                     __end_of_INT0_ISR:
  7909                           	callstack 0
  7910                           
  7911 ;; *************** function _INT0_CallBack *****************
  7912 ;; Defined at:
  7913 ;;		line 42 in file "mcc_generated_files/ext_int.c"
  7914 ;; Parameters:    Size  Location     Type
  7915 ;;		None
  7916 ;; Auto vars:     Size  Location     Type
  7917 ;;		None
  7918 ;; Return value:  Size  Location     Type
  7919 ;;                  1    wreg      void 
  7920 ;; Registers used:
  7921 ;;		wreg, status,2, status,0, pclath, tosl, prodl, prodh, cstack
  7922 ;; Tracked objects:
  7923 ;;		On entry : 0/0
  7924 ;;		On exit  : 0/0
  7925 ;;		Unchanged: 0/0
  7926 ;; Data sizes:     COMRAM   BANK5   BANK6   BANK7   BANK8   BANK9  BANK10  BANK11  BANK12  BANK13  BANK14  BANK15  BANK1
      +6  BANK17  BANK18  BANK19  BANK20  BANK21  BANK22  BANK23  BANK24  BANK25  BANK26  BANK27  BANK28  BANK29  BANK30  BANK3
      +1  BANK32  BANK33  BANK34  BANK35  BANK36  BANK37
  7927 ;;      Params:         0       0       0       0       0       0       0       0       0       0       0       0       
      +0       0       0       0       0       0       0       0       0       0       0       0       0       0       0       
      +0       0       0       0       0       0       0
  7928 ;;      Locals:         0       0       0       0       0       0       0       0       0       0       0       0       
      +0       0       0       0       0       0       0       0       0       0       0       0       0       0       0       
      +0       0       0       0       0       0       0
  7929 ;;      Temps:          0       0       0       0       0       0       0       0       0       0       0       0       
      +0       0       0       0       0       0       0       0       0       0       0       0       0       0       0       
      +0       0       0       0       0       0       0
  7930 ;;      Totals:         0       0       0       0       0       0       0       0       0       0       0       0       
      +0       0       0       0       0       0       0       0       0       0       0       0       0       0       0       
      +0       0       0       0       0       0       0
  7931 ;;Total ram usage:        0 bytes
  7932 ;; Hardware stack levels used:    1
  7933 ;; Hardware stack levels required when called:    3
  7934 ;; This function calls:
  7935 ;;		Absolute function
  7936 ;;		_GPIO_BrakePedalAtRest
  7937 ;;		_INT0_DefaultInterruptHandler
  7938 ;; This function is called by:
  7939 ;;		_INT0_ISR
  7940 ;; This function uses a non-reentrant model
  7941 ;;
  7942                           
  7943                           	psect	text76
  7944  004AA6                     __ptext76:
  7945                           	callstack 0
  7946  004AA6                     _INT0_CallBack:
  7947                           	callstack 118
  7948  004AA6                     
  7949                           ;mcc_generated_files/ext_int.c: 46:     GPIO_BrakePedalAtRest();
  7950  004AA6  EC6C  F025         	call	_GPIO_BrakePedalAtRest	;wreg free
  7951  004AAA                     
  7952                           ;mcc_generated_files/ext_int.c: 47:     if(INT0_InterruptHandler)
  7953  004AAA  0105               	movlb	5	; () banked
  7954  004AAC  51FC               	movf	_INT0_InterruptHandler& (0+255),w,b
  7955  004AAE  11FD               	iorwf	(_INT0_InterruptHandler+1)& (0+255),w,b
  7956  004AB0  B4D8               	btfsc	status,2,c
  7957  004AB2  EF5D  F025         	goto	i2u541_41
  7958  004AB6  EF5F  F025         	goto	i2u541_40
  7959  004ABA                     i2u541_41:
  7960  004ABA  EF6B  F025         	goto	i2l36
  7961  004ABE                     i2u541_40:
  7962  004ABE                     
  7963                           ; BSR set to: 5
  7964                           ;mcc_generated_files/ext_int.c: 48:     {;mcc_generated_files/ext_int.c: 49:         INT
      +                          0_InterruptHandler();
  7965  004ABE  D802               	call	i2u542_48
  7966  004AC0  EF6B  F025         	goto	i2u542_49
  7967  004AC4                     i2u542_48:
  7968  004AC4  0005               	push	
  7969  004AC6  6EFA               	movwf	pclath,c
  7970  004AC8  51FC               	movf	_INT0_InterruptHandler& (0+255),w,b
  7971  004ACA  6EFD               	movwf	tosl,c
  7972  004ACC  51FD               	movf	(_INT0_InterruptHandler+1)& (0+255),w,b
  7973  004ACE  6EFE               	movwf	tosh,c
  7974  004AD0  6AFF               	clrf	tosu,c
  7975  004AD2  50FA               	movf	pclath,w,c
  7976  004AD4  0012               	return		;indir
  7977  004AD6                     i2u542_49:
  7978  004AD6                     i2l36:
  7979  004AD6  0012               	return		;funcret
  7980  004AD8                     __end_of_INT0_CallBack:
  7981                           	callstack 0
  7982                           
  7983 ;; *************** function _INT0_DefaultInterruptHandler *****************
  7984 ;; Defined at:
  7985 ;;		line 57 in file "mcc_generated_files/ext_int.c"
  7986 ;; Parameters:    Size  Location     Type
  7987 ;;		None
  7988 ;; Auto vars:     Size  Location     Type
  7989 ;;		None
  7990 ;; Return value:  Size  Location     Type
  7991 ;;                  1    wreg      void 
  7992 ;; Registers used:
  7993 ;;		None
  7994 ;; Tracked objects:
  7995 ;;		On entry : 0/0
  7996 ;;		On exit  : 0/0
  7997 ;;		Unchanged: 0/0
  7998 ;; Data sizes:     COMRAM   BANK5   BANK6   BANK7   BANK8   BANK9  BANK10  BANK11  BANK12  BANK13  BANK14  BANK15  BANK1
      +6  BANK17  BANK18  BANK19  BANK20  BANK21  BANK22  BANK23  BANK24  BANK25  BANK26  BANK27  BANK28  BANK29  BANK30  BANK3
      +1  BANK32  BANK33  BANK34  BANK35  BANK36  BANK37
  7999 ;;      Params:         0       0       0       0       0       0       0       0       0       0       0       0       
      +0       0       0       0       0       0       0       0       0       0       0       0       0       0       0       
      +0       0       0       0       0       0       0
  8000 ;;      Locals:         0       0       0       0       0       0       0       0       0       0       0       0       
      +0       0       0       0       0       0       0       0       0       0       0       0       0       0       0       
      +0       0       0       0       0       0       0
  8001 ;;      Temps:          0       0       0       0       0       0       0       0       0       0       0       0       
      +0       0       0       0       0       0       0       0       0       0       0       0       0       0       0       
      +0       0       0       0       0       0       0
  8002 ;;      Totals:         0       0       0       0       0       0       0       0       0       0       0       0       
      +0       0       0       0       0       0       0       0       0       0       0       0       0       0       0       
      +0       0       0       0       0       0       0
  8003 ;;Total ram usage:        0 bytes
  8004 ;; Hardware stack levels used:    1
  8005 ;; This function calls:
  8006 ;;		Nothing
  8007 ;; This function is called by:
  8008 ;;		_EXT_INT_Initialize
  8009 ;;		_INT0_CallBack
  8010 ;; This function uses a non-reentrant model
  8011 ;;
  8012                           
  8013                           	psect	text77
  8014  004EE6                     __ptext77:
  8015                           	callstack 0
  8016  004EE6                     _INT0_DefaultInterruptHandler:
  8017                           	callstack 120
  8018  004EE6  0012               	return		;funcret
  8019  004EE8                     __end_of_INT0_DefaultInterruptHandler:
  8020                           	callstack 0
  8021                           
  8022 ;; *************** function _GPIO_BrakePedalAtRest *****************
  8023 ;; Defined at:
  8024 ;;		line 88 in file "GPIO.c"
  8025 ;; Parameters:    Size  Location     Type
  8026 ;;		None
  8027 ;; Auto vars:     Size  Location     Type
  8028 ;;		None
  8029 ;; Return value:  Size  Location     Type
  8030 ;;                  1    wreg      void 
  8031 ;; Registers used:
  8032 ;;		wreg, status,2, status,0, prodl, prodh, cstack
  8033 ;; Tracked objects:
  8034 ;;		On entry : 0/0
  8035 ;;		On exit  : 0/0
  8036 ;;		Unchanged: 0/0
  8037 ;; Data sizes:     COMRAM   BANK5   BANK6   BANK7   BANK8   BANK9  BANK10  BANK11  BANK12  BANK13  BANK14  BANK15  BANK1
      +6  BANK17  BANK18  BANK19  BANK20  BANK21  BANK22  BANK23  BANK24  BANK25  BANK26  BANK27  BANK28  BANK29  BANK30  BANK3
      +1  BANK32  BANK33  BANK34  BANK35  BANK36  BANK37
  8038 ;;      Params:         0       0       0       0       0       0       0       0       0       0       0       0       
      +0       0       0       0       0       0       0       0       0       0       0       0       0       0       0       
      +0       0       0       0       0       0       0
  8039 ;;      Locals:         0       0       0       0       0       0       0       0       0       0       0       0       
      +0       0       0       0       0       0       0       0       0       0       0       0       0       0       0       
      +0       0       0       0       0       0       0
  8040 ;;      Temps:          0       0       0       0       0       0       0       0       0       0       0       0       
      +0       0       0       0       0       0       0       0       0       0       0       0       0       0       0       
      +0       0       0       0       0       0       0
  8041 ;;      Totals:         0       0       0       0       0       0       0       0       0       0       0       0       
      +0       0       0       0       0       0       0       0       0       0       0       0       0       0       0       
      +0       0       0       0       0       0       0
  8042 ;;Total ram usage:        0 bytes
  8043 ;; Hardware stack levels used:    1
  8044 ;; Hardware stack levels required when called:    2
  8045 ;; This function calls:
  8046 ;;		_ANALOG_GetVoltage
  8047 ;; This function is called by:
  8048 ;;		_INT0_CallBack
  8049 ;; This function uses a non-reentrant model
  8050 ;;
  8051                           
  8052                           	psect	text78
  8053  004AD8                     __ptext78:
  8054                           	callstack 0
  8055  004AD8                     _GPIO_BrakePedalAtRest:
  8056                           	callstack 118
  8057  004AD8                     
  8058                           ;GPIO.c: 90:     ucPedalPos = PORTAbits.RA5;
  8059  004AD8  0E00               	movlw	0
  8060  004ADA  BACE               	btfsc	206,5,c	;volatile
  8061  004ADC  0E01               	movlw	1
  8062  004ADE  6E4D               	movwf	_ucPedalPos^(0+1280),c
  8063  004AE0                     
  8064                           ;GPIO.c: 91:     if ( ucPedalPos == 1 )
  8065  004AE0  044D               	decf	_ucPedalPos^(0+1280),w,c
  8066  004AE2  A4D8               	btfss	status,2,c
  8067  004AE4  EF76  F025         	goto	i2u448_41
  8068  004AE8  EF78  F025         	goto	i2u448_40
  8069  004AEC                     i2u448_41:
  8070  004AEC  EF84  F025         	goto	i2l1452
  8071  004AF0                     i2u448_40:
  8072  004AF0                     
  8073                           ;GPIO.c: 92:     {;GPIO.c: 94:         ucPICHDRPRES1min = ANALOG_GetVoltage(0);
  8074  004AF0  0E00               	movlw	0
  8075  004AF2  ECCF  F01C         	call	_ANALOG_GetVoltage
  8076  004AF6  0105               	movlb	5	; () banked
  8077  004AF8  6F93               	movwf	_ucPICHDRPRES1min& (0+255),b
  8078                           
  8079                           ;GPIO.c: 95:         ucPICHDRPRES2min = ANALOG_GetVoltage(1);
  8080  004AFA  0E01               	movlw	1
  8081  004AFC  ECCF  F01C         	call	_ANALOG_GetVoltage
  8082  004B00  0105               	movlb	5	; () banked
  8083  004B02  6F92               	movwf	_ucPICHDRPRES2min& (0+255),b
  8084  004B04                     
  8085                           ; BSR set to: 5
  8086                           ;GPIO.c: 98:         ucServoLmin = ucDutyServomotor;
  8087  004B04  C54E  F594         	movff	_ucDutyServomotor,_ucServoLmin
  8088  004B08                     i2l1452:
  8089  004B08  0012               	return		;funcret
  8090  004B0A                     __end_of_GPIO_BrakePedalAtRest:
  8091                           	callstack 0
  8092                           
  8093 ;; *************** function _ANALOG_GetVoltage *****************
  8094 ;; Defined at:
  8095 ;;		line 24 in file "ANALOG.c"
  8096 ;; Parameters:    Size  Location     Type
  8097 ;;  ucEntradaAna    1    wreg     unsigned char 
  8098 ;; Auto vars:     Size  Location     Type
  8099 ;;  ucEntradaAna    1   67[COMRAM] unsigned char 
  8100 ;;  uiValorAnalo    2   70[COMRAM] unsigned short 
  8101 ;;  uiValorVolta    2   68[COMRAM] unsigned short 
  8102 ;;  ucFlag          1   72[COMRAM] unsigned char 
  8103 ;; Return value:  Size  Location     Type
  8104 ;;                  1    wreg      unsigned char 
  8105 ;; Registers used:
  8106 ;;		wreg, status,2, status,0, prodl, prodh, cstack
  8107 ;; Tracked objects:
  8108 ;;		On entry : 0/0
  8109 ;;		On exit  : 0/0
  8110 ;;		Unchanged: 0/0
  8111 ;; Data sizes:     COMRAM   BANK5   BANK6   BANK7   BANK8   BANK9  BANK10  BANK11  BANK12  BANK13  BANK14  BANK15  BANK1
      +6  BANK17  BANK18  BANK19  BANK20  BANK21  BANK22  BANK23  BANK24  BANK25  BANK26  BANK27  BANK28  BANK29  BANK30  BANK3
      +1  BANK32  BANK33  BANK34  BANK35  BANK36  BANK37
  8112 ;;      Params:         0       0       0       0       0       0       0       0       0       0       0       0       
      +0       0       0       0       0       0       0       0       0       0       0       0       0       0       0       
      +0       0       0       0       0       0       0
  8113 ;;      Locals:         6       0       0       0       0       0       0       0       0       0       0       0       
      +0       0       0       0       0       0       0       0       0       0       0       0       0       0       0       
      +0       0       0       0       0       0       0
  8114 ;;      Temps:          2       0       0       0       0       0       0       0       0       0       0       0       
      +0       0       0       0       0       0       0       0       0       0       0       0       0       0       0       
      +0       0       0       0       0       0       0
  8115 ;;      Totals:         8       0       0       0       0       0       0       0       0       0       0       0       
      +0       0       0       0       0       0       0       0       0       0       0       0       0       0       0       
      +0       0       0       0       0       0       0
  8116 ;;Total ram usage:        8 bytes
  8117 ;; Hardware stack levels used:    1
  8118 ;; Hardware stack levels required when called:    1
  8119 ;; This function calls:
  8120 ;;		_ADC_DisableChannelSequencer
  8121 ;;		_ADC_GetSingleConversion
  8122 ;;		_ADC_SelectContext
  8123 ;;		___fldiv
  8124 ;;		___flmul
  8125 ;;		i2___fladd
  8126 ;;		i2___fltol
  8127 ;;		i2___xxtofl
  8128 ;; This function is called by:
  8129 ;;		_GPIO_BrakePedalAtRest
  8130 ;;		_ANALOG_RedAll
  8131 ;;		_EBS_CheckUP_Routine
  8132 ;; This function uses a non-reentrant model
  8133 ;;
  8134                           
  8135                           	psect	text79
  8136  00399E                     __ptext79:
  8137                           	callstack 0
  8138  00399E                     _ANALOG_GetVoltage:
  8139                           	callstack 118
  8140                           
  8141                           ;incstack = 0
  8142                           ;ANALOG_GetVoltage@ucEntradaAnalogica stored from wreg
  8143  00399E  6E44               	movwf	ANALOG_GetVoltage@ucEntradaAnalogica^(0+1280),c
  8144  0039A0                     
  8145                           ;ANALOG.c: 24: unsigned char ANALOG_GetVoltage (unsigned char ucEntradaAnalogica);ANALOG
      +                          .c: 25: {;ANALOG.c: 26:     uint16_t uiValorAnalog;;ANALOG.c: 27:     uint16_t uiValorVo
      +                          ltage;;ANALOG.c: 28:     unsigned char ucFlag;;ANALOG.c: 30:     switch (ucEntradaAnalog
      +                          ica)
  8146  0039A0  EF10  F01D         	goto	i2l5243
  8147  0039A4                     i2l5199:
  8148                           
  8149                           ;ANALOG.c: 33:             ADC_DisableChannelSequencer();
  8150  0039A4  EC61  F027         	call	_ADC_DisableChannelSequencer	;wreg free
  8151  0039A8                     
  8152                           ;ANALOG.c: 34:             ADC_SelectContext(CONTEXT_1);
  8153  0039A8  0E00               	movlw	0
  8154  0039AA  EC51  F027         	call	_ADC_SelectContext
  8155  0039AE                     
  8156                           ;ANALOG.c: 35:             uiValorAnalog = ADC_GetSingleConversion(PICHDRPRES1);
  8157  0039AE  0E00               	movlw	0
  8158  0039B0  EC85  F025         	call	_ADC_GetSingleConversion
  8159  0039B4  C501  F547         	movff	?_ADC_GetSingleConversion,ANALOG_GetVoltage@uiValorAnalog
  8160  0039B8  C502  F548         	movff	?_ADC_GetSingleConversion+1,ANALOG_GetVoltage@uiValorAnalog+1
  8161  0039BC                     i2l5205:
  8162                           
  8163                           ;ANALOG.c: 36:             ucFlag = 1;
  8164  0039BC  0E01               	movlw	1
  8165  0039BE  6E49               	movwf	ANALOG_GetVoltage@ucFlag^(0+1280),c
  8166                           
  8167                           ;ANALOG.c: 37:             break;
  8168  0039C0  EF3D  F01D         	goto	i2l5245
  8169  0039C4                     i2l5207:
  8170                           
  8171                           ;ANALOG.c: 39:             ADC_DisableChannelSequencer();
  8172  0039C4  EC61  F027         	call	_ADC_DisableChannelSequencer	;wreg free
  8173  0039C8                     
  8174                           ;ANALOG.c: 40:             ADC_SelectContext(CONTEXT_2);
  8175  0039C8  0E01               	movlw	1
  8176  0039CA  EC51  F027         	call	_ADC_SelectContext
  8177  0039CE                     
  8178                           ;ANALOG.c: 41:             uiValorAnalog = ADC_GetSingleConversion(PICHDRPRES2);
  8179  0039CE  0E01               	movlw	1
  8180  0039D0  EC85  F025         	call	_ADC_GetSingleConversion
  8181  0039D4  C501  F547         	movff	?_ADC_GetSingleConversion,ANALOG_GetVoltage@uiValorAnalog
  8182  0039D8  C502  F548         	movff	?_ADC_GetSingleConversion+1,ANALOG_GetVoltage@uiValorAnalog+1
  8183  0039DC  EFDE  F01C         	goto	i2l5205
  8184  0039E0                     i2l5215:
  8185                           
  8186                           ;ANALOG.c: 45:             ADC_DisableChannelSequencer();
  8187  0039E0  EC61  F027         	call	_ADC_DisableChannelSequencer	;wreg free
  8188  0039E4                     
  8189                           ;ANALOG.c: 46:             ADC_SelectContext(CONTEXT_3);
  8190  0039E4  0E02               	movlw	2
  8191  0039E6  EC51  F027         	call	_ADC_SelectContext
  8192  0039EA                     
  8193                           ;ANALOG.c: 47:             uiValorAnalog = ADC_GetSingleConversion(PICNPRES1);
  8194  0039EA  0E17               	movlw	23
  8195  0039EC  EC85  F025         	call	_ADC_GetSingleConversion
  8196  0039F0  C501  F547         	movff	?_ADC_GetSingleConversion,ANALOG_GetVoltage@uiValorAnalog
  8197  0039F4  C502  F548         	movff	?_ADC_GetSingleConversion+1,ANALOG_GetVoltage@uiValorAnalog+1
  8198  0039F8  EFDE  F01C         	goto	i2l5205
  8199  0039FC                     i2l5223:
  8200                           
  8201                           ;ANALOG.c: 51:             ADC_DisableChannelSequencer();
  8202  0039FC  EC61  F027         	call	_ADC_DisableChannelSequencer	;wreg free
  8203  003A00                     
  8204                           ;ANALOG.c: 52:             ADC_SelectContext(CONTEXT_3);
  8205  003A00  0E02               	movlw	2
  8206  003A02  EC51  F027         	call	_ADC_SelectContext
  8207  003A06                     
  8208                           ;ANALOG.c: 53:             uiValorAnalog = ADC_GetSingleConversion(PICNPRES2);
  8209  003A06  0E16               	movlw	22
  8210  003A08  EC85  F025         	call	_ADC_GetSingleConversion
  8211  003A0C  C501  F547         	movff	?_ADC_GetSingleConversion,ANALOG_GetVoltage@uiValorAnalog
  8212  003A10  C502  F548         	movff	?_ADC_GetSingleConversion+1,ANALOG_GetVoltage@uiValorAnalog+1
  8213  003A14  EFDE  F01C         	goto	i2l5205
  8214  003A18                     i2l5231:
  8215                           
  8216                           ;ANALOG.c: 60:             ucFlag = 2;
  8217  003A18  0E02               	movlw	2
  8218  003A1A  6E49               	movwf	ANALOG_GetVoltage@ucFlag^(0+1280),c
  8219                           
  8220                           ;ANALOG.c: 61:             break;
  8221  003A1C  EF3D  F01D         	goto	i2l5245
  8222  003A20                     i2l5243:
  8223  003A20  5044               	movf	ANALOG_GetVoltage@ucEntradaAnalogica^(0+1280),w,c
  8224  003A22  6E42               	movwf	??_ANALOG_GetVoltage^(0+1280),c
  8225  003A24  6A43               	clrf	(??_ANALOG_GetVoltage+1)^(0+1280),c
  8226                           
  8227                           ; Switch on 2 bytes has been partitioned into a top level switch of size 1, and 1 sub-sw
      +                          itches
  8228                           ; Switch size 1, requested type "simple"
  8229                           ; Number of cases is 1, Range of values is 0 to 0
  8230                           ; switch strategies available:
  8231                           ; Name         Instructions Cycles
  8232                           ; simple_byte            4     3 (average)
  8233                           ;	Chosen strategy is simple_byte
  8234  003A26  5043               	movf	(??_ANALOG_GetVoltage+1)^(0+1280),w,c
  8235  003A28  0A00               	xorlw	0	; case 0
  8236  003A2A  B4D8               	btfsc	status,2,c
  8237  003A2C  EF1A  F01D         	goto	i2l6727
  8238  003A30  EF0C  F01D         	goto	i2l5231
  8239  003A34                     i2l6727:
  8240                           
  8241                           ; Switch size 1, requested type "simple"
  8242                           ; Number of cases is 8, Range of values is 0 to 7
  8243                           ; switch strategies available:
  8244                           ; Name         Instructions Cycles
  8245                           ; simple_byte           25    13 (average)
  8246                           ;	Chosen strategy is simple_byte
  8247  003A34  5042               	movf	??_ANALOG_GetVoltage^(0+1280),w,c
  8248  003A36  0A00               	xorlw	0	; case 0
  8249  003A38  B4D8               	btfsc	status,2,c
  8250  003A3A  EFD2  F01C         	goto	i2l5199
  8251  003A3E  0A01               	xorlw	1	; case 1
  8252  003A40  B4D8               	btfsc	status,2,c
  8253  003A42  EFE2  F01C         	goto	i2l5207
  8254  003A46  0A03               	xorlw	3	; case 2
  8255  003A48  B4D8               	btfsc	status,2,c
  8256  003A4A  EFF0  F01C         	goto	i2l5215
  8257  003A4E  0A01               	xorlw	1	; case 3
  8258  003A50  B4D8               	btfsc	status,2,c
  8259  003A52  EFFE  F01C         	goto	i2l5223
  8260  003A56  0A07               	xorlw	7	; case 4
  8261  003A58  B4D8               	btfsc	status,2,c
  8262  003A5A  EF0C  F01D         	goto	i2l5231
  8263  003A5E  0A01               	xorlw	1	; case 5
  8264  003A60  B4D8               	btfsc	status,2,c
  8265  003A62  EF0C  F01D         	goto	i2l5231
  8266  003A66  0A03               	xorlw	3	; case 6
  8267  003A68  B4D8               	btfsc	status,2,c
  8268  003A6A  EF0C  F01D         	goto	i2l5231
  8269  003A6E  0A01               	xorlw	1	; case 7
  8270  003A70  B4D8               	btfsc	status,2,c
  8271  003A72  EF0C  F01D         	goto	i2l5231
  8272  003A76  EF0C  F01D         	goto	i2l5231
  8273  003A7A                     i2l5245:
  8274                           
  8275                           ;ANALOG.c: 85:     if ( ucFlag == 1 )
  8276  003A7A  0449               	decf	ANALOG_GetVoltage@ucFlag^(0+1280),w,c
  8277  003A7C  A4D8               	btfss	status,2,c
  8278  003A7E  EF43  F01D         	goto	i2u445_41
  8279  003A82  EF45  F01D         	goto	i2u445_40
  8280  003A86                     i2u445_41:
  8281  003A86  EFC6  F01D         	goto	i2l5261
  8282  003A8A                     i2u445_40:
  8283  003A8A                     
  8284                           ;ANALOG.c: 86:     {;ANALOG.c: 87:         if ( uiValorAnalog <= 6 )
  8285  003A8A  5048               	movf	(ANALOG_GetVoltage@uiValorAnalog+1)^(0+1280),w,c
  8286  003A8C  E107               	bnz	i2u446_41
  8287  003A8E  0E07               	movlw	7
  8288  003A90  5C47               	subwf	ANALOG_GetVoltage@uiValorAnalog^(0+1280),w,c
  8289  003A92  B0D8               	btfsc	status,0,c
  8290  003A94  EF4E  F01D         	goto	i2u446_41
  8291  003A98  EF50  F01D         	goto	i2u446_40
  8292  003A9C                     i2u446_41:
  8293  003A9C  EF56  F01D         	goto	i2l5251
  8294  003AA0                     i2u446_40:
  8295  003AA0                     
  8296                           ;ANALOG.c: 88:         {;ANALOG.c: 89:             uiValorVoltage = 0;
  8297  003AA0  0E00               	movlw	0
  8298  003AA2  6E46               	movwf	(ANALOG_GetVoltage@uiValorVoltage+1)^(0+1280),c
  8299  003AA4  0E00               	movlw	0
  8300  003AA6  6E45               	movwf	ANALOG_GetVoltage@uiValorVoltage^(0+1280),c
  8301                           
  8302                           ;ANALOG.c: 90:         }
  8303  003AA8  EF91  F01D         	goto	i2l5253
  8304  003AAC                     i2l5251:
  8305                           
  8306                           ;ANALOG.c: 92:         {;ANALOG.c: 94:             uiValorVoltage = ((1.1444*uiValorAnal
      +                          og)-5.2658);
  8307  003AAC  0E6F               	movlw	111
  8308  003AAE  6E2C               	movwf	i2___fladd@a^(0+1280),c
  8309  003AB0  0E81               	movlw	129
  8310  003AB2  6E2D               	movwf	(i2___fladd@a+1)^(0+1280),c
  8311  003AB4  0EA8               	movlw	168
  8312  003AB6  6E2E               	movwf	(i2___fladd@a+2)^(0+1280),c
  8313  003AB8  0EC0               	movlw	192
  8314  003ABA  6E2F               	movwf	(i2___fladd@a+3)^(0+1280),c
  8315  003ABC  0EB3               	movlw	179
  8316  003ABE  6E13               	movwf	___flmul@a^(0+1280),c
  8317  003AC0  0E7B               	movlw	123
  8318  003AC2  6E14               	movwf	(___flmul@a+1)^(0+1280),c
  8319  003AC4  0E92               	movlw	146
  8320  003AC6  6E15               	movwf	(___flmul@a+2)^(0+1280),c
  8321  003AC8  0E3F               	movlw	63
  8322  003ACA  6E16               	movwf	(___flmul@a+3)^(0+1280),c
  8323  003ACC  C547  F501         	movff	ANALOG_GetVoltage@uiValorAnalog,i2___xxtofl@val
  8324  003AD0  C548  F502         	movff	ANALOG_GetVoltage@uiValorAnalog+1,i2___xxtofl@val+1
  8325  003AD4  6A03               	clrf	(i2___xxtofl@val+2)^(0+1280),c
  8326  003AD6  6A04               	clrf	(i2___xxtofl@val+3)^(0+1280),c
  8327  003AD8  0E00               	movlw	0
  8328  003ADA  ECA3  F01E         	call	i2___xxtofl
  8329  003ADE  C501  F50F         	movff	?i2___xxtofl,___flmul@b
  8330  003AE2  C502  F510         	movff	?i2___xxtofl+1,___flmul@b+1
  8331  003AE6  C503  F511         	movff	?i2___xxtofl+2,___flmul@b+2
  8332  003AEA  C504  F512         	movff	?i2___xxtofl+3,___flmul@b+3
  8333  003AEE  ECC8  F017         	call	___flmul	;wreg free
  8334  003AF2  C50F  F528         	movff	?___flmul,i2___fladd@b
  8335  003AF6  C510  F529         	movff	?___flmul+1,i2___fladd@b+1
  8336  003AFA  C511  F52A         	movff	?___flmul+2,i2___fladd@b+2
  8337  003AFE  C512  F52B         	movff	?___flmul+3,i2___fladd@b+3
  8338  003B02  EC68  F015         	call	i2___fladd	;wreg free
  8339  003B06  C528  F538         	movff	?i2___fladd,i2___fltol@f1
  8340  003B0A  C529  F539         	movff	?i2___fladd+1,i2___fltol@f1+1
  8341  003B0E  C52A  F53A         	movff	?i2___fladd+2,i2___fltol@f1+2
  8342  003B12  C52B  F53B         	movff	?i2___fladd+3,i2___fltol@f1+3
  8343  003B16  EC33  F021         	call	i2___fltol	;wreg free
  8344  003B1A  C538  F545         	movff	?i2___fltol,ANALOG_GetVoltage@uiValorVoltage
  8345  003B1E  C539  F546         	movff	?i2___fltol+1,ANALOG_GetVoltage@uiValorVoltage+1
  8346  003B22                     i2l5253:
  8347                           
  8348                           ;ANALOG.c: 97:         if ( uiValorVoltage > 5000 )
  8349  003B22  0E89               	movlw	137
  8350  003B24  5C45               	subwf	ANALOG_GetVoltage@uiValorVoltage^(0+1280),w,c
  8351  003B26  0E13               	movlw	19
  8352  003B28  5846               	subwfb	(ANALOG_GetVoltage@uiValorVoltage+1)^(0+1280),w,c
  8353  003B2A  A0D8               	btfss	status,0,c
  8354  003B2C  EF9A  F01D         	goto	i2u447_41
  8355  003B30  EF9C  F01D         	goto	i2u447_40
  8356  003B34                     i2u447_41:
  8357  003B34  EF9E  F01D         	goto	i2l5257
  8358  003B38                     i2u447_40:
  8359  003B38  EFC6  F01D         	goto	i2l1493
  8360  003B3C                     i2l5257:
  8361                           
  8362                           ;ANALOG.c: 103:         {;ANALOG.c: 104:             return (uiValorVoltage/19.608);
  8363  003B3C  0E2F               	movlw	47
  8364  003B3E  6E13               	movwf	___fldiv@a^(0+1280),c
  8365  003B40  0EDD               	movlw	221
  8366  003B42  6E14               	movwf	(___fldiv@a+1)^(0+1280),c
  8367  003B44  0E9C               	movlw	156
  8368  003B46  6E15               	movwf	(___fldiv@a+2)^(0+1280),c
  8369  003B48  0E41               	movlw	65
  8370  003B4A  6E16               	movwf	(___fldiv@a+3)^(0+1280),c
  8371  003B4C  C545  F501         	movff	ANALOG_GetVoltage@uiValorVoltage,i2___xxtofl@val
  8372  003B50  C546  F502         	movff	ANALOG_GetVoltage@uiValorVoltage+1,i2___xxtofl@val+1
  8373  003B54  6A03               	clrf	(i2___xxtofl@val+2)^(0+1280),c
  8374  003B56  6A04               	clrf	(i2___xxtofl@val+3)^(0+1280),c
  8375  003B58  0E00               	movlw	0
  8376  003B5A  ECA3  F01E         	call	i2___xxtofl
  8377  003B5E  C501  F50F         	movff	?i2___xxtofl,___fldiv@b
  8378  003B62  C502  F510         	movff	?i2___xxtofl+1,___fldiv@b+1
  8379  003B66  C503  F511         	movff	?i2___xxtofl+2,___fldiv@b+2
  8380  003B6A  C504  F512         	movff	?i2___xxtofl+3,___fldiv@b+3
  8381  003B6E  ECEF  F019         	call	___fldiv	;wreg free
  8382  003B72  C50F  F538         	movff	?___fldiv,i2___fltol@f1
  8383  003B76  C510  F539         	movff	?___fldiv+1,i2___fltol@f1+1
  8384  003B7A  C511  F53A         	movff	?___fldiv+2,i2___fltol@f1+2
  8385  003B7E  C512  F53B         	movff	?___fldiv+3,i2___fltol@f1+3
  8386  003B82  EC33  F021         	call	i2___fltol	;wreg free
  8387  003B86  5038               	movf	?i2___fltol^(0+1280),w,c
  8388  003B88  EFC6  F01D         	goto	i2l1493
  8389  003B8C                     i2l5261:
  8390  003B8C                     i2l1493:
  8391  003B8C  0012               	return		;funcret
  8392  003B8E                     __end_of_ANALOG_GetVoltage:
  8393                           	callstack 0
  8394                           
  8395 ;; *************** function i2___xxtofl *****************
  8396 ;; Defined at:
  8397 ;;		line 10 in file "C:\Program Files\Microchip\xc8\v2.31\pic\sources\c99\common\xxtofl.c"
  8398 ;; Parameters:    Size  Location     Type
  8399 ;;  sign            1    wreg     unsigned char 
  8400 ;;  val             4    0[COMRAM] long 
  8401 ;; Auto vars:     Size  Location     Type
  8402 ;;  sign            1    8[COMRAM] unsigned char 
  8403 ;;  arg             4   10[COMRAM] unsigned long 
  8404 ;;  exp             1    9[COMRAM] unsigned char 
  8405 ;; Return value:  Size  Location     Type
  8406 ;;                  4    0[COMRAM] unsigned char 
  8407 ;; Registers used:
  8408 ;;		wreg, status,2, status,0
  8409 ;; Tracked objects:
  8410 ;;		On entry : 0/0
  8411 ;;		On exit  : 0/0
  8412 ;;		Unchanged: 0/0
  8413 ;; Data sizes:     COMRAM   BANK5   BANK6   BANK7   BANK8   BANK9  BANK10  BANK11  BANK12  BANK13  BANK14  BANK15  BANK1
      +6  BANK17  BANK18  BANK19  BANK20  BANK21  BANK22  BANK23  BANK24  BANK25  BANK26  BANK27  BANK28  BANK29  BANK30  BANK3
      +1  BANK32  BANK33  BANK34  BANK35  BANK36  BANK37
  8414 ;;      Params:         4       0       0       0       0       0       0       0       0       0       0       0       
      +0       0       0       0       0       0       0       0       0       0       0       0       0       0       0       
      +0       0       0       0       0       0       0
  8415 ;;      Locals:         6       0       0       0       0       0       0       0       0       0       0       0       
      +0       0       0       0       0       0       0       0       0       0       0       0       0       0       0       
      +0       0       0       0       0       0       0
  8416 ;;      Temps:          4       0       0       0       0       0       0       0       0       0       0       0       
      +0       0       0       0       0       0       0       0       0       0       0       0       0       0       0       
      +0       0       0       0       0       0       0
  8417 ;;      Totals:        14       0       0       0       0       0       0       0       0       0       0       0       
      +0       0       0       0       0       0       0       0       0       0       0       0       0       0       0       
      +0       0       0       0       0       0       0
  8418 ;;Total ram usage:       14 bytes
  8419 ;; Hardware stack levels used:    1
  8420 ;; This function calls:
  8421 ;;		Nothing
  8422 ;; This function is called by:
  8423 ;;		_ANALOG_GetVoltage
  8424 ;; This function uses a non-reentrant model
  8425 ;;
  8426                           
  8427                           	psect	text80
  8428  003D46                     __ptext80:
  8429                           	callstack 0
  8430  003D46                     i2___xxtofl:
  8431                           	callstack 118
  8432                           
  8433                           ;incstack = 0
  8434                           ;i2___xxtofl@sign stored from wreg
  8435  003D46  6E09               	movwf	i2___xxtofl@sign^(0+1280),c
  8436  003D48  5009               	movf	i2___xxtofl@sign^(0+1280),w,c
  8437  003D4A  B4D8               	btfsc	status,2,c
  8438  003D4C  EFAA  F01E         	goto	i2u435_41
  8439  003D50  EFAC  F01E         	goto	i2u435_40
  8440  003D54                     i2u435_41:
  8441  003D54  EFCE  F01E         	goto	i2l2271
  8442  003D58                     i2u435_40:
  8443  003D58  BE04               	btfsc	(i2___xxtofl@val+3)^(0+1280),7,c
  8444  003D5A  EFB3  F01E         	goto	i2u436_40
  8445  003D5E  EFB1  F01E         	goto	i2u436_41
  8446  003D62                     i2u436_41:
  8447  003D62  EFCE  F01E         	goto	i2l2271
  8448  003D66                     i2u436_40:
  8449  003D66  C501  F505         	movff	i2___xxtofl@val,??i2___xxtofl
  8450  003D6A  C502  F506         	movff	i2___xxtofl@val+1,??i2___xxtofl+1
  8451  003D6E  C503  F507         	movff	i2___xxtofl@val+2,??i2___xxtofl+2
  8452  003D72  C504  F508         	movff	i2___xxtofl@val+3,??i2___xxtofl+3
  8453  003D76  1E05               	comf	??i2___xxtofl^(0+1280),f,c
  8454  003D78  1E06               	comf	(??i2___xxtofl+1)^(0+1280),f,c
  8455  003D7A  1E07               	comf	(??i2___xxtofl+2)^(0+1280),f,c
  8456  003D7C  1E08               	comf	(??i2___xxtofl+3)^(0+1280),f,c
  8457  003D7E  2A05               	incf	??i2___xxtofl^(0+1280),f,c
  8458  003D80  0E00               	movlw	0
  8459  003D82  2206               	addwfc	(??i2___xxtofl+1)^(0+1280),f,c
  8460  003D84  2207               	addwfc	(??i2___xxtofl+2)^(0+1280),f,c
  8461  003D86  2208               	addwfc	(??i2___xxtofl+3)^(0+1280),f,c
  8462  003D88  C505  F50B         	movff	??i2___xxtofl,i2___xxtofl@arg
  8463  003D8C  C506  F50C         	movff	??i2___xxtofl+1,i2___xxtofl@arg+1
  8464  003D90  C507  F50D         	movff	??i2___xxtofl+2,i2___xxtofl@arg+2
  8465  003D94  C508  F50E         	movff	??i2___xxtofl+3,i2___xxtofl@arg+3
  8466  003D98  EFD6  F01E         	goto	i2l5135
  8467  003D9C                     i2l2271:
  8468  003D9C  C501  F50B         	movff	i2___xxtofl@val,i2___xxtofl@arg
  8469  003DA0  C502  F50C         	movff	i2___xxtofl@val+1,i2___xxtofl@arg+1
  8470  003DA4  C503  F50D         	movff	i2___xxtofl@val+2,i2___xxtofl@arg+2
  8471  003DA8  C504  F50E         	movff	i2___xxtofl@val+3,i2___xxtofl@arg+3
  8472  003DAC                     i2l5135:
  8473  003DAC  5001               	movf	i2___xxtofl@val^(0+1280),w,c
  8474  003DAE  1002               	iorwf	(i2___xxtofl@val+1)^(0+1280),w,c
  8475  003DB0  1003               	iorwf	(i2___xxtofl@val+2)^(0+1280),w,c
  8476  003DB2  1004               	iorwf	(i2___xxtofl@val+3)^(0+1280),w,c
  8477  003DB4  A4D8               	btfss	status,2,c
  8478  003DB6  EFDF  F01E         	goto	i2u437_41
  8479  003DBA  EFE1  F01E         	goto	i2u437_40
  8480  003DBE                     i2u437_41:
  8481  003DBE  EFEB  F01E         	goto	i2l5141
  8482  003DC2                     i2u437_40:
  8483  003DC2  0E00               	movlw	0
  8484  003DC4  6E01               	movwf	?i2___xxtofl^(0+1280),c
  8485  003DC6  0E00               	movlw	0
  8486  003DC8  6E02               	movwf	(?i2___xxtofl+1)^(0+1280),c
  8487  003DCA  0E00               	movlw	0
  8488  003DCC  6E03               	movwf	(?i2___xxtofl+2)^(0+1280),c
  8489  003DCE  0E00               	movlw	0
  8490  003DD0  6E04               	movwf	(?i2___xxtofl+3)^(0+1280),c
  8491  003DD2  EF7C  F01F         	goto	i2l2274
  8492  003DD6                     i2l5141:
  8493  003DD6  0E96               	movlw	150
  8494  003DD8  6E0A               	movwf	i2___xxtofl@exp^(0+1280),c
  8495  003DDA  EFF5  F01E         	goto	i2l5145
  8496  003DDE                     i2l5143:
  8497  003DDE  2A0A               	incf	i2___xxtofl@exp^(0+1280),f,c
  8498  003DE0  90D8               	bcf	status,0,c
  8499  003DE2  320E               	rrcf	(i2___xxtofl@arg+3)^(0+1280),f,c
  8500  003DE4  320D               	rrcf	(i2___xxtofl@arg+2)^(0+1280),f,c
  8501  003DE6  320C               	rrcf	(i2___xxtofl@arg+1)^(0+1280),f,c
  8502  003DE8  320B               	rrcf	i2___xxtofl@arg^(0+1280),f,c
  8503  003DEA                     i2l5145:
  8504  003DEA  0E00               	movlw	0
  8505  003DEC  140B               	andwf	i2___xxtofl@arg^(0+1280),w,c
  8506  003DEE  6E05               	movwf	??i2___xxtofl^(0+1280),c
  8507  003DF0  0E00               	movlw	0
  8508  003DF2  140C               	andwf	(i2___xxtofl@arg+1)^(0+1280),w,c
  8509  003DF4  6E06               	movwf	(??i2___xxtofl+1)^(0+1280),c
  8510  003DF6  0E00               	movlw	0
  8511  003DF8  140D               	andwf	(i2___xxtofl@arg+2)^(0+1280),w,c
  8512  003DFA  6E07               	movwf	(??i2___xxtofl+2)^(0+1280),c
  8513  003DFC  0EFE               	movlw	254
  8514  003DFE  140E               	andwf	(i2___xxtofl@arg+3)^(0+1280),w,c
  8515  003E00  6E08               	movwf	(??i2___xxtofl+3)^(0+1280),c
  8516  003E02  5005               	movf	??i2___xxtofl^(0+1280),w,c
  8517  003E04  1006               	iorwf	(??i2___xxtofl+1)^(0+1280),w,c
  8518  003E06  1007               	iorwf	(??i2___xxtofl+2)^(0+1280),w,c
  8519  003E08  1008               	iorwf	(??i2___xxtofl+3)^(0+1280),w,c
  8520  003E0A  A4D8               	btfss	status,2,c
  8521  003E0C  EF0A  F01F         	goto	i2u438_41
  8522  003E10  EF0C  F01F         	goto	i2u438_40
  8523  003E14                     i2u438_41:
  8524  003E14  EFEF  F01E         	goto	i2l5143
  8525  003E18                     i2u438_40:
  8526  003E18  EF1A  F01F         	goto	i2l2278
  8527  003E1C                     i2l5147:
  8528  003E1C  2A0A               	incf	i2___xxtofl@exp^(0+1280),f,c
  8529  003E1E  0E01               	movlw	1
  8530  003E20  260B               	addwf	i2___xxtofl@arg^(0+1280),f,c
  8531  003E22  0E00               	movlw	0
  8532  003E24  220C               	addwfc	(i2___xxtofl@arg+1)^(0+1280),f,c
  8533  003E26  220D               	addwfc	(i2___xxtofl@arg+2)^(0+1280),f,c
  8534  003E28  220E               	addwfc	(i2___xxtofl@arg+3)^(0+1280),f,c
  8535  003E2A  90D8               	bcf	status,0,c
  8536  003E2C  320E               	rrcf	(i2___xxtofl@arg+3)^(0+1280),f,c
  8537  003E2E  320D               	rrcf	(i2___xxtofl@arg+2)^(0+1280),f,c
  8538  003E30  320C               	rrcf	(i2___xxtofl@arg+1)^(0+1280),f,c
  8539  003E32  320B               	rrcf	i2___xxtofl@arg^(0+1280),f,c
  8540  003E34                     i2l2278:
  8541  003E34  0E00               	movlw	0
  8542  003E36  140B               	andwf	i2___xxtofl@arg^(0+1280),w,c
  8543  003E38  6E05               	movwf	??i2___xxtofl^(0+1280),c
  8544  003E3A  0E00               	movlw	0
  8545  003E3C  140C               	andwf	(i2___xxtofl@arg+1)^(0+1280),w,c
  8546  003E3E  6E06               	movwf	(??i2___xxtofl+1)^(0+1280),c
  8547  003E40  0E00               	movlw	0
  8548  003E42  140D               	andwf	(i2___xxtofl@arg+2)^(0+1280),w,c
  8549  003E44  6E07               	movwf	(??i2___xxtofl+2)^(0+1280),c
  8550  003E46  0EFF               	movlw	255
  8551  003E48  140E               	andwf	(i2___xxtofl@arg+3)^(0+1280),w,c
  8552  003E4A  6E08               	movwf	(??i2___xxtofl+3)^(0+1280),c
  8553  003E4C  5005               	movf	??i2___xxtofl^(0+1280),w,c
  8554  003E4E  1006               	iorwf	(??i2___xxtofl+1)^(0+1280),w,c
  8555  003E50  1007               	iorwf	(??i2___xxtofl+2)^(0+1280),w,c
  8556  003E52  1008               	iorwf	(??i2___xxtofl+3)^(0+1280),w,c
  8557  003E54  A4D8               	btfss	status,2,c
  8558  003E56  EF2F  F01F         	goto	i2u439_41
  8559  003E5A  EF31  F01F         	goto	i2u439_40
  8560  003E5E                     i2u439_41:
  8561  003E5E  EF0E  F01F         	goto	i2l5147
  8562  003E62                     i2u439_40:
  8563  003E62  EF39  F01F         	goto	i2l5155
  8564  003E66                     i2l5153:
  8565  003E66  060A               	decf	i2___xxtofl@exp^(0+1280),f,c
  8566  003E68  90D8               	bcf	status,0,c
  8567  003E6A  360B               	rlcf	i2___xxtofl@arg^(0+1280),f,c
  8568  003E6C  360C               	rlcf	(i2___xxtofl@arg+1)^(0+1280),f,c
  8569  003E6E  360D               	rlcf	(i2___xxtofl@arg+2)^(0+1280),f,c
  8570  003E70  360E               	rlcf	(i2___xxtofl@arg+3)^(0+1280),f,c
  8571  003E72                     i2l5155:
  8572  003E72  BE0D               	btfsc	(i2___xxtofl@arg+2)^(0+1280),7,c
  8573  003E74  EF3E  F01F         	goto	i2u440_41
  8574  003E78  EF40  F01F         	goto	i2u440_40
  8575  003E7C                     i2u440_41:
  8576  003E7C  EF48  F01F         	goto	i2l2285
  8577  003E80                     i2u440_40:
  8578  003E80  0E02               	movlw	2
  8579  003E82  600A               	cpfslt	i2___xxtofl@exp^(0+1280),c
  8580  003E84  EF46  F01F         	goto	i2u441_41
  8581  003E88  EF48  F01F         	goto	i2u441_40
  8582  003E8C                     i2u441_41:
  8583  003E8C  EF33  F01F         	goto	i2l5153
  8584  003E90                     i2u441_40:
  8585  003E90                     i2l2285:
  8586  003E90  B00A               	btfsc	i2___xxtofl@exp^(0+1280),0,c
  8587  003E92  EF4D  F01F         	goto	i2u442_41
  8588  003E96  EF4F  F01F         	goto	i2u442_40
  8589  003E9A                     i2u442_41:
  8590  003E9A  EF50  F01F         	goto	i2l5161
  8591  003E9E                     i2u442_40:
  8592  003E9E  9E0D               	bcf	(i2___xxtofl@arg+2)^(0+1280),7,c
  8593  003EA0                     i2l5161:
  8594  003EA0  90D8               	bcf	status,0,c
  8595  003EA2  320A               	rrcf	i2___xxtofl@exp^(0+1280),f,c
  8596  003EA4  C50A  F505         	movff	i2___xxtofl@exp,??i2___xxtofl
  8597  003EA8  6A06               	clrf	(??i2___xxtofl+1)^(0+1280),c
  8598  003EAA  6A07               	clrf	(??i2___xxtofl+2)^(0+1280),c
  8599  003EAC  6A08               	clrf	(??i2___xxtofl+3)^(0+1280),c
  8600  003EAE  C505  F508         	movff	??i2___xxtofl,??i2___xxtofl+3
  8601  003EB2  6A07               	clrf	(??i2___xxtofl+2)^(0+1280),c
  8602  003EB4  6A06               	clrf	(??i2___xxtofl+1)^(0+1280),c
  8603  003EB6  6A05               	clrf	??i2___xxtofl^(0+1280),c
  8604  003EB8  5005               	movf	??i2___xxtofl^(0+1280),w,c
  8605  003EBA  120B               	iorwf	i2___xxtofl@arg^(0+1280),f,c
  8606  003EBC  5006               	movf	(??i2___xxtofl+1)^(0+1280),w,c
  8607  003EBE  120C               	iorwf	(i2___xxtofl@arg+1)^(0+1280),f,c
  8608  003EC0  5007               	movf	(??i2___xxtofl+2)^(0+1280),w,c
  8609  003EC2  120D               	iorwf	(i2___xxtofl@arg+2)^(0+1280),f,c
  8610  003EC4  5008               	movf	(??i2___xxtofl+3)^(0+1280),w,c
  8611  003EC6  120E               	iorwf	(i2___xxtofl@arg+3)^(0+1280),f,c
  8612  003EC8  5009               	movf	i2___xxtofl@sign^(0+1280),w,c
  8613  003ECA  B4D8               	btfsc	status,2,c
  8614  003ECC  EF6A  F01F         	goto	i2u443_41
  8615  003ED0  EF6C  F01F         	goto	i2u443_40
  8616  003ED4                     i2u443_41:
  8617  003ED4  EF74  F01F         	goto	i2l5171
  8618  003ED8                     i2u443_40:
  8619  003ED8  BE04               	btfsc	(i2___xxtofl@val+3)^(0+1280),7,c
  8620  003EDA  EF73  F01F         	goto	i2u444_40
  8621  003EDE  EF71  F01F         	goto	i2u444_41
  8622  003EE2                     i2u444_41:
  8623  003EE2  EF74  F01F         	goto	i2l5171
  8624  003EE6                     i2u444_40:
  8625  003EE6  8E0E               	bsf	(i2___xxtofl@arg+3)^(0+1280),7,c
  8626  003EE8                     i2l5171:
  8627  003EE8  C50B  F501         	movff	i2___xxtofl@arg,?i2___xxtofl
  8628  003EEC  C50C  F502         	movff	i2___xxtofl@arg+1,?i2___xxtofl+1
  8629  003EF0  C50D  F503         	movff	i2___xxtofl@arg+2,?i2___xxtofl+2
  8630  003EF4  C50E  F504         	movff	i2___xxtofl@arg+3,?i2___xxtofl+3
  8631  003EF8                     i2l2274:
  8632  003EF8  0012               	return		;funcret
  8633  003EFA                     __end_ofi2___xxtofl:
  8634                           	callstack 0
  8635                           
  8636 ;; *************** function i2___fltol *****************
  8637 ;; Defined at:
  8638 ;;		line 43 in file "C:\Program Files\Microchip\xc8\v2.31\pic\sources\c99\common\fltol.c"
  8639 ;; Parameters:    Size  Location     Type
  8640 ;;  f1              4   55[COMRAM] unsigned char 
  8641 ;; Auto vars:     Size  Location     Type
  8642 ;;  exp1            1   64[COMRAM] unsigned char 
  8643 ;;  sign1           1   63[COMRAM] unsigned char 
  8644 ;; Return value:  Size  Location     Type
  8645 ;;                  4   55[COMRAM] long 
  8646 ;; Registers used:
  8647 ;;		wreg, status,2, status,0
  8648 ;; Tracked objects:
  8649 ;;		On entry : 0/0
  8650 ;;		On exit  : 0/0
  8651 ;;		Unchanged: 0/0
  8652 ;; Data sizes:     COMRAM   BANK5   BANK6   BANK7   BANK8   BANK9  BANK10  BANK11  BANK12  BANK13  BANK14  BANK15  BANK1
      +6  BANK17  BANK18  BANK19  BANK20  BANK21  BANK22  BANK23  BANK24  BANK25  BANK26  BANK27  BANK28  BANK29  BANK30  BANK3
      +1  BANK32  BANK33  BANK34  BANK35  BANK36  BANK37
  8653 ;;      Params:         4       0       0       0       0       0       0       0       0       0       0       0       
      +0       0       0       0       0       0       0       0       0       0       0       0       0       0       0       
      +0       0       0       0       0       0       0
  8654 ;;      Locals:         2       0       0       0       0       0       0       0       0       0       0       0       
      +0       0       0       0       0       0       0       0       0       0       0       0       0       0       0       
      +0       0       0       0       0       0       0
  8655 ;;      Temps:          4       0       0       0       0       0       0       0       0       0       0       0       
      +0       0       0       0       0       0       0       0       0       0       0       0       0       0       0       
      +0       0       0       0       0       0       0
  8656 ;;      Totals:        10       0       0       0       0       0       0       0       0       0       0       0       
      +0       0       0       0       0       0       0       0       0       0       0       0       0       0       0       
      +0       0       0       0       0       0       0
  8657 ;;Total ram usage:       10 bytes
  8658 ;; Hardware stack levels used:    1
  8659 ;; This function calls:
  8660 ;;		Nothing
  8661 ;; This function is called by:
  8662 ;;		_ANALOG_GetVoltage
  8663 ;; This function uses a non-reentrant model
  8664 ;;
  8665                           
  8666                           	psect	text81
  8667  004266                     __ptext81:
  8668                           	callstack 0
  8669  004266                     i2___fltol:
  8670                           	callstack 118
  8671  004266  343A               	rlcf	(i2___fltol@f1+2)^(0+1280),w,c
  8672  004268  343B               	rlcf	(i2___fltol@f1+3)^(0+1280),w,c
  8673  00426A  6E41               	movwf	i2___fltol@exp1^(0+1280),c
  8674  00426C  5041               	movf	i2___fltol@exp1^(0+1280),w,c
  8675  00426E  A4D8               	btfss	status,2,c
  8676  004270  EF3C  F021         	goto	i2u389_41
  8677  004274  EF3E  F021         	goto	i2u389_40
  8678  004278                     i2u389_41:
  8679  004278  EF48  F021         	goto	i2l4889
  8680  00427C                     i2u389_40:
  8681  00427C                     i2l4885:
  8682  00427C  0E00               	movlw	0
  8683  00427E  6E38               	movwf	?i2___fltol^(0+1280),c
  8684  004280  0E00               	movlw	0
  8685  004282  6E39               	movwf	(?i2___fltol+1)^(0+1280),c
  8686  004284  0E00               	movlw	0
  8687  004286  6E3A               	movwf	(?i2___fltol+2)^(0+1280),c
  8688  004288  0E00               	movlw	0
  8689  00428A  6E3B               	movwf	(?i2___fltol+3)^(0+1280),c
  8690  00428C  EFB5  F021         	goto	i2l1913
  8691  004290                     i2l4889:
  8692  004290  C538  F53C         	movff	i2___fltol@f1,??i2___fltol
  8693  004294  C539  F53D         	movff	i2___fltol@f1+1,??i2___fltol+1
  8694  004298  C53A  F53E         	movff	i2___fltol@f1+2,??i2___fltol+2
  8695  00429C  C53B  F53F         	movff	i2___fltol@f1+3,??i2___fltol+3
  8696  0042A0  0E20               	movlw	32
  8697  0042A2  EF58  F021         	goto	i2u390_40
  8698  0042A6                     i2u390_45:
  8699  0042A6  90D8               	bcf	status,0,c
  8700  0042A8  323F               	rrcf	(??i2___fltol+3)^(0+1280),f,c
  8701  0042AA  323E               	rrcf	(??i2___fltol+2)^(0+1280),f,c
  8702  0042AC  323D               	rrcf	(??i2___fltol+1)^(0+1280),f,c
  8703  0042AE  323C               	rrcf	??i2___fltol^(0+1280),f,c
  8704  0042B0                     i2u390_40:
  8705  0042B0  2EE8               	decfsz	wreg,f,c
  8706  0042B2  EF53  F021         	goto	i2u390_45
  8707  0042B6  503C               	movf	??i2___fltol^(0+1280),w,c
  8708  0042B8  6E40               	movwf	i2___fltol@sign1^(0+1280),c
  8709  0042BA  8E3A               	bsf	(i2___fltol@f1+2)^(0+1280),7,c
  8710  0042BC  0EFF               	movlw	255
  8711  0042BE  1638               	andwf	i2___fltol@f1^(0+1280),f,c
  8712  0042C0  0EFF               	movlw	255
  8713  0042C2  1639               	andwf	(i2___fltol@f1+1)^(0+1280),f,c
  8714  0042C4  0EFF               	movlw	255
  8715  0042C6  163A               	andwf	(i2___fltol@f1+2)^(0+1280),f,c
  8716  0042C8  0E00               	movlw	0
  8717  0042CA  163B               	andwf	(i2___fltol@f1+3)^(0+1280),f,c
  8718  0042CC  0E96               	movlw	150
  8719  0042CE  5E41               	subwf	i2___fltol@exp1^(0+1280),f,c
  8720  0042D0  BE41               	btfsc	i2___fltol@exp1^(0+1280),7,c
  8721  0042D2  EF6F  F021         	goto	i2u391_40
  8722  0042D6  EF6D  F021         	goto	i2u391_41
  8723  0042DA                     i2u391_41:
  8724  0042DA  EF85  F021         	goto	i2l4909
  8725  0042DE                     i2u391_40:
  8726  0042DE  5041               	movf	i2___fltol@exp1^(0+1280),w,c
  8727  0042E0  0A80               	xorlw	128
  8728  0042E2  0F97               	addlw	151
  8729  0042E4  B0D8               	btfsc	status,0,c
  8730  0042E6  EF77  F021         	goto	i2u392_41
  8731  0042EA  EF79  F021         	goto	i2u392_40
  8732  0042EE                     i2u392_41:
  8733  0042EE  EF7B  F021         	goto	i2l4905
  8734  0042F2                     i2u392_40:
  8735  0042F2  EF3E  F021         	goto	i2l4885
  8736  0042F6                     i2l4905:
  8737  0042F6  90D8               	bcf	status,0,c
  8738  0042F8  323B               	rrcf	(i2___fltol@f1+3)^(0+1280),f,c
  8739  0042FA  323A               	rrcf	(i2___fltol@f1+2)^(0+1280),f,c
  8740  0042FC  3239               	rrcf	(i2___fltol@f1+1)^(0+1280),f,c
  8741  0042FE  3238               	rrcf	i2___fltol@f1^(0+1280),f,c
  8742  004300  3E41               	incfsz	i2___fltol@exp1^(0+1280),f,c
  8743  004302  EF7B  F021         	goto	i2l4905
  8744  004306  EF9D  F021         	goto	i2l4919
  8745  00430A                     i2l4909:
  8746  00430A  0E1F               	movlw	31
  8747  00430C  6441               	cpfsgt	i2___fltol@exp1^(0+1280),c
  8748  00430E  EF8B  F021         	goto	i2u393_41
  8749  004312  EF8D  F021         	goto	i2u393_40
  8750  004316                     i2u393_41:
  8751  004316  EF95  F021         	goto	i2l4917
  8752  00431A                     i2u393_40:
  8753  00431A  EF3E  F021         	goto	i2l4885
  8754  00431E                     i2l4915:
  8755  00431E  90D8               	bcf	status,0,c
  8756  004320  3638               	rlcf	i2___fltol@f1^(0+1280),f,c
  8757  004322  3639               	rlcf	(i2___fltol@f1+1)^(0+1280),f,c
  8758  004324  363A               	rlcf	(i2___fltol@f1+2)^(0+1280),f,c
  8759  004326  363B               	rlcf	(i2___fltol@f1+3)^(0+1280),f,c
  8760  004328  0641               	decf	i2___fltol@exp1^(0+1280),f,c
  8761  00432A                     i2l4917:
  8762  00432A  5041               	movf	i2___fltol@exp1^(0+1280),w,c
  8763  00432C  A4D8               	btfss	status,2,c
  8764  00432E  EF9B  F021         	goto	i2u394_41
  8765  004332  EF9D  F021         	goto	i2u394_40
  8766  004336                     i2u394_41:
  8767  004336  EF8F  F021         	goto	i2l4915
  8768  00433A                     i2u394_40:
  8769  00433A                     i2l4919:
  8770  00433A  5040               	movf	i2___fltol@sign1^(0+1280),w,c
  8771  00433C  B4D8               	btfsc	status,2,c
  8772  00433E  EFA3  F021         	goto	i2u395_41
  8773  004342  EFA5  F021         	goto	i2u395_40
  8774  004346                     i2u395_41:
  8775  004346  EFAD  F021         	goto	i2l4923
  8776  00434A                     i2u395_40:
  8777  00434A  1E3B               	comf	(i2___fltol@f1+3)^(0+1280),f,c
  8778  00434C  1E3A               	comf	(i2___fltol@f1+2)^(0+1280),f,c
  8779  00434E  1E39               	comf	(i2___fltol@f1+1)^(0+1280),f,c
  8780  004350  6C38               	negf	i2___fltol@f1^(0+1280),c
  8781  004352  0E00               	movlw	0
  8782  004354  2239               	addwfc	(i2___fltol@f1+1)^(0+1280),f,c
  8783  004356  223A               	addwfc	(i2___fltol@f1+2)^(0+1280),f,c
  8784  004358  223B               	addwfc	(i2___fltol@f1+3)^(0+1280),f,c
  8785  00435A                     i2l4923:
  8786  00435A  C538  F538         	movff	i2___fltol@f1,?i2___fltol
  8787  00435E  C539  F539         	movff	i2___fltol@f1+1,?i2___fltol+1
  8788  004362  C53A  F53A         	movff	i2___fltol@f1+2,?i2___fltol+2
  8789  004366  C53B  F53B         	movff	i2___fltol@f1+3,?i2___fltol+3
  8790  00436A                     i2l1913:
  8791  00436A  0012               	return		;funcret
  8792  00436C                     __end_ofi2___fltol:
  8793                           	callstack 0
  8794                           
  8795 ;; *************** function i2___fladd *****************
  8796 ;; Defined at:
  8797 ;;		line 10 in file "C:\Program Files\Microchip\xc8\v2.31\pic\sources\c99\common\sprcadd.c"
  8798 ;; Parameters:    Size  Location     Type
  8799 ;;  b               4   39[COMRAM] long 
  8800 ;;  a               4   43[COMRAM] long 
  8801 ;; Auto vars:     Size  Location     Type
  8802 ;;  grs             1   54[COMRAM] unsigned char 
  8803 ;;  bexp            1   53[COMRAM] unsigned char 
  8804 ;;  aexp            1   52[COMRAM] unsigned char 
  8805 ;;  signs           1   51[COMRAM] unsigned char 
  8806 ;; Return value:  Size  Location     Type
  8807 ;;                  4   39[COMRAM] unsigned char 
  8808 ;; Registers used:
  8809 ;;		wreg, status,2, status,0
  8810 ;; Tracked objects:
  8811 ;;		On entry : 0/0
  8812 ;;		On exit  : 0/0
  8813 ;;		Unchanged: 0/0
  8814 ;; Data sizes:     COMRAM   BANK5   BANK6   BANK7   BANK8   BANK9  BANK10  BANK11  BANK12  BANK13  BANK14  BANK15  BANK1
      +6  BANK17  BANK18  BANK19  BANK20  BANK21  BANK22  BANK23  BANK24  BANK25  BANK26  BANK27  BANK28  BANK29  BANK30  BANK3
      +1  BANK32  BANK33  BANK34  BANK35  BANK36  BANK37
  8815 ;;      Params:         8       0       0       0       0       0       0       0       0       0       0       0       
      +0       0       0       0       0       0       0       0       0       0       0       0       0       0       0       
      +0       0       0       0       0       0       0
  8816 ;;      Locals:         4       0       0       0       0       0       0       0       0       0       0       0       
      +0       0       0       0       0       0       0       0       0       0       0       0       0       0       0       
      +0       0       0       0       0       0       0
  8817 ;;      Temps:          4       0       0       0       0       0       0       0       0       0       0       0       
      +0       0       0       0       0       0       0       0       0       0       0       0       0       0       0       
      +0       0       0       0       0       0       0
  8818 ;;      Totals:        16       0       0       0       0       0       0       0       0       0       0       0       
      +0       0       0       0       0       0       0       0       0       0       0       0       0       0       0       
      +0       0       0       0       0       0       0
  8819 ;;Total ram usage:       16 bytes
  8820 ;; Hardware stack levels used:    1
  8821 ;; This function calls:
  8822 ;;		Nothing
  8823 ;; This function is called by:
  8824 ;;		_ANALOG_GetVoltage
  8825 ;; This function uses a non-reentrant model
  8826 ;;
  8827                           
  8828                           	psect	text82
  8829  002AD0                     __ptext82:
  8830                           	callstack 0
  8831  002AD0                     i2___fladd:
  8832                           	callstack 118
  8833  002AD0  502B               	movf	(i2___fladd@b+3)^(0+1280),w,c
  8834  002AD2  0B80               	andlw	128
  8835  002AD4  6E34               	movwf	i2___fladd@signs^(0+1280),c
  8836  002AD6  502B               	movf	(i2___fladd@b+3)^(0+1280),w,c
  8837  002AD8  242B               	addwf	(i2___fladd@b+3)^(0+1280),w,c
  8838  002ADA  6E36               	movwf	i2___fladd@bexp^(0+1280),c
  8839  002ADC  AE2A               	btfss	(i2___fladd@b+2)^(0+1280),7,c
  8840  002ADE  EF73  F015         	goto	i2u396_41
  8841  002AE2  EF75  F015         	goto	i2u396_40
  8842  002AE6                     i2u396_41:
  8843  002AE6  EF76  F015         	goto	i2l4933
  8844  002AEA                     i2u396_40:
  8845  002AEA  8036               	bsf	i2___fladd@bexp^(0+1280),0,c
  8846  002AEC                     i2l4933:
  8847  002AEC  5036               	movf	i2___fladd@bexp^(0+1280),w,c
  8848  002AEE  B4D8               	btfsc	status,2,c
  8849  002AF0  EF7C  F015         	goto	i2u397_41
  8850  002AF4  EF7E  F015         	goto	i2u397_40
  8851  002AF8                     i2u397_41:
  8852  002AF8  EF93  F015         	goto	i2l4943
  8853  002AFC                     i2u397_40:
  8854  002AFC  2836               	incf	i2___fladd@bexp^(0+1280),w,c
  8855  002AFE  A4D8               	btfss	status,2,c
  8856  002B00  EF84  F015         	goto	i2u398_41
  8857  002B04  EF86  F015         	goto	i2u398_40
  8858  002B08                     i2u398_41:
  8859  002B08  EF8E  F015         	goto	i2l4939
  8860  002B0C                     i2u398_40:
  8861  002B0C  0E00               	movlw	0
  8862  002B0E  6E28               	movwf	i2___fladd@b^(0+1280),c
  8863  002B10  0E00               	movlw	0
  8864  002B12  6E29               	movwf	(i2___fladd@b+1)^(0+1280),c
  8865  002B14  0E00               	movlw	0
  8866  002B16  6E2A               	movwf	(i2___fladd@b+2)^(0+1280),c
  8867  002B18  0E00               	movlw	0
  8868  002B1A  6E2B               	movwf	(i2___fladd@b+3)^(0+1280),c
  8869  002B1C                     i2l4939:
  8870  002B1C  8E2A               	bsf	(i2___fladd@b+2)^(0+1280),7,c
  8871  002B1E  0E00               	movlw	0
  8872  002B20  6E2B               	movwf	(i2___fladd@b+3)^(0+1280),c
  8873  002B22  EF9B  F015         	goto	i2l4945
  8874  002B26                     i2l4943:
  8875  002B26  0E00               	movlw	0
  8876  002B28  6E28               	movwf	i2___fladd@b^(0+1280),c
  8877  002B2A  0E00               	movlw	0
  8878  002B2C  6E29               	movwf	(i2___fladd@b+1)^(0+1280),c
  8879  002B2E  0E00               	movlw	0
  8880  002B30  6E2A               	movwf	(i2___fladd@b+2)^(0+1280),c
  8881  002B32  0E00               	movlw	0
  8882  002B34  6E2B               	movwf	(i2___fladd@b+3)^(0+1280),c
  8883  002B36                     i2l4945:
  8884  002B36  502F               	movf	(i2___fladd@a+3)^(0+1280),w,c
  8885  002B38  0B80               	andlw	128
  8886  002B3A  6E35               	movwf	i2___fladd@aexp^(0+1280),c
  8887  002B3C  5034               	movf	i2___fladd@signs^(0+1280),w,c
  8888  002B3E  1835               	xorwf	i2___fladd@aexp^(0+1280),w,c
  8889  002B40  B4D8               	btfsc	status,2,c
  8890  002B42  EFA5  F015         	goto	i2u399_41
  8891  002B46  EFA7  F015         	goto	i2u399_40
  8892  002B4A                     i2u399_41:
  8893  002B4A  EFA8  F015         	goto	i2l4951
  8894  002B4E                     i2u399_40:
  8895  002B4E  8C34               	bsf	i2___fladd@signs^(0+1280),6,c
  8896  002B50                     i2l4951:
  8897  002B50  502F               	movf	(i2___fladd@a+3)^(0+1280),w,c
  8898  002B52  242F               	addwf	(i2___fladd@a+3)^(0+1280),w,c
  8899  002B54  6E35               	movwf	i2___fladd@aexp^(0+1280),c
  8900  002B56  AE2E               	btfss	(i2___fladd@a+2)^(0+1280),7,c
  8901  002B58  EFB0  F015         	goto	i2u400_41
  8902  002B5C  EFB2  F015         	goto	i2u400_40
  8903  002B60                     i2u400_41:
  8904  002B60  EFB3  F015         	goto	i2l4957
  8905  002B64                     i2u400_40:
  8906  002B64  8035               	bsf	i2___fladd@aexp^(0+1280),0,c
  8907  002B66                     i2l4957:
  8908  002B66  5035               	movf	i2___fladd@aexp^(0+1280),w,c
  8909  002B68  B4D8               	btfsc	status,2,c
  8910  002B6A  EFB9  F015         	goto	i2u401_41
  8911  002B6E  EFBB  F015         	goto	i2u401_40
  8912  002B72                     i2u401_41:
  8913  002B72  EFD0  F015         	goto	i2l4967
  8914  002B76                     i2u401_40:
  8915  002B76  2835               	incf	i2___fladd@aexp^(0+1280),w,c
  8916  002B78  A4D8               	btfss	status,2,c
  8917  002B7A  EFC1  F015         	goto	i2u402_41
  8918  002B7E  EFC3  F015         	goto	i2u402_40
  8919  002B82                     i2u402_41:
  8920  002B82  EFCB  F015         	goto	i2l4963
  8921  002B86                     i2u402_40:
  8922  002B86  0E00               	movlw	0
  8923  002B88  6E2C               	movwf	i2___fladd@a^(0+1280),c
  8924  002B8A  0E00               	movlw	0
  8925  002B8C  6E2D               	movwf	(i2___fladd@a+1)^(0+1280),c
  8926  002B8E  0E00               	movlw	0
  8927  002B90  6E2E               	movwf	(i2___fladd@a+2)^(0+1280),c
  8928  002B92  0E00               	movlw	0
  8929  002B94  6E2F               	movwf	(i2___fladd@a+3)^(0+1280),c
  8930  002B96                     i2l4963:
  8931  002B96  8E2E               	bsf	(i2___fladd@a+2)^(0+1280),7,c
  8932  002B98  0E00               	movlw	0
  8933  002B9A  6E2F               	movwf	(i2___fladd@a+3)^(0+1280),c
  8934  002B9C  EFD8  F015         	goto	i2l4969
  8935  002BA0                     i2l4967:
  8936  002BA0  0E00               	movlw	0
  8937  002BA2  6E2C               	movwf	i2___fladd@a^(0+1280),c
  8938  002BA4  0E00               	movlw	0
  8939  002BA6  6E2D               	movwf	(i2___fladd@a+1)^(0+1280),c
  8940  002BA8  0E00               	movlw	0
  8941  002BAA  6E2E               	movwf	(i2___fladd@a+2)^(0+1280),c
  8942  002BAC  0E00               	movlw	0
  8943  002BAE  6E2F               	movwf	(i2___fladd@a+3)^(0+1280),c
  8944  002BB0                     i2l4969:
  8945  002BB0  5036               	movf	i2___fladd@bexp^(0+1280),w,c
  8946  002BB2  5C35               	subwf	i2___fladd@aexp^(0+1280),w,c
  8947  002BB4  B0D8               	btfsc	status,0,c
  8948  002BB6  EFDF  F015         	goto	i2u403_41
  8949  002BBA  EFE1  F015         	goto	i2u403_40
  8950  002BBE                     i2u403_41:
  8951  002BBE  EF08  F016         	goto	i2l5005
  8952  002BC2                     i2u403_40:
  8953  002BC2  AC34               	btfss	i2___fladd@signs^(0+1280),6,c
  8954  002BC4  EFE6  F015         	goto	i2u404_41
  8955  002BC8  EFE8  F015         	goto	i2u404_40
  8956  002BCC                     i2u404_41:
  8957  002BCC  EFEA  F015         	goto	i2l4975
  8958  002BD0                     i2u404_40:
  8959  002BD0  0E80               	movlw	128
  8960  002BD2  1A34               	xorwf	i2___fladd@signs^(0+1280),f,c
  8961  002BD4                     i2l4975:
  8962  002BD4  C536  F537         	movff	i2___fladd@bexp,i2___fladd@grs
  8963  002BD8  C535  F536         	movff	i2___fladd@aexp,i2___fladd@bexp
  8964  002BDC  C537  F535         	movff	i2___fladd@grs,i2___fladd@aexp
  8965  002BE0  C528  F537         	movff	i2___fladd@b,i2___fladd@grs
  8966  002BE4  C52C  F528         	movff	i2___fladd@a,i2___fladd@b
  8967  002BE8  C537  F52C         	movff	i2___fladd@grs,i2___fladd@a
  8968  002BEC  C529  F537         	movff	i2___fladd@b+1,i2___fladd@grs
  8969  002BF0  C52D  F529         	movff	i2___fladd@a+1,i2___fladd@b+1
  8970  002BF4  C537  F52D         	movff	i2___fladd@grs,i2___fladd@a+1
  8971  002BF8  C52A  F537         	movff	i2___fladd@b+2,i2___fladd@grs
  8972  002BFC  C52E  F52A         	movff	i2___fladd@a+2,i2___fladd@b+2
  8973  002C00  C537  F52E         	movff	i2___fladd@grs,i2___fladd@a+2
  8974  002C04  C52B  F537         	movff	i2___fladd@b+3,i2___fladd@grs
  8975  002C08  C52F  F52B         	movff	i2___fladd@a+3,i2___fladd@b+3
  8976  002C0C  C537  F52F         	movff	i2___fladd@grs,i2___fladd@a+3
  8977  002C10                     i2l5005:
  8978  002C10  0E00               	movlw	0
  8979  002C12  6E37               	movwf	i2___fladd@grs^(0+1280),c
  8980  002C14  5036               	movf	i2___fladd@bexp^(0+1280),w,c
  8981  002C16  C535  F530         	movff	i2___fladd@aexp,??i2___fladd
  8982  002C1A  6A31               	clrf	(??i2___fladd+1)^(0+1280),c
  8983  002C1C  5E30               	subwf	??i2___fladd^(0+1280),f,c
  8984  002C1E  0E00               	movlw	0
  8985  002C20  5A31               	subwfb	(??i2___fladd+1)^(0+1280),f,c
  8986  002C22  BE31               	btfsc	(??i2___fladd+1)^(0+1280),7,c
  8987  002C24  EF1D  F016         	goto	i2u405_41
  8988  002C28  5031               	movf	(??i2___fladd+1)^(0+1280),w,c
  8989  002C2A  E109               	bnz	i2u405_40
  8990  002C2C  0E1A               	movlw	26
  8991  002C2E  5C30               	subwf	??i2___fladd^(0+1280),w,c
  8992  002C30  A0D8               	btfss	status,0,c
  8993  002C32  EF1D  F016         	goto	i2u405_41
  8994  002C36  EF1F  F016         	goto	i2u405_40
  8995  002C3A                     i2u405_41:
  8996  002C3A  EF56  F016         	goto	i2l2145
  8997  002C3E                     i2u405_40:
  8998  002C3E  5028               	movf	i2___fladd@b^(0+1280),w,c
  8999  002C40  1029               	iorwf	(i2___fladd@b+1)^(0+1280),w,c
  9000  002C42  102A               	iorwf	(i2___fladd@b+2)^(0+1280),w,c
  9001  002C44  102B               	iorwf	(i2___fladd@b+3)^(0+1280),w,c
  9002  002C46  A4D8               	btfss	status,2,c
  9003  002C48  EF28  F016         	goto	i2u406_41
  9004  002C4C  EF2B  F016         	goto	i2u406_40
  9005  002C50                     i2u406_41:
  9006  002C50  0E01               	movlw	1
  9007  002C52  EF2C  F016         	goto	i2u407_40
  9008  002C56                     i2u406_40:
  9009  002C56  0E00               	movlw	0
  9010  002C58                     i2u407_40:
  9011  002C58  6E37               	movwf	i2___fladd@grs^(0+1280),c
  9012  002C5A  0E00               	movlw	0
  9013  002C5C  6E28               	movwf	i2___fladd@b^(0+1280),c
  9014  002C5E  0E00               	movlw	0
  9015  002C60  6E29               	movwf	(i2___fladd@b+1)^(0+1280),c
  9016  002C62  0E00               	movlw	0
  9017  002C64  6E2A               	movwf	(i2___fladd@b+2)^(0+1280),c
  9018  002C66  0E00               	movlw	0
  9019  002C68  6E2B               	movwf	(i2___fladd@b+3)^(0+1280),c
  9020  002C6A  C535  F536         	movff	i2___fladd@aexp,i2___fladd@bexp
  9021  002C6E  EF5F  F016         	goto	i2l2144
  9022  002C72                     i2l2146:
  9023  002C72  A037               	btfss	i2___fladd@grs^(0+1280),0,c
  9024  002C74  EF3E  F016         	goto	i2u408_41
  9025  002C78  EF40  F016         	goto	i2u408_40
  9026  002C7C                     i2u408_41:
  9027  002C7C  EF46  F016         	goto	i2l5017
  9028  002C80                     i2u408_40:
  9029  002C80  90D8               	bcf	status,0,c
  9030  002C82  3037               	rrcf	i2___fladd@grs^(0+1280),w,c
  9031  002C84  0901               	iorlw	1
  9032  002C86  6E37               	movwf	i2___fladd@grs^(0+1280),c
  9033  002C88  EF48  F016         	goto	i2l5019
  9034  002C8C                     i2l5017:
  9035  002C8C  90D8               	bcf	status,0,c
  9036  002C8E  3237               	rrcf	i2___fladd@grs^(0+1280),f,c
  9037  002C90                     i2l5019:
  9038  002C90  A028               	btfss	i2___fladd@b^(0+1280),0,c
  9039  002C92  EF4D  F016         	goto	i2u409_41
  9040  002C96  EF4F  F016         	goto	i2u409_40
  9041  002C9A                     i2u409_41:
  9042  002C9A  EF50  F016         	goto	i2l5023
  9043  002C9E                     i2u409_40:
  9044  002C9E  8E37               	bsf	i2___fladd@grs^(0+1280),7,c
  9045  002CA0                     i2l5023:
  9046  002CA0  342B               	rlcf	(i2___fladd@b+3)^(0+1280),w,c
  9047  002CA2  322B               	rrcf	(i2___fladd@b+3)^(0+1280),f,c
  9048  002CA4  322A               	rrcf	(i2___fladd@b+2)^(0+1280),f,c
  9049  002CA6  3229               	rrcf	(i2___fladd@b+1)^(0+1280),f,c
  9050  002CA8  3228               	rrcf	i2___fladd@b^(0+1280),f,c
  9051  002CAA  2A36               	incf	i2___fladd@bexp^(0+1280),f,c
  9052  002CAC                     i2l2145:
  9053  002CAC  5035               	movf	i2___fladd@aexp^(0+1280),w,c
  9054  002CAE  5C36               	subwf	i2___fladd@bexp^(0+1280),w,c
  9055  002CB0  A0D8               	btfss	status,0,c
  9056  002CB2  EF5D  F016         	goto	i2u410_41
  9057  002CB6  EF5F  F016         	goto	i2u410_40
  9058  002CBA                     i2u410_41:
  9059  002CBA  EF39  F016         	goto	i2l2146
  9060  002CBE                     i2u410_40:
  9061  002CBE                     i2l2144:
  9062  002CBE  BC34               	btfsc	i2___fladd@signs^(0+1280),6,c
  9063  002CC0  EF64  F016         	goto	i2u411_41
  9064  002CC4  EF66  F016         	goto	i2u411_40
  9065  002CC8                     i2u411_41:
  9066  002CC8  EFA6  F016         	goto	i2l5051
  9067  002CCC                     i2u411_40:
  9068  002CCC  5036               	movf	i2___fladd@bexp^(0+1280),w,c
  9069  002CCE  A4D8               	btfss	status,2,c
  9070  002CD0  EF6C  F016         	goto	i2u412_41
  9071  002CD4  EF6E  F016         	goto	i2u412_40
  9072  002CD8                     i2u412_41:
  9073  002CD8  EF78  F016         	goto	i2l5033
  9074  002CDC                     i2u412_40:
  9075  002CDC  0E00               	movlw	0
  9076  002CDE  6E28               	movwf	?i2___fladd^(0+1280),c
  9077  002CE0  0E00               	movlw	0
  9078  002CE2  6E29               	movwf	(?i2___fladd+1)^(0+1280),c
  9079  002CE4  0E00               	movlw	0
  9080  002CE6  6E2A               	movwf	(?i2___fladd+2)^(0+1280),c
  9081  002CE8  0E00               	movlw	0
  9082  002CEA  6E2B               	movwf	(?i2___fladd+3)^(0+1280),c
  9083  002CEC  EFC7  F017         	goto	i2l2153
  9084  002CF0                     i2l5033:
  9085  002CF0  502C               	movf	i2___fladd@a^(0+1280),w,c
  9086  002CF2  2628               	addwf	i2___fladd@b^(0+1280),f,c
  9087  002CF4  502D               	movf	(i2___fladd@a+1)^(0+1280),w,c
  9088  002CF6  2229               	addwfc	(i2___fladd@b+1)^(0+1280),f,c
  9089  002CF8  502E               	movf	(i2___fladd@a+2)^(0+1280),w,c
  9090  002CFA  222A               	addwfc	(i2___fladd@b+2)^(0+1280),f,c
  9091  002CFC  502F               	movf	(i2___fladd@a+3)^(0+1280),w,c
  9092  002CFE  222B               	addwfc	(i2___fladd@b+3)^(0+1280),f,c
  9093  002D00  A02B               	btfss	(i2___fladd@b+3)^(0+1280),0,c
  9094  002D02  EF85  F016         	goto	i2u413_41
  9095  002D06  EF87  F016         	goto	i2u413_40
  9096  002D0A                     i2u413_41:
  9097  002D0A  EF33  F017         	goto	i2l5087
  9098  002D0E                     i2u413_40:
  9099  002D0E  A037               	btfss	i2___fladd@grs^(0+1280),0,c
  9100  002D10  EF8C  F016         	goto	i2u414_41
  9101  002D14  EF8E  F016         	goto	i2u414_40
  9102  002D18                     i2u414_41:
  9103  002D18  EF94  F016         	goto	i2l5041
  9104  002D1C                     i2u414_40:
  9105  002D1C  90D8               	bcf	status,0,c
  9106  002D1E  3037               	rrcf	i2___fladd@grs^(0+1280),w,c
  9107  002D20  0901               	iorlw	1
  9108  002D22  6E37               	movwf	i2___fladd@grs^(0+1280),c
  9109  002D24  EF96  F016         	goto	i2l5043
  9110  002D28                     i2l5041:
  9111  002D28  90D8               	bcf	status,0,c
  9112  002D2A  3237               	rrcf	i2___fladd@grs^(0+1280),f,c
  9113  002D2C                     i2l5043:
  9114  002D2C  A028               	btfss	i2___fladd@b^(0+1280),0,c
  9115  002D2E  EF9B  F016         	goto	i2u415_41
  9116  002D32  EF9D  F016         	goto	i2u415_40
  9117  002D36                     i2u415_41:
  9118  002D36  EF9E  F016         	goto	i2l5047
  9119  002D3A                     i2u415_40:
  9120  002D3A  8E37               	bsf	i2___fladd@grs^(0+1280),7,c
  9121  002D3C                     i2l5047:
  9122  002D3C  342B               	rlcf	(i2___fladd@b+3)^(0+1280),w,c
  9123  002D3E  322B               	rrcf	(i2___fladd@b+3)^(0+1280),f,c
  9124  002D40  322A               	rrcf	(i2___fladd@b+2)^(0+1280),f,c
  9125  002D42  3229               	rrcf	(i2___fladd@b+1)^(0+1280),f,c
  9126  002D44  3228               	rrcf	i2___fladd@b^(0+1280),f,c
  9127  002D46  2A36               	incf	i2___fladd@bexp^(0+1280),f,c
  9128  002D48  EF33  F017         	goto	i2l5087
  9129  002D4C                     i2l5051:
  9130  002D4C  502C               	movf	i2___fladd@a^(0+1280),w,c
  9131  002D4E  5C28               	subwf	i2___fladd@b^(0+1280),w,c
  9132  002D50  502D               	movf	(i2___fladd@a+1)^(0+1280),w,c
  9133  002D52  5829               	subwfb	(i2___fladd@b+1)^(0+1280),w,c
  9134  002D54  502E               	movf	(i2___fladd@a+2)^(0+1280),w,c
  9135  002D56  582A               	subwfb	(i2___fladd@b+2)^(0+1280),w,c
  9136  002D58  502B               	movf	(i2___fladd@b+3)^(0+1280),w,c
  9137  002D5A  0A80               	xorlw	128
  9138  002D5C  6E30               	movwf	??i2___fladd^(0+1280),c
  9139  002D5E  502F               	movf	(i2___fladd@a+3)^(0+1280),w,c
  9140  002D60  0A80               	xorlw	128
  9141  002D62  5830               	subwfb	??i2___fladd^(0+1280),w,c
  9142  002D64  B0D8               	btfsc	status,0,c
  9143  002D66  EFB7  F016         	goto	i2u416_41
  9144  002D6A  EFB9  F016         	goto	i2u416_40
  9145  002D6E                     i2u416_41:
  9146  002D6E  EFE4  F016         	goto	i2l5061
  9147  002D72                     i2u416_40:
  9148  002D72  5028               	movf	i2___fladd@b^(0+1280),w,c
  9149  002D74  5C2C               	subwf	i2___fladd@a^(0+1280),w,c
  9150  002D76  6E30               	movwf	??i2___fladd^(0+1280),c
  9151  002D78  5029               	movf	(i2___fladd@b+1)^(0+1280),w,c
  9152  002D7A  582D               	subwfb	(i2___fladd@a+1)^(0+1280),w,c
  9153  002D7C  6E31               	movwf	(??i2___fladd+1)^(0+1280),c
  9154  002D7E  502A               	movf	(i2___fladd@b+2)^(0+1280),w,c
  9155  002D80  582E               	subwfb	(i2___fladd@a+2)^(0+1280),w,c
  9156  002D82  6E32               	movwf	(??i2___fladd+2)^(0+1280),c
  9157  002D84  502B               	movf	(i2___fladd@b+3)^(0+1280),w,c
  9158  002D86  582F               	subwfb	(i2___fladd@a+3)^(0+1280),w,c
  9159  002D88  6E33               	movwf	(??i2___fladd+3)^(0+1280),c
  9160  002D8A  0EFF               	movlw	255
  9161  002D8C  2430               	addwf	??i2___fladd^(0+1280),w,c
  9162  002D8E  6E28               	movwf	i2___fladd@b^(0+1280),c
  9163  002D90  0EFF               	movlw	255
  9164  002D92  2031               	addwfc	(??i2___fladd+1)^(0+1280),w,c
  9165  002D94  6E29               	movwf	(i2___fladd@b+1)^(0+1280),c
  9166  002D96  0EFF               	movlw	255
  9167  002D98  2032               	addwfc	(??i2___fladd+2)^(0+1280),w,c
  9168  002D9A  6E2A               	movwf	(i2___fladd@b+2)^(0+1280),c
  9169  002D9C  0EFF               	movlw	255
  9170  002D9E  2033               	addwfc	(??i2___fladd+3)^(0+1280),w,c
  9171  002DA0  6E2B               	movwf	(i2___fladd@b+3)^(0+1280),c
  9172  002DA2  0E80               	movlw	128
  9173  002DA4  1A34               	xorwf	i2___fladd@signs^(0+1280),f,c
  9174  002DA6  6C37               	negf	i2___fladd@grs^(0+1280),c
  9175  002DA8  5037               	movf	i2___fladd@grs^(0+1280),w,c
  9176  002DAA  A4D8               	btfss	status,2,c
  9177  002DAC  EFDA  F016         	goto	i2u417_41
  9178  002DB0  EFDC  F016         	goto	i2u417_40
  9179  002DB4                     i2u417_41:
  9180  002DB4  EFEC  F016         	goto	i2l2161
  9181  002DB8                     i2u417_40:
  9182  002DB8  0E01               	movlw	1
  9183  002DBA  2628               	addwf	i2___fladd@b^(0+1280),f,c
  9184  002DBC  0E00               	movlw	0
  9185  002DBE  2229               	addwfc	(i2___fladd@b+1)^(0+1280),f,c
  9186  002DC0  222A               	addwfc	(i2___fladd@b+2)^(0+1280),f,c
  9187  002DC2  222B               	addwfc	(i2___fladd@b+3)^(0+1280),f,c
  9188  002DC4  EFEC  F016         	goto	i2l2161
  9189  002DC8                     i2l5061:
  9190  002DC8  502C               	movf	i2___fladd@a^(0+1280),w,c
  9191  002DCA  5E28               	subwf	i2___fladd@b^(0+1280),f,c
  9192  002DCC  502D               	movf	(i2___fladd@a+1)^(0+1280),w,c
  9193  002DCE  5A29               	subwfb	(i2___fladd@b+1)^(0+1280),f,c
  9194  002DD0  502E               	movf	(i2___fladd@a+2)^(0+1280),w,c
  9195  002DD2  5A2A               	subwfb	(i2___fladd@b+2)^(0+1280),f,c
  9196  002DD4  502F               	movf	(i2___fladd@a+3)^(0+1280),w,c
  9197  002DD6  5A2B               	subwfb	(i2___fladd@b+3)^(0+1280),f,c
  9198  002DD8                     i2l2161:
  9199  002DD8  5028               	movf	i2___fladd@b^(0+1280),w,c
  9200  002DDA  1029               	iorwf	(i2___fladd@b+1)^(0+1280),w,c
  9201  002DDC  102A               	iorwf	(i2___fladd@b+2)^(0+1280),w,c
  9202  002DDE  102B               	iorwf	(i2___fladd@b+3)^(0+1280),w,c
  9203  002DE0  A4D8               	btfss	status,2,c
  9204  002DE2  EFF5  F016         	goto	i2u418_41
  9205  002DE6  EFF7  F016         	goto	i2u418_40
  9206  002DEA                     i2u418_41:
  9207  002DEA  EF2C  F017         	goto	i2l5085
  9208  002DEE                     i2u418_40:
  9209  002DEE  5037               	movf	i2___fladd@grs^(0+1280),w,c
  9210  002DF0  A4D8               	btfss	status,2,c
  9211  002DF2  EFFD  F016         	goto	i2u419_41
  9212  002DF6  EFFF  F016         	goto	i2u419_40
  9213  002DFA                     i2u419_41:
  9214  002DFA  EF2C  F017         	goto	i2l5085
  9215  002DFE                     i2u419_40:
  9216  002DFE  0E00               	movlw	0
  9217  002E00  6E28               	movwf	?i2___fladd^(0+1280),c
  9218  002E02  0E00               	movlw	0
  9219  002E04  6E29               	movwf	(?i2___fladd+1)^(0+1280),c
  9220  002E06  0E00               	movlw	0
  9221  002E08  6E2A               	movwf	(?i2___fladd+2)^(0+1280),c
  9222  002E0A  0E00               	movlw	0
  9223  002E0C  6E2B               	movwf	(?i2___fladd+3)^(0+1280),c
  9224  002E0E  EFC7  F017         	goto	i2l2153
  9225  002E12                     i2l5069:
  9226  002E12  90D8               	bcf	status,0,c
  9227  002E14  3628               	rlcf	i2___fladd@b^(0+1280),f,c
  9228  002E16  3629               	rlcf	(i2___fladd@b+1)^(0+1280),f,c
  9229  002E18  362A               	rlcf	(i2___fladd@b+2)^(0+1280),f,c
  9230  002E1A  362B               	rlcf	(i2___fladd@b+3)^(0+1280),f,c
  9231  002E1C  AE37               	btfss	i2___fladd@grs^(0+1280),7,c
  9232  002E1E  EF13  F017         	goto	i2u420_41
  9233  002E22  EF15  F017         	goto	i2u420_40
  9234  002E26                     i2u420_41:
  9235  002E26  EF16  F017         	goto	i2l5075
  9236  002E2A                     i2u420_40:
  9237  002E2A  8028               	bsf	i2___fladd@b^(0+1280),0,c
  9238  002E2C                     i2l5075:
  9239  002E2C  A037               	btfss	i2___fladd@grs^(0+1280),0,c
  9240  002E2E  EF1B  F017         	goto	i2u421_41
  9241  002E32  EF1D  F017         	goto	i2u421_40
  9242  002E36                     i2u421_41:
  9243  002E36  EF21  F017         	goto	i2l5079
  9244  002E3A                     i2u421_40:
  9245  002E3A  80D8               	bsf	status,0,c
  9246  002E3C  3637               	rlcf	i2___fladd@grs^(0+1280),f,c
  9247  002E3E  EF23  F017         	goto	i2l5081
  9248  002E42                     i2l5079:
  9249  002E42  90D8               	bcf	status,0,c
  9250  002E44  3637               	rlcf	i2___fladd@grs^(0+1280),f,c
  9251  002E46                     i2l5081:
  9252  002E46  5036               	movf	i2___fladd@bexp^(0+1280),w,c
  9253  002E48  B4D8               	btfsc	status,2,c
  9254  002E4A  EF29  F017         	goto	i2u422_41
  9255  002E4E  EF2B  F017         	goto	i2u422_40
  9256  002E52                     i2u422_41:
  9257  002E52  EF2C  F017         	goto	i2l5085
  9258  002E56                     i2u422_40:
  9259  002E56  0636               	decf	i2___fladd@bexp^(0+1280),f,c
  9260  002E58                     i2l5085:
  9261  002E58  AE2A               	btfss	(i2___fladd@b+2)^(0+1280),7,c
  9262  002E5A  EF31  F017         	goto	i2u423_41
  9263  002E5E  EF33  F017         	goto	i2u423_40
  9264  002E62                     i2u423_41:
  9265  002E62  EF09  F017         	goto	i2l5069
  9266  002E66                     i2u423_40:
  9267  002E66                     i2l5087:
  9268  002E66  0E00               	movlw	0
  9269  002E68  6E35               	movwf	i2___fladd@aexp^(0+1280),c
  9270  002E6A  AE37               	btfss	i2___fladd@grs^(0+1280),7,c
  9271  002E6C  EF3A  F017         	goto	i2u424_41
  9272  002E70  EF3C  F017         	goto	i2u424_40
  9273  002E74                     i2u424_41:
  9274  002E74  EF54  F017         	goto	i2l2170
  9275  002E78                     i2u424_40:
  9276  002E78  C537  F530         	movff	i2___fladd@grs,??i2___fladd
  9277  002E7C  0E7F               	movlw	127
  9278  002E7E  1630               	andwf	??i2___fladd^(0+1280),f,c
  9279  002E80  B4D8               	btfsc	status,2,c
  9280  002E82  EF45  F017         	goto	i2u425_41
  9281  002E86  EF47  F017         	goto	i2u425_40
  9282  002E8A                     i2u425_41:
  9283  002E8A  EF4B  F017         	goto	i2l2171
  9284  002E8E                     i2u425_40:
  9285  002E8E                     i2l5093:
  9286  002E8E  0E01               	movlw	1
  9287  002E90  6E35               	movwf	i2___fladd@aexp^(0+1280),c
  9288  002E92  EF54  F017         	goto	i2l2170
  9289  002E96                     i2l2171:
  9290  002E96  A028               	btfss	i2___fladd@b^(0+1280),0,c
  9291  002E98  EF50  F017         	goto	i2u426_41
  9292  002E9C  EF52  F017         	goto	i2u426_40
  9293  002EA0                     i2u426_41:
  9294  002EA0  EF54  F017         	goto	i2l2170
  9295  002EA4                     i2u426_40:
  9296  002EA4  EF47  F017         	goto	i2l5093
  9297  002EA8                     i2l2170:
  9298  002EA8  5035               	movf	i2___fladd@aexp^(0+1280),w,c
  9299  002EAA  B4D8               	btfsc	status,2,c
  9300  002EAC  EF5A  F017         	goto	i2u427_41
  9301  002EB0  EF5C  F017         	goto	i2u427_40
  9302  002EB4                     i2u427_41:
  9303  002EB4  EF87  F017         	goto	i2l5105
  9304  002EB8                     i2u427_40:
  9305  002EB8  0E01               	movlw	1
  9306  002EBA  2628               	addwf	i2___fladd@b^(0+1280),f,c
  9307  002EBC  0E00               	movlw	0
  9308  002EBE  2229               	addwfc	(i2___fladd@b+1)^(0+1280),f,c
  9309  002EC0  222A               	addwfc	(i2___fladd@b+2)^(0+1280),f,c
  9310  002EC2  222B               	addwfc	(i2___fladd@b+3)^(0+1280),f,c
  9311  002EC4  A02B               	btfss	(i2___fladd@b+3)^(0+1280),0,c
  9312  002EC6  EF67  F017         	goto	i2u428_41
  9313  002ECA  EF69  F017         	goto	i2u428_40
  9314  002ECE                     i2u428_41:
  9315  002ECE  EF87  F017         	goto	i2l5105
  9316  002ED2                     i2u428_40:
  9317  002ED2  C528  F530         	movff	i2___fladd@b,??i2___fladd
  9318  002ED6  C529  F531         	movff	i2___fladd@b+1,??i2___fladd+1
  9319  002EDA  C52A  F532         	movff	i2___fladd@b+2,??i2___fladd+2
  9320  002EDE  C52B  F533         	movff	i2___fladd@b+3,??i2___fladd+3
  9321  002EE2  3433               	rlcf	(??i2___fladd+3)^(0+1280),w,c
  9322  002EE4  3233               	rrcf	(??i2___fladd+3)^(0+1280),f,c
  9323  002EE6  3232               	rrcf	(??i2___fladd+2)^(0+1280),f,c
  9324  002EE8  3231               	rrcf	(??i2___fladd+1)^(0+1280),f,c
  9325  002EEA  3230               	rrcf	??i2___fladd^(0+1280),f,c
  9326  002EEC  C530  F528         	movff	??i2___fladd,i2___fladd@b
  9327  002EF0  C531  F529         	movff	??i2___fladd+1,i2___fladd@b+1
  9328  002EF4  C532  F52A         	movff	??i2___fladd+2,i2___fladd@b+2
  9329  002EF8  C533  F52B         	movff	??i2___fladd+3,i2___fladd@b+3
  9330  002EFC  2836               	incf	i2___fladd@bexp^(0+1280),w,c
  9331  002EFE  B4D8               	btfsc	status,2,c
  9332  002F00  EF84  F017         	goto	i2u429_41
  9333  002F04  EF86  F017         	goto	i2u429_40
  9334  002F08                     i2u429_41:
  9335  002F08  EF87  F017         	goto	i2l5105
  9336  002F0C                     i2u429_40:
  9337  002F0C  2A36               	incf	i2___fladd@bexp^(0+1280),f,c
  9338  002F0E                     i2l5105:
  9339  002F0E  2836               	incf	i2___fladd@bexp^(0+1280),w,c
  9340  002F10  B4D8               	btfsc	status,2,c
  9341  002F12  EF8D  F017         	goto	i2u430_41
  9342  002F16  EF8F  F017         	goto	i2u430_40
  9343  002F1A                     i2u430_41:
  9344  002F1A  EF97  F017         	goto	i2l5109
  9345  002F1E                     i2u430_40:
  9346  002F1E  5036               	movf	i2___fladd@bexp^(0+1280),w,c
  9347  002F20  A4D8               	btfss	status,2,c
  9348  002F22  EF95  F017         	goto	i2u431_41
  9349  002F26  EF97  F017         	goto	i2u431_40
  9350  002F2A                     i2u431_41:
  9351  002F2A  EFA9  F017         	goto	i2l5113
  9352  002F2E                     i2u431_40:
  9353  002F2E                     i2l5109:
  9354  002F2E  0E00               	movlw	0
  9355  002F30  6E28               	movwf	i2___fladd@b^(0+1280),c
  9356  002F32  0E00               	movlw	0
  9357  002F34  6E29               	movwf	(i2___fladd@b+1)^(0+1280),c
  9358  002F36  0E00               	movlw	0
  9359  002F38  6E2A               	movwf	(i2___fladd@b+2)^(0+1280),c
  9360  002F3A  0E00               	movlw	0
  9361  002F3C  6E2B               	movwf	(i2___fladd@b+3)^(0+1280),c
  9362  002F3E  5036               	movf	i2___fladd@bexp^(0+1280),w,c
  9363  002F40  A4D8               	btfss	status,2,c
  9364  002F42  EFA5  F017         	goto	i2u432_41
  9365  002F46  EFA7  F017         	goto	i2u432_40
  9366  002F4A                     i2u432_41:
  9367  002F4A  EFA9  F017         	goto	i2l5113
  9368  002F4E                     i2u432_40:
  9369  002F4E  0E00               	movlw	0
  9370  002F50  6E34               	movwf	i2___fladd@signs^(0+1280),c
  9371  002F52                     i2l5113:
  9372  002F52  A036               	btfss	i2___fladd@bexp^(0+1280),0,c
  9373  002F54  EFAE  F017         	goto	i2u433_41
  9374  002F58  EFB0  F017         	goto	i2u433_40
  9375  002F5C                     i2u433_41:
  9376  002F5C  EFB3  F017         	goto	i2l5117
  9377  002F60                     i2u433_40:
  9378  002F60  8E2A               	bsf	(i2___fladd@b+2)^(0+1280),7,c
  9379  002F62  EFB4  F017         	goto	i2l5119
  9380  002F66                     i2l5117:
  9381  002F66  9E2A               	bcf	(i2___fladd@b+2)^(0+1280),7,c
  9382  002F68                     i2l5119:
  9383  002F68  90D8               	bcf	status,0,c
  9384  002F6A  3036               	rrcf	i2___fladd@bexp^(0+1280),w,c
  9385  002F6C  6E2B               	movwf	(i2___fladd@b+3)^(0+1280),c
  9386  002F6E  AE34               	btfss	i2___fladd@signs^(0+1280),7,c
  9387  002F70  EFBC  F017         	goto	i2u434_41
  9388  002F74  EFBE  F017         	goto	i2u434_40
  9389  002F78                     i2u434_41:
  9390  002F78  EFBF  F017         	goto	i2l5125
  9391  002F7C                     i2u434_40:
  9392  002F7C  8E2B               	bsf	(i2___fladd@b+3)^(0+1280),7,c
  9393  002F7E                     i2l5125:
  9394  002F7E  C528  F528         	movff	i2___fladd@b,?i2___fladd
  9395  002F82  C529  F529         	movff	i2___fladd@b+1,?i2___fladd+1
  9396  002F86  C52A  F52A         	movff	i2___fladd@b+2,?i2___fladd+2
  9397  002F8A  C52B  F52B         	movff	i2___fladd@b+3,?i2___fladd+3
  9398  002F8E                     i2l2153:
  9399  002F8E  0012               	return		;funcret
  9400  002F90                     __end_ofi2___fladd:
  9401                           	callstack 0
  9402                           
  9403 ;; *************** function ___flmul *****************
  9404 ;; Defined at:
  9405 ;;		line 8 in file "C:\Program Files\Microchip\xc8\v2.31\pic\sources\c99\common\sprcmul.c"
  9406 ;; Parameters:    Size  Location     Type
  9407 ;;  b               4   14[COMRAM] unsigned char 
  9408 ;;  a               4   18[COMRAM] unsigned char 
  9409 ;; Auto vars:     Size  Location     Type
  9410 ;;  prod            4   33[COMRAM] struct .
  9411 ;;  grs             4   27[COMRAM] unsigned long 
  9412 ;;  temp            2   37[COMRAM] struct .
  9413 ;;  bexp            1   32[COMRAM] unsigned char 
  9414 ;;  aexp            1   31[COMRAM] unsigned char 
  9415 ;;  sign            1   26[COMRAM] unsigned char 
  9416 ;; Return value:  Size  Location     Type
  9417 ;;                  4   14[COMRAM] unsigned char 
  9418 ;; Registers used:
  9419 ;;		wreg, status,2, status,0, prodl, prodh
  9420 ;; Tracked objects:
  9421 ;;		On entry : 0/0
  9422 ;;		On exit  : 0/0
  9423 ;;		Unchanged: 0/0
  9424 ;; Data sizes:     COMRAM   BANK5   BANK6   BANK7   BANK8   BANK9  BANK10  BANK11  BANK12  BANK13  BANK14  BANK15  BANK1
      +6  BANK17  BANK18  BANK19  BANK20  BANK21  BANK22  BANK23  BANK24  BANK25  BANK26  BANK27  BANK28  BANK29  BANK30  BANK3
      +1  BANK32  BANK33  BANK34  BANK35  BANK36  BANK37
  9425 ;;      Params:         8       0       0       0       0       0       0       0       0       0       0       0       
      +0       0       0       0       0       0       0       0       0       0       0       0       0       0       0       
      +0       0       0       0       0       0       0
  9426 ;;      Locals:        13       0       0       0       0       0       0       0       0       0       0       0       
      +0       0       0       0       0       0       0       0       0       0       0       0       0       0       0       
      +0       0       0       0       0       0       0
  9427 ;;      Temps:          4       0       0       0       0       0       0       0       0       0       0       0       
      +0       0       0       0       0       0       0       0       0       0       0       0       0       0       0       
      +0       0       0       0       0       0       0
  9428 ;;      Totals:        25       0       0       0       0       0       0       0       0       0       0       0       
      +0       0       0       0       0       0       0       0       0       0       0       0       0       0       0       
      +0       0       0       0       0       0       0
  9429 ;;Total ram usage:       25 bytes
  9430 ;; Hardware stack levels used:    1
  9431 ;; This function calls:
  9432 ;;		Nothing
  9433 ;; This function is called by:
  9434 ;;		_ANALOG_GetVoltage
  9435 ;; This function uses a non-reentrant model
  9436 ;;
  9437                           
  9438                           	psect	text83
  9439  002F90                     __ptext83:
  9440                           	callstack 0
  9441  002F90                     ___flmul:
  9442                           	callstack 118
  9443  002F90  5012               	movf	(___flmul@b+3)^(0+1280),w,c
  9444  002F92  0B80               	andlw	128
  9445  002F94  6E1B               	movwf	___flmul@sign^(0+1280),c
  9446  002F96  5012               	movf	(___flmul@b+3)^(0+1280),w,c
  9447  002F98  2412               	addwf	(___flmul@b+3)^(0+1280),w,c
  9448  002F9A  6E21               	movwf	___flmul@bexp^(0+1280),c
  9449  002F9C  AE11               	btfss	(___flmul@b+2)^(0+1280),7,c
  9450  002F9E  EFD3  F017         	goto	i2u370_41
  9451  002FA2  EFD5  F017         	goto	i2u370_40
  9452  002FA6                     i2u370_41:
  9453  002FA6  EFD6  F017         	goto	i2l4759
  9454  002FAA                     i2u370_40:
  9455  002FAA  8021               	bsf	___flmul@bexp^(0+1280),0,c
  9456  002FAC                     i2l4759:
  9457  002FAC  5021               	movf	___flmul@bexp^(0+1280),w,c
  9458  002FAE  B4D8               	btfsc	status,2,c
  9459  002FB0  EFDC  F017         	goto	i2u371_41
  9460  002FB4  EFDE  F017         	goto	i2u371_40
  9461  002FB8                     i2u371_41:
  9462  002FB8  EFF1  F017         	goto	i2l4767
  9463  002FBC                     i2u371_40:
  9464  002FBC  2821               	incf	___flmul@bexp^(0+1280),w,c
  9465  002FBE  A4D8               	btfss	status,2,c
  9466  002FC0  EFE4  F017         	goto	i2u372_41
  9467  002FC4  EFE6  F017         	goto	i2u372_40
  9468  002FC8                     i2u372_41:
  9469  002FC8  EFEE  F017         	goto	i2l4765
  9470  002FCC                     i2u372_40:
  9471  002FCC  0E00               	movlw	0
  9472  002FCE  6E0F               	movwf	___flmul@b^(0+1280),c
  9473  002FD0  0E00               	movlw	0
  9474  002FD2  6E10               	movwf	(___flmul@b+1)^(0+1280),c
  9475  002FD4  0E00               	movlw	0
  9476  002FD6  6E11               	movwf	(___flmul@b+2)^(0+1280),c
  9477  002FD8  0E00               	movlw	0
  9478  002FDA  6E12               	movwf	(___flmul@b+3)^(0+1280),c
  9479  002FDC                     i2l4765:
  9480  002FDC  8E11               	bsf	(___flmul@b+2)^(0+1280),7,c
  9481  002FDE  EFF9  F017         	goto	i2l4769
  9482  002FE2                     i2l4767:
  9483  002FE2  0E00               	movlw	0
  9484  002FE4  6E0F               	movwf	___flmul@b^(0+1280),c
  9485  002FE6  0E00               	movlw	0
  9486  002FE8  6E10               	movwf	(___flmul@b+1)^(0+1280),c
  9487  002FEA  0E00               	movlw	0
  9488  002FEC  6E11               	movwf	(___flmul@b+2)^(0+1280),c
  9489  002FEE  0E00               	movlw	0
  9490  002FF0  6E12               	movwf	(___flmul@b+3)^(0+1280),c
  9491  002FF2                     i2l4769:
  9492  002FF2  5016               	movf	(___flmul@a+3)^(0+1280),w,c
  9493  002FF4  0B80               	andlw	128
  9494  002FF6  1A1B               	xorwf	___flmul@sign^(0+1280),f,c
  9495  002FF8  5016               	movf	(___flmul@a+3)^(0+1280),w,c
  9496  002FFA  2416               	addwf	(___flmul@a+3)^(0+1280),w,c
  9497  002FFC  6E20               	movwf	___flmul@aexp^(0+1280),c
  9498  002FFE  AE15               	btfss	(___flmul@a+2)^(0+1280),7,c
  9499  003000  EF04  F018         	goto	i2u373_41
  9500  003004  EF06  F018         	goto	i2u373_40
  9501  003008                     i2u373_41:
  9502  003008  EF07  F018         	goto	i2l4777
  9503  00300C                     i2u373_40:
  9504  00300C  8020               	bsf	___flmul@aexp^(0+1280),0,c
  9505  00300E                     i2l4777:
  9506  00300E  5020               	movf	___flmul@aexp^(0+1280),w,c
  9507  003010  B4D8               	btfsc	status,2,c
  9508  003012  EF0D  F018         	goto	i2u374_41
  9509  003016  EF0F  F018         	goto	i2u374_40
  9510  00301A                     i2u374_41:
  9511  00301A  EF22  F018         	goto	i2l4785
  9512  00301E                     i2u374_40:
  9513  00301E  2820               	incf	___flmul@aexp^(0+1280),w,c
  9514  003020  A4D8               	btfss	status,2,c
  9515  003022  EF15  F018         	goto	i2u375_41
  9516  003026  EF17  F018         	goto	i2u375_40
  9517  00302A                     i2u375_41:
  9518  00302A  EF1F  F018         	goto	i2l4783
  9519  00302E                     i2u375_40:
  9520  00302E  0E00               	movlw	0
  9521  003030  6E13               	movwf	___flmul@a^(0+1280),c
  9522  003032  0E00               	movlw	0
  9523  003034  6E14               	movwf	(___flmul@a+1)^(0+1280),c
  9524  003036  0E00               	movlw	0
  9525  003038  6E15               	movwf	(___flmul@a+2)^(0+1280),c
  9526  00303A  0E00               	movlw	0
  9527  00303C  6E16               	movwf	(___flmul@a+3)^(0+1280),c
  9528  00303E                     i2l4783:
  9529  00303E  8E15               	bsf	(___flmul@a+2)^(0+1280),7,c
  9530  003040  EF2A  F018         	goto	i2l2230
  9531  003044                     i2l4785:
  9532  003044  0E00               	movlw	0
  9533  003046  6E13               	movwf	___flmul@a^(0+1280),c
  9534  003048  0E00               	movlw	0
  9535  00304A  6E14               	movwf	(___flmul@a+1)^(0+1280),c
  9536  00304C  0E00               	movlw	0
  9537  00304E  6E15               	movwf	(___flmul@a+2)^(0+1280),c
  9538  003050  0E00               	movlw	0
  9539  003052  6E16               	movwf	(___flmul@a+3)^(0+1280),c
  9540  003054                     i2l2230:
  9541  003054  5020               	movf	___flmul@aexp^(0+1280),w,c
  9542  003056  B4D8               	btfsc	status,2,c
  9543  003058  EF30  F018         	goto	i2u376_41
  9544  00305C  EF32  F018         	goto	i2u376_40
  9545  003060                     i2u376_41:
  9546  003060  EF3A  F018         	goto	i2l4789
  9547  003064                     i2u376_40:
  9548  003064  5021               	movf	___flmul@bexp^(0+1280),w,c
  9549  003066  A4D8               	btfss	status,2,c
  9550  003068  EF38  F018         	goto	i2u377_41
  9551  00306C  EF3A  F018         	goto	i2u377_40
  9552  003070                     i2u377_41:
  9553  003070  EF44  F018         	goto	i2l4793
  9554  003074                     i2u377_40:
  9555  003074                     i2l4789:
  9556  003074  0E00               	movlw	0
  9557  003076  6E0F               	movwf	?___flmul^(0+1280),c
  9558  003078  0E00               	movlw	0
  9559  00307A  6E10               	movwf	(?___flmul+1)^(0+1280),c
  9560  00307C  0E00               	movlw	0
  9561  00307E  6E11               	movwf	(?___flmul+2)^(0+1280),c
  9562  003080  0E00               	movlw	0
  9563  003082  6E12               	movwf	(?___flmul+3)^(0+1280),c
  9564  003084  EFEE  F019         	goto	i2l2234
  9565  003088                     i2l4793:
  9566  003088  5015               	movf	(___flmul@a+2)^(0+1280),w,c
  9567  00308A  020F               	mulwf	___flmul@b^(0+1280),c
  9568  00308C  0061 F3CC  F526    	movff	prodl,___flmul@temp
  9569  003092  0061 F3D0  F527    	movff	prodh,___flmul@temp+1
  9570  003098  5026               	movf	___flmul@temp^(0+1280),w,c
  9571  00309A  6E1C               	movwf	___flmul@grs^(0+1280),c
  9572  00309C  6A1D               	clrf	(___flmul@grs+1)^(0+1280),c
  9573  00309E  6A1E               	clrf	(___flmul@grs+2)^(0+1280),c
  9574  0030A0  6A1F               	clrf	(___flmul@grs+3)^(0+1280),c
  9575  0030A2  5027               	movf	(___flmul@temp+1)^(0+1280),w,c
  9576  0030A4  6E22               	movwf	___flmul@prod^(0+1280),c
  9577  0030A6  6A23               	clrf	(___flmul@prod+1)^(0+1280),c
  9578  0030A8  6A24               	clrf	(___flmul@prod+2)^(0+1280),c
  9579  0030AA  6A25               	clrf	(___flmul@prod+3)^(0+1280),c
  9580  0030AC  5014               	movf	(___flmul@a+1)^(0+1280),w,c
  9581  0030AE  0210               	mulwf	(___flmul@b+1)^(0+1280),c
  9582  0030B0  0061 F3CC  F526    	movff	prodl,___flmul@temp
  9583  0030B6  0061 F3D0  F527    	movff	prodh,___flmul@temp+1
  9584  0030BC  5026               	movf	___flmul@temp^(0+1280),w,c
  9585  0030BE  261C               	addwf	___flmul@grs^(0+1280),f,c
  9586  0030C0  0E00               	movlw	0
  9587  0030C2  221D               	addwfc	(___flmul@grs+1)^(0+1280),f,c
  9588  0030C4  221E               	addwfc	(___flmul@grs+2)^(0+1280),f,c
  9589  0030C6  221F               	addwfc	(___flmul@grs+3)^(0+1280),f,c
  9590  0030C8  5027               	movf	(___flmul@temp+1)^(0+1280),w,c
  9591  0030CA  2622               	addwf	___flmul@prod^(0+1280),f,c
  9592  0030CC  0E00               	movlw	0
  9593  0030CE  2223               	addwfc	(___flmul@prod+1)^(0+1280),f,c
  9594  0030D0  2224               	addwfc	(___flmul@prod+2)^(0+1280),f,c
  9595  0030D2  2225               	addwfc	(___flmul@prod+3)^(0+1280),f,c
  9596  0030D4  5013               	movf	___flmul@a^(0+1280),w,c
  9597  0030D6  0211               	mulwf	(___flmul@b+2)^(0+1280),c
  9598  0030D8  0061 F3CC  F526    	movff	prodl,___flmul@temp
  9599  0030DE  0061 F3D0  F527    	movff	prodh,___flmul@temp+1
  9600  0030E4  5026               	movf	___flmul@temp^(0+1280),w,c
  9601  0030E6  261C               	addwf	___flmul@grs^(0+1280),f,c
  9602  0030E8  0E00               	movlw	0
  9603  0030EA  221D               	addwfc	(___flmul@grs+1)^(0+1280),f,c
  9604  0030EC  221E               	addwfc	(___flmul@grs+2)^(0+1280),f,c
  9605  0030EE  221F               	addwfc	(___flmul@grs+3)^(0+1280),f,c
  9606  0030F0  5027               	movf	(___flmul@temp+1)^(0+1280),w,c
  9607  0030F2  2622               	addwf	___flmul@prod^(0+1280),f,c
  9608  0030F4  0E00               	movlw	0
  9609  0030F6  2223               	addwfc	(___flmul@prod+1)^(0+1280),f,c
  9610  0030F8  2224               	addwfc	(___flmul@prod+2)^(0+1280),f,c
  9611  0030FA  2225               	addwfc	(___flmul@prod+3)^(0+1280),f,c
  9612  0030FC  C51E  F51F         	movff	___flmul@grs+2,___flmul@grs+3
  9613  003100  C51D  F51E         	movff	___flmul@grs+1,___flmul@grs+2
  9614  003104  C51C  F51D         	movff	___flmul@grs,___flmul@grs+1
  9615  003108  6A1C               	clrf	___flmul@grs^(0+1280),c
  9616  00310A  5013               	movf	___flmul@a^(0+1280),w,c
  9617  00310C  0210               	mulwf	(___flmul@b+1)^(0+1280),c
  9618  00310E  0061 F3CC  F526    	movff	prodl,___flmul@temp
  9619  003114  0061 F3D0  F527    	movff	prodh,___flmul@temp+1
  9620  00311A  5026               	movf	___flmul@temp^(0+1280),w,c
  9621  00311C  261C               	addwf	___flmul@grs^(0+1280),f,c
  9622  00311E  5027               	movf	(___flmul@temp+1)^(0+1280),w,c
  9623  003120  221D               	addwfc	(___flmul@grs+1)^(0+1280),f,c
  9624  003122  0E00               	movlw	0
  9625  003124  221E               	addwfc	(___flmul@grs+2)^(0+1280),f,c
  9626  003126  0E00               	movlw	0
  9627  003128  221F               	addwfc	(___flmul@grs+3)^(0+1280),f,c
  9628  00312A  5014               	movf	(___flmul@a+1)^(0+1280),w,c
  9629  00312C  020F               	mulwf	___flmul@b^(0+1280),c
  9630  00312E  0061 F3CC  F526    	movff	prodl,___flmul@temp
  9631  003134  0061 F3D0  F527    	movff	prodh,___flmul@temp+1
  9632  00313A  5026               	movf	___flmul@temp^(0+1280),w,c
  9633  00313C  261C               	addwf	___flmul@grs^(0+1280),f,c
  9634  00313E  5027               	movf	(___flmul@temp+1)^(0+1280),w,c
  9635  003140  221D               	addwfc	(___flmul@grs+1)^(0+1280),f,c
  9636  003142  0E00               	movlw	0
  9637  003144  221E               	addwfc	(___flmul@grs+2)^(0+1280),f,c
  9638  003146  0E00               	movlw	0
  9639  003148  221F               	addwfc	(___flmul@grs+3)^(0+1280),f,c
  9640  00314A  C51E  F51F         	movff	___flmul@grs+2,___flmul@grs+3
  9641  00314E  C51D  F51E         	movff	___flmul@grs+1,___flmul@grs+2
  9642  003152  C51C  F51D         	movff	___flmul@grs,___flmul@grs+1
  9643  003156  6A1C               	clrf	___flmul@grs^(0+1280),c
  9644  003158  5013               	movf	___flmul@a^(0+1280),w,c
  9645  00315A  020F               	mulwf	___flmul@b^(0+1280),c
  9646  00315C  0061 F3CC  F526    	movff	prodl,___flmul@temp
  9647  003162  0061 F3D0  F527    	movff	prodh,___flmul@temp+1
  9648  003168  5026               	movf	___flmul@temp^(0+1280),w,c
  9649  00316A  261C               	addwf	___flmul@grs^(0+1280),f,c
  9650  00316C  5027               	movf	(___flmul@temp+1)^(0+1280),w,c
  9651  00316E  221D               	addwfc	(___flmul@grs+1)^(0+1280),f,c
  9652  003170  0E00               	movlw	0
  9653  003172  221E               	addwfc	(___flmul@grs+2)^(0+1280),f,c
  9654  003174  0E00               	movlw	0
  9655  003176  221F               	addwfc	(___flmul@grs+3)^(0+1280),f,c
  9656  003178  5015               	movf	(___flmul@a+2)^(0+1280),w,c
  9657  00317A  0210               	mulwf	(___flmul@b+1)^(0+1280),c
  9658  00317C  0061 F3CC  F526    	movff	prodl,___flmul@temp
  9659  003182  0061 F3D0  F527    	movff	prodh,___flmul@temp+1
  9660  003188  5026               	movf	___flmul@temp^(0+1280),w,c
  9661  00318A  2622               	addwf	___flmul@prod^(0+1280),f,c
  9662  00318C  5027               	movf	(___flmul@temp+1)^(0+1280),w,c
  9663  00318E  2223               	addwfc	(___flmul@prod+1)^(0+1280),f,c
  9664  003190  0E00               	movlw	0
  9665  003192  2224               	addwfc	(___flmul@prod+2)^(0+1280),f,c
  9666  003194  0E00               	movlw	0
  9667  003196  2225               	addwfc	(___flmul@prod+3)^(0+1280),f,c
  9668  003198  5014               	movf	(___flmul@a+1)^(0+1280),w,c
  9669  00319A  0211               	mulwf	(___flmul@b+2)^(0+1280),c
  9670  00319C  0061 F3CC  F526    	movff	prodl,___flmul@temp
  9671  0031A2  0061 F3D0  F527    	movff	prodh,___flmul@temp+1
  9672  0031A8  5026               	movf	___flmul@temp^(0+1280),w,c
  9673  0031AA  2622               	addwf	___flmul@prod^(0+1280),f,c
  9674  0031AC  5027               	movf	(___flmul@temp+1)^(0+1280),w,c
  9675  0031AE  2223               	addwfc	(___flmul@prod+1)^(0+1280),f,c
  9676  0031B0  0E00               	movlw	0
  9677  0031B2  2224               	addwfc	(___flmul@prod+2)^(0+1280),f,c
  9678  0031B4  0E00               	movlw	0
  9679  0031B6  2225               	addwfc	(___flmul@prod+3)^(0+1280),f,c
  9680  0031B8  5015               	movf	(___flmul@a+2)^(0+1280),w,c
  9681  0031BA  0211               	mulwf	(___flmul@b+2)^(0+1280),c
  9682  0031BC  0061 F3CC  F526    	movff	prodl,___flmul@temp
  9683  0031C2  0061 F3D0  F527    	movff	prodh,___flmul@temp+1
  9684  0031C8  5026               	movf	___flmul@temp^(0+1280),w,c
  9685  0031CA  6E17               	movwf	??___flmul^(0+1280),c
  9686  0031CC  5027               	movf	(___flmul@temp+1)^(0+1280),w,c
  9687  0031CE  6E18               	movwf	(??___flmul+1)^(0+1280),c
  9688  0031D0  6A19               	clrf	(??___flmul+2)^(0+1280),c
  9689  0031D2  6A1A               	clrf	(??___flmul+3)^(0+1280),c
  9690  0031D4  C519  F51A         	movff	??___flmul+2,??___flmul+3
  9691  0031D8  C518  F519         	movff	??___flmul+1,??___flmul+2
  9692  0031DC  C517  F518         	movff	??___flmul,??___flmul+1
  9693  0031E0  6A17               	clrf	??___flmul^(0+1280),c
  9694  0031E2  5017               	movf	??___flmul^(0+1280),w,c
  9695  0031E4  2622               	addwf	___flmul@prod^(0+1280),f,c
  9696  0031E6  5018               	movf	(??___flmul+1)^(0+1280),w,c
  9697  0031E8  2223               	addwfc	(___flmul@prod+1)^(0+1280),f,c
  9698  0031EA  5019               	movf	(??___flmul+2)^(0+1280),w,c
  9699  0031EC  2224               	addwfc	(___flmul@prod+2)^(0+1280),f,c
  9700  0031EE  501A               	movf	(??___flmul+3)^(0+1280),w,c
  9701  0031F0  2225               	addwfc	(___flmul@prod+3)^(0+1280),f,c
  9702  0031F2  C51C  F517         	movff	___flmul@grs,??___flmul
  9703  0031F6  C51D  F518         	movff	___flmul@grs+1,??___flmul+1
  9704  0031FA  C51E  F519         	movff	___flmul@grs+2,??___flmul+2
  9705  0031FE  C51F  F51A         	movff	___flmul@grs+3,??___flmul+3
  9706  003202  0E19               	movlw	25
  9707  003204  EF09  F019         	goto	i2u378_40
  9708  003208                     i2u378_45:
  9709  003208  90D8               	bcf	status,0,c
  9710  00320A  321A               	rrcf	(??___flmul+3)^(0+1280),f,c
  9711  00320C  3219               	rrcf	(??___flmul+2)^(0+1280),f,c
  9712  00320E  3218               	rrcf	(??___flmul+1)^(0+1280),f,c
  9713  003210  3217               	rrcf	??___flmul^(0+1280),f,c
  9714  003212                     i2u378_40:
  9715  003212  2EE8               	decfsz	wreg,f,c
  9716  003214  EF04  F019         	goto	i2u378_45
  9717  003218  5017               	movf	??___flmul^(0+1280),w,c
  9718  00321A  2622               	addwf	___flmul@prod^(0+1280),f,c
  9719  00321C  5018               	movf	(??___flmul+1)^(0+1280),w,c
  9720  00321E  2223               	addwfc	(___flmul@prod+1)^(0+1280),f,c
  9721  003220  5019               	movf	(??___flmul+2)^(0+1280),w,c
  9722  003222  2224               	addwfc	(___flmul@prod+2)^(0+1280),f,c
  9723  003224  501A               	movf	(??___flmul+3)^(0+1280),w,c
  9724  003226  2225               	addwfc	(___flmul@prod+3)^(0+1280),f,c
  9725  003228  C51E  F51F         	movff	___flmul@grs+2,___flmul@grs+3
  9726  00322C  C51D  F51E         	movff	___flmul@grs+1,___flmul@grs+2
  9727  003230  C51C  F51D         	movff	___flmul@grs,___flmul@grs+1
  9728  003234  6A1C               	clrf	___flmul@grs^(0+1280),c
  9729  003236  5020               	movf	___flmul@aexp^(0+1280),w,c
  9730  003238  C521  F517         	movff	___flmul@bexp,??___flmul
  9731  00323C  6A18               	clrf	(??___flmul+1)^(0+1280),c
  9732  00323E  2617               	addwf	??___flmul^(0+1280),f,c
  9733  003240  0E00               	movlw	0
  9734  003242  2218               	addwfc	(??___flmul+1)^(0+1280),f,c
  9735  003244  0E82               	movlw	130
  9736  003246  2417               	addwf	??___flmul^(0+1280),w,c
  9737  003248  6E26               	movwf	___flmul@temp^(0+1280),c
  9738  00324A  0EFF               	movlw	255
  9739  00324C  2018               	addwfc	(??___flmul+1)^(0+1280),w,c
  9740  00324E  6E27               	movwf	(___flmul@temp+1)^(0+1280),c
  9741  003250  EF3F  F019         	goto	i2l4841
  9742  003254                     i2l4835:
  9743  003254  90D8               	bcf	status,0,c
  9744  003256  3622               	rlcf	___flmul@prod^(0+1280),f,c
  9745  003258  3623               	rlcf	(___flmul@prod+1)^(0+1280),f,c
  9746  00325A  3624               	rlcf	(___flmul@prod+2)^(0+1280),f,c
  9747  00325C  3625               	rlcf	(___flmul@prod+3)^(0+1280),f,c
  9748  00325E  AE1F               	btfss	(___flmul@grs+3)^(0+1280),7,c
  9749  003260  EF34  F019         	goto	i2u379_41
  9750  003264  EF36  F019         	goto	i2u379_40
  9751  003268                     i2u379_41:
  9752  003268  EF37  F019         	goto	i2l2237
  9753  00326C                     i2u379_40:
  9754  00326C  8022               	bsf	___flmul@prod^(0+1280),0,c
  9755  00326E                     i2l2237:
  9756  00326E  90D8               	bcf	status,0,c
  9757  003270  361C               	rlcf	___flmul@grs^(0+1280),f,c
  9758  003272  361D               	rlcf	(___flmul@grs+1)^(0+1280),f,c
  9759  003274  361E               	rlcf	(___flmul@grs+2)^(0+1280),f,c
  9760  003276  361F               	rlcf	(___flmul@grs+3)^(0+1280),f,c
  9761  003278  0626               	decf	___flmul@temp^(0+1280),f,c
  9762  00327A  A0D8               	btfss	status,0,c
  9763  00327C  0627               	decf	(___flmul@temp+1)^(0+1280),f,c
  9764  00327E                     i2l4841:
  9765  00327E  AE24               	btfss	(___flmul@prod+2)^(0+1280),7,c
  9766  003280  EF44  F019         	goto	i2u380_41
  9767  003284  EF46  F019         	goto	i2u380_40
  9768  003288                     i2u380_41:
  9769  003288  EF2A  F019         	goto	i2l4835
  9770  00328C                     i2u380_40:
  9771  00328C  0E00               	movlw	0
  9772  00328E  6E20               	movwf	___flmul@aexp^(0+1280),c
  9773  003290  AE1F               	btfss	(___flmul@grs+3)^(0+1280),7,c
  9774  003292  EF4D  F019         	goto	i2u381_41
  9775  003296  EF4F  F019         	goto	i2u381_40
  9776  00329A                     i2u381_41:
  9777  00329A  EF73  F019         	goto	i2l2239
  9778  00329E                     i2u381_40:
  9779  00329E  0EFF               	movlw	255
  9780  0032A0  141C               	andwf	___flmul@grs^(0+1280),w,c
  9781  0032A2  6E17               	movwf	??___flmul^(0+1280),c
  9782  0032A4  0EFF               	movlw	255
  9783  0032A6  141D               	andwf	(___flmul@grs+1)^(0+1280),w,c
  9784  0032A8  6E18               	movwf	(??___flmul+1)^(0+1280),c
  9785  0032AA  0EFF               	movlw	255
  9786  0032AC  141E               	andwf	(___flmul@grs+2)^(0+1280),w,c
  9787  0032AE  6E19               	movwf	(??___flmul+2)^(0+1280),c
  9788  0032B0  0E7F               	movlw	127
  9789  0032B2  141F               	andwf	(___flmul@grs+3)^(0+1280),w,c
  9790  0032B4  6E1A               	movwf	(??___flmul+3)^(0+1280),c
  9791  0032B6  5017               	movf	??___flmul^(0+1280),w,c
  9792  0032B8  1018               	iorwf	(??___flmul+1)^(0+1280),w,c
  9793  0032BA  1019               	iorwf	(??___flmul+2)^(0+1280),w,c
  9794  0032BC  101A               	iorwf	(??___flmul+3)^(0+1280),w,c
  9795  0032BE  B4D8               	btfsc	status,2,c
  9796  0032C0  EF64  F019         	goto	i2u382_41
  9797  0032C4  EF66  F019         	goto	i2u382_40
  9798  0032C8                     i2u382_41:
  9799  0032C8  EF6A  F019         	goto	i2l2240
  9800  0032CC                     i2u382_40:
  9801  0032CC                     i2l4849:
  9802  0032CC  0E01               	movlw	1
  9803  0032CE  6E20               	movwf	___flmul@aexp^(0+1280),c
  9804  0032D0  EF73  F019         	goto	i2l2239
  9805  0032D4                     i2l2240:
  9806  0032D4  A022               	btfss	___flmul@prod^(0+1280),0,c
  9807  0032D6  EF6F  F019         	goto	i2u383_41
  9808  0032DA  EF71  F019         	goto	i2u383_40
  9809  0032DE                     i2u383_41:
  9810  0032DE  EF73  F019         	goto	i2l2239
  9811  0032E2                     i2u383_40:
  9812  0032E2  EF66  F019         	goto	i2l4849
  9813  0032E6                     i2l2239:
  9814  0032E6  5020               	movf	___flmul@aexp^(0+1280),w,c
  9815  0032E8  B4D8               	btfsc	status,2,c
  9816  0032EA  EF79  F019         	goto	i2u384_41
  9817  0032EE  EF7B  F019         	goto	i2u384_40
  9818  0032F2                     i2u384_41:
  9819  0032F2  EF9F  F019         	goto	i2l4861
  9820  0032F6                     i2u384_40:
  9821  0032F6  0E01               	movlw	1
  9822  0032F8  2622               	addwf	___flmul@prod^(0+1280),f,c
  9823  0032FA  0E00               	movlw	0
  9824  0032FC  2223               	addwfc	(___flmul@prod+1)^(0+1280),f,c
  9825  0032FE  2224               	addwfc	(___flmul@prod+2)^(0+1280),f,c
  9826  003300  2225               	addwfc	(___flmul@prod+3)^(0+1280),f,c
  9827  003302  A025               	btfss	(___flmul@prod+3)^(0+1280),0,c
  9828  003304  EF86  F019         	goto	i2u385_41
  9829  003308  EF88  F019         	goto	i2u385_40
  9830  00330C                     i2u385_41:
  9831  00330C  EF9F  F019         	goto	i2l4861
  9832  003310                     i2u385_40:
  9833  003310  C522  F517         	movff	___flmul@prod,??___flmul
  9834  003314  C523  F518         	movff	___flmul@prod+1,??___flmul+1
  9835  003318  C524  F519         	movff	___flmul@prod+2,??___flmul+2
  9836  00331C  C525  F51A         	movff	___flmul@prod+3,??___flmul+3
  9837  003320  341A               	rlcf	(??___flmul+3)^(0+1280),w,c
  9838  003322  321A               	rrcf	(??___flmul+3)^(0+1280),f,c
  9839  003324  3219               	rrcf	(??___flmul+2)^(0+1280),f,c
  9840  003326  3218               	rrcf	(??___flmul+1)^(0+1280),f,c
  9841  003328  3217               	rrcf	??___flmul^(0+1280),f,c
  9842  00332A  C517  F522         	movff	??___flmul,___flmul@prod
  9843  00332E  C518  F523         	movff	??___flmul+1,___flmul@prod+1
  9844  003332  C519  F524         	movff	??___flmul+2,___flmul@prod+2
  9845  003336  C51A  F525         	movff	??___flmul+3,___flmul@prod+3
  9846  00333A  4A26               	infsnz	___flmul@temp^(0+1280),f,c
  9847  00333C  2A27               	incf	(___flmul@temp+1)^(0+1280),f,c
  9848  00333E                     i2l4861:
  9849  00333E  BE27               	btfsc	(___flmul@temp+1)^(0+1280),7,c
  9850  003340  EFAA  F019         	goto	i2u386_41
  9851  003344  5027               	movf	(___flmul@temp+1)^(0+1280),w,c
  9852  003346  E108               	bnz	i2u386_40
  9853  003348  2826               	incf	___flmul@temp^(0+1280),w,c
  9854  00334A  A0D8               	btfss	status,0,c
  9855  00334C  EFAA  F019         	goto	i2u386_41
  9856  003350  EFAC  F019         	goto	i2u386_40
  9857  003354                     i2u386_41:
  9858  003354  EFB6  F019         	goto	i2l4865
  9859  003358                     i2u386_40:
  9860  003358  0E00               	movlw	0
  9861  00335A  6E22               	movwf	___flmul@prod^(0+1280),c
  9862  00335C  0E00               	movlw	0
  9863  00335E  6E23               	movwf	(___flmul@prod+1)^(0+1280),c
  9864  003360  0E80               	movlw	128
  9865  003362  6E24               	movwf	(___flmul@prod+2)^(0+1280),c
  9866  003364  0E7F               	movlw	127
  9867  003366  6E25               	movwf	(___flmul@prod+3)^(0+1280),c
  9868  003368  EFE4  F019         	goto	i2l4877
  9869  00336C                     i2l4865:
  9870  00336C  BE27               	btfsc	(___flmul@temp+1)^(0+1280),7,c
  9871  00336E  EFC3  F019         	goto	i2u387_40
  9872  003372  5027               	movf	(___flmul@temp+1)^(0+1280),w,c
  9873  003374  E106               	bnz	i2u387_41
  9874  003376  0426               	decf	___flmul@temp^(0+1280),w,c
  9875  003378  B0D8               	btfsc	status,0,c
  9876  00337A  EFC1  F019         	goto	i2u387_41
  9877  00337E  EFC3  F019         	goto	i2u387_40
  9878  003382                     i2u387_41:
  9879  003382  EFCF  F019         	goto	i2l2247
  9880  003386                     i2u387_40:
  9881  003386  0E00               	movlw	0
  9882  003388  6E22               	movwf	___flmul@prod^(0+1280),c
  9883  00338A  0E00               	movlw	0
  9884  00338C  6E23               	movwf	(___flmul@prod+1)^(0+1280),c
  9885  00338E  0E00               	movlw	0
  9886  003390  6E24               	movwf	(___flmul@prod+2)^(0+1280),c
  9887  003392  0E00               	movlw	0
  9888  003394  6E25               	movwf	(___flmul@prod+3)^(0+1280),c
  9889  003396  0E00               	movlw	0
  9890  003398  6E1B               	movwf	___flmul@sign^(0+1280),c
  9891  00339A  EFE4  F019         	goto	i2l4877
  9892  00339E                     i2l2247:
  9893  00339E  C526  F521         	movff	___flmul@temp,___flmul@bexp
  9894  0033A2  0EFF               	movlw	255
  9895  0033A4  1622               	andwf	___flmul@prod^(0+1280),f,c
  9896  0033A6  0EFF               	movlw	255
  9897  0033A8  1623               	andwf	(___flmul@prod+1)^(0+1280),f,c
  9898  0033AA  0E7F               	movlw	127
  9899  0033AC  1624               	andwf	(___flmul@prod+2)^(0+1280),f,c
  9900  0033AE  0E00               	movlw	0
  9901  0033B0  1625               	andwf	(___flmul@prod+3)^(0+1280),f,c
  9902  0033B2  A021               	btfss	___flmul@bexp^(0+1280),0,c
  9903  0033B4  EFDE  F019         	goto	i2u388_41
  9904  0033B8  EFE0  F019         	goto	i2u388_40
  9905  0033BC                     i2u388_41:
  9906  0033BC  EFE1  F019         	goto	i2l4875
  9907  0033C0                     i2u388_40:
  9908  0033C0  8E24               	bsf	(___flmul@prod+2)^(0+1280),7,c
  9909  0033C2                     i2l4875:
  9910  0033C2  90D8               	bcf	status,0,c
  9911  0033C4  3021               	rrcf	___flmul@bexp^(0+1280),w,c
  9912  0033C6  6E25               	movwf	(___flmul@prod+3)^(0+1280),c
  9913  0033C8                     i2l4877:
  9914  0033C8  501B               	movf	___flmul@sign^(0+1280),w,c
  9915  0033CA  1225               	iorwf	(___flmul@prod+3)^(0+1280),f,c
  9916  0033CC  C522  F50F         	movff	___flmul@prod,?___flmul
  9917  0033D0  C523  F510         	movff	___flmul@prod+1,?___flmul+1
  9918  0033D4  C524  F511         	movff	___flmul@prod+2,?___flmul+2
  9919  0033D8  C525  F512         	movff	___flmul@prod+3,?___flmul+3
  9920  0033DC                     i2l2234:
  9921  0033DC  0012               	return		;funcret
  9922  0033DE                     __end_of___flmul:
  9923                           	callstack 0
  9924                           
  9925 ;; *************** function ___fldiv *****************
  9926 ;; Defined at:
  9927 ;;		line 11 in file "C:\Program Files\Microchip\xc8\v2.31\pic\sources\c99\common\sprcdiv.c"
  9928 ;; Parameters:    Size  Location     Type
  9929 ;;  b               4   14[COMRAM] unsigned char 
  9930 ;;  a               4   18[COMRAM] unsigned char 
  9931 ;; Auto vars:     Size  Location     Type
  9932 ;;  grs             4   33[COMRAM] unsigned long 
  9933 ;;  rem             4   26[COMRAM] unsigned long 
  9934 ;;  new_exp         2   31[COMRAM] short 
  9935 ;;  aexp            1   38[COMRAM] unsigned char 
  9936 ;;  bexp            1   37[COMRAM] unsigned char 
  9937 ;;  sign            1   30[COMRAM] unsigned char 
  9938 ;; Return value:  Size  Location     Type
  9939 ;;                  4   14[COMRAM] unsigned char 
  9940 ;; Registers used:
  9941 ;;		wreg, status,2, status,0
  9942 ;; Tracked objects:
  9943 ;;		On entry : 0/0
  9944 ;;		On exit  : 0/0
  9945 ;;		Unchanged: 0/0
  9946 ;; Data sizes:     COMRAM   BANK5   BANK6   BANK7   BANK8   BANK9  BANK10  BANK11  BANK12  BANK13  BANK14  BANK15  BANK1
      +6  BANK17  BANK18  BANK19  BANK20  BANK21  BANK22  BANK23  BANK24  BANK25  BANK26  BANK27  BANK28  BANK29  BANK30  BANK3
      +1  BANK32  BANK33  BANK34  BANK35  BANK36  BANK37
  9947 ;;      Params:         8       0       0       0       0       0       0       0       0       0       0       0       
      +0       0       0       0       0       0       0       0       0       0       0       0       0       0       0       
      +0       0       0       0       0       0       0
  9948 ;;      Locals:        13       0       0       0       0       0       0       0       0       0       0       0       
      +0       0       0       0       0       0       0       0       0       0       0       0       0       0       0       
      +0       0       0       0       0       0       0
  9949 ;;      Temps:          4       0       0       0       0       0       0       0       0       0       0       0       
      +0       0       0       0       0       0       0       0       0       0       0       0       0       0       0       
      +0       0       0       0       0       0       0
  9950 ;;      Totals:        25       0       0       0       0       0       0       0       0       0       0       0       
      +0       0       0       0       0       0       0       0       0       0       0       0       0       0       0       
      +0       0       0       0       0       0       0
  9951 ;;Total ram usage:       25 bytes
  9952 ;; Hardware stack levels used:    1
  9953 ;; This function calls:
  9954 ;;		Nothing
  9955 ;; This function is called by:
  9956 ;;		_ANALOG_GetVoltage
  9957 ;; This function uses a non-reentrant model
  9958 ;;
  9959                           
  9960                           	psect	text84
  9961  0033DE                     __ptext84:
  9962                           	callstack 0
  9963  0033DE                     ___fldiv:
  9964                           	callstack 118
  9965  0033DE  5012               	movf	(___fldiv@b+3)^(0+1280),w,c
  9966  0033E0  0B80               	andlw	128
  9967  0033E2  6E1F               	movwf	___fldiv@sign^(0+1280),c
  9968  0033E4  5012               	movf	(___fldiv@b+3)^(0+1280),w,c
  9969  0033E6  2412               	addwf	(___fldiv@b+3)^(0+1280),w,c
  9970  0033E8  6E26               	movwf	___fldiv@bexp^(0+1280),c
  9971  0033EA  AE11               	btfss	(___fldiv@b+2)^(0+1280),7,c
  9972  0033EC  EFFA  F019         	goto	i2u347_41
  9973  0033F0  EFFC  F019         	goto	i2u347_40
  9974  0033F4                     i2u347_41:
  9975  0033F4  EFFD  F019         	goto	i2l4621
  9976  0033F8                     i2u347_40:
  9977  0033F8  8026               	bsf	___fldiv@bexp^(0+1280),0,c
  9978  0033FA                     i2l4621:
  9979  0033FA  5026               	movf	___fldiv@bexp^(0+1280),w,c
  9980  0033FC  B4D8               	btfsc	status,2,c
  9981  0033FE  EF03  F01A         	goto	i2u348_41
  9982  003402  EF05  F01A         	goto	i2u348_40
  9983  003406                     i2u348_41:
  9984  003406  EF1A  F01A         	goto	i2l4631
  9985  00340A                     i2u348_40:
  9986  00340A  2826               	incf	___fldiv@bexp^(0+1280),w,c
  9987  00340C  A4D8               	btfss	status,2,c
  9988  00340E  EF0B  F01A         	goto	i2u349_41
  9989  003412  EF0D  F01A         	goto	i2u349_40
  9990  003416                     i2u349_41:
  9991  003416  EF15  F01A         	goto	i2l4627
  9992  00341A                     i2u349_40:
  9993  00341A  0E00               	movlw	0
  9994  00341C  6E0F               	movwf	___fldiv@b^(0+1280),c
  9995  00341E  0E00               	movlw	0
  9996  003420  6E10               	movwf	(___fldiv@b+1)^(0+1280),c
  9997  003422  0E00               	movlw	0
  9998  003424  6E11               	movwf	(___fldiv@b+2)^(0+1280),c
  9999  003426  0E00               	movlw	0
 10000  003428  6E12               	movwf	(___fldiv@b+3)^(0+1280),c
 10001  00342A                     i2l4627:
 10002  00342A  8E11               	bsf	(___fldiv@b+2)^(0+1280),7,c
 10003  00342C  0E00               	movlw	0
 10004  00342E  6E12               	movwf	(___fldiv@b+3)^(0+1280),c
 10005  003430  EF22  F01A         	goto	i2l4633
 10006  003434                     i2l4631:
 10007  003434  0E00               	movlw	0
 10008  003436  6E0F               	movwf	___fldiv@b^(0+1280),c
 10009  003438  0E00               	movlw	0
 10010  00343A  6E10               	movwf	(___fldiv@b+1)^(0+1280),c
 10011  00343C  0E00               	movlw	0
 10012  00343E  6E11               	movwf	(___fldiv@b+2)^(0+1280),c
 10013  003440  0E00               	movlw	0
 10014  003442  6E12               	movwf	(___fldiv@b+3)^(0+1280),c
 10015  003444                     i2l4633:
 10016  003444  5016               	movf	(___fldiv@a+3)^(0+1280),w,c
 10017  003446  0B80               	andlw	128
 10018  003448  1A1F               	xorwf	___fldiv@sign^(0+1280),f,c
 10019  00344A  5016               	movf	(___fldiv@a+3)^(0+1280),w,c
 10020  00344C  2416               	addwf	(___fldiv@a+3)^(0+1280),w,c
 10021  00344E  6E27               	movwf	___fldiv@aexp^(0+1280),c
 10022  003450  AE15               	btfss	(___fldiv@a+2)^(0+1280),7,c
 10023  003452  EF2D  F01A         	goto	i2u350_41
 10024  003456  EF2F  F01A         	goto	i2u350_40
 10025  00345A                     i2u350_41:
 10026  00345A  EF30  F01A         	goto	i2l4641
 10027  00345E                     i2u350_40:
 10028  00345E  8027               	bsf	___fldiv@aexp^(0+1280),0,c
 10029  003460                     i2l4641:
 10030  003460  5027               	movf	___fldiv@aexp^(0+1280),w,c
 10031  003462  B4D8               	btfsc	status,2,c
 10032  003464  EF36  F01A         	goto	i2u351_41
 10033  003468  EF38  F01A         	goto	i2u351_40
 10034  00346C                     i2u351_41:
 10035  00346C  EF4D  F01A         	goto	i2l4651
 10036  003470                     i2u351_40:
 10037  003470  2827               	incf	___fldiv@aexp^(0+1280),w,c
 10038  003472  A4D8               	btfss	status,2,c
 10039  003474  EF3E  F01A         	goto	i2u352_41
 10040  003478  EF40  F01A         	goto	i2u352_40
 10041  00347C                     i2u352_41:
 10042  00347C  EF48  F01A         	goto	i2l4647
 10043  003480                     i2u352_40:
 10044  003480  0E00               	movlw	0
 10045  003482  6E13               	movwf	___fldiv@a^(0+1280),c
 10046  003484  0E00               	movlw	0
 10047  003486  6E14               	movwf	(___fldiv@a+1)^(0+1280),c
 10048  003488  0E00               	movlw	0
 10049  00348A  6E15               	movwf	(___fldiv@a+2)^(0+1280),c
 10050  00348C  0E00               	movlw	0
 10051  00348E  6E16               	movwf	(___fldiv@a+3)^(0+1280),c
 10052  003490                     i2l4647:
 10053  003490  8E15               	bsf	(___fldiv@a+2)^(0+1280),7,c
 10054  003492  0E00               	movlw	0
 10055  003494  6E16               	movwf	(___fldiv@a+3)^(0+1280),c
 10056  003496  EF55  F01A         	goto	i2l4653
 10057  00349A                     i2l4651:
 10058  00349A  0E00               	movlw	0
 10059  00349C  6E13               	movwf	___fldiv@a^(0+1280),c
 10060  00349E  0E00               	movlw	0
 10061  0034A0  6E14               	movwf	(___fldiv@a+1)^(0+1280),c
 10062  0034A2  0E00               	movlw	0
 10063  0034A4  6E15               	movwf	(___fldiv@a+2)^(0+1280),c
 10064  0034A6  0E00               	movlw	0
 10065  0034A8  6E16               	movwf	(___fldiv@a+3)^(0+1280),c
 10066  0034AA                     i2l4653:
 10067  0034AA  5013               	movf	___fldiv@a^(0+1280),w,c
 10068  0034AC  1014               	iorwf	(___fldiv@a+1)^(0+1280),w,c
 10069  0034AE  1015               	iorwf	(___fldiv@a+2)^(0+1280),w,c
 10070  0034B0  1016               	iorwf	(___fldiv@a+3)^(0+1280),w,c
 10071  0034B2  A4D8               	btfss	status,2,c
 10072  0034B4  EF5E  F01A         	goto	i2u353_41
 10073  0034B8  EF60  F01A         	goto	i2u353_40
 10074  0034BC                     i2u353_41:
 10075  0034BC  EF78  F01A         	goto	i2l4665
 10076  0034C0                     i2u353_40:
 10077  0034C0  0E00               	movlw	0
 10078  0034C2  6E0F               	movwf	___fldiv@b^(0+1280),c
 10079  0034C4  0E00               	movlw	0
 10080  0034C6  6E10               	movwf	(___fldiv@b+1)^(0+1280),c
 10081  0034C8  0E00               	movlw	0
 10082  0034CA  6E11               	movwf	(___fldiv@b+2)^(0+1280),c
 10083  0034CC  0E00               	movlw	0
 10084  0034CE  6E12               	movwf	(___fldiv@b+3)^(0+1280),c
 10085  0034D0  0E80               	movlw	128
 10086  0034D2  1211               	iorwf	(___fldiv@b+2)^(0+1280),f,c
 10087  0034D4  0E7F               	movlw	127
 10088  0034D6  1212               	iorwf	(___fldiv@b+3)^(0+1280),f,c
 10089  0034D8                     i2l4659:
 10090  0034D8  501F               	movf	___fldiv@sign^(0+1280),w,c
 10091  0034DA  1212               	iorwf	(___fldiv@b+3)^(0+1280),f,c
 10092  0034DC  C50F  F50F         	movff	___fldiv@b,?___fldiv
 10093  0034E0  C510  F510         	movff	___fldiv@b+1,?___fldiv+1
 10094  0034E4  C511  F511         	movff	___fldiv@b+2,?___fldiv+2
 10095  0034E8  C512  F512         	movff	___fldiv@b+3,?___fldiv+3
 10096  0034EC  EFBB  F01B         	goto	i2l2198
 10097  0034F0                     i2l4665:
 10098  0034F0  5026               	movf	___fldiv@bexp^(0+1280),w,c
 10099  0034F2  A4D8               	btfss	status,2,c
 10100  0034F4  EF7E  F01A         	goto	i2u354_41
 10101  0034F8  EF80  F01A         	goto	i2u354_40
 10102  0034FC                     i2u354_41:
 10103  0034FC  EF8A  F01A         	goto	i2l4673
 10104  003500                     i2u354_40:
 10105  003500  0E00               	movlw	0
 10106  003502  6E0F               	movwf	?___fldiv^(0+1280),c
 10107  003504  0E00               	movlw	0
 10108  003506  6E10               	movwf	(?___fldiv+1)^(0+1280),c
 10109  003508  0E00               	movlw	0
 10110  00350A  6E11               	movwf	(?___fldiv+2)^(0+1280),c
 10111  00350C  0E00               	movlw	0
 10112  00350E  6E12               	movwf	(?___fldiv+3)^(0+1280),c
 10113  003510  EFBB  F01B         	goto	i2l2198
 10114  003514                     i2l4673:
 10115  003514  5027               	movf	___fldiv@aexp^(0+1280),w,c
 10116  003516  C526  F517         	movff	___fldiv@bexp,??___fldiv
 10117  00351A  6A18               	clrf	(??___fldiv+1)^(0+1280),c
 10118  00351C  5E17               	subwf	??___fldiv^(0+1280),f,c
 10119  00351E  0E00               	movlw	0
 10120  003520  5A18               	subwfb	(??___fldiv+1)^(0+1280),f,c
 10121  003522  0E7F               	movlw	127
 10122  003524  2417               	addwf	??___fldiv^(0+1280),w,c
 10123  003526  6E20               	movwf	___fldiv@new_exp^(0+1280),c
 10124  003528  0E00               	movlw	0
 10125  00352A  2018               	addwfc	(??___fldiv+1)^(0+1280),w,c
 10126  00352C  6E21               	movwf	(___fldiv@new_exp+1)^(0+1280),c
 10127  00352E  C50F  F51B         	movff	___fldiv@b,___fldiv@rem
 10128  003532  C510  F51C         	movff	___fldiv@b+1,___fldiv@rem+1
 10129  003536  C511  F51D         	movff	___fldiv@b+2,___fldiv@rem+2
 10130  00353A  C512  F51E         	movff	___fldiv@b+3,___fldiv@rem+3
 10131  00353E  0E00               	movlw	0
 10132  003540  6E0F               	movwf	___fldiv@b^(0+1280),c
 10133  003542  0E00               	movlw	0
 10134  003544  6E10               	movwf	(___fldiv@b+1)^(0+1280),c
 10135  003546  0E00               	movlw	0
 10136  003548  6E11               	movwf	(___fldiv@b+2)^(0+1280),c
 10137  00354A  0E00               	movlw	0
 10138  00354C  6E12               	movwf	(___fldiv@b+3)^(0+1280),c
 10139  00354E  0E00               	movlw	0
 10140  003550  6E22               	movwf	___fldiv@grs^(0+1280),c
 10141  003552  0E00               	movlw	0
 10142  003554  6E23               	movwf	(___fldiv@grs+1)^(0+1280),c
 10143  003556  0E00               	movlw	0
 10144  003558  6E24               	movwf	(___fldiv@grs+2)^(0+1280),c
 10145  00355A  0E00               	movlw	0
 10146  00355C  6E25               	movwf	(___fldiv@grs+3)^(0+1280),c
 10147  00355E  0E00               	movlw	0
 10148  003560  6E27               	movwf	___fldiv@aexp^(0+1280),c
 10149  003562  EFEB  F01A         	goto	i2l2200
 10150  003566                     i2l4683:
 10151  003566  5027               	movf	___fldiv@aexp^(0+1280),w,c
 10152  003568  B4D8               	btfsc	status,2,c
 10153  00356A  EFB9  F01A         	goto	i2u355_41
 10154  00356E  EFBB  F01A         	goto	i2u355_40
 10155  003572                     i2u355_41:
 10156  003572  EFD2  F01A         	goto	i2l4691
 10157  003576                     i2u355_40:
 10158  003576  90D8               	bcf	status,0,c
 10159  003578  361B               	rlcf	___fldiv@rem^(0+1280),f,c
 10160  00357A  361C               	rlcf	(___fldiv@rem+1)^(0+1280),f,c
 10161  00357C  361D               	rlcf	(___fldiv@rem+2)^(0+1280),f,c
 10162  00357E  361E               	rlcf	(___fldiv@rem+3)^(0+1280),f,c
 10163  003580  90D8               	bcf	status,0,c
 10164  003582  360F               	rlcf	___fldiv@b^(0+1280),f,c
 10165  003584  3610               	rlcf	(___fldiv@b+1)^(0+1280),f,c
 10166  003586  3611               	rlcf	(___fldiv@b+2)^(0+1280),f,c
 10167  003588  3612               	rlcf	(___fldiv@b+3)^(0+1280),f,c
 10168  00358A  AE25               	btfss	(___fldiv@grs+3)^(0+1280),7,c
 10169  00358C  EFCA  F01A         	goto	i2u356_41
 10170  003590  EFCC  F01A         	goto	i2u356_40
 10171  003594                     i2u356_41:
 10172  003594  EFCD  F01A         	goto	i2l2203
 10173  003598                     i2u356_40:
 10174  003598  800F               	bsf	___fldiv@b^(0+1280),0,c
 10175  00359A                     i2l2203:
 10176  00359A  90D8               	bcf	status,0,c
 10177  00359C  3622               	rlcf	___fldiv@grs^(0+1280),f,c
 10178  00359E  3623               	rlcf	(___fldiv@grs+1)^(0+1280),f,c
 10179  0035A0  3624               	rlcf	(___fldiv@grs+2)^(0+1280),f,c
 10180  0035A2  3625               	rlcf	(___fldiv@grs+3)^(0+1280),f,c
 10181  0035A4                     i2l4691:
 10182  0035A4  5013               	movf	___fldiv@a^(0+1280),w,c
 10183  0035A6  5C1B               	subwf	___fldiv@rem^(0+1280),w,c
 10184  0035A8  5014               	movf	(___fldiv@a+1)^(0+1280),w,c
 10185  0035AA  581C               	subwfb	(___fldiv@rem+1)^(0+1280),w,c
 10186  0035AC  5015               	movf	(___fldiv@a+2)^(0+1280),w,c
 10187  0035AE  581D               	subwfb	(___fldiv@rem+2)^(0+1280),w,c
 10188  0035B0  5016               	movf	(___fldiv@a+3)^(0+1280),w,c
 10189  0035B2  581E               	subwfb	(___fldiv@rem+3)^(0+1280),w,c
 10190  0035B4  A0D8               	btfss	status,0,c
 10191  0035B6  EFDF  F01A         	goto	i2u357_41
 10192  0035BA  EFE1  F01A         	goto	i2u357_40
 10193  0035BE                     i2u357_41:
 10194  0035BE  EFEA  F01A         	goto	i2l4697
 10195  0035C2                     i2u357_40:
 10196  0035C2  8C25               	bsf	(___fldiv@grs+3)^(0+1280),6,c
 10197  0035C4  5013               	movf	___fldiv@a^(0+1280),w,c
 10198  0035C6  5E1B               	subwf	___fldiv@rem^(0+1280),f,c
 10199  0035C8  5014               	movf	(___fldiv@a+1)^(0+1280),w,c
 10200  0035CA  5A1C               	subwfb	(___fldiv@rem+1)^(0+1280),f,c
 10201  0035CC  5015               	movf	(___fldiv@a+2)^(0+1280),w,c
 10202  0035CE  5A1D               	subwfb	(___fldiv@rem+2)^(0+1280),f,c
 10203  0035D0  5016               	movf	(___fldiv@a+3)^(0+1280),w,c
 10204  0035D2  5A1E               	subwfb	(___fldiv@rem+3)^(0+1280),f,c
 10205  0035D4                     i2l4697:
 10206  0035D4  2A27               	incf	___fldiv@aexp^(0+1280),f,c
 10207  0035D6                     i2l2200:
 10208  0035D6  0E19               	movlw	25
 10209  0035D8  6427               	cpfsgt	___fldiv@aexp^(0+1280),c
 10210  0035DA  EFF1  F01A         	goto	i2u358_41
 10211  0035DE  EFF3  F01A         	goto	i2u358_40
 10212  0035E2                     i2u358_41:
 10213  0035E2  EFB3  F01A         	goto	i2l4683
 10214  0035E6                     i2u358_40:
 10215  0035E6  501B               	movf	___fldiv@rem^(0+1280),w,c
 10216  0035E8  101C               	iorwf	(___fldiv@rem+1)^(0+1280),w,c
 10217  0035EA  101D               	iorwf	(___fldiv@rem+2)^(0+1280),w,c
 10218  0035EC  101E               	iorwf	(___fldiv@rem+3)^(0+1280),w,c
 10219  0035EE  B4D8               	btfsc	status,2,c
 10220  0035F0  EFFC  F01A         	goto	i2u359_41
 10221  0035F4  EFFE  F01A         	goto	i2u359_40
 10222  0035F8                     i2u359_41:
 10223  0035F8  EF16  F01B         	goto	i2l4709
 10224  0035FC                     i2u359_40:
 10225  0035FC  8022               	bsf	___fldiv@grs^(0+1280),0,c
 10226  0035FE  EF16  F01B         	goto	i2l4709
 10227  003602                     i2l4703:
 10228  003602  90D8               	bcf	status,0,c
 10229  003604  360F               	rlcf	___fldiv@b^(0+1280),f,c
 10230  003606  3610               	rlcf	(___fldiv@b+1)^(0+1280),f,c
 10231  003608  3611               	rlcf	(___fldiv@b+2)^(0+1280),f,c
 10232  00360A  3612               	rlcf	(___fldiv@b+3)^(0+1280),f,c
 10233  00360C  AE25               	btfss	(___fldiv@grs+3)^(0+1280),7,c
 10234  00360E  EF0B  F01B         	goto	i2u360_41
 10235  003612  EF0D  F01B         	goto	i2u360_40
 10236  003616                     i2u360_41:
 10237  003616  EF0E  F01B         	goto	i2l2209
 10238  00361A                     i2u360_40:
 10239  00361A  800F               	bsf	___fldiv@b^(0+1280),0,c
 10240  00361C                     i2l2209:
 10241  00361C  90D8               	bcf	status,0,c
 10242  00361E  3622               	rlcf	___fldiv@grs^(0+1280),f,c
 10243  003620  3623               	rlcf	(___fldiv@grs+1)^(0+1280),f,c
 10244  003622  3624               	rlcf	(___fldiv@grs+2)^(0+1280),f,c
 10245  003624  3625               	rlcf	(___fldiv@grs+3)^(0+1280),f,c
 10246  003626  0620               	decf	___fldiv@new_exp^(0+1280),f,c
 10247  003628  A0D8               	btfss	status,0,c
 10248  00362A  0621               	decf	(___fldiv@new_exp+1)^(0+1280),f,c
 10249  00362C                     i2l4709:
 10250  00362C  AE11               	btfss	(___fldiv@b+2)^(0+1280),7,c
 10251  00362E  EF1B  F01B         	goto	i2u361_41
 10252  003632  EF1D  F01B         	goto	i2u361_40
 10253  003636                     i2u361_41:
 10254  003636  EF01  F01B         	goto	i2l4703
 10255  00363A                     i2u361_40:
 10256  00363A  0E00               	movlw	0
 10257  00363C  6E27               	movwf	___fldiv@aexp^(0+1280),c
 10258  00363E  AE25               	btfss	(___fldiv@grs+3)^(0+1280),7,c
 10259  003640  EF24  F01B         	goto	i2u362_41
 10260  003644  EF26  F01B         	goto	i2u362_40
 10261  003648                     i2u362_41:
 10262  003648  EF4A  F01B         	goto	i2l2211
 10263  00364C                     i2u362_40:
 10264  00364C  0EFF               	movlw	255
 10265  00364E  1422               	andwf	___fldiv@grs^(0+1280),w,c
 10266  003650  6E17               	movwf	??___fldiv^(0+1280),c
 10267  003652  0EFF               	movlw	255
 10268  003654  1423               	andwf	(___fldiv@grs+1)^(0+1280),w,c
 10269  003656  6E18               	movwf	(??___fldiv+1)^(0+1280),c
 10270  003658  0EFF               	movlw	255
 10271  00365A  1424               	andwf	(___fldiv@grs+2)^(0+1280),w,c
 10272  00365C  6E19               	movwf	(??___fldiv+2)^(0+1280),c
 10273  00365E  0E7F               	movlw	127
 10274  003660  1425               	andwf	(___fldiv@grs+3)^(0+1280),w,c
 10275  003662  6E1A               	movwf	(??___fldiv+3)^(0+1280),c
 10276  003664  5017               	movf	??___fldiv^(0+1280),w,c
 10277  003666  1018               	iorwf	(??___fldiv+1)^(0+1280),w,c
 10278  003668  1019               	iorwf	(??___fldiv+2)^(0+1280),w,c
 10279  00366A  101A               	iorwf	(??___fldiv+3)^(0+1280),w,c
 10280  00366C  B4D8               	btfsc	status,2,c
 10281  00366E  EF3B  F01B         	goto	i2u363_41
 10282  003672  EF3D  F01B         	goto	i2u363_40
 10283  003676                     i2u363_41:
 10284  003676  EF41  F01B         	goto	i2l2212
 10285  00367A                     i2u363_40:
 10286  00367A                     i2l4717:
 10287  00367A  0E01               	movlw	1
 10288  00367C  6E27               	movwf	___fldiv@aexp^(0+1280),c
 10289  00367E  EF4A  F01B         	goto	i2l2211
 10290  003682                     i2l2212:
 10291  003682  A00F               	btfss	___fldiv@b^(0+1280),0,c
 10292  003684  EF46  F01B         	goto	i2u364_41
 10293  003688  EF48  F01B         	goto	i2u364_40
 10294  00368C                     i2u364_41:
 10295  00368C  EF4A  F01B         	goto	i2l2211
 10296  003690                     i2u364_40:
 10297  003690  EF3D  F01B         	goto	i2l4717
 10298  003694                     i2l2211:
 10299  003694  5027               	movf	___fldiv@aexp^(0+1280),w,c
 10300  003696  B4D8               	btfsc	status,2,c
 10301  003698  EF50  F01B         	goto	i2u365_41
 10302  00369C  EF52  F01B         	goto	i2u365_40
 10303  0036A0                     i2u365_41:
 10304  0036A0  EF76  F01B         	goto	i2l4729
 10305  0036A4                     i2u365_40:
 10306  0036A4  0E01               	movlw	1
 10307  0036A6  260F               	addwf	___fldiv@b^(0+1280),f,c
 10308  0036A8  0E00               	movlw	0
 10309  0036AA  2210               	addwfc	(___fldiv@b+1)^(0+1280),f,c
 10310  0036AC  2211               	addwfc	(___fldiv@b+2)^(0+1280),f,c
 10311  0036AE  2212               	addwfc	(___fldiv@b+3)^(0+1280),f,c
 10312  0036B0  A012               	btfss	(___fldiv@b+3)^(0+1280),0,c
 10313  0036B2  EF5D  F01B         	goto	i2u366_41
 10314  0036B6  EF5F  F01B         	goto	i2u366_40
 10315  0036BA                     i2u366_41:
 10316  0036BA  EF76  F01B         	goto	i2l4729
 10317  0036BE                     i2u366_40:
 10318  0036BE  C50F  F517         	movff	___fldiv@b,??___fldiv
 10319  0036C2  C510  F518         	movff	___fldiv@b+1,??___fldiv+1
 10320  0036C6  C511  F519         	movff	___fldiv@b+2,??___fldiv+2
 10321  0036CA  C512  F51A         	movff	___fldiv@b+3,??___fldiv+3
 10322  0036CE  341A               	rlcf	(??___fldiv+3)^(0+1280),w,c
 10323  0036D0  321A               	rrcf	(??___fldiv+3)^(0+1280),f,c
 10324  0036D2  3219               	rrcf	(??___fldiv+2)^(0+1280),f,c
 10325  0036D4  3218               	rrcf	(??___fldiv+1)^(0+1280),f,c
 10326  0036D6  3217               	rrcf	??___fldiv^(0+1280),f,c
 10327  0036D8  C517  F50F         	movff	??___fldiv,___fldiv@b
 10328  0036DC  C518  F510         	movff	??___fldiv+1,___fldiv@b+1
 10329  0036E0  C519  F511         	movff	??___fldiv+2,___fldiv@b+2
 10330  0036E4  C51A  F512         	movff	??___fldiv+3,___fldiv@b+3
 10331  0036E8  4A20               	infsnz	___fldiv@new_exp^(0+1280),f,c
 10332  0036EA  2A21               	incf	(___fldiv@new_exp+1)^(0+1280),f,c
 10333  0036EC                     i2l4729:
 10334  0036EC  BE21               	btfsc	(___fldiv@new_exp+1)^(0+1280),7,c
 10335  0036EE  EF81  F01B         	goto	i2u367_41
 10336  0036F2  5021               	movf	(___fldiv@new_exp+1)^(0+1280),w,c
 10337  0036F4  E108               	bnz	i2u367_40
 10338  0036F6  2820               	incf	___fldiv@new_exp^(0+1280),w,c
 10339  0036F8  A0D8               	btfss	status,0,c
 10340  0036FA  EF81  F01B         	goto	i2u367_41
 10341  0036FE  EF83  F01B         	goto	i2u367_40
 10342  003702                     i2u367_41:
 10343  003702  EF8E  F01B         	goto	i2l4733
 10344  003706                     i2u367_40:
 10345  003706  0E00               	movlw	0
 10346  003708  6E21               	movwf	(___fldiv@new_exp+1)^(0+1280),c
 10347  00370A  6820               	setf	___fldiv@new_exp^(0+1280),c
 10348  00370C  0E00               	movlw	0
 10349  00370E  6E0F               	movwf	___fldiv@b^(0+1280),c
 10350  003710  0E00               	movlw	0
 10351  003712  6E10               	movwf	(___fldiv@b+1)^(0+1280),c
 10352  003714  0E00               	movlw	0
 10353  003716  6E11               	movwf	(___fldiv@b+2)^(0+1280),c
 10354  003718  0E00               	movlw	0
 10355  00371A  6E12               	movwf	(___fldiv@b+3)^(0+1280),c
 10356  00371C                     i2l4733:
 10357  00371C  BE21               	btfsc	(___fldiv@new_exp+1)^(0+1280),7,c
 10358  00371E  EF9B  F01B         	goto	i2u368_40
 10359  003722  5021               	movf	(___fldiv@new_exp+1)^(0+1280),w,c
 10360  003724  E106               	bnz	i2u368_41
 10361  003726  0420               	decf	___fldiv@new_exp^(0+1280),w,c
 10362  003728  B0D8               	btfsc	status,0,c
 10363  00372A  EF99  F01B         	goto	i2u368_41
 10364  00372E  EF9B  F01B         	goto	i2u368_40
 10365  003732                     i2u368_41:
 10366  003732  EFA9  F01B         	goto	i2l4737
 10367  003736                     i2u368_40:
 10368  003736  0E00               	movlw	0
 10369  003738  6E21               	movwf	(___fldiv@new_exp+1)^(0+1280),c
 10370  00373A  0E00               	movlw	0
 10371  00373C  6E20               	movwf	___fldiv@new_exp^(0+1280),c
 10372  00373E  0E00               	movlw	0
 10373  003740  6E0F               	movwf	___fldiv@b^(0+1280),c
 10374  003742  0E00               	movlw	0
 10375  003744  6E10               	movwf	(___fldiv@b+1)^(0+1280),c
 10376  003746  0E00               	movlw	0
 10377  003748  6E11               	movwf	(___fldiv@b+2)^(0+1280),c
 10378  00374A  0E00               	movlw	0
 10379  00374C  6E12               	movwf	(___fldiv@b+3)^(0+1280),c
 10380  00374E  0E00               	movlw	0
 10381  003750  6E1F               	movwf	___fldiv@sign^(0+1280),c
 10382  003752                     i2l4737:
 10383  003752  C520  F526         	movff	___fldiv@new_exp,___fldiv@bexp
 10384  003756  A026               	btfss	___fldiv@bexp^(0+1280),0,c
 10385  003758  EFB0  F01B         	goto	i2u369_41
 10386  00375C  EFB2  F01B         	goto	i2u369_40
 10387  003760                     i2u369_41:
 10388  003760  EFB5  F01B         	goto	i2l4743
 10389  003764                     i2u369_40:
 10390  003764  8E11               	bsf	(___fldiv@b+2)^(0+1280),7,c
 10391  003766  EFB6  F01B         	goto	i2l4745
 10392  00376A                     i2l4743:
 10393  00376A  9E11               	bcf	(___fldiv@b+2)^(0+1280),7,c
 10394  00376C                     i2l4745:
 10395  00376C  90D8               	bcf	status,0,c
 10396  00376E  3026               	rrcf	___fldiv@bexp^(0+1280),w,c
 10397  003770  6E12               	movwf	(___fldiv@b+3)^(0+1280),c
 10398  003772  EF6C  F01A         	goto	i2l4659
 10399  003776                     i2l2198:
 10400  003776  0012               	return		;funcret
 10401  003778                     __end_of___fldiv:
 10402                           	callstack 0
 10403                           
 10404 ;; *************** function _ADC_SelectContext *****************
 10405 ;; Defined at:
 10406 ;;		line 455 in file "mcc_generated_files/adc.c"
 10407 ;; Parameters:    Size  Location     Type
 10408 ;;  context         1    wreg     enum E22155
 10409 ;; Auto vars:     Size  Location     Type
 10410 ;;  context         1    0[COMRAM] enum E22155
 10411 ;; Return value:  Size  Location     Type
 10412 ;;                  1    wreg      void 
 10413 ;; Registers used:
 10414 ;;		wreg
 10415 ;; Tracked objects:
 10416 ;;		On entry : 0/0
 10417 ;;		On exit  : 0/0
 10418 ;;		Unchanged: 0/0
 10419 ;; Data sizes:     COMRAM   BANK5   BANK6   BANK7   BANK8   BANK9  BANK10  BANK11  BANK12  BANK13  BANK14  BANK15  BANK1
      +6  BANK17  BANK18  BANK19  BANK20  BANK21  BANK22  BANK23  BANK24  BANK25  BANK26  BANK27  BANK28  BANK29  BANK30  BANK3
      +1  BANK32  BANK33  BANK34  BANK35  BANK36  BANK37
 10420 ;;      Params:         0       0       0       0       0       0       0       0       0       0       0       0       
      +0       0       0       0       0       0       0       0       0       0       0       0       0       0       0       
      +0       0       0       0       0       0       0
 10421 ;;      Locals:         1       0       0       0       0       0       0       0       0       0       0       0       
      +0       0       0       0       0       0       0       0       0       0       0       0       0       0       0       
      +0       0       0       0       0       0       0
 10422 ;;      Temps:          0       0       0       0       0       0       0       0       0       0       0       0       
      +0       0       0       0       0       0       0       0       0       0       0       0       0       0       0       
      +0       0       0       0       0       0       0
 10423 ;;      Totals:         1       0       0       0       0       0       0       0       0       0       0       0       
      +0       0       0       0       0       0       0       0       0       0       0       0       0       0       0       
      +0       0       0       0       0       0       0
 10424 ;;Total ram usage:        1 bytes
 10425 ;; Hardware stack levels used:    1
 10426 ;; This function calls:
 10427 ;;		Nothing
 10428 ;; This function is called by:
 10429 ;;		_ANALOG_GetVoltage
 10430 ;; This function uses a non-reentrant model
 10431 ;;
 10432                           
 10433                           	psect	text85
 10434  004EA2                     __ptext85:
 10435                           	callstack 0
 10436  004EA2                     _ADC_SelectContext:
 10437                           	callstack 118
 10438                           
 10439                           ;incstack = 0
 10440                           ;ADC_SelectContext@context stored from wreg
 10441  004EA2  6E01               	movwf	ADC_SelectContext@context^(0+1280),c
 10442  004EA4                     
 10443                           ;mcc_generated_files/adc.c: 455: __attribute__((inline)) void ADC_SelectContext(ADC_cont
      +                          ext_t context);mcc_generated_files/adc.c: 456: {;mcc_generated_files/adc.c: 457:     ADC
      +                          TX = context;
 10444  004EA4  0061  F404  F3FB   	movff	ADC_SelectContext@context,1019	;volatile
 10445  004EAA  0012               	return		;funcret
 10446  004EAC                     __end_of_ADC_SelectContext:
 10447                           	callstack 0
 10448                           
 10449 ;; *************** function _ADC_GetSingleConversion *****************
 10450 ;; Defined at:
 10451 ;;		line 525 in file "mcc_generated_files/adc.c"
 10452 ;; Parameters:    Size  Location     Type
 10453 ;;  channel         1    wreg     enum E22143
 10454 ;; Auto vars:     Size  Location     Type
 10455 ;;  channel         1    4[COMRAM] enum E22143
 10456 ;; Return value:  Size  Location     Type
 10457 ;;                  2    0[COMRAM] unsigned short 
 10458 ;; Registers used:
 10459 ;;		wreg, status,2, status,0
 10460 ;; Tracked objects:
 10461 ;;		On entry : 0/0
 10462 ;;		On exit  : 0/0
 10463 ;;		Unchanged: 0/0
 10464 ;; Data sizes:     COMRAM   BANK5   BANK6   BANK7   BANK8   BANK9  BANK10  BANK11  BANK12  BANK13  BANK14  BANK15  BANK1
      +6  BANK17  BANK18  BANK19  BANK20  BANK21  BANK22  BANK23  BANK24  BANK25  BANK26  BANK27  BANK28  BANK29  BANK30  BANK3
      +1  BANK32  BANK33  BANK34  BANK35  BANK36  BANK37
 10465 ;;      Params:         2       0       0       0       0       0       0       0       0       0       0       0       
      +0       0       0       0       0       0       0       0       0       0       0       0       0       0       0       
      +0       0       0       0       0       0       0
 10466 ;;      Locals:         1       0       0       0       0       0       0       0       0       0       0       0       
      +0       0       0       0       0       0       0       0       0       0       0       0       0       0       0       
      +0       0       0       0       0       0       0
 10467 ;;      Temps:          2       0       0       0       0       0       0       0       0       0       0       0       
      +0       0       0       0       0       0       0       0       0       0       0       0       0       0       0       
      +0       0       0       0       0       0       0
 10468 ;;      Totals:         5       0       0       0       0       0       0       0       0       0       0       0       
      +0       0       0       0       0       0       0       0       0       0       0       0       0       0       0       
      +0       0       0       0       0       0       0
 10469 ;;Total ram usage:        5 bytes
 10470 ;; Hardware stack levels used:    1
 10471 ;; This function calls:
 10472 ;;		Nothing
 10473 ;; This function is called by:
 10474 ;;		_ANALOG_GetVoltage
 10475 ;; This function uses a non-reentrant model
 10476 ;;
 10477                           
 10478                           	psect	text86
 10479  004B0A                     __ptext86:
 10480                           	callstack 0
 10481  004B0A                     _ADC_GetSingleConversion:
 10482                           	callstack 118
 10483                           
 10484                           ;incstack = 0
 10485                           ;ADC_GetSingleConversion@channel stored from wreg
 10486  004B0A  6E05               	movwf	ADC_GetSingleConversion@channel^(0+1280),c
 10487  004B0C                     
 10488                           ;mcc_generated_files/adc.c: 525: adc_result_t ADC_GetSingleConversion(ADC_channel_t chan
      +                          nel);mcc_generated_files/adc.c: 526: {;mcc_generated_files/adc.c: 528:     ADPCH = chann
      +                          el;
 10489  004B0C  0061  F414  F3EC   	movff	ADC_GetSingleConversion@channel,1004	;volatile
 10490  004B12                     
 10491                           ;mcc_generated_files/adc.c: 531:     ADCON0bits.ON = 1;
 10492  004B12  0103               	movlb	3	; () banked
 10493  004B14  8FF3               	bsf	243,7,b	;volatile
 10494  004B16                     
 10495                           ; BSR set to: 3
 10496                           ;mcc_generated_files/adc.c: 534:     ADCON0bits.CONT = 0;
 10497  004B16  9DF3               	bcf	243,6,b	;volatile
 10498  004B18                     
 10499                           ; BSR set to: 3
 10500                           ;mcc_generated_files/adc.c: 537:     ADCON0bits.GO = 1;
 10501  004B18  81F3               	bsf	243,0,b	;volatile
 10502  004B1A                     i2l405:
 10503                           
 10504                           ; BSR set to: 3
 10505                           ;mcc_generated_files/adc.c: 540:     while(ADCON0bits.GO)
 10506  004B1A  B1F3               	btfsc	243,0,b	;volatile
 10507  004B1C  EF92  F025         	goto	i2u346_41
 10508  004B20  EF94  F025         	goto	i2u346_40
 10509  004B24                     i2u346_41:
 10510  004B24  EF8D  F025         	goto	i2l405
 10511  004B28                     i2u346_40:
 10512  004B28                     
 10513                           ; BSR set to: 3
 10514                           ;mcc_generated_files/adc.c: 545:     return ((adc_result_t) ((ADRESH << 8) + ADRESL));
 10515  004B28  51EB               	movf	235,w,b	;volatile
 10516  004B2A  6E04               	movwf	(??_ADC_GetSingleConversion+1)^(0+1280),c
 10517  004B2C  6A03               	clrf	??_ADC_GetSingleConversion^(0+1280),c
 10518  004B2E  51EA               	movf	234,w,b	;volatile
 10519  004B30  2403               	addwf	??_ADC_GetSingleConversion^(0+1280),w,c
 10520  004B32  6E01               	movwf	?_ADC_GetSingleConversion^(0+1280),c
 10521  004B34  0E00               	movlw	0
 10522  004B36  2004               	addwfc	(??_ADC_GetSingleConversion+1)^(0+1280),w,c
 10523  004B38  6E02               	movwf	(?_ADC_GetSingleConversion+1)^(0+1280),c
 10524  004B3A                     
 10525                           ; BSR set to: 3
 10526  004B3A  0012               	return		;funcret
 10527  004B3C                     __end_of_ADC_GetSingleConversion:
 10528                           	callstack 0
 10529                           
 10530 ;; *************** function _ADC_DisableChannelSequencer *****************
 10531 ;; Defined at:
 10532 ;;		line 445 in file "mcc_generated_files/adc.c"
 10533 ;; Parameters:    Size  Location     Type
 10534 ;;		None
 10535 ;; Auto vars:     Size  Location     Type
 10536 ;;		None
 10537 ;; Return value:  Size  Location     Type
 10538 ;;                  1    wreg      void 
 10539 ;; Registers used:
 10540 ;;		None
 10541 ;; Tracked objects:
 10542 ;;		On entry : 0/0
 10543 ;;		On exit  : 0/0
 10544 ;;		Unchanged: 0/0
 10545 ;; Data sizes:     COMRAM   BANK5   BANK6   BANK7   BANK8   BANK9  BANK10  BANK11  BANK12  BANK13  BANK14  BANK15  BANK1
      +6  BANK17  BANK18  BANK19  BANK20  BANK21  BANK22  BANK23  BANK24  BANK25  BANK26  BANK27  BANK28  BANK29  BANK30  BANK3
      +1  BANK32  BANK33  BANK34  BANK35  BANK36  BANK37
 10546 ;;      Params:         0       0       0       0       0       0       0       0       0       0       0       0       
      +0       0       0       0       0       0       0       0       0       0       0       0       0       0       0       
      +0       0       0       0       0       0       0
 10547 ;;      Locals:         0       0       0       0       0       0       0       0       0       0       0       0       
      +0       0       0       0       0       0       0       0       0       0       0       0       0       0       0       
      +0       0       0       0       0       0       0
 10548 ;;      Temps:          0       0       0       0       0       0       0       0       0       0       0       0       
      +0       0       0       0       0       0       0       0       0       0       0       0       0       0       0       
      +0       0       0       0       0       0       0
 10549 ;;      Totals:         0       0       0       0       0       0       0       0       0       0       0       0       
      +0       0       0       0       0       0       0       0       0       0       0       0       0       0       0       
      +0       0       0       0       0       0       0
 10550 ;;Total ram usage:        0 bytes
 10551 ;; Hardware stack levels used:    1
 10552 ;; This function calls:
 10553 ;;		Nothing
 10554 ;; This function is called by:
 10555 ;;		_ANALOG_GetVoltage
 10556 ;; This function uses a non-reentrant model
 10557 ;;
 10558                           
 10559                           	psect	text87
 10560  004EC2                     __ptext87:
 10561                           	callstack 0
 10562  004EC2                     _ADC_DisableChannelSequencer:
 10563                           	callstack 118
 10564  004EC2                     
 10565                           ;mcc_generated_files/adc.c: 447:     ADCON0bits.CSEN = 0;
 10566  004EC2  0103               	movlb	3	; () banked
 10567  004EC4  9BF3               	bcf	243,5,b	;volatile
 10568  004EC6                     
 10569                           ; BSR set to: 3
 10570  004EC6  0012               	return		;funcret
 10571  004EC8                     __end_of_ADC_DisableChannelSequencer:
 10572                           	callstack 0
 10573                           
 10574 ;; *************** function _CAN1_ISR *****************
 10575 ;; Defined at:
 10576 ;;		line 618 in file "mcc_generated_files/can1.c"
 10577 ;; Parameters:    Size  Location     Type
 10578 ;;		None
 10579 ;; Auto vars:     Size  Location     Type
 10580 ;;		None
 10581 ;; Return value:  Size  Location     Type
 10582 ;;                  1    wreg      void 
 10583 ;; Registers used:
 10584 ;;		wreg, pclath, tosl, cstack
 10585 ;; Tracked objects:
 10586 ;;		On entry : 0/0
 10587 ;;		On exit  : 0/0
 10588 ;;		Unchanged: 0/0
 10589 ;; Data sizes:     COMRAM   BANK5   BANK6   BANK7   BANK8   BANK9  BANK10  BANK11  BANK12  BANK13  BANK14  BANK15  BANK1
      +6  BANK17  BANK18  BANK19  BANK20  BANK21  BANK22  BANK23  BANK24  BANK25  BANK26  BANK27  BANK28  BANK29  BANK30  BANK3
      +1  BANK32  BANK33  BANK34  BANK35  BANK36  BANK37
 10590 ;;      Params:         0       0       0       0       0       0       0       0       0       0       0       0       
      +0       0       0       0       0       0       0       0       0       0       0       0       0       0       0       
      +0       0       0       0       0       0       0
 10591 ;;      Locals:         0       0       0       0       0       0       0       0       0       0       0       0       
      +0       0       0       0       0       0       0       0       0       0       0       0       0       0       0       
      +0       0       0       0       0       0       0
 10592 ;;      Temps:          0       0       0       0       0       0       0       0       0       0       0       0       
      +0       0       0       0       0       0       0       0       0       0       0       0       0       0       0       
      +0       0       0       0       0       0       0
 10593 ;;      Totals:         0       0       0       0       0       0       0       0       0       0       0       0       
      +0       0       0       0       0       0       0       0       0       0       0       0       0       0       0       
      +0       0       0       0       0       0       0
 10594 ;;Total ram usage:        0 bytes
 10595 ;; Hardware stack levels used:    1
 10596 ;; Hardware stack levels required when called:    1
 10597 ;; This function calls:
 10598 ;;		Absolute function
 10599 ;;		_DefaultBusErrorHandler
 10600 ;;		_DefaultBusWakeUpActivityHandler
 10601 ;;		_DefaultInvalidMessageHandler
 10602 ;;		_DefaultModeChangeHandler
 10603 ;;		_DefaultRxBufferOverflowHandler
 10604 ;;		_DefaultSystemErrorHandler
 10605 ;;		_DefaultTxAttemptHandler
 10606 ;; This function is called by:
 10607 ;;		_INTERRUPT_InterruptManager
 10608 ;; This function uses a non-reentrant model
 10609 ;;
 10610                           
 10611                           	psect	text88
 10612  003EFA                     __ptext88:
 10613                           	callstack 0
 10614  003EFA                     _CAN1_ISR:
 10615                           	callstack 121
 10616  003EFA                     
 10617                           ;mcc_generated_files/can1.c: 620:     if (1 == C1INTHbits.IVMIF)
 10618  003EFA  0101               	movlb	1	; () banked
 10619  003EFC  AF1D               	btfss	29,7,b	;volatile
 10620  003EFE  EF83  F01F         	goto	i2u571_41
 10621  003F02  EF85  F01F         	goto	i2u571_40
 10622  003F06                     i2u571_41:
 10623  003F06  EF94  F01F         	goto	i2l6157
 10624  003F0A                     i2u571_40:
 10625  003F0A                     
 10626                           ; BSR set to: 1
 10627                           ;mcc_generated_files/can1.c: 621:     {;mcc_generated_files/can1.c: 622:         CAN1_In
      +                          validMessageHandler();
 10628  003F0A  D802               	call	i2u572_48
 10629  003F0C  EF92  F01F         	goto	i2u572_49
 10630  003F10                     i2u572_48:
 10631  003F10  0005               	push	
 10632  003F12  6EFA               	movwf	pclath,c
 10633  003F14  0105               	movlb	5	; () banked
 10634  003F16  5188               	movf	_CAN1_InvalidMessageHandler& (0+255),w,b
 10635  003F18  6EFD               	movwf	tosl,c
 10636  003F1A  5189               	movf	(_CAN1_InvalidMessageHandler+1)& (0+255),w,b
 10637  003F1C  6EFE               	movwf	tosh,c
 10638  003F1E  6AFF               	clrf	tosu,c
 10639  003F20  50FA               	movf	pclath,w,c
 10640  003F22  0012               	return		;indir
 10641  003F24                     i2u572_49:
 10642  003F24                     
 10643                           ;mcc_generated_files/can1.c: 623:         C1INTHbits.IVMIF = 0;
 10644  003F24  0101               	movlb	1	; () banked
 10645  003F26  9F1D               	bcf	29,7,b	;volatile
 10646  003F28                     i2l6157:
 10647                           
 10648                           ; BSR set to: 1
 10649                           ;mcc_generated_files/can1.c: 626:     if (1 == C1INTHbits.WAKIF)
 10650  003F28  AD1D               	btfss	29,6,b	;volatile
 10651  003F2A  EF99  F01F         	goto	i2u573_41
 10652  003F2E  EF9B  F01F         	goto	i2u573_40
 10653  003F32                     i2u573_41:
 10654  003F32  EFAA  F01F         	goto	i2l6163
 10655  003F36                     i2u573_40:
 10656  003F36                     
 10657                           ; BSR set to: 1
 10658                           ;mcc_generated_files/can1.c: 627:     {;mcc_generated_files/can1.c: 628:         CAN1_Bu
      +                          sWakeUpActivityHandler();
 10659  003F36  D802               	call	i2u574_48
 10660  003F38  EFA8  F01F         	goto	i2u574_49
 10661  003F3C                     i2u574_48:
 10662  003F3C  0005               	push	
 10663  003F3E  6EFA               	movwf	pclath,c
 10664  003F40  0105               	movlb	5	; () banked
 10665  003F42  5186               	movf	_CAN1_BusWakeUpActivityHandler& (0+255),w,b
 10666  003F44  6EFD               	movwf	tosl,c
 10667  003F46  5187               	movf	(_CAN1_BusWakeUpActivityHandler+1)& (0+255),w,b
 10668  003F48  6EFE               	movwf	tosh,c
 10669  003F4A  6AFF               	clrf	tosu,c
 10670  003F4C  50FA               	movf	pclath,w,c
 10671  003F4E  0012               	return		;indir
 10672  003F50                     i2u574_49:
 10673  003F50                     
 10674                           ;mcc_generated_files/can1.c: 629:         C1INTHbits.WAKIF = 0;
 10675  003F50  0101               	movlb	1	; () banked
 10676  003F52  9D1D               	bcf	29,6,b	;volatile
 10677  003F54                     i2l6163:
 10678                           
 10679                           ; BSR set to: 1
 10680                           ;mcc_generated_files/can1.c: 632:     if (1 == C1INTHbits.CERRIF)
 10681  003F54  AB1D               	btfss	29,5,b	;volatile
 10682  003F56  EFAF  F01F         	goto	i2u575_41
 10683  003F5A  EFB1  F01F         	goto	i2u575_40
 10684  003F5E                     i2u575_41:
 10685  003F5E  EFC0  F01F         	goto	i2l6169
 10686  003F62                     i2u575_40:
 10687  003F62                     
 10688                           ; BSR set to: 1
 10689                           ;mcc_generated_files/can1.c: 633:     {;mcc_generated_files/can1.c: 634:         CAN1_Bu
      +                          sErrorHandler();
 10690  003F62  D802               	call	i2u576_48
 10691  003F64  EFBE  F01F         	goto	i2u576_49
 10692  003F68                     i2u576_48:
 10693  003F68  0005               	push	
 10694  003F6A  6EFA               	movwf	pclath,c
 10695  003F6C  0105               	movlb	5	; () banked
 10696  003F6E  5184               	movf	_CAN1_BusErrorHandler& (0+255),w,b
 10697  003F70  6EFD               	movwf	tosl,c
 10698  003F72  5185               	movf	(_CAN1_BusErrorHandler+1)& (0+255),w,b
 10699  003F74  6EFE               	movwf	tosh,c
 10700  003F76  6AFF               	clrf	tosu,c
 10701  003F78  50FA               	movf	pclath,w,c
 10702  003F7A  0012               	return		;indir
 10703  003F7C                     i2u576_49:
 10704  003F7C                     
 10705                           ;mcc_generated_files/can1.c: 635:         C1INTHbits.CERRIF = 0;
 10706  003F7C  0101               	movlb	1	; () banked
 10707  003F7E  9B1D               	bcf	29,5,b	;volatile
 10708  003F80                     i2l6169:
 10709                           
 10710                           ; BSR set to: 1
 10711                           ;mcc_generated_files/can1.c: 638:     if (1 == C1INTLbits.MODIF)
 10712  003F80  A71C               	btfss	28,3,b	;volatile
 10713  003F82  EFC5  F01F         	goto	i2u577_41
 10714  003F86  EFC7  F01F         	goto	i2u577_40
 10715  003F8A                     i2u577_41:
 10716  003F8A  EFD6  F01F         	goto	i2l6175
 10717  003F8E                     i2u577_40:
 10718  003F8E                     
 10719                           ; BSR set to: 1
 10720                           ;mcc_generated_files/can1.c: 639:     {;mcc_generated_files/can1.c: 640:         CAN1_Mo
      +                          deChangeHandler();
 10721  003F8E  D802               	call	i2u578_48
 10722  003F90  EFD4  F01F         	goto	i2u578_49
 10723  003F94                     i2u578_48:
 10724  003F94  0005               	push	
 10725  003F96  6EFA               	movwf	pclath,c
 10726  003F98  0105               	movlb	5	; () banked
 10727  003F9A  5182               	movf	_CAN1_ModeChangeHandler& (0+255),w,b
 10728  003F9C  6EFD               	movwf	tosl,c
 10729  003F9E  5183               	movf	(_CAN1_ModeChangeHandler+1)& (0+255),w,b
 10730  003FA0  6EFE               	movwf	tosh,c
 10731  003FA2  6AFF               	clrf	tosu,c
 10732  003FA4  50FA               	movf	pclath,w,c
 10733  003FA6  0012               	return		;indir
 10734  003FA8                     i2u578_49:
 10735  003FA8                     
 10736                           ;mcc_generated_files/can1.c: 641:         C1INTLbits.MODIF = 0;
 10737  003FA8  0101               	movlb	1	; () banked
 10738  003FAA  971C               	bcf	28,3,b	;volatile
 10739  003FAC                     i2l6175:
 10740                           
 10741                           ; BSR set to: 1
 10742                           ;mcc_generated_files/can1.c: 644:     if (1 == C1INTHbits.SERRIF)
 10743  003FAC  A91D               	btfss	29,4,b	;volatile
 10744  003FAE  EFDB  F01F         	goto	i2u579_41
 10745  003FB2  EFDD  F01F         	goto	i2u579_40
 10746  003FB6                     i2u579_41:
 10747  003FB6  EFEC  F01F         	goto	i2l6181
 10748  003FBA                     i2u579_40:
 10749  003FBA                     
 10750                           ; BSR set to: 1
 10751                           ;mcc_generated_files/can1.c: 645:     {;mcc_generated_files/can1.c: 646:         CAN1_Sy
      +                          stemErrorHandler();
 10752  003FBA  D802               	call	i2u580_48
 10753  003FBC  EFEA  F01F         	goto	i2u580_49
 10754  003FC0                     i2u580_48:
 10755  003FC0  0005               	push	
 10756  003FC2  6EFA               	movwf	pclath,c
 10757  003FC4  0105               	movlb	5	; () banked
 10758  003FC6  5180               	movf	_CAN1_SystemErrorHandler& (0+255),w,b
 10759  003FC8  6EFD               	movwf	tosl,c
 10760  003FCA  5181               	movf	(_CAN1_SystemErrorHandler+1)& (0+255),w,b
 10761  003FCC  6EFE               	movwf	tosh,c
 10762  003FCE  6AFF               	clrf	tosu,c
 10763  003FD0  50FA               	movf	pclath,w,c
 10764  003FD2  0012               	return		;indir
 10765  003FD4                     i2u580_49:
 10766  003FD4                     
 10767                           ;mcc_generated_files/can1.c: 647:         C1INTHbits.SERRIF = 0;
 10768  003FD4  0101               	movlb	1	; () banked
 10769  003FD6  991D               	bcf	29,4,b	;volatile
 10770  003FD8                     i2l6181:
 10771                           
 10772                           ; BSR set to: 1
 10773                           ;mcc_generated_files/can1.c: 650:     if (1 == C1INTHbits.TXATIF)
 10774  003FD8  A51D               	btfss	29,2,b	;volatile
 10775  003FDA  EFF1  F01F         	goto	i2u581_41
 10776  003FDE  EFF3  F01F         	goto	i2u581_40
 10777  003FE2                     i2u581_41:
 10778  003FE2  EF09  F020         	goto	i2l923
 10779  003FE6                     i2u581_40:
 10780  003FE6                     
 10781                           ; BSR set to: 1
 10782                           ;mcc_generated_files/can1.c: 651:     {;mcc_generated_files/can1.c: 652:         CAN1_Tx
      +                          AttemptHandler();
 10783  003FE6  D802               	call	i2u582_48
 10784  003FE8  EF00  F020         	goto	i2u582_49
 10785  003FEC                     i2u582_48:
 10786  003FEC  0005               	push	
 10787  003FEE  6EFA               	movwf	pclath,c
 10788  003FF0  0105               	movlb	5	; () banked
 10789  003FF2  517E               	movf	_CAN1_TxAttemptHandler& (0+255),w,b
 10790  003FF4  6EFD               	movwf	tosl,c
 10791  003FF6  517F               	movf	(_CAN1_TxAttemptHandler+1)& (0+255),w,b
 10792  003FF8  6EFE               	movwf	tosh,c
 10793  003FFA  6AFF               	clrf	tosu,c
 10794  003FFC  50FA               	movf	pclath,w,c
 10795  003FFE  0012               	return		;indir
 10796  004000                     i2u582_49:
 10797  004000                     
 10798                           ;mcc_generated_files/can1.c: 653:         if (1 == C1TXQSTALbits.TXATIF)
 10799  004000  0101               	movlb	1	; () banked
 10800  004002  A954               	btfss	84,4,b	;volatile
 10801  004004  EF06  F020         	goto	i2u583_41
 10802  004008  EF08  F020         	goto	i2u583_40
 10803  00400C                     i2u583_41:
 10804  00400C  EF09  F020         	goto	i2l923
 10805  004010                     i2u583_40:
 10806  004010                     
 10807                           ; BSR set to: 1
 10808                           ;mcc_generated_files/can1.c: 654:         {;mcc_generated_files/can1.c: 655:            
      +                           C1TXQSTALbits.TXATIF = 0;
 10809  004010  9954               	bcf	84,4,b	;volatile
 10810  004012                     i2l923:
 10811                           
 10812                           ; BSR set to: 1
 10813                           ;mcc_generated_files/can1.c: 659:     if (1 == C1INTHbits.RXOVIF)
 10814  004012  A71D               	btfss	29,3,b	;volatile
 10815  004014  EF0E  F020         	goto	i2u584_41
 10816  004018  EF10  F020         	goto	i2u584_40
 10817  00401C                     i2u584_41:
 10818  00401C  EF26  F020         	goto	i2l925
 10819  004020                     i2u584_40:
 10820  004020                     
 10821                           ; BSR set to: 1
 10822                           ;mcc_generated_files/can1.c: 660:     {;mcc_generated_files/can1.c: 661:         CAN1_Rx
      +                          BufferOverflowHandler();
 10823  004020  D802               	call	i2u585_48
 10824  004022  EF1D  F020         	goto	i2u585_49
 10825  004026                     i2u585_48:
 10826  004026  0005               	push	
 10827  004028  6EFA               	movwf	pclath,c
 10828  00402A  0105               	movlb	5	; () banked
 10829  00402C  517C               	movf	_CAN1_RxBufferOverflowHandler& (0+255),w,b
 10830  00402E  6EFD               	movwf	tosl,c
 10831  004030  517D               	movf	(_CAN1_RxBufferOverflowHandler+1)& (0+255),w,b
 10832  004032  6EFE               	movwf	tosh,c
 10833  004034  6AFF               	clrf	tosu,c
 10834  004036  50FA               	movf	pclath,w,c
 10835  004038  0012               	return		;indir
 10836  00403A                     i2u585_49:
 10837  00403A                     
 10838                           ;mcc_generated_files/can1.c: 662:         if (1 == C1FIFOSTA1Lbits.RXOVIF)
 10839  00403A  0101               	movlb	1	; () banked
 10840  00403C  A760               	btfss	96,3,b	;volatile
 10841  00403E  EF23  F020         	goto	i2u586_41
 10842  004042  EF25  F020         	goto	i2u586_40
 10843  004046                     i2u586_41:
 10844  004046  EF26  F020         	goto	i2l925
 10845  00404A                     i2u586_40:
 10846  00404A                     
 10847                           ; BSR set to: 1
 10848                           ;mcc_generated_files/can1.c: 663:         {;mcc_generated_files/can1.c: 664:            
      +                           C1FIFOSTA1Lbits.RXOVIF = 0;
 10849  00404A  9760               	bcf	96,3,b	;volatile
 10850  00404C                     i2l925:
 10851                           
 10852                           ; BSR set to: 1
 10853                           ;mcc_generated_files/can1.c: 668:     PIR0bits.CANIF = 0;
 10854  00404C  9CAE               	bcf	174,6,c	;volatile
 10855  00404E                     
 10856                           ; BSR set to: 1
 10857  00404E  0012               	return		;funcret
 10858  004050                     __end_of_CAN1_ISR:
 10859                           	callstack 0
 10860                           
 10861 ;; *************** function _DefaultTxAttemptHandler *****************
 10862 ;; Defined at:
 10863 ;;		line 141 in file "mcc_generated_files/can1.c"
 10864 ;; Parameters:    Size  Location     Type
 10865 ;;		None
 10866 ;; Auto vars:     Size  Location     Type
 10867 ;;		None
 10868 ;; Return value:  Size  Location     Type
 10869 ;;                  1    wreg      void 
 10870 ;; Registers used:
 10871 ;;		None
 10872 ;; Tracked objects:
 10873 ;;		On entry : 0/0
 10874 ;;		On exit  : 0/0
 10875 ;;		Unchanged: 0/0
 10876 ;; Data sizes:     COMRAM   BANK5   BANK6   BANK7   BANK8   BANK9  BANK10  BANK11  BANK12  BANK13  BANK14  BANK15  BANK1
      +6  BANK17  BANK18  BANK19  BANK20  BANK21  BANK22  BANK23  BANK24  BANK25  BANK26  BANK27  BANK28  BANK29  BANK30  BANK3
      +1  BANK32  BANK33  BANK34  BANK35  BANK36  BANK37
 10877 ;;      Params:         0       0       0       0       0       0       0       0       0       0       0       0       
      +0       0       0       0       0       0       0       0       0       0       0       0       0       0       0       
      +0       0       0       0       0       0       0
 10878 ;;      Locals:         0       0       0       0       0       0       0       0       0       0       0       0       
      +0       0       0       0       0       0       0       0       0       0       0       0       0       0       0       
      +0       0       0       0       0       0       0
 10879 ;;      Temps:          0       0       0       0       0       0       0       0       0       0       0       0       
      +0       0       0       0       0       0       0       0       0       0       0       0       0       0       0       
      +0       0       0       0       0       0       0
 10880 ;;      Totals:         0       0       0       0       0       0       0       0       0       0       0       0       
      +0       0       0       0       0       0       0       0       0       0       0       0       0       0       0       
      +0       0       0       0       0       0       0
 10881 ;;Total ram usage:        0 bytes
 10882 ;; Hardware stack levels used:    1
 10883 ;; This function calls:
 10884 ;;		Nothing
 10885 ;; This function is called by:
 10886 ;;		_CAN1_ErrorNotificationInterruptEnable
 10887 ;;		_CAN1_ISR
 10888 ;; This function uses a non-reentrant model
 10889 ;;
 10890                           
 10891                           	psect	text89
 10892  004EE8                     __ptext89:
 10893                           	callstack 0
 10894  004EE8                     _DefaultTxAttemptHandler:
 10895                           	callstack 121
 10896  004EE8  0012               	return		;funcret
 10897  004EEA                     __end_of_DefaultTxAttemptHandler:
 10898                           	callstack 0
 10899                           
 10900 ;; *************** function _DefaultSystemErrorHandler *****************
 10901 ;; Defined at:
 10902 ;;		line 137 in file "mcc_generated_files/can1.c"
 10903 ;; Parameters:    Size  Location     Type
 10904 ;;		None
 10905 ;; Auto vars:     Size  Location     Type
 10906 ;;		None
 10907 ;; Return value:  Size  Location     Type
 10908 ;;                  1    wreg      void 
 10909 ;; Registers used:
 10910 ;;		None
 10911 ;; Tracked objects:
 10912 ;;		On entry : 0/0
 10913 ;;		On exit  : 0/0
 10914 ;;		Unchanged: 0/0
 10915 ;; Data sizes:     COMRAM   BANK5   BANK6   BANK7   BANK8   BANK9  BANK10  BANK11  BANK12  BANK13  BANK14  BANK15  BANK1
      +6  BANK17  BANK18  BANK19  BANK20  BANK21  BANK22  BANK23  BANK24  BANK25  BANK26  BANK27  BANK28  BANK29  BANK30  BANK3
      +1  BANK32  BANK33  BANK34  BANK35  BANK36  BANK37
 10916 ;;      Params:         0       0       0       0       0       0       0       0       0       0       0       0       
      +0       0       0       0       0       0       0       0       0       0       0       0       0       0       0       
      +0       0       0       0       0       0       0
 10917 ;;      Locals:         0       0       0       0       0       0       0       0       0       0       0       0       
      +0       0       0       0       0       0       0       0       0       0       0       0       0       0       0       
      +0       0       0       0       0       0       0
 10918 ;;      Temps:          0       0       0       0       0       0       0       0       0       0       0       0       
      +0       0       0       0       0       0       0       0       0       0       0       0       0       0       0       
      +0       0       0       0       0       0       0
 10919 ;;      Totals:         0       0       0       0       0       0       0       0       0       0       0       0       
      +0       0       0       0       0       0       0       0       0       0       0       0       0       0       0       
      +0       0       0       0       0       0       0
 10920 ;;Total ram usage:        0 bytes
 10921 ;; Hardware stack levels used:    1
 10922 ;; This function calls:
 10923 ;;		Nothing
 10924 ;; This function is called by:
 10925 ;;		_CAN1_ErrorNotificationInterruptEnable
 10926 ;;		_CAN1_ISR
 10927 ;; This function uses a non-reentrant model
 10928 ;;
 10929                           
 10930                           	psect	text90
 10931  004EEA                     __ptext90:
 10932                           	callstack 0
 10933  004EEA                     _DefaultSystemErrorHandler:
 10934                           	callstack 121
 10935  004EEA  0012               	return		;funcret
 10936  004EEC                     __end_of_DefaultSystemErrorHandler:
 10937                           	callstack 0
 10938                           
 10939 ;; *************** function _DefaultRxBufferOverflowHandler *****************
 10940 ;; Defined at:
 10941 ;;		line 145 in file "mcc_generated_files/can1.c"
 10942 ;; Parameters:    Size  Location     Type
 10943 ;;		None
 10944 ;; Auto vars:     Size  Location     Type
 10945 ;;		None
 10946 ;; Return value:  Size  Location     Type
 10947 ;;                  1    wreg      void 
 10948 ;; Registers used:
 10949 ;;		None
 10950 ;; Tracked objects:
 10951 ;;		On entry : 0/0
 10952 ;;		On exit  : 0/0
 10953 ;;		Unchanged: 0/0
 10954 ;; Data sizes:     COMRAM   BANK5   BANK6   BANK7   BANK8   BANK9  BANK10  BANK11  BANK12  BANK13  BANK14  BANK15  BANK1
      +6  BANK17  BANK18  BANK19  BANK20  BANK21  BANK22  BANK23  BANK24  BANK25  BANK26  BANK27  BANK28  BANK29  BANK30  BANK3
      +1  BANK32  BANK33  BANK34  BANK35  BANK36  BANK37
 10955 ;;      Params:         0       0       0       0       0       0       0       0       0       0       0       0       
      +0       0       0       0       0       0       0       0       0       0       0       0       0       0       0       
      +0       0       0       0       0       0       0
 10956 ;;      Locals:         0       0       0       0       0       0       0       0       0       0       0       0       
      +0       0       0       0       0       0       0       0       0       0       0       0       0       0       0       
      +0       0       0       0       0       0       0
 10957 ;;      Temps:          0       0       0       0       0       0       0       0       0       0       0       0       
      +0       0       0       0       0       0       0       0       0       0       0       0       0       0       0       
      +0       0       0       0       0       0       0
 10958 ;;      Totals:         0       0       0       0       0       0       0       0       0       0       0       0       
      +0       0       0       0       0       0       0       0       0       0       0       0       0       0       0       
      +0       0       0       0       0       0       0
 10959 ;;Total ram usage:        0 bytes
 10960 ;; Hardware stack levels used:    1
 10961 ;; This function calls:
 10962 ;;		Nothing
 10963 ;; This function is called by:
 10964 ;;		_CAN1_ErrorNotificationInterruptEnable
 10965 ;;		_CAN1_ISR
 10966 ;; This function uses a non-reentrant model
 10967 ;;
 10968                           
 10969                           	psect	text91
 10970  004EEC                     __ptext91:
 10971                           	callstack 0
 10972  004EEC                     _DefaultRxBufferOverflowHandler:
 10973                           	callstack 121
 10974  004EEC  0012               	return		;funcret
 10975  004EEE                     __end_of_DefaultRxBufferOverflowHandler:
 10976                           	callstack 0
 10977                           
 10978 ;; *************** function _DefaultModeChangeHandler *****************
 10979 ;; Defined at:
 10980 ;;		line 133 in file "mcc_generated_files/can1.c"
 10981 ;; Parameters:    Size  Location     Type
 10982 ;;		None
 10983 ;; Auto vars:     Size  Location     Type
 10984 ;;		None
 10985 ;; Return value:  Size  Location     Type
 10986 ;;                  1    wreg      void 
 10987 ;; Registers used:
 10988 ;;		None
 10989 ;; Tracked objects:
 10990 ;;		On entry : 0/0
 10991 ;;		On exit  : 0/0
 10992 ;;		Unchanged: 0/0
 10993 ;; Data sizes:     COMRAM   BANK5   BANK6   BANK7   BANK8   BANK9  BANK10  BANK11  BANK12  BANK13  BANK14  BANK15  BANK1
      +6  BANK17  BANK18  BANK19  BANK20  BANK21  BANK22  BANK23  BANK24  BANK25  BANK26  BANK27  BANK28  BANK29  BANK30  BANK3
      +1  BANK32  BANK33  BANK34  BANK35  BANK36  BANK37
 10994 ;;      Params:         0       0       0       0       0       0       0       0       0       0       0       0       
      +0       0       0       0       0       0       0       0       0       0       0       0       0       0       0       
      +0       0       0       0       0       0       0
 10995 ;;      Locals:         0       0       0       0       0       0       0       0       0       0       0       0       
      +0       0       0       0       0       0       0       0       0       0       0       0       0       0       0       
      +0       0       0       0       0       0       0
 10996 ;;      Temps:          0       0       0       0       0       0       0       0       0       0       0       0       
      +0       0       0       0       0       0       0       0       0       0       0       0       0       0       0       
      +0       0       0       0       0       0       0
 10997 ;;      Totals:         0       0       0       0       0       0       0       0       0       0       0       0       
      +0       0       0       0       0       0       0       0       0       0       0       0       0       0       0       
      +0       0       0       0       0       0       0
 10998 ;;Total ram usage:        0 bytes
 10999 ;; Hardware stack levels used:    1
 11000 ;; This function calls:
 11001 ;;		Nothing
 11002 ;; This function is called by:
 11003 ;;		_CAN1_ErrorNotificationInterruptEnable
 11004 ;;		_CAN1_ISR
 11005 ;; This function uses a non-reentrant model
 11006 ;;
 11007                           
 11008                           	psect	text92
 11009  004EEE                     __ptext92:
 11010                           	callstack 0
 11011  004EEE                     _DefaultModeChangeHandler:
 11012                           	callstack 121
 11013  004EEE  0012               	return		;funcret
 11014  004EF0                     __end_of_DefaultModeChangeHandler:
 11015                           	callstack 0
 11016                           
 11017 ;; *************** function _DefaultInvalidMessageHandler *****************
 11018 ;; Defined at:
 11019 ;;		line 121 in file "mcc_generated_files/can1.c"
 11020 ;; Parameters:    Size  Location     Type
 11021 ;;		None
 11022 ;; Auto vars:     Size  Location     Type
 11023 ;;		None
 11024 ;; Return value:  Size  Location     Type
 11025 ;;                  1    wreg      void 
 11026 ;; Registers used:
 11027 ;;		None
 11028 ;; Tracked objects:
 11029 ;;		On entry : 0/0
 11030 ;;		On exit  : 0/0
 11031 ;;		Unchanged: 0/0
 11032 ;; Data sizes:     COMRAM   BANK5   BANK6   BANK7   BANK8   BANK9  BANK10  BANK11  BANK12  BANK13  BANK14  BANK15  BANK1
      +6  BANK17  BANK18  BANK19  BANK20  BANK21  BANK22  BANK23  BANK24  BANK25  BANK26  BANK27  BANK28  BANK29  BANK30  BANK3
      +1  BANK32  BANK33  BANK34  BANK35  BANK36  BANK37
 11033 ;;      Params:         0       0       0       0       0       0       0       0       0       0       0       0       
      +0       0       0       0       0       0       0       0       0       0       0       0       0       0       0       
      +0       0       0       0       0       0       0
 11034 ;;      Locals:         0       0       0       0       0       0       0       0       0       0       0       0       
      +0       0       0       0       0       0       0       0       0       0       0       0       0       0       0       
      +0       0       0       0       0       0       0
 11035 ;;      Temps:          0       0       0       0       0       0       0       0       0       0       0       0       
      +0       0       0       0       0       0       0       0       0       0       0       0       0       0       0       
      +0       0       0       0       0       0       0
 11036 ;;      Totals:         0       0       0       0       0       0       0       0       0       0       0       0       
      +0       0       0       0       0       0       0       0       0       0       0       0       0       0       0       
      +0       0       0       0       0       0       0
 11037 ;;Total ram usage:        0 bytes
 11038 ;; Hardware stack levels used:    1
 11039 ;; This function calls:
 11040 ;;		Nothing
 11041 ;; This function is called by:
 11042 ;;		_CAN1_ErrorNotificationInterruptEnable
 11043 ;;		_CAN1_ISR
 11044 ;; This function uses a non-reentrant model
 11045 ;;
 11046                           
 11047                           	psect	text93
 11048  004EF0                     __ptext93:
 11049                           	callstack 0
 11050  004EF0                     _DefaultInvalidMessageHandler:
 11051                           	callstack 121
 11052  004EF0  0012               	return		;funcret
 11053  004EF2                     __end_of_DefaultInvalidMessageHandler:
 11054                           	callstack 0
 11055                           
 11056 ;; *************** function _DefaultBusWakeUpActivityHandler *****************
 11057 ;; Defined at:
 11058 ;;		line 125 in file "mcc_generated_files/can1.c"
 11059 ;; Parameters:    Size  Location     Type
 11060 ;;		None
 11061 ;; Auto vars:     Size  Location     Type
 11062 ;;		None
 11063 ;; Return value:  Size  Location     Type
 11064 ;;                  1    wreg      void 
 11065 ;; Registers used:
 11066 ;;		None
 11067 ;; Tracked objects:
 11068 ;;		On entry : 0/0
 11069 ;;		On exit  : 0/0
 11070 ;;		Unchanged: 0/0
 11071 ;; Data sizes:     COMRAM   BANK5   BANK6   BANK7   BANK8   BANK9  BANK10  BANK11  BANK12  BANK13  BANK14  BANK15  BANK1
      +6  BANK17  BANK18  BANK19  BANK20  BANK21  BANK22  BANK23  BANK24  BANK25  BANK26  BANK27  BANK28  BANK29  BANK30  BANK3
      +1  BANK32  BANK33  BANK34  BANK35  BANK36  BANK37
 11072 ;;      Params:         0       0       0       0       0       0       0       0       0       0       0       0       
      +0       0       0       0       0       0       0       0       0       0       0       0       0       0       0       
      +0       0       0       0       0       0       0
 11073 ;;      Locals:         0       0       0       0       0       0       0       0       0       0       0       0       
      +0       0       0       0       0       0       0       0       0       0       0       0       0       0       0       
      +0       0       0       0       0       0       0
 11074 ;;      Temps:          0       0       0       0       0       0       0       0       0       0       0       0       
      +0       0       0       0       0       0       0       0       0       0       0       0       0       0       0       
      +0       0       0       0       0       0       0
 11075 ;;      Totals:         0       0       0       0       0       0       0       0       0       0       0       0       
      +0       0       0       0       0       0       0       0       0       0       0       0       0       0       0       
      +0       0       0       0       0       0       0
 11076 ;;Total ram usage:        0 bytes
 11077 ;; Hardware stack levels used:    1
 11078 ;; This function calls:
 11079 ;;		Nothing
 11080 ;; This function is called by:
 11081 ;;		_CAN1_ErrorNotificationInterruptEnable
 11082 ;;		_CAN1_ISR
 11083 ;; This function uses a non-reentrant model
 11084 ;;
 11085                           
 11086                           	psect	text94
 11087  004EF2                     __ptext94:
 11088                           	callstack 0
 11089  004EF2                     _DefaultBusWakeUpActivityHandler:
 11090                           	callstack 121
 11091  004EF2  0012               	return		;funcret
 11092  004EF4                     __end_of_DefaultBusWakeUpActivityHandler:
 11093                           	callstack 0
 11094                           
 11095 ;; *************** function _DefaultBusErrorHandler *****************
 11096 ;; Defined at:
 11097 ;;		line 129 in file "mcc_generated_files/can1.c"
 11098 ;; Parameters:    Size  Location     Type
 11099 ;;		None
 11100 ;; Auto vars:     Size  Location     Type
 11101 ;;		None
 11102 ;; Return value:  Size  Location     Type
 11103 ;;                  1    wreg      void 
 11104 ;; Registers used:
 11105 ;;		None
 11106 ;; Tracked objects:
 11107 ;;		On entry : 0/0
 11108 ;;		On exit  : 0/0
 11109 ;;		Unchanged: 0/0
 11110 ;; Data sizes:     COMRAM   BANK5   BANK6   BANK7   BANK8   BANK9  BANK10  BANK11  BANK12  BANK13  BANK14  BANK15  BANK1
      +6  BANK17  BANK18  BANK19  BANK20  BANK21  BANK22  BANK23  BANK24  BANK25  BANK26  BANK27  BANK28  BANK29  BANK30  BANK3
      +1  BANK32  BANK33  BANK34  BANK35  BANK36  BANK37
 11111 ;;      Params:         0       0       0       0       0       0       0       0       0       0       0       0       
      +0       0       0       0       0       0       0       0       0       0       0       0       0       0       0       
      +0       0       0       0       0       0       0
 11112 ;;      Locals:         0       0       0       0       0       0       0       0       0       0       0       0       
      +0       0       0       0       0       0       0       0       0       0       0       0       0       0       0       
      +0       0       0       0       0       0       0
 11113 ;;      Temps:          0       0       0       0       0       0       0       0       0       0       0       0       
      +0       0       0       0       0       0       0       0       0       0       0       0       0       0       0       
      +0       0       0       0       0       0       0
 11114 ;;      Totals:         0       0       0       0       0       0       0       0       0       0       0       0       
      +0       0       0       0       0       0       0       0       0       0       0       0       0       0       0       
      +0       0       0       0       0       0       0
 11115 ;;Total ram usage:        0 bytes
 11116 ;; Hardware stack levels used:    1
 11117 ;; This function calls:
 11118 ;;		Nothing
 11119 ;; This function is called by:
 11120 ;;		_CAN1_ErrorNotificationInterruptEnable
 11121 ;;		_CAN1_ISR
 11122 ;; This function uses a non-reentrant model
 11123 ;;
 11124                           
 11125                           	psect	text95
 11126  004EF4                     __ptext95:
 11127                           	callstack 0
 11128  004EF4                     _DefaultBusErrorHandler:
 11129                           	callstack 121
 11130  004EF4  0012               	return		;funcret
 11131  004EF6                     __end_of_DefaultBusErrorHandler:
 11132                           	callstack 0
 11133                           
 11134                           ;
 11135                           ; Interrupt Vector Table @ 0x8
 11136                           ;
 11137                           
 11138                           	psect	ivt0x8
 11139  000008                     __pivt0x8:
 11140                           	callstack 0
 11141  000008                     ivt0x8_base:
 11142                           	callstack 0
 11143                           
 11144                           ; high-priority vector
 11145  000008  EF24  F022         	goto	_INTERRUPT_InterruptManager
 11146  000018                     	org	16
 11147                           
 11148                           ; low-priority vector
 11149  000018  00FF               	reset	
 11150                           
 11151                           	psect	text96
 11152  000000                     __ptext96:
 11153                           	callstack 0
 11154  000000                     
 11155                           	psect	rparam
 11156  0000                     
 11157                           	psect	idloc
 11158                           
 11159                           ;Config register IDLOC0 @ 0x200000
 11160                           ;	unspecified, using default values
 11161  200000                     	org	2097152
 11162  200000  0FFF               	dw	4095
 11163                           
 11164                           ;Config register IDLOC1 @ 0x200002
 11165                           ;	unspecified, using default values
 11166  200002                     	org	2097154
 11167  200002  0FFF               	dw	4095
 11168                           
 11169                           ;Config register IDLOC2 @ 0x200004
 11170                           ;	unspecified, using default values
 11171  200004                     	org	2097156
 11172  200004  0FFF               	dw	4095
 11173                           
 11174                           ;Config register IDLOC3 @ 0x200006
 11175                           ;	unspecified, using default values
 11176  200006                     	org	2097158
 11177  200006  0FFF               	dw	4095
 11178                           
 11179                           ;Config register IDLOC4 @ 0x200008
 11180                           ;	unspecified, using default values
 11181  200008                     	org	2097160
 11182  200008  0FFF               	dw	4095
 11183                           
 11184                           ;Config register IDLOC5 @ 0x20000A
 11185                           ;	unspecified, using default values
 11186  20000A                     	org	2097162
 11187  20000A  0FFF               	dw	4095
 11188                           
 11189                           ;Config register IDLOC6 @ 0x20000C
 11190                           ;	unspecified, using default values
 11191  20000C                     	org	2097164
 11192  20000C  0FFF               	dw	4095
 11193                           
 11194                           ;Config register IDLOC7 @ 0x20000E
 11195                           ;	unspecified, using default values
 11196  20000E                     	org	2097166
 11197  20000E  0FFF               	dw	4095
 11198                           
 11199                           ;Config register IDLOC8 @ 0x200010
 11200                           ;	unspecified, using default values
 11201  200010                     	org	2097168
 11202  200010  0FFF               	dw	4095
 11203                           
 11204                           ;Config register IDLOC9 @ 0x200012
 11205                           ;	unspecified, using default values
 11206  200012                     	org	2097170
 11207  200012  0FFF               	dw	4095
 11208                           
 11209                           ;Config register IDLOC10 @ 0x200014
 11210                           ;	unspecified, using default values
 11211  200014                     	org	2097172
 11212  200014  0FFF               	dw	4095
 11213                           
 11214                           ;Config register IDLOC11 @ 0x200016
 11215                           ;	unspecified, using default values
 11216  200016                     	org	2097174
 11217  200016  0FFF               	dw	4095
 11218                           
 11219                           ;Config register IDLOC12 @ 0x200018
 11220                           ;	unspecified, using default values
 11221  200018                     	org	2097176
 11222  200018  0FFF               	dw	4095
 11223                           
 11224                           ;Config register IDLOC13 @ 0x20001A
 11225                           ;	unspecified, using default values
 11226  20001A                     	org	2097178
 11227  20001A  0FFF               	dw	4095
 11228                           
 11229                           ;Config register IDLOC14 @ 0x20001C
 11230                           ;	unspecified, using default values
 11231  20001C                     	org	2097180
 11232  20001C  0FFF               	dw	4095
 11233                           
 11234                           ;Config register IDLOC15 @ 0x20001E
 11235                           ;	unspecified, using default values
 11236  20001E                     	org	2097182
 11237  20001E  0FFF               	dw	4095
 11238                           
 11239                           	psect	config
 11240                           
 11241                           ;Config register CONFIG1 @ 0x300000
 11242                           ;	External Oscillator Selection
 11243                           ;	FEXTOSC = HS, HS (crystal oscillator) above 8 MHz
 11244                           ;	Reset Oscillator Selection
 11245                           ;	RSTOSC = EXTOSC, EXTOSC operating per FEXTOSC bits (device manufacturing default)
 11246  300000                     	org	3145728
 11247  300000  FA                 	db	250
 11248                           
 11249                           ;Config register CONFIG2 @ 0x300001
 11250                           ;	Clock out Enable bit
 11251                           ;	CLKOUTEN = OFF, CLKOUT function is disabled
 11252                           ;	PRLOCKED One-Way Set Enable bit
 11253                           ;	PR1WAY = ON, PRLOCKED bit can be cleared and set only once
 11254                           ;	Clock Switch Enable bit
 11255                           ;	CSWEN = ON, Writing to NOSC and NDIV is allowed
 11256                           ;	JTAG Enable bit
 11257                           ;	JTAGEN = OFF, Disable JTAG Boundary Scan mode, JTAG pins revert to user functions
 11258                           ;	Fail-Safe Clock Monitor Enable bit
 11259                           ;	FCMEN = ON, Fail-Safe Clock Monitor enabled
 11260                           ;	Fail-Safe Clock Monitor -Primary XTAL Enable bit
 11261                           ;	FCMENP = ON, FSCM timer will set FSCMP bit and OSFIF interrupt on Primary XTAL failure
 11262                           ;	Fail-Safe Clock Monitor -Secondary XTAL Enable bit
 11263                           ;	FCMENS = ON, FSCM timer will set FSCMS bit and OSFIF interrupt on Secondary XTAL failu
      +                          re
 11264  300001                     	org	3145729
 11265  300001  EF                 	db	239
 11266                           
 11267                           ;Config register CONFIG3 @ 0x300002
 11268                           ;	MCLR Enable bit
 11269                           ;	MCLRE = EXTMCLR, If LVP = 0, MCLR pin is MCLR; If LVP = 1, RE3 pin function is MCLR
 11270                           ;	Power-up timer selection bits
 11271                           ;	PWRTS = PWRT_OFF, PWRT is disabled
 11272                           ;	Multi-vector enable bit
 11273                           ;	MVECEN = OFF, Interrupt contoller does not use vector table to prioritze interrupts
 11274                           ;	IVTLOCK bit One-way set enable bit
 11275                           ;	IVT1WAY = ON, IVTLOCKED bit can be cleared and set only once
 11276                           ;	Low Power BOR Enable bit
 11277                           ;	LPBOREN = OFF, Low-Power BOR disabled
 11278                           ;	Brown-out Reset Enable bits
 11279                           ;	BOREN = SBORDIS, Brown-out Reset enabled , SBOREN bit is ignored
 11280  300002                     	org	3145730
 11281  300002  F7                 	db	247
 11282                           
 11283                           ;Config register CONFIG4 @ 0x300003
 11284                           ;	Brown-out Reset Voltage Selection bits
 11285                           ;	BORV = VBOR_1P9, Brown-out Reset Voltage (VBOR) set to 1.9V
 11286                           ;	ZCD Disable bit
 11287                           ;	ZCD = OFF, ZCD module is disabled. ZCD can be enabled by setting the ZCDSEN bit of ZCD
      +                          CON
 11288                           ;	PPSLOCK bit One-Way Set Enable bit
 11289                           ;	PPS1WAY = ON, PPSLOCKED bit can be cleared and set only once; PPS registers remain loc
      +                          ked after one clear/set cycle
 11290                           ;	Stack Full/Underflow Reset Enable bit
 11291                           ;	STVREN = ON, Stack full/underflow will cause Reset
 11292                           ;	Low Voltage Programming Enable bit
 11293                           ;	LVP = OFF, HV on MCLR/VPP must be used for programming
 11294                           ;	Extended Instruction Set Enable bit
 11295                           ;	XINST = OFF, Extended Instruction Set and Indexed Addressing Mode disabled
 11296  300003                     	org	3145731
 11297  300003  DF                 	db	223
 11298                           
 11299                           ;Config register CONFIG5 @ 0x300004
 11300                           ;	WDT Period selection bits
 11301                           ;	WDTCPS = WDTCPS_31, Divider ratio 1:65536; software control of WDTPS
 11302                           ;	WDT operating mode
 11303                           ;	WDTE = OFF, WDT Disabled; SWDTEN is ignored
 11304  300004                     	org	3145732
 11305  300004  9F                 	db	159
 11306                           
 11307                           ;Config register CONFIG6 @ 0x300005
 11308                           ;	WDT Window Select bits
 11309                           ;	WDTCWS = WDTCWS_7, window always open (100%); software control; keyed access not requi
      +                          red
 11310                           ;	WDT input clock selector
 11311                           ;	WDTCCS = SC, Software Control
 11312  300005                     	org	3145733
 11313  300005  FF                 	db	255
 11314                           
 11315                           ;Config register CONFIG7 @ 0x300006
 11316                           ;	Boot Block Size selection bits
 11317                           ;	BBSIZE = BBSIZE_512, Boot Block size is 512 words
 11318                           ;	Boot Block enable bit
 11319                           ;	BBEN = OFF, Boot block disabled
 11320                           ;	Storage Area Flash enable bit
 11321                           ;	SAFEN = OFF, SAF disabled
 11322  300006                     	org	3145734
 11323  300006  FF                 	db	255
 11324                           
 11325                           ;Config register CONFIG8 @ 0x300007
 11326                           ;	Boot Block Write Protection bit
 11327                           ;	WRTB = OFF, Boot Block not Write protected
 11328                           ;	Configuration Register Write Protection bit
 11329                           ;	WRTC = OFF, Configuration registers not Write protected
 11330                           ;	Data EEPROM Write Protection bit
 11331                           ;	WRTD = OFF, Data EEPROM not Write protected
 11332                           ;	SAF Write protection bit
 11333                           ;	WRTSAF = OFF, SAF not Write Protected
 11334                           ;	Application Block write protection bit
 11335                           ;	WRTAPP = OFF, Application Block not write protected
 11336  300007                     	org	3145735
 11337  300007  FF                 	db	255
 11338                           
 11339                           ;Config register CONFIG9 @ 0x300008
 11340                           ;	CRC on boot output pin selection
 11341                           ;	BOOTPINSEL = RC5, CRC on boot output pin is RC5
 11342                           ;	CRC on boot output pin enable bit
 11343                           ;	BPEN = OFF, CRC on boot output pin disabled
 11344                           ;	CRC on boot output pin open drain bit
 11345                           ;	ODCON = OFF, Pin drives both high-going and low-going signals
 11346  300008                     	org	3145736
 11347  300008  FF                 	db	255
 11348                           
 11349                           ;Config register CONFIG10 @ 0x300009
 11350                           ;	PFM and Data EEPROM Code Protection bit
 11351                           ;	CP = OFF, PFM and Data EEPROM code protection disabled
 11352  300009                     	org	3145737
 11353  300009  FF                 	db	255
 11354                           
 11355                           ;Config register CONFIG11 @ 0x30000A
 11356                           ;	CRC on boot scan enable for boot area
 11357                           ;	BOOTSCEN = OFF, CRC on boot will not include the boot area of program memory in its ca
      +                          lculation
 11358                           ;	CRC on boot Continue on Error for boot areas bit
 11359                           ;	BOOTCOE = HALT, CRC on boot will stop device if error is detected in boot areas
 11360                           ;	CRC on boot application code scan enable
 11361                           ;	APPSCEN = OFF, CRC on boot will not include the application area of program memory in 
      +                          its calculation
 11362                           ;	CRC on boot SAF area scan enable
 11363                           ;	SAFSCEN = OFF, CRC on boot will not include the SAF area of program memory in its calc
      +                          ulation
 11364                           ;	CRC on boot Data EEPROM scan enable
 11365                           ;	DATASCEN = OFF, CRC on boot will not include data EEPROM in its calculation
 11366                           ;	CRC on boot Config fuses scan enable
 11367                           ;	CFGSCEN = OFF, CRC on boot will not include the configuration fuses in its calculation
 11368                           ;	CRC on boot Continue on Error for non-boot areas bit
 11369                           ;	COE = HALT, CRC on boot will stop device if error is detected in non-boot areas
 11370                           ;	Boot on CRC Enable bit
 11371                           ;	BOOTPOR = OFF, CRC on boot will not run
 11372  30000A                     	org	3145738
 11373  30000A  FF                 	db	255
 11374                           
 11375                           ;Config register CONFIG12 @ 0x30000B
 11376                           ;	Boot Sector Polynomial for CRC on boot bits 31-24
 11377                           ;	BCRCPOLT = hFF, Bits 31:24 of BCRCPOL are 0xFF
 11378  30000B                     	org	3145739
 11379  30000B  FF                 	db	255
 11380                           
 11381                           ;Config register CONFIG13 @ 0x30000C
 11382                           ;	Boot Sector Polynomial for CRC on boot bits 23-16
 11383                           ;	BCRCPOLU = hFF, Bits 23:16 of BCRCPOL are 0xFF
 11384  30000C                     	org	3145740
 11385  30000C  FF                 	db	255
 11386                           
 11387                           ;Config register CONFIG14 @ 0x30000D
 11388                           ;	Boot Sector Polynomial for CRC on boot bits 15-8
 11389                           ;	BCRCPOLH = hFF, Bits 15:8 of BCRCPOL are 0xFF
 11390  30000D                     	org	3145741
 11391  30000D  FF                 	db	255
 11392                           
 11393                           ;Config register CONFIG15 @ 0x30000E
 11394                           ;	Boot Sector Polynomial for CRC on boot bits 7-0
 11395                           ;	BCRCPOLL = hFF, Bits 7:0 of BCRCPOL are 0xFF
 11396  30000E                     	org	3145742
 11397  30000E  FF                 	db	255
 11398                           
 11399                           ;Config register CONFIG16 @ 0x30000F
 11400                           ;	Boot Sector Seed for CRC on boot bits 31-24
 11401                           ;	BCRCSEEDT = hFF, Bits 31:24 of BCRCSEED are 0xFF
 11402  30000F                     	org	3145743
 11403  30000F  FF                 	db	255
 11404                           
 11405                           ;Config register CONFIG17 @ 0x300010
 11406                           ;	Boot Sector Seed for CRC on boot bits 23-16
 11407                           ;	BCRCSEEDU = hFF, Bits 23:16 of BCRCSEED are 0xFF
 11408  300010                     	org	3145744
 11409  300010  FF                 	db	255
 11410                           
 11411                           ;Config register CONFIG18 @ 0x300011
 11412                           ;	Boot Sector Seed for CRC on boot bits 15-8
 11413                           ;	BCRCSEEDH = hFF, Bits 15:8 of BCRCSEED are 0xFF
 11414  300011                     	org	3145745
 11415  300011  FF                 	db	255
 11416                           
 11417                           ;Config register CONFIG19 @ 0x300012
 11418                           ;	Boot Sector Seed for CRC on boot bits 7-0
 11419                           ;	BCRCSEEDL = hFF, Bits 7:0 of BCRCSEED are 0xFF
 11420  300012                     	org	3145746
 11421  300012  FF                 	db	255
 11422                           
 11423                           ;Config register CONFIG20 @ 0x300013
 11424                           ;	unspecified, using default values
 11425                           ;	Boot Sector Expected Result for CRC on boot bits 31-24
 11426                           ;	BCRCEREST = 0xFF, unprogrammed default
 11427  300013                     	org	3145747
 11428  300013  FF                 	db	255
 11429                           
 11430                           ;Config register CONFIG21 @ 0x300014
 11431                           ;	unspecified, using default values
 11432                           ;	Boot Sector Expected Result for CRC on boot bits 23-16
 11433                           ;	BCRCERESU = 0xFF, unprogrammed default
 11434  300014                     	org	3145748
 11435  300014  FF                 	db	255
 11436                           
 11437                           ;Config register CONFIG22 @ 0x300015
 11438                           ;	unspecified, using default values
 11439                           ;	Boot Sector Expected Result for CRC on boot bits 15-8
 11440                           ;	BCRCERESH = 0xFF, unprogrammed default
 11441  300015                     	org	3145749
 11442  300015  FF                 	db	255
 11443                           
 11444                           ;Config register CONFIG23 @ 0x300016
 11445                           ;	unspecified, using default values
 11446                           ;	Boot Sector Expected Result for CRC on boot bits 7-0
 11447                           ;	BCRCERESL = 0xFF, unprogrammed default
 11448  300016                     	org	3145750
 11449  300016  FF                 	db	255
 11450                           
 11451                           ;Config register CONFIG24 @ 0x300017
 11452                           ;	Non-Boot Sector Polynomial for CRC on boot bits 31-24
 11453                           ;	CRCPOLT = hFF, Bits 31:24 of CRCPOL are 0xFF
 11454  300017                     	org	3145751
 11455  300017  FF                 	db	255
 11456                           
 11457                           ;Config register CONFIG25 @ 0x300018
 11458                           ;	Non-Boot Sector Polynomial for CRC on boot bits 23-16
 11459                           ;	CRCPOLU = hFF, Bits 23:16 of CRCPOL are 0xFF
 11460  300018                     	org	3145752
 11461  300018  FF                 	db	255
 11462                           
 11463                           ;Config register CONFIG26 @ 0x300019
 11464                           ;	Non-Boot Sector Polynomial for CRC on boot bits 15-8
 11465                           ;	CRCPOLH = hFF, Bits 15:8 of CRCPOL are 0xFF
 11466  300019                     	org	3145753
 11467  300019  FF                 	db	255
 11468                           
 11469                           ;Config register CONFIG27 @ 0x30001A
 11470                           ;	Non-Boot Sector Polynomial for CRC on boot bits 7-0
 11471                           ;	CRCPOLL = hFF, Bits 7:0 of CRCPOL are 0xFF
 11472  30001A                     	org	3145754
 11473  30001A  FF                 	db	255
 11474                           
 11475                           ;Config register CONFIG28 @ 0x30001B
 11476                           ;	Non-Boot Sector Seed for CRC on boot bits 31-24
 11477                           ;	CRCSEEDT = hFF, Bits 31:24 of CRCSEED are 0xFF
 11478  30001B                     	org	3145755
 11479  30001B  FF                 	db	255
 11480                           
 11481                           ;Config register CONFIG29 @ 0x30001C
 11482                           ;	Non-Boot Sector Seed for CRC on boot bits 23-16
 11483                           ;	CRCSEEDU = hFF, Bits 23:16 of CRCSEED are 0xFF
 11484  30001C                     	org	3145756
 11485  30001C  FF                 	db	255
 11486                           
 11487                           ;Config register CONFIG30 @ 0x30001D
 11488                           ;	Non-Boot Sector Seed for CRC on boot bits 15-8
 11489                           ;	CRCSEEDH = hFF, Bits 15:8 of CRCSEED are 0xFF
 11490  30001D                     	org	3145757
 11491  30001D  FF                 	db	255
 11492                           
 11493                           ;Config register CONFIG31 @ 0x30001E
 11494                           ;	Non-Boot Sector Seed for CRC on boot bits 7-0
 11495                           ;	CRCSEEDL = hFF, Bits 7:0 of CRCSEED are 0xFF
 11496  30001E                     	org	3145758
 11497  30001E  FF                 	db	255
 11498                           
 11499                           ;Config register CONFIG32 @ 0x30001F
 11500                           ;	unspecified, using default values
 11501                           ;	Non-Boot Sector Expected Result for CRC on boot bits 31-24
 11502                           ;	CRCEREST = 0xFF, unprogrammed default
 11503  30001F                     	org	3145759
 11504  30001F  FF                 	db	255
 11505                           
 11506                           ;Config register CONFIG33 @ 0x300020
 11507                           ;	unspecified, using default values
 11508                           ;	Non-Boot Sector Expected Result for CRC on boot bits 23-16
 11509                           ;	CRCERESU = 0xFF, unprogrammed default
 11510  300020                     	org	3145760
 11511  300020  FF                 	db	255
 11512                           
 11513                           ;Config register CONFIG34 @ 0x300021
 11514                           ;	unspecified, using default values
 11515                           ;	Non-Boot Sector Expected Result for CRC on boot bits 15-8
 11516                           ;	CRCERESH = 0xFF, unprogrammed default
 11517  300021                     	org	3145761
 11518  300021  FF                 	db	255
 11519                           
 11520                           ;Config register CONFIG35 @ 0x300022
 11521                           ;	unspecified, using default values
 11522                           ;	Non-Boot Sector Expected Result for CRC on boot bits 7-0
 11523                           ;	CRCERESL = 0xFF, unprogrammed default
 11524  300022                     	org	3145762
 11525  300022  FF                 	db	255
 11526                           
 11527                           ; Padding undefined space
 11528  300023                     	org	3145763
 11529  300023  FF                 	db	255
 11530                           tosu	equ	0x4FF
 11531                           tosh	equ	0x4FE
 11532                           tosl	equ	0x4FD
 11533                           stkptr	equ	0x4FC
 11534                           pclatu	equ	0x4FB
 11535                           pclath	equ	0x4FA
 11536                           pcl	equ	0x4F9
 11537                           tblptru	equ	0x4F8
 11538                           tblptrh	equ	0x4F7
 11539                           tblptrl	equ	0x4F6
 11540                           tablat	equ	0x4F5
 11541                           prodh	equ	0x4F4
 11542                           prodl	equ	0x4F3
 11543                           indf0	equ	0x4EF
 11544                           postinc0	equ	0x4EE
 11545                           postdec0	equ	0x4ED
 11546                           preinc0	equ	0x4EC
 11547                           plusw0	equ	0x4EB
 11548                           fsr0h	equ	0x4EA
 11549                           fsr0l	equ	0x4E9
 11550                           wreg	equ	0x4E8
 11551                           indf1	equ	0x4E7
 11552                           postinc1	equ	0x4E6
 11553                           postdec1	equ	0x4E5
 11554                           preinc1	equ	0x4E4
 11555                           plusw1	equ	0x4E3
 11556                           fsr1h	equ	0x4E2
 11557                           fsr1l	equ	0x4E1
 11558                           bsr	equ	0x4E0
 11559                           indf2	equ	0x4DF
 11560                           postinc2	equ	0x4DE
 11561                           postdec2	equ	0x4DD
 11562                           preinc2	equ	0x4DC
 11563                           plusw2	equ	0x4DB
 11564                           fsr2h	equ	0x4DA
 11565                           fsr2l	equ	0x4D9
 11566                           status	equ	0x4D8

Data Sizes:
    Strings     0
    Constant    11
    Data        2
    BSS         111
    Persistent  28
    Stack       0

Auto Spaces:
    Space          Size  Autos    Used
    COMRAM           95     73      95
    BANK5           160     67     160
    BANK6           256      0      26
    BANK7           256      0       0
    BANK8           256      0       0
    BANK9           256      0       0
    BANK10          256      0       0
    BANK11          256      0       0
    BANK12          256      0       0
    BANK13          256      0       0
    BANK14          256      0       0
    BANK15          256      0       0
    BANK16          256      0       0
    BANK17          256      0       0
    BANK18          256      0       0
    BANK19          256      0       0
    BANK20          256      0       0
    BANK21          256      0       0
    BANK22          256      0       0
    BANK23          256      0       0
    BANK24          256      0       0
    BANK25          256      0       0
    BANK26          256      0       0
    BANK27          256      0       0
    BANK28          256      0       0
    BANK29          256      0       0
    BANK30          256      0       0
    BANK31          256      0       0
    BANK32          256      0       0
    BANK33          256      0       0
    BANK34          256      0       0
    BANK35          256      0       0
    BANK36          256      0       0
    BANK37          256      0       0

Pointer List with Targets:

    msgReceipt.data	PTR unsigned char  size(2) Largest target is 8
		 -> CANDATAdata(BANK6[8]), rxMsgData(BANK6[8]), 

    msgTransmit.data	PTR unsigned char  size(2) Largest target is 8
		 -> CANDATAdata(BANK6[8]), rxMsgData(BANK6[8]), 

    TMR0_SetInterruptHandler@InterruptHandler	PTR FTN()void  size(2) Largest target is 1
		 -> TMR0_DefaultInterruptHandler(), 

    TMR0_InterruptHandler	PTR FTN()void  size(2) Largest target is 1
		 -> TMR0_DefaultInterruptHandler(), Absolute function(), 

    TMR2_SetInterruptHandler@InterruptHandler	PTR FTN()void  size(2) Largest target is 1
		 -> TMR2_DefaultInterruptHandler(), 

    TMR2_InterruptHandler	PTR FTN()void  size(2) Largest target is 1
		 -> TMR2_DefaultInterruptHandler(), Absolute function(), 

    TMR1_SetInterruptHandler@InterruptHandler	PTR FTN()void  size(2) Largest target is 1
		 -> TMR1_DefaultInterruptHandler(), 

    TMR1_InterruptHandler	PTR FTN()void  size(2) Largest target is 1
		 -> TMR1_DefaultInterruptHandler(), Absolute function(), 

    PWM2_16BIT_Period_SetInterruptHandler@InterruptHandler	PTR FTN()void  size(2) Largest target is 1
		 -> PWM2_16BIT_Period_DefaultInterruptHandler(), 

    PWM2_16BIT_Slice1Output2_SetInterruptHandler@InterruptHandler	PTR FTN()void  size(2) Largest target is 1
		 -> PWM2_16BIT_Slice1Output2_DefaultInterruptHandler(), 

    PWM2_16BIT_Slice1Output1_SetInterruptHandler@InterruptHandler	PTR FTN()void  size(2) Largest target is 1
		 -> PWM2_16BIT_Slice1Output1_DefaultInterruptHandler(), 

    PWM2_16BIT_Period_InterruptHandler	PTR FTN()void  size(2) Largest target is 1
		 -> PWM2_16BIT_Period_DefaultInterruptHandler(), Absolute function(), 

    PWM2_16BIT_Slice1Output2_InterruptHandler	PTR FTN()void  size(2) Largest target is 1
		 -> PWM2_16BIT_Slice1Output2_DefaultInterruptHandler(), Absolute function(), 

    PWM2_16BIT_Slice1Output1_InterruptHandler	PTR FTN()void  size(2) Largest target is 1
		 -> PWM2_16BIT_Slice1Output1_DefaultInterruptHandler(), Absolute function(), 

    CAN1_SetRxBufferOverFlowInterruptHandler@handler	PTR FTN()void  size(2) Largest target is 1
		 -> DefaultRxBufferOverflowHandler(), 

    CAN1_RxBufferOverflowHandler	PTR FTN()void  size(2) Largest target is 1
		 -> DefaultRxBufferOverflowHandler(), Absolute function(), 

    CAN1_SetTxAttemptInterruptHandler@handler	PTR FTN()void  size(2) Largest target is 1
		 -> DefaultTxAttemptHandler(), 

    CAN1_TxAttemptHandler	PTR FTN()void  size(2) Largest target is 1
		 -> DefaultTxAttemptHandler(), Absolute function(), 

    CAN1_SetSystemErrorInterruptHandler@handler	PTR FTN()void  size(2) Largest target is 1
		 -> DefaultSystemErrorHandler(), 

    CAN1_SystemErrorHandler	PTR FTN()void  size(2) Largest target is 1
		 -> DefaultSystemErrorHandler(), Absolute function(), 

    CAN1_SetModeChangeInterruptHandler@handler	PTR FTN()void  size(2) Largest target is 1
		 -> DefaultModeChangeHandler(), 

    CAN1_ModeChangeHandler	PTR FTN()void  size(2) Largest target is 1
		 -> DefaultModeChangeHandler(), Absolute function(), 

    CAN1_SetBusErrorInterruptHandler@handler	PTR FTN()void  size(2) Largest target is 1
		 -> DefaultBusErrorHandler(), 

    CAN1_BusErrorHandler	PTR FTN()void  size(2) Largest target is 1
		 -> DefaultBusErrorHandler(), Absolute function(), 

    CAN1_SetBusWakeUpActivityInterruptHandler@handler	PTR FTN()void  size(2) Largest target is 1
		 -> DefaultBusWakeUpActivityHandler(), 

    CAN1_BusWakeUpActivityHandler	PTR FTN()void  size(2) Largest target is 1
		 -> DefaultBusWakeUpActivityHandler(), Absolute function(), 

    CAN1_SetInvalidMessageInterruptHandler@handler	PTR FTN()void  size(2) Largest target is 1
		 -> DefaultInvalidMessageHandler(), 

    CAN1_InvalidMessageHandler	PTR FTN()void  size(2) Largest target is 1
		 -> DefaultInvalidMessageHandler(), Absolute function(), 

    ValidateTransmission@txCanMsg.data	PTR unsigned char  size(2) Largest target is 8
		 -> CANDATAdata(BANK6[8]), rxMsgData(BANK6[8]), 

    WriteMessageToFifo@txCanMsg.data	PTR unsigned char  size(2) Largest target is 8
		 -> CANDATAdata(BANK6[8]), rxMsgData(BANK6[8]), 

    sp__memcpy	PTR void  size(2) Largest target is 9727
		 -> RAM(DATA[9727]), rxMsgData(BANK6[8]), 

    S1521$data	PTR unsigned char  size(2) Largest target is 8
		 -> CANDATAdata(BANK6[8]), rxMsgData(BANK6[8]), 

    ReadMessageFromFifo@rxCanMsg.data	PTR unsigned char  size(2) Largest target is 8
		 -> CANDATAdata(BANK6[8]), rxMsgData(BANK6[8]), 

    FIFO	const PTR volatile struct CAN_FIFOREG size(2) Largest target is 1
		 -> C1TXQCONL(SFR_1[1]), 

    ADC_SetActiveClockTuningInterruptHandler@InterruptHandler	PTR FTN()void  size(2) Largest target is 1
		 -> ADC_DefaultActiveClockTuning_ISR(), 

    ADC_SetContext4ThresholdInterruptHandler@InterruptHandler	PTR FTN()void  size(2) Largest target is 1
		 -> ADC_DefaultContext4Threshold_ISR(), 

    ADC_SetContext3ThresholdInterruptHandler@InterruptHandler	PTR FTN()void  size(2) Largest target is 1
		 -> ADC_DefaultContext3Threshold_ISR(), 

    ADC_SetContext2ThresholdInterruptHandler@InterruptHandler	PTR FTN()void  size(2) Largest target is 1
		 -> ADC_DefaultContext2Threshold_ISR(), 

    ADC_SetContext1ThresholdInterruptHandler@InterruptHandler	PTR FTN()void  size(2) Largest target is 1
		 -> ADC_DefaultContext1Threshold_ISR(), 

    ADC_SetADIInterruptHandler@InterruptHandler	PTR FTN()void  size(2) Largest target is 1
		 -> ADC_DefaultADI_ISR(), 

    ADC_Context4Thereshld_ISR	PTR FTN()void  size(2) Largest target is 1
		 -> ADC_DefaultContext4Threshold_ISR(), Absolute function(), 

    ADC_Context3Thereshld_ISR	PTR FTN()void  size(2) Largest target is 1
		 -> ADC_DefaultContext3Threshold_ISR(), Absolute function(), 

    ADC_Context2Thereshld_ISR	PTR FTN()void  size(2) Largest target is 1
		 -> ADC_DefaultContext2Threshold_ISR(), Absolute function(), 

    ADC_Context1Thereshld_ISR	PTR FTN()void  size(2) Largest target is 1
		 -> ADC_DefaultContext1Threshold_ISR(), Absolute function(), 

    ADC_ActiveClockTuning_ISR	PTR FTN()void  size(2) Largest target is 1
		 -> ADC_DefaultActiveClockTuning_ISR(), Absolute function(), 

    ADC_ConversionComplete_ISR	PTR FTN()void  size(2) Largest target is 1
		 -> ADC_DefaultADI_ISR(), Absolute function(), 

    PWM1_16BIT_Period_SetInterruptHandler@InterruptHandler	PTR FTN()void  size(2) Largest target is 1
		 -> PWM1_16BIT_Period_DefaultInterruptHandler(), 

    PWM1_16BIT_Slice1Output2_SetInterruptHandler@InterruptHandler	PTR FTN()void  size(2) Largest target is 1
		 -> PWM1_16BIT_Slice1Output2_DefaultInterruptHandler(), 

    PWM1_16BIT_Slice1Output1_SetInterruptHandler@InterruptHandler	PTR FTN()void  size(2) Largest target is 1
		 -> PWM1_16BIT_Slice1Output1_DefaultInterruptHandler(), 

    PWM1_16BIT_Period_InterruptHandler	PTR FTN()void  size(2) Largest target is 1
		 -> PWM1_16BIT_Period_DefaultInterruptHandler(), Absolute function(), 

    PWM1_16BIT_Slice1Output2_InterruptHandler	PTR FTN()void  size(2) Largest target is 1
		 -> PWM1_16BIT_Slice1Output2_DefaultInterruptHandler(), Absolute function(), 

    PWM1_16BIT_Slice1Output1_InterruptHandler	PTR FTN()void  size(2) Largest target is 1
		 -> PWM1_16BIT_Slice1Output1_DefaultInterruptHandler(), Absolute function(), 

    INT0_SetInterruptHandler@InterruptHandler	PTR FTN()void  size(2) Largest target is 1
		 -> INT0_DefaultInterruptHandler(), 

    INT0_InterruptHandler	PTR FTN()void  size(2) Largest target is 1
		 -> INT0_DefaultInterruptHandler(), Absolute function(), 


Critical Paths under _main in COMRAM

    None.

Critical Paths under _INTERRUPT_InterruptManager in COMRAM

    _TMR1_ISR->_TMR1_WriteTimer
    _GPIO_BrakePedalAtRest->_ANALOG_GetVoltage
    _ANALOG_GetVoltage->i2___fltol
    i2___fltol->i2___fladd
    i2___fladd->___flmul
    ___flmul->i2___xxtofl
    ___fldiv->i2___xxtofl

Critical Paths under _main in BANK5

    _main->_EBS_Watchdog
    _SYSTEM_Initialize->_TMR1_Initialize
    _TMR2_Initialize->_TMR2_SetInterruptHandler
    _TMR1_Initialize->_TMR1_SetInterruptHandler
    _TMR0_Initialize->_TMR0_SetInterruptHandler
    _PWM2_16BIT_Initialize->_PWM2_16BIT_Period_SetInterruptHandler
    _PWM2_16BIT_Initialize->_PWM2_16BIT_Slice1Output1_SetInterruptHandler
    _PWM2_16BIT_Initialize->_PWM2_16BIT_Slice1Output2_SetInterruptHandler
    _PWM1_16BIT_Initialize->_PWM1_16BIT_Period_SetInterruptHandler
    _PWM1_16BIT_Initialize->_PWM1_16BIT_Slice1Output1_SetInterruptHandler
    _PWM1_16BIT_Initialize->_PWM1_16BIT_Slice1Output2_SetInterruptHandler
    _EXT_INT_Initialize->_INT0_SetInterruptHandler
    _CAN1_Initialize->_CAN1_OperationModeSet
    _CAN1_ErrorNotificationInterruptEnable->_CAN1_SetBusErrorInterruptHandler
    _CAN1_ErrorNotificationInterruptEnable->_CAN1_SetBusWakeUpActivityInterruptHandler
    _CAN1_ErrorNotificationInterruptEnable->_CAN1_SetInvalidMessageInterruptHandler
    _CAN1_ErrorNotificationInterruptEnable->_CAN1_SetModeChangeInterruptHandler
    _CAN1_ErrorNotificationInterruptEnable->_CAN1_SetRxBufferOverFlowInterruptHandler
    _CAN1_ErrorNotificationInterruptEnable->_CAN1_SetSystemErrorInterruptHandler
    _CAN1_ErrorNotificationInterruptEnable->_CAN1_SetTxAttemptInterruptHandler
    _ADC_Initialize->_ADC_SetADIInterruptHandler
    _ADC_Initialize->_ADC_SetActiveClockTuningInterruptHandler
    _ADC_Initialize->_ADC_SetContext1ThresholdInterruptHandler
    _ADC_Initialize->_ADC_SetContext2ThresholdInterruptHandler
    _ADC_Initialize->_ADC_SetContext3ThresholdInterruptHandler
    _ADC_Initialize->_ADC_SetContext4ThresholdInterruptHandler
    _GPIO_PWM1_Control->___fltol
    _EBS_Watchdog->_GPIO_PWM2_Control
    _GPIO_PWM2_Control->___fltol
    ___xxtofl->___aldiv
    ___wmul->___lwdiv
    ___fltol->___fladd
    ___fladd->___xxtofl

Critical Paths under _INTERRUPT_InterruptManager in BANK5

    None.

Critical Paths under _main in BANK6

    None.

Critical Paths under _INTERRUPT_InterruptManager in BANK6

    None.

Critical Paths under _main in BANK7

    None.

Critical Paths under _INTERRUPT_InterruptManager in BANK7

    None.

Critical Paths under _main in BANK8

    None.

Critical Paths under _INTERRUPT_InterruptManager in BANK8

    None.

Critical Paths under _main in BANK9

    None.

Critical Paths under _INTERRUPT_InterruptManager in BANK9

    None.

Critical Paths under _main in BANK10

    None.

Critical Paths under _INTERRUPT_InterruptManager in BANK10

    None.

Critical Paths under _main in BANK11

    None.

Critical Paths under _INTERRUPT_InterruptManager in BANK11

    None.

Critical Paths under _main in BANK12

    None.

Critical Paths under _INTERRUPT_InterruptManager in BANK12

    None.

Critical Paths under _main in BANK13

    None.

Critical Paths under _INTERRUPT_InterruptManager in BANK13

    None.

Critical Paths under _main in BANK14

    None.

Critical Paths under _INTERRUPT_InterruptManager in BANK14

    None.

Critical Paths under _main in BANK15

    None.

Critical Paths under _INTERRUPT_InterruptManager in BANK15

    None.

Critical Paths under _main in BANK16

    None.

Critical Paths under _INTERRUPT_InterruptManager in BANK16

    None.

Critical Paths under _main in BANK17

    None.

Critical Paths under _INTERRUPT_InterruptManager in BANK17

    None.

Critical Paths under _main in BANK18

    None.

Critical Paths under _INTERRUPT_InterruptManager in BANK18

    None.

Critical Paths under _main in BANK19

    None.

Critical Paths under _INTERRUPT_InterruptManager in BANK19

    None.

Critical Paths under _main in BANK20

    None.

Critical Paths under _INTERRUPT_InterruptManager in BANK20

    None.

Critical Paths under _main in BANK21

    None.

Critical Paths under _INTERRUPT_InterruptManager in BANK21

    None.

Critical Paths under _main in BANK22

    None.

Critical Paths under _INTERRUPT_InterruptManager in BANK22

    None.

Critical Paths under _main in BANK23

    None.

Critical Paths under _INTERRUPT_InterruptManager in BANK23

    None.

Critical Paths under _main in BANK24

    None.

Critical Paths under _INTERRUPT_InterruptManager in BANK24

    None.

Critical Paths under _main in BANK25

    None.

Critical Paths under _INTERRUPT_InterruptManager in BANK25

    None.

Critical Paths under _main in BANK26

    None.

Critical Paths under _INTERRUPT_InterruptManager in BANK26

    None.

Critical Paths under _main in BANK27

    None.

Critical Paths under _INTERRUPT_InterruptManager in BANK27

    None.

Critical Paths under _main in BANK28

    None.

Critical Paths under _INTERRUPT_InterruptManager in BANK28

    None.

Critical Paths under _main in BANK29

    None.

Critical Paths under _INTERRUPT_InterruptManager in BANK29

    None.

Critical Paths under _main in BANK30

    None.

Critical Paths under _INTERRUPT_InterruptManager in BANK30

    None.

Critical Paths under _main in BANK31

    None.

Critical Paths under _INTERRUPT_InterruptManager in BANK31

    None.

Critical Paths under _main in BANK32

    None.

Critical Paths under _INTERRUPT_InterruptManager in BANK32

    None.

Critical Paths under _main in BANK33

    None.

Critical Paths under _INTERRUPT_InterruptManager in BANK33

    None.

Critical Paths under _main in BANK34

    None.

Critical Paths under _INTERRUPT_InterruptManager in BANK34

    None.

Critical Paths under _main in BANK35

    None.

Critical Paths under _INTERRUPT_InterruptManager in BANK35

    None.

Critical Paths under _main in BANK36

    None.

Critical Paths under _INTERRUPT_InterruptManager in BANK36

    None.

Critical Paths under _main in BANK37

    None.

Critical Paths under _INTERRUPT_InterruptManager in BANK37

    None.

Call Graph Tables:

 ---------------------------------------------------------------------------------
 (Depth) Function   	        Calls       Base Space   Used Autos Params    Refs
 ---------------------------------------------------------------------------------
 (0) _main                                                 0     0      0   13319
                 _DELAY_milliseconds
                           _EBS_Init
                       _EBS_Watchdog
                  _GPIO_PWM1_Control
                  _SYSTEM_Initialize
 ---------------------------------------------------------------------------------
 (1) _SYSTEM_Initialize                                    0     0      0    2458
                     _ADC_Initialize
                    _CAN1_Initialize
                 _EXT_INT_Initialize
               _INTERRUPT_Initialize
              _OSCILLATOR_Initialize
             _PIN_MANAGER_Initialize
                     _PMD_Initialize
              _PWM1_16BIT_Initialize
              _PWM2_16BIT_Initialize
                    _TMR0_Initialize
                    _TMR1_Initialize
                    _TMR2_Initialize
 ---------------------------------------------------------------------------------
 (2) _TMR2_Initialize                                      0     0      0      98
           _TMR2_SetInterruptHandler
 ---------------------------------------------------------------------------------
 (3) _TMR2_SetInterruptHandler                             2     0      2      98
                                              0 BANK5      2     0      2
 ---------------------------------------------------------------------------------
 (2) _TMR1_Initialize                                      2     2      0      98
                                              2 BANK5      2     2      0
           _TMR1_SetInterruptHandler
 ---------------------------------------------------------------------------------
 (3) _TMR1_SetInterruptHandler                             2     0      2      98
                                              0 BANK5      2     0      2
 ---------------------------------------------------------------------------------
 (2) _TMR0_Initialize                                      0     0      0      98
           _TMR0_SetInterruptHandler
 ---------------------------------------------------------------------------------
 (3) _TMR0_SetInterruptHandler                             2     0      2      98
                                              0 BANK5      2     0      2
 ---------------------------------------------------------------------------------
 (2) _PWM2_16BIT_Initialize                                0     0      0     294
_PWM2_16BIT_Period_SetInterruptHandl
_PWM2_16BIT_Slice1Output1_SetInterru
_PWM2_16BIT_Slice1Output2_SetInterru
 ---------------------------------------------------------------------------------
 (3) _PWM2_16BIT_Slice1Output2_SetInterruptHandler         2     0      2      98
                                              0 BANK5      2     0      2
 ---------------------------------------------------------------------------------
 (3) _PWM2_16BIT_Slice1Output1_SetInterruptHandler         2     0      2      98
                                              0 BANK5      2     0      2
 ---------------------------------------------------------------------------------
 (3) _PWM2_16BIT_Period_SetInterruptHandler                2     0      2      98
                                              0 BANK5      2     0      2
 ---------------------------------------------------------------------------------
 (2) _PWM1_16BIT_Initialize                                0     0      0     294
_PWM1_16BIT_Period_SetInterruptHandl
_PWM1_16BIT_Slice1Output1_SetInterru
_PWM1_16BIT_Slice1Output2_SetInterru
 ---------------------------------------------------------------------------------
 (3) _PWM1_16BIT_Slice1Output2_SetInterruptHandler         2     0      2      98
                                              0 BANK5      2     0      2
 ---------------------------------------------------------------------------------
 (3) _PWM1_16BIT_Slice1Output1_SetInterruptHandler         2     0      2      98
                                              0 BANK5      2     0      2
 ---------------------------------------------------------------------------------
 (3) _PWM1_16BIT_Period_SetInterruptHandler                2     0      2      98
                                              0 BANK5      2     0      2
 ---------------------------------------------------------------------------------
 (2) _PMD_Initialize                                       0     0      0       0
 ---------------------------------------------------------------------------------
 (2) _PIN_MANAGER_Initialize                               0     0      0       0
 ---------------------------------------------------------------------------------
 (2) _OSCILLATOR_Initialize                                0     0      0       0
 ---------------------------------------------------------------------------------
 (2) _INTERRUPT_Initialize                                 0     0      0       0
 ---------------------------------------------------------------------------------
 (2) _EXT_INT_Initialize                                   0     0      0      98
           _INT0_SetInterruptHandler
 ---------------------------------------------------------------------------------
 (3) _INT0_SetInterruptHandler                             2     0      2      98
                                              0 BANK5      2     0      2
 ---------------------------------------------------------------------------------
 (2) _CAN1_Initialize                                      0     0      0     890
          _CAN1_BitRateConfiguration
_CAN1_ErrorNotificationInterruptEnab
              _CAN1_OperationModeSet
         _CAN1_RX_FIFO_Configuration
_CAN1_RX_FIFO_FilterMaskConfiguratio
             _CAN1_RX_FIFO_ResetInfo
         _CAN1_TX_FIFO_Configuration
 ---------------------------------------------------------------------------------
 (3) _CAN1_TX_FIFO_Configuration                           0     0      0       0
 ---------------------------------------------------------------------------------
 (3) _CAN1_RX_FIFO_ResetInfo                               1     1      0      68
                                              0 BANK5      1     1      0
 ---------------------------------------------------------------------------------
 (3) _CAN1_RX_FIFO_FilterMaskConfiguration                 0     0      0       0
 ---------------------------------------------------------------------------------
 (3) _CAN1_RX_FIFO_Configuration                           0     0      0       0
 ---------------------------------------------------------------------------------
 (3) _CAN1_OperationModeSet                                3     3      0     136
                                              0 BANK5      3     3      0
              _CAN1_OperationModeGet
 ---------------------------------------------------------------------------------
 (4) _CAN1_OperationModeGet                                0     0      0       0
 ---------------------------------------------------------------------------------
 (3) _CAN1_ErrorNotificationInterruptEnable                0     0      0     686
   _CAN1_SetBusErrorInterruptHandler
_CAN1_SetBusWakeUpActivityInterruptH
_CAN1_SetInvalidMessageInterruptHand
 _CAN1_SetModeChangeInterruptHandler
_CAN1_SetRxBufferOverFlowInterruptHa
_CAN1_SetSystemErrorInterruptHandler
  _CAN1_SetTxAttemptInterruptHandler
 ---------------------------------------------------------------------------------
 (4) _CAN1_SetTxAttemptInterruptHandler                    2     0      2      98
                                              0 BANK5      2     0      2
 ---------------------------------------------------------------------------------
 (4) _CAN1_SetSystemErrorInterruptHandler                  2     0      2      98
                                              0 BANK5      2     0      2
 ---------------------------------------------------------------------------------
 (4) _CAN1_SetRxBufferOverFlowInterruptHandler             2     0      2      98
                                              0 BANK5      2     0      2
 ---------------------------------------------------------------------------------
 (4) _CAN1_SetModeChangeInterruptHandler                   2     0      2      98
                                              0 BANK5      2     0      2
 ---------------------------------------------------------------------------------
 (4) _CAN1_SetInvalidMessageInterruptHandler               2     0      2      98
                                              0 BANK5      2     0      2
 ---------------------------------------------------------------------------------
 (4) _CAN1_SetBusWakeUpActivityInterruptHandler            2     0      2      98
                                              0 BANK5      2     0      2
 ---------------------------------------------------------------------------------
 (4) _CAN1_SetBusErrorInterruptHandler                     2     0      2      98
                                              0 BANK5      2     0      2
 ---------------------------------------------------------------------------------
 (3) _CAN1_BitRateConfiguration                            0     0      0       0
 ---------------------------------------------------------------------------------
 (2) _ADC_Initialize                                       0     0      0     588
         _ADC_SetADIInterruptHandler
_ADC_SetActiveClockTuningInterruptHa
_ADC_SetContext1ThresholdInterruptHa
_ADC_SetContext2ThresholdInterruptHa
_ADC_SetContext3ThresholdInterruptHa
_ADC_SetContext4ThresholdInterruptHa
 ---------------------------------------------------------------------------------
 (3) _ADC_SetContext4ThresholdInterruptHandler             2     0      2      98
                                              0 BANK5      2     0      2
 ---------------------------------------------------------------------------------
 (3) _ADC_SetContext3ThresholdInterruptHandler             2     0      2      98
                                              0 BANK5      2     0      2
 ---------------------------------------------------------------------------------
 (3) _ADC_SetContext2ThresholdInterruptHandler             2     0      2      98
                                              0 BANK5      2     0      2
 ---------------------------------------------------------------------------------
 (3) _ADC_SetContext1ThresholdInterruptHandler             2     0      2      98
                                              0 BANK5      2     0      2
 ---------------------------------------------------------------------------------
 (3) _ADC_SetActiveClockTuningInterruptHandler             2     0      2      98
                                              0 BANK5      2     0      2
 ---------------------------------------------------------------------------------
 (3) _ADC_SetADIInterruptHandler                           2     0      2      98
                                              0 BANK5      2     0      2
 ---------------------------------------------------------------------------------
 (1) _GPIO_PWM1_Control                                   10     6      4    4933
                                             54 BANK5     10     6      4
     _PWM1_16BIT_LoadBufferRegisters
_PWM1_16BIT_SetSlice1Output1DutyCycl
     _PWM1_16BIT_WritePeriodRegister
                            ___aldiv
                            ___fladd
                            ___fltol
                           ___xxtofl
 ---------------------------------------------------------------------------------
 (2) _PWM1_16BIT_WritePeriodRegister                       2     0      2     120
                                              0 BANK5      2     0      2
 ---------------------------------------------------------------------------------
 (2) _PWM1_16BIT_SetSlice1Output1DutyCycleRegister         2     0      2     120
                                              0 BANK5      2     0      2
 ---------------------------------------------------------------------------------
 (2) _PWM1_16BIT_LoadBufferRegisters                       0     0      0       0
 ---------------------------------------------------------------------------------
 (1) _EBS_Watchdog                                         3     3      0    5450
                                             64 BANK5      3     3      0
                  _GPIO_PWM2_Control
                 _PWM2_16BIT_Disable
                  _PWM2_16BIT_Enable
 ---------------------------------------------------------------------------------
 (2) _PWM2_16BIT_Enable                                    0     0      0       0
 ---------------------------------------------------------------------------------
 (2) _PWM2_16BIT_Disable                                   0     0      0       0
 ---------------------------------------------------------------------------------
 (2) _GPIO_PWM2_Control                                   10     6      4    5428
                                             54 BANK5     10     6      4
     _PWM2_16BIT_LoadBufferRegisters
_PWM2_16BIT_SetSlice1Output1DutyCycl
     _PWM2_16BIT_WritePeriodRegister
                            ___aldiv
                            ___fladd
                            ___fltol
                            ___lwdiv
                             ___wmul
                           ___xxtofl
 ---------------------------------------------------------------------------------
 (2) ___xxtofl                                            14    10      4     574
                                             14 BANK5     14    10      4
                            ___aldiv (ARG)
 ---------------------------------------------------------------------------------
 (3) ___wmul                                               6     2      4     311
                                              7 BANK5      6     2      4
                            ___lwdiv (ARG)
 ---------------------------------------------------------------------------------
 (3) ___lwdiv                                              7     3      4     314
                                              0 BANK5      7     3      4
 ---------------------------------------------------------------------------------
 (2) ___fltol                                             10     6      4     481
                                             44 BANK5     10     6      4
                            ___aldiv (ARG)
                            ___fladd (ARG)
                           ___xxtofl (ARG)
 ---------------------------------------------------------------------------------
 (2) ___fladd                                             16     8      8    2640
                                             28 BANK5     16     8      8
                            ___aldiv (ARG)
                           ___xxtofl (ARG)
 ---------------------------------------------------------------------------------
 (2) ___aldiv                                             14     6      8     604
                                              0 BANK5     14     6      8
 ---------------------------------------------------------------------------------
 (3) _PWM2_16BIT_WritePeriodRegister                       2     0      2     120
                                              0 BANK5      2     0      2
 ---------------------------------------------------------------------------------
 (3) _PWM2_16BIT_SetSlice1Output1DutyCycleRegister         2     0      2     120
                                              0 BANK5      2     0      2
 ---------------------------------------------------------------------------------
 (3) _PWM2_16BIT_LoadBufferRegisters                       0     0      0       0
 ---------------------------------------------------------------------------------
 (1) _EBS_Init                                             0     0      0       0
 ---------------------------------------------------------------------------------
 (1) _DELAY_milliseconds                                   3     1      2     478
                                              0 BANK5      3     1      2
 ---------------------------------------------------------------------------------
 Estimated maximum stack depth 4
 ---------------------------------------------------------------------------------
 (Depth) Function   	        Calls       Base Space   Used Autos Params    Refs
 ---------------------------------------------------------------------------------
 (5) _INTERRUPT_InterruptManager                           0     0      0    6287
                           _CAN1_ISR
                           _INT0_ISR
                           _TMR0_ISR
                           _TMR1_ISR
                           _TMR2_ISR
 ---------------------------------------------------------------------------------
 (6) _TMR2_ISR                                             0     0      0       0
                      _TMR2_CallBack
 ---------------------------------------------------------------------------------
 (7) _TMR2_CallBack                                        0     0      0       0
                   Absolute function *
       _TMR2_DefaultInterruptHandler *
 ---------------------------------------------------------------------------------
 (8) _TMR2_DefaultInterruptHandler                         0     0      0       0
 ---------------------------------------------------------------------------------
 (6) _TMR1_ISR                                             0     0      0     240
                      _TMR1_CallBack
                    _TMR1_WriteTimer
 ---------------------------------------------------------------------------------
 (7) _TMR1_WriteTimer                                      2     0      2     240
                                              0 COMRAM     2     0      2
 ---------------------------------------------------------------------------------
 (7) _TMR1_CallBack                                        0     0      0       0
                   Absolute function *
       _TMR1_DefaultInterruptHandler *
 ---------------------------------------------------------------------------------
 (8) _TMR1_DefaultInterruptHandler                         0     0      0       0
 ---------------------------------------------------------------------------------
 (6) _TMR0_ISR                                             0     0      0       0
                      _TMR0_CallBack
 ---------------------------------------------------------------------------------
 (7) _TMR0_CallBack                                        0     0      0       0
                   Absolute function *
       _TMR0_DefaultInterruptHandler *
 ---------------------------------------------------------------------------------
 (8) _TMR0_DefaultInterruptHandler                         0     0      0       0
 ---------------------------------------------------------------------------------
 (6) _INT0_ISR                                             0     0      0    6047
                      _INT0_CallBack
 ---------------------------------------------------------------------------------
 (7) _INT0_CallBack                                        0     0      0    6047
                   Absolute function *
              _GPIO_BrakePedalAtRest
       _INT0_DefaultInterruptHandler *
 ---------------------------------------------------------------------------------
 (8) _INT0_DefaultInterruptHandler                         0     0      0       0
 ---------------------------------------------------------------------------------
 (8) _GPIO_BrakePedalAtRest                                0     0      0    6047
                  _ANALOG_GetVoltage
 ---------------------------------------------------------------------------------
 (9) _ANALOG_GetVoltage                                    8     8      0    6047
                                             65 COMRAM     8     8      0
        _ADC_DisableChannelSequencer
            _ADC_GetSingleConversion
                  _ADC_SelectContext
                            ___fldiv
                            ___flmul
                          i2___fladd
                          i2___fltol
                         i2___xxtofl
 ---------------------------------------------------------------------------------
 (10) i2___xxtofl                                         14    10      4     374
                                              0 COMRAM    14    10      4
 ---------------------------------------------------------------------------------
 (10) i2___fltol                                          10     6      4     281
                                             55 COMRAM    10     6      4
                            ___fldiv (ARG)
                            ___flmul (ARG)
                          i2___fladd (ARG)
                         i2___xxtofl (ARG)
 ---------------------------------------------------------------------------------
 (10) i2___fladd                                          16     8      8    2036
                                             39 COMRAM    16     8      8
                            ___flmul (ARG)
                         i2___xxtofl (ARG)
 ---------------------------------------------------------------------------------
 (10) ___flmul                                            25    17      8    1744
                                             14 COMRAM    25    17      8
                         i2___xxtofl (ARG)
 ---------------------------------------------------------------------------------
 (10) ___fldiv                                            25    17      8    1399
                                             14 COMRAM    25    17      8
                         i2___xxtofl (ARG)
 ---------------------------------------------------------------------------------
 (10) _ADC_SelectContext                                   1     1      0      22
                                              0 COMRAM     1     1      0
 ---------------------------------------------------------------------------------
 (10) _ADC_GetSingleConversion                             5     3      2      22
                                              0 COMRAM     5     3      2
 ---------------------------------------------------------------------------------
 (10) _ADC_DisableChannelSequencer                         0     0      0       0
 ---------------------------------------------------------------------------------
 (6) _CAN1_ISR                                             0     0      0       0
                   Absolute function *
             _DefaultBusErrorHandler *
    _DefaultBusWakeUpActivityHandler *
       _DefaultInvalidMessageHandler *
           _DefaultModeChangeHandler *
     _DefaultRxBufferOverflowHandler *
          _DefaultSystemErrorHandler *
            _DefaultTxAttemptHandler *
 ---------------------------------------------------------------------------------
 (7) _DefaultTxAttemptHandler                              0     0      0       0
 ---------------------------------------------------------------------------------
 (7) _DefaultSystemErrorHandler                            0     0      0       0
 ---------------------------------------------------------------------------------
 (7) _DefaultRxBufferOverflowHandler                       0     0      0       0
 ---------------------------------------------------------------------------------
 (7) _DefaultModeChangeHandler                             0     0      0       0
 ---------------------------------------------------------------------------------
 (7) _DefaultInvalidMessageHandler                         0     0      0       0
 ---------------------------------------------------------------------------------
 (7) _DefaultBusWakeUpActivityHandler                      0     0      0       0
 ---------------------------------------------------------------------------------
 (7) _DefaultBusErrorHandler                               0     0      0       0
 ---------------------------------------------------------------------------------
 (8) Absolute function(Fake)                               0     0      0       0
 ---------------------------------------------------------------------------------
 Estimated maximum stack depth 10
 ---------------------------------------------------------------------------------

 Call Graph Graphs:

 _main (ROOT)
   _DELAY_milliseconds
   _EBS_Init
   _EBS_Watchdog
     _GPIO_PWM2_Control
       _PWM2_16BIT_LoadBufferRegisters
       _PWM2_16BIT_SetSlice1Output1DutyCycleRegister
       _PWM2_16BIT_WritePeriodRegister
       ___aldiv
       ___fladd
         ___aldiv (ARG)
         ___xxtofl (ARG)
           ___aldiv (ARG)
       ___fltol
         ___aldiv (ARG)
         ___fladd (ARG)
           ___aldiv (ARG)
           ___xxtofl (ARG)
             ___aldiv (ARG)
         ___xxtofl (ARG)
           ___aldiv (ARG)
       ___lwdiv
       ___wmul
         ___lwdiv (ARG)
       ___xxtofl
         ___aldiv (ARG)
     _PWM2_16BIT_Disable
     _PWM2_16BIT_Enable
   _GPIO_PWM1_Control
     _PWM1_16BIT_LoadBufferRegisters
     _PWM1_16BIT_SetSlice1Output1DutyCycleRegister
     _PWM1_16BIT_WritePeriodRegister
     ___aldiv
     ___fladd
       ___aldiv (ARG)
       ___xxtofl (ARG)
         ___aldiv (ARG)
     ___fltol
       ___aldiv (ARG)
       ___fladd (ARG)
         ___aldiv (ARG)
         ___xxtofl (ARG)
           ___aldiv (ARG)
       ___xxtofl (ARG)
         ___aldiv (ARG)
     ___xxtofl
       ___aldiv (ARG)
   _SYSTEM_Initialize
     _ADC_Initialize
       _ADC_SetADIInterruptHandler
       _ADC_SetActiveClockTuningInterruptHandler
       _ADC_SetContext1ThresholdInterruptHandler
       _ADC_SetContext2ThresholdInterruptHandler
       _ADC_SetContext3ThresholdInterruptHandler
       _ADC_SetContext4ThresholdInterruptHandler
     _CAN1_Initialize
       _CAN1_BitRateConfiguration
       _CAN1_ErrorNotificationInterruptEnable
         _CAN1_SetBusErrorInterruptHandler
         _CAN1_SetBusWakeUpActivityInterruptHandler
         _CAN1_SetInvalidMessageInterruptHandler
         _CAN1_SetModeChangeInterruptHandler
         _CAN1_SetRxBufferOverFlowInterruptHandler
         _CAN1_SetSystemErrorInterruptHandler
         _CAN1_SetTxAttemptInterruptHandler
       _CAN1_OperationModeSet
         _CAN1_OperationModeGet
       _CAN1_RX_FIFO_Configuration
       _CAN1_RX_FIFO_FilterMaskConfiguration
       _CAN1_RX_FIFO_ResetInfo
       _CAN1_TX_FIFO_Configuration
     _EXT_INT_Initialize
       _INT0_SetInterruptHandler
     _INTERRUPT_Initialize
     _OSCILLATOR_Initialize
     _PIN_MANAGER_Initialize
     _PMD_Initialize
     _PWM1_16BIT_Initialize
       _PWM1_16BIT_Period_SetInterruptHandler
       _PWM1_16BIT_Slice1Output1_SetInterruptHandler
       _PWM1_16BIT_Slice1Output2_SetInterruptHandler
     _PWM2_16BIT_Initialize
       _PWM2_16BIT_Period_SetInterruptHandler
       _PWM2_16BIT_Slice1Output1_SetInterruptHandler
       _PWM2_16BIT_Slice1Output2_SetInterruptHandler
     _TMR0_Initialize
       _TMR0_SetInterruptHandler
     _TMR1_Initialize
       _TMR1_SetInterruptHandler
     _TMR2_Initialize
       _TMR2_SetInterruptHandler

 _INTERRUPT_InterruptManager (ROOT)
   _CAN1_ISR
     Absolute function(Fake) *
     _DefaultBusErrorHandler *
     _DefaultBusWakeUpActivityHandler *
     _DefaultInvalidMessageHandler *
     _DefaultModeChangeHandler *
     _DefaultRxBufferOverflowHandler *
     _DefaultSystemErrorHandler *
     _DefaultTxAttemptHandler *
   _INT0_ISR
     _INT0_CallBack
       Absolute function(Fake) *
       _GPIO_BrakePedalAtRest *
         _ANALOG_GetVoltage
           _ADC_DisableChannelSequencer
           _ADC_GetSingleConversion
           _ADC_SelectContext
           ___fldiv
             i2___xxtofl (ARG)
           ___flmul
             i2___xxtofl (ARG)
           i2___fladd
             ___flmul (ARG)
               i2___xxtofl (ARG)
             i2___xxtofl (ARG)
           i2___fltol
             ___fldiv (ARG)
               i2___xxtofl (ARG)
             ___flmul (ARG)
               i2___xxtofl (ARG)
             i2___fladd (ARG)
               ___flmul (ARG)
                 i2___xxtofl (ARG)
               i2___xxtofl (ARG)
             i2___xxtofl (ARG)
           i2___xxtofl
       _INT0_DefaultInterruptHandler *
   _TMR0_ISR
     _TMR0_CallBack
       Absolute function(Fake) *
       _TMR0_DefaultInterruptHandler *
   _TMR1_ISR
     _TMR1_CallBack
       Absolute function(Fake) *
       _TMR1_DefaultInterruptHandler *
     _TMR1_WriteTimer
   _TMR2_ISR
     _TMR2_CallBack
       Absolute function(Fake) *
       _TMR2_DefaultInterruptHandler *

 Address spaces:
Name               Size   Autos  Total    Cost      Usage
BIGRAM            20FF      0       0      71        0.0%
EEDATA             400      0       0       0        0.0%
BITBANK37          100      0       0      70        0.0%
BANK37             100      0       0      68        0.0%
BITBANK36          100      0       0      66        0.0%
BANK36             100      0       0      67        0.0%
BITBANK35          100      0       0      64        0.0%
BANK35             100      0       0      65        0.0%
BITBANK34          100      0       0      62        0.0%
BANK34             100      0       0      63        0.0%
BITBANK33          100      0       0      60        0.0%
BANK33             100      0       0      61        0.0%
BITBANK32          100      0       0      58        0.0%
BANK32             100      0       0      59        0.0%
BITBANK31          100      0       0      56        0.0%
BANK31             100      0       0      57        0.0%
BITBANK30          100      0       0      54        0.0%
BANK30             100      0       0      55        0.0%
BITBANK29          100      0       0      52        0.0%
BANK29             100      0       0      53        0.0%
BITBANK28          100      0       0      50        0.0%
BANK28             100      0       0      51        0.0%
BITBANK27          100      0       0      48        0.0%
BANK27             100      0       0      49        0.0%
BITBANK26          100      0       0      46        0.0%
BANK26             100      0       0      47        0.0%
BITBANK25          100      0       0      44        0.0%
BANK25             100      0       0      45        0.0%
BITBANK24          100      0       0      42        0.0%
BANK24             100      0       0      43        0.0%
BITBANK23          100      0       0      40        0.0%
BANK23             100      0       0      41        0.0%
BITBANK22          100      0       0      38        0.0%
BANK22             100      0       0      39        0.0%
BITBANK21          100      0       0      36        0.0%
BANK21             100      0       0      37        0.0%
BITBANK20          100      0       0      34        0.0%
BANK20             100      0       0      35        0.0%
BITBANK19          100      0       0      32        0.0%
BANK19             100      0       0      33        0.0%
BITBANK18          100      0       0      30        0.0%
BANK18             100      0       0      31        0.0%
BITBANK17          100      0       0      28        0.0%
BANK17             100      0       0      29        0.0%
BITBANK16          100      0       0      26        0.0%
BANK16             100      0       0      27        0.0%
BITBANK15          100      0       0      24        0.0%
BANK15             100      0       0      25        0.0%
BITBANK14          100      0       0      22        0.0%
BANK14             100      0       0      23        0.0%
BITBANK13          100      0       0      20        0.0%
BANK13             100      0       0      21        0.0%
BITBANK12          100      0       0      18        0.0%
BANK12             100      0       0      19        0.0%
BITBANK11          100      0       0      16        0.0%
BANK11             100      0       0      17        0.0%
BITBANK10          100      0       0      14        0.0%
BANK10             100      0       0      15        0.0%
BITBANK9           100      0       0      12        0.0%
BANK9              100      0       0      13        0.0%
BITBANK8           100      0       0      10        0.0%
BANK8              100      0       0      11        0.0%
BITBANK7           100      0       0       8        0.0%
BANK7              100      0       0       9        0.0%
BITBANK6           100      0       0       6        0.0%
BANK6              100      0      1A       7       10.2%
BITBANK5            A0      0       0       4        0.0%
BANK5               A0     43      A0       5      100.0%
BITCOMRAM           5F      0       0       0        0.0%
COMRAM              5F     49      5F       1      100.0%
BITSFR_5             0      0       0     200        0.0%
SFR_5                0      0       0     200        0.0%
BITSFR_4             0      0       0     200        0.0%
SFR_4                0      0       0     200        0.0%
BITSFR_3             0      0       0     200        0.0%
SFR_3                0      0       0     200        0.0%
BITSFR_2             0      0       0     200        0.0%
SFR_2                0      0       0     200        0.0%
BITSFR_1             0      0       0     200        0.0%
SFR_1                0      0       0     200        0.0%
BITSFR               0      0       0     200        0.0%
SFR                  0      0       0     200        0.0%
STACK                0      0       0       2        0.0%
NULL                 0      0       0       0        0.0%
ABS                  0      0     119      69        0.0%
DATA                 0      0     119       3        0.0%
CODE                 0      0       0       0        0.0%


Microchip Technology PIC18 Macro Assembler V2.31 build 20201012212115 
Symbol Table                                                                                   Sat Dec 04 11:10:01 2021

                            __end_of_TMR2_SetInterruptHandler 4DBC  
                                                           l8 4A72  
                                                ___fldiv@aexp 0527  
                                                ___fldiv@bexp 0526  
                                          _PWM2_16BIT_Disable 4ED4  
                                                ___fldiv@sign 051F  
                                                          l45 4D28  
                                                          l39 4E14  
                                         ___wmul@multiplicand 05B2  
                                                         l211 4E0A  
                                                         l108 4892  
                                                         l205 4E00  
                                                         l208 4DF6  
                                                         l172 4820  
                                                         l181 4D86  
                                                         l190 4ECE  
                                                         l510 4E8C  
                                                         l184 4D94  
                                                         l513 4E82  
                                                         l361 399C  
                                                         l601 4CFA  
                                                         l522 4E96  
                                                         l507 4EA0  
                                                         l516 4E78  
                                                         l519 4E6E  
                                                         l802 4646  
                                                         l803 4648  
                                                         l900 4E5A  
                                                         l628 4ECA  
                                                         l806 4E1E  
                                                         l903 4E64  
                                                         l912 4E28  
                                                         l906 4E46  
                                                         l915 4E3C  
                                                         l595 4AA4  
                                                         l909 4E32  
                                                         l773 4B98  
                                                         l782 4D3C  
                                                         l598 4D12  
                                                         l776 4D50  
                                                         l792 49A2  
                                                         l785 4D64  
                                                         l779 4EDE  
                                                         l788 46C2  
                                                         l991 4ED2  
                                                         l799 460C  
                                                         l897 4E50  
                                                         l994 4ED6  
                                                         l988 47AC  
                                                         l997 4DA2  
                                                         _PR2 000323  
                                         ?_PWM2_16BIT_Disable 0501  
                                                 i2___fladd@a 052C  
                                                 i2___fladd@b 0528  
                                  __end_of_DELAY_milliseconds 4A74  
                                  ??_INT0_SetInterruptHandler 05AB  
                                             _timer1ReloadVal 05EC  
                                    ?_DefaultTxAttemptHandler 0501  
                                     __size_of_PMD_Initialize 0028  
                                                  i2___xxtofl 3D46  
                                             _TMR2_Initialize 4B3C  
                                                         prod 0004F3  
                                                         tosl 0004FD  
                                                         wreg 0004E8  
                                               _INT0_CallBack 4AA6  
                                                ___flmul@aexp 0520  
                                                ___flmul@bexp 0521  
                                  _CAN1_InvalidMessageHandler 0588  
                                                ___flmul@sign 051B  
                                                ___flmul@temp 0526  
                                                ___flmul@prod 0522  
                             ?_PWM1_16BIT_LoadBufferRegisters 0501  
                            ??_PWM1_16BIT_LoadBufferRegisters 05A9  
                                                ___fltol@exp1 05DE  
                                                        l1000 4DB0  
                                                        l1021 4DE2  
                                                        l1006 4EDA  
                                                        l1102 4DC4  
                                                        l1024 4DD8  
                                                        l1027 4DEC  
                                                        l1142 4B6A  
                                                        l2114 4738  
                                                        l2107 4730  
                                                        l1219 4CD2  
                                                        l1244 4DCE  
                                                        l1069 4A3E  
                                                        l1431 4446  
                                                        l1191 4DBA  
                                                        l2144 27FE  
                                                        l2161 2918  
                                                        l2153 2ACE  
                                                        l2145 27EC  
                                                        l2170 29E8  
                                                        l2146 27B2  
                                                        l2171 29D6  
                                                        l1428 45B0  
                                                        l1613 494A  
                                                        l2271 3BE8  
                                                        l1616 4CAA  
                                                        l2274 3D44  
                                                        l1564 4EBC  
                                                        l2285 3CDC  
                                                        l1566 4EBE  
                                                        l2278 3C80  
                                                        l1568 4EC0  
                                                        l1913 4264  
                                                        l5301 4B72  
                                                        l1695 415C  
                                                        l6111 4442  
                                                        l6103 436C  
                                                        l5311 4D52  
                                                        l5303 4B86  
                                                        l6113 4A40  
                                                        l6105 43E4  
                                                        l5321 46B8  
                                                        l5313 464A  
                                                        l5305 4B88  
                                                        l6115 4A44  
                                                        l6107 442A  
                                                        l5323 46BC  
                                                        l5315 46AC  
                                                        l5331 45C4  
                                                        l5307 4D3E  
                                                        l6131 4A84  
                                                        l6123 4A74  
                                                        l6117 4A56  
                                                        l5501 412C  
                                                        l6109 4436  
                                                        l6301 44FE  
                                                        l5181 4E3E  
                                                        l5325 46C0  
                                                        l5317 46AE  
                                                        l5341 4626  
                                                        l5333 45D6  
                                                        l5309 4D2A  
                                                        l6141 4A98  
                                                        l6133 4A88  
                                                        l6125 4A78  
                                                        l5503 413C  
                                                        l5511 261C  
                                                        l6303 4576  
                                                        l5175 4E48  
                                                        l5183 4E2A  
                                                        l5319 46B4  
                                                        l5343 4642  
                                                        l5335 45E6  
                                                        l5327 45B6  
                                                        l6143 4A9C  
                                                        l6135 4A8C  
                                                        l6127 4A7C  
                                                        l5505 414C  
                                                        l5601 27D0  
                                                        l5521 265C  
                                                        l5513 262A  
                                                        l6073 4ED0  
                                                        l6305 4594  
                                                        l5177 4E52  
                                                        l5185 4E20  
                                                        l5337 45F8  
                                                        l5329 45BC  
                                                        l5281 4DEE  
                                                        l5441 4DE4  
                                                        l6145 4AA0  
                                                        l6137 4A90  
                                                        l6129 4A80  
                                                        l5451 4ED8  
                                                        l5443 4D96  
                                                        l5611 281C  
                                                        l5603 27DE  
                                                        l5531 268E  
                                                        l5523 265E  
                                                        l5515 262C  
                                                        l6075 4ED4  
                                                        l6307 45A0  
                                                        l5291 4E70  
                                                        l5179 4E5C  
                                                        l5187 4E34  
                                                        l5339 461C  
                                                        l5283 4E02  
                                                        l6139 4A94  
                                                        l5445 4D9C  
                                                        l5701 2AA8  
                                                        l5621 285C  
                                                        l5605 27E0  
                                                        l5541 26B6  
                                                        l5533 2690  
                                                        l5517 263C  
                                                        l5525 2666  
                                                        l5509 260E  
                                                        l5461 4CA2  
                                                        l6309 45AC  
                                                        l5285 4E98  
                                                        l5293 4E66  
                                                        l5189 4E16  
                                                        l5277 4E0C  
                                                        l5437 4DDA  
                                                        l5453 4DBC  
                                                        l5447 4DA4  
                                                        l5471 4074  
                                                        l5703 2AAE  
                                                        l5631 2886  
                                                        l5623 2868  
                                                        l5615 2830  
                                                        l5607 27EA  
                                                        l5551 26F0  
                                                        l5543 26C6  
                                                        l5535 2696  
                                                        l5527 2676  
                                                        l5519 264C  
                                                        l5711 415E  
                                                        l5295 4E8E  
                                                        l5287 4E84  
                                                        l5279 4DF8  
                                                        l5439 4DD0  
                                                        l5455 4DB2  
                                                        l5449 4DAA  
                                                        l5481 40AA  
                                                        l5473 4078  
                                                        l5465 4050  
                                                        l5705 2ABC  
                                                        l5641 28F8  
                                                        l5625 286C  
                                                        l5617 2840  
                                                        l5609 280C  
                                                        l5633 288C  
                                                        l5561 271C  
                                                        l5553 2702  
                                                        l5545 26D6  
                                                        l5537 26A4  
                                                        l5529 267C  
                                                        l5721 41B6  
                                                        l5713 4176  
                                                        l5801 3CB2  
                                                        l5289 4E7A  
                                                        l5297 4B6C  
                                                        l5457 4DC6  
                                                        l5491 40EC  
                                                        l5483 40C0  
                                                        l5475 4086  
                                                        l5467 4056  
                                                        l5707 2ABE  
                                                        l5651 2952  
                                                        l5635 28B2  
                                                        l5643 2908  
                                                        l5627 287A  
                                                        l5619 284E  
                                                        l5571 2730  
                                                        l5563 2720  
                                                        l5555 2710  
                                                        l5547 26D8  
                                                        l5539 26A6  
                                                        l5723 41C6  
                                                        l5459 4C80  
                                                        l5811 3CF0  
                                                        l5803 3CBE  
                                                        l6283 48F4  
                                                        l5493 410A  
                                                        l5485 40C8  
                                                        l5477 4096  
                                                        l5469 4064  
                                                        l5661 2982  
                                                        l5653 295C  
                                                        l5645 292E  
                                                        l5637 28E6  
                                                        l5629 287C  
                                                        l5581 2744  
                                                        l5573 2734  
                                                        l5565 2724  
                                                        l5557 2714  
                                                        l5549 26E0  
                                                        l5733 41F0  
                                                        l5725 41CA  
                                                        l5717 418A  
                                                        l5813 3D14  
                                                        l5805 3CCC  
                                                        l6285 48F8  
                                                        l6293 491E  
                                                        l5901 396C  
                                                        _ADCP 0003D8  
                                                        l5495 411A  
                                                        l5487 40D4  
                                                        l5479 409A  
                                                        l5671 29AA  
                                                        l5663 2986  
                                                        l5655 296A  
                                                        l5647 293E  
                                                        l5639 28E8  
                                                        l5591 277E  
                                                        l5583 2748  
                                                        l5575 2738  
                                                        l5567 2728  
                                                        l5559 2718  
                                                        l5751 4254  
                                                        l5743 4218  
                                                        l5735 41FA  
                                                        l5727 41D8  
                                                        l5719 41B4  
                                                        l5815 3D24  
                                                        l5807 3CEA  
                                                        l6287 4900  
                                                        l5903 397A  
                                                        l5831 4D18  
                                                        l5911 4CFC  
                                                        l6471 4898  
                                                        l5497 411C  
                                                        l5489 40E2  
                                                        l5681 2A04  
                                                        l5673 29B8  
                                                        l5665 2996  
                                                        l5657 296C  
                                                        l5593 279A  
                                                        l5585 274C  
                                                        l5577 273C  
                                                        l5569 272C  
                                                        l5745 4224  
                                                        l5737 4204  
                                                        l5761 46E8  
                                                        l5817 3D32  
                                                        l5809 3CEC  
                                                        l6289 4904  
                                                        l5905 3988  
                                                        l5833 4D26  
                                                        l5841 486C  
                                                        l5921 4B64  
                                                        l5913 4B3C  
                                                        l6481 48B0  
                                                        l6473 489A  
                                                        l5499 4126  
                                                        l5691 2A6E  
                                                        l5683 2A12  
                                                        l5675 29CE  
                                                        l5659 297A  
                                                        l5667 2998  
                                                        l5595 27AA  
                                                        l5579 2740  
                                                        l5587 2750  
                                                        l5747 4234  
                                                        l5771 4722  
                                                        l5763 46F0  
                                                        l5755 46C4  
                                                        l5819 3D34  
                                                        l5907 4EC8  
                                                        l5843 486E  
                                                        l5835 4822  
                                                        l5851 47E6  
                                                        l5931 4A2C  
                                                        l5923 49F8  
                                                        l5915 4B52  
                                                        l6491 48BE  
                                                        l6483 48B2  
                                                        l6475 489C  
                                                        l5693 2A8E  
                                                        l5685 2A4C  
                                                        l5669 29A6  
                                                        l5597 27C0  
                                                        l5589 2754  
                                                        l5749 4244  
                                                        l5773 4724  
                                                        l5765 46FE  
                                                        l5757 46CE  
                                                        l5781 3BB2  
                                                        l6725 4934  
                                                        l5829 4D14  
                                                        l5845 4870  
                                                        l5837 4868  
                                                        l5909 4CD4  
                                                        l5861 47F0  
                                                        l5853 47E8  
                                                        l5941 4CBE  
                                                        l5933 4A38  
                                                        l5925 4A0E  
                                                        l5917 4B54  
                                                        l6493 48C0  
                                                        l6485 48B4  
                                                        l6477 489E  
                                                        l6469 4894  
                                                        l5695 2A92  
                                                        l5679 29F8  
                                                        l5687 2A4E  
                                                        l5599 27CC  
                                                        l5775 472A  
                                                        l5767 4704  
                                                        l5759 46E0  
                                                        l5791 3C2A  
                                                        l5783 3BF8  
                                                        l5871 4D7A  
                                                        l5847 4872  
                                                        l5839 486A  
                                                        l5863 47F2  
                                                        l5855 47EA  
                                                        l5951 4776  
                                                        l5943 4CCC  
                                                        l5935 4CAC  
                                                        l5927 4A10  
                                                        l5919 4B56  
                                                        l6495 48CE  
                                                        l6487 48B6  
                                                        l6479 48A2  
                                                        l5697 2AA0  
                                                        l5689 2A5E  
                                                        l5769 471A  
                                                        l5793 3C36  
                                                        l5785 3C0E  
                                                        l5777 3B92  
                                                        l5873 4D80  
                                                        l5881 3778  
                                                        l5865 4800  
                                                        l5857 47EC  
                                                        l5849 47AE  
                                                        l5961 478C  
                                                        l5953 4778  
                                                        l5945 473A  
                                                        l5937 4CBA  
                                                        l5929 4A2A  
                                                        l6497 48D4  
                                                        l6489 48B8  
                                                        l5699 2AA6  
                                                        l5795 3C68  
                                                        l5779 3BA4  
                                                        l5875 4D88  
                                                        l5891 393E  
                                                        l5883 3936  
                                                        l5971 4966  
                                                        l5867 480E  
                                                        l5859 47EE  
                                                        l5963 479A  
                                                        l5955 477A  
                                                        l5947 4772  
                                                        l5939 4CBC  
                                                        l5797 3C6A  
                                                        l5789 3C22  
                                                        l5877 4D8E  
                                                        l5893 3940  
                                                        l5885 3938  
                                                        l5981 4998  
                                                        l5973 4984  
                                                        l5869 481C  
                                                        l5965 47A8  
                                                        l5957 477C  
                                                        l5949 4774  
                                                        l5799 3C76  
                                                        l5879 4ECC  
                                                        l5895 3942  
                                                        l5887 393A  
                                                        l5983 499C  
                                                        l5975 4988  
                                                        l5967 494C  
                                                        l5959 477E  
                                                        l5897 3950  
                                                        l5889 393C  
                                                        l5977 498C  
                                                        l5969 4950  
                                                        l5899 395E  
                                                        l5979 4994  
                                                        _FIFO 260A  
                              __size_of_GPIO_BrakePedalAtRest 0032  
                                                        _LATA 0004BE  
                                                        _LATB 0004BF  
                                                        _LATC 0004C0  
                                                        u5000 285C  
                                                        u5001 2858  
                                                        u5010 287A  
                                                        _T2PR 000323  
                                                        u5011 2876  
                                                        u5100 29B8  
                                                        u5020 28B2  
                                                        u5101 29B4  
                                                        u5021 28AE  
                                                        u5110 29CE  
                                                        u5030 28F8  
                                                        u5111 29CA  
                                                        u5031 28F4  
                                                        u5200 2ABC  
                                                        u5120 29E4  
                                                        u5040 292E  
                                                        u5201 2AB8  
                                                        u5121 29E0  
                                                        u5041 292A  
                                                        u5130 29F8  
                                                        u5050 293E  
                                                        u5210 4176  
                                                        u5131 29F4  
                                                        u5051 293A  
                                                        u5211 4172  
                                                        u5140 2A12  
                                                        u5060 296A  
                                                        u5220 41AA  
                                                        u5300 471A  
                                                        u4500 45D6  
                                                        u5141 2A0E  
                                                        u5061 2966  
                                                        u5301 4716  
                                                        u4501 45D2  
                                                        u5150 2A4C  
                                                        u5070 297A  
                                                        u5230 41D8  
                                                        u5310 3BA4  
                                                        u4510 45E6  
                                                        u5151 2A48  
                                                        u5071 2976  
                                                        u5231 41D4  
                                                        u5311 3BA0  
                                                        u4511 45E2  
                                                        u5160 2A5E  
                                                        u5080 2996  
                                                        u5240 41EC  
                                                        u5400 3D32  
                                                        u5320 3BB2  
                                                        u4520 45F8  
                                                        u5161 2A5A  
                                                        u5081 2992  
                                                        u5241 41E8  
                                                        u5225 41A0  
                                                        u5401 3D2E  
                                                        u5321 3BAE  
                                                        u4521 45F4  
                                                        u5170 2A6E  
                                                        u5090 29A6  
                                                        u5250 4214  
                                                        u5330 3C0E  
                                                        u4530 461C  
                                                        u5171 2A6A  
                                                        u5091 29A2  
                                                        u5251 4210  
                                                        u5331 3C0A  
                                                        u4531 4618  
                                                        u5180 2A8E  
                                                        u5260 4234  
                                                        u5340 3C64  
                                                        u4540 463E  
                                                        _PMD0 000060  
                                                        u5181 2A8A  
                                                        u5261 4230  
                                                        u5341 3C60  
                                                        u4541 463A  
                                                        _PMD1 000061  
                                                        u5190 2AA0  
                                                        u5270 4244  
                                                        u5350 3CAE  
                                                        u5430 4966  
                                                        _PMD2 000062  
                                                        u5191 2A9C  
                                                        u5271 4240  
                                                        u5351 3CAA  
                                                        u5431 4962  
                                                        _PMD3 000063  
                                                        u4800 410A  
                                                        u5280 46E0  
                                                        u5360 3CCC  
                                                        _PMD4 000064  
                                                        u4801 4106  
                                                        u5281 46DC  
                                                        u5361 3CC8  
                                                        _PMD5 000065  
                                                        u4810 413C  
                                                        u5290 46FE  
                                                        u5370 3CDC  
                                                        u4490 4B98  
                                                        _PMD6 000066  
                                                        u4811 4138  
                                                        u5291 46FA  
                                                        u5371 3CD8  
                                                        u4491 4B94  
                                                        _PMD7 000067  
                                                        u5700 4A72  
                                                        u4900 2710  
                                                        u4820 262A  
                                                        u5380 3CEA  
                                                        _PMD8 000068  
                                                        u5701 4A6E  
                                                        u4901 270C  
                                                        u4821 2626  
                                                        u5381 3CE6  
                                                        u4910 277E  
                                                        u4830 263C  
                                                        u5390 3D24  
                                                        u4911 277A  
                                                        u4831 2638  
                                                        u5391 3D20  
                                                        i2l32 4EBA  
                                                        u4760 4064  
                                                        u4920 2796  
                                                        u4840 264C  
                                                        u4761 4060  
                                                        u4921 2790  
                                                        u4841 2648  
                                                        i2l42 4EE6  
                                                        u4770 4086  
                                                        u4930 2798  
                                                        u4850 268E  
                                                        u4771 4082  
                                                        u4851 268A  
                                                        i2l36 4AD6  
                                                        u4780 40C0  
                                                        u4940 27C0  
                                                        u4860 26A4  
                                                        u4781 40BC  
                                                        u4941 27BC  
                                                        u4861 26A0  
                                                        u4790 40E2  
                                                        u4950 27DE  
                                                        u4870 26B6  
                                                        u4791 40DE  
                                                        u4951 27DA  
                                                        u4871 26B2  
                                                        u4960 27FE  
                                                        u4880 26C6  
                                                        u4961 27FA  
                                                        u4881 26C2  
                                                        u4970 280C  
                                                        u4890 2702  
                                                        u4971 2808  
                                                        u4891 26FE  
                                                        u4980 281C  
                                                        u4981 2818  
                                                        u4990 284E  
                                                        u4991 284A  
                                                        u6897 4A4C  
                               __end_of_GPIO_BrakePedalAtRest 4B0A  
                                                        _TMR2 000322  
                                                        _WPUA 000401  
                                                        _WPUB 000409  
                                                        _WPUC 000411  
                                                        _WPUE 000421  
                                            __end_of_CAN1_ISR 4050  
                   __end_of_CAN1_SetTxAttemptInterruptHandler 4E2A  
                  __size_of_CAN1_SetTxAttemptInterruptHandler 000A  
                         ??_CAN1_SetTxAttemptInterruptHandler 05AB  
                          ?_CAN1_SetTxAttemptInterruptHandler 05A9  
                           _CAN1_SetTxAttemptInterruptHandler 4E20  
                                                        _main 4894  
                                                        indf2 0004DF  
                                                        fsr2l 0004D9  
                                        ??_PWM2_16BIT_Disable 05A9  
                                                        prodh 0004F4  
                                                        prodl 0004F3  
                                                        start 001A  
                                                i2___fltol@f1 0538  
                                             ___fldiv@new_exp 0520  
                                  ??_TMR1_SetInterruptHandler 05AB  
                                                ___param_bank 000000  
                                            __end_of_EBS_Init 4EC2  
                        __end_of_DefaultInvalidMessageHandler 4EF2  
                       __size_of_DefaultInvalidMessageHandler 0002  
                                _DefaultInvalidMessageHandler 4EF0  
                  CAN1_SetSystemErrorInterruptHandler@handler 05A9  
   PWM2_16BIT_SetSlice1Output1DutyCycleRegister@registerValue 05A9  
   PWM1_16BIT_SetSlice1Output1DutyCycleRegister@registerValue 05A9  
                                     __end_of_TMR0_Initialize 4CD4  
                                            __end_of_INT0_ISR 4EBC  
                              ??_TMR0_DefaultInterruptHandler 0501  
                              __size_of_OSCILLATOR_Initialize 0018  
                               __end_of_OSCILLATOR_Initialize 4D14  
                                               ___fltol@sign1 05DD  
                                             __end_of___aldiv 415E  
                                ?_ADC_DisableChannelSequencer 0501  
                                                       _ADACT 0003F9  
                                                       _ADCAP 0003F0  
                                             __end_of___fladd 2AD0  
                                                       ?_main 0501  
                                                       _ADCLK 0003FA  
                                                       _ADCNT 0003E6  
                                                       _ADCTX 0003FB  
                                                       _ADPCH 0003EC  
                                             __end_of___fldiv 3778  
                                                       _ADREF 0003F8  
                                                       _ADRPT 0003E7  
                                             __end_of___flmul 33DE  
                                             __end_of___fltol 4266  
                    __end_of_CAN1_SetBusErrorInterruptHandler 4E66  
                   __size_of_CAN1_SetBusErrorInterruptHandler 000A  
                          ??_CAN1_SetBusErrorInterruptHandler 05AB  
                           ?_CAN1_SetBusErrorInterruptHandler 05A9  
                                                       _T1CLK 000321  
                            _CAN1_SetBusErrorInterruptHandler 4E5C  
                                                       _T1CON 00031E  
                                                       _T2CON 000324  
                                                       _T2HLT 000325  
                                             __end_of___lwdiv 473A  
                                                       _T2TMR 000322  
                                                       _T2RST 000327  
                                                       i2l405 4B1A  
                                                       i2l408 4B3A  
                                                       i2l373 4EAA  
                                                       i2l367 4EC6  
                                                       i2l633 446C  
                                                       i2l635 4490  
                                                       i2l643 44FC  
                                                       i2l637 44B4  
                                                       i2l750 4EF0  
                                                       i2l638 44FC  
                                                       i2l639 44D8  
                                                       i2l753 4EF2  
                                                       i2l762 4EEA  
                                                       i2l923 4012  
                                                       i2l756 4EF4  
                                                       i2l765 4EE8  
                                                       i2l925 404C  
                                                       i2l759 4EEE  
                                                       i2l927 404E  
                                      ?_PWM1_16BIT_Initialize 0501  
                                                       i2l768 4EEC  
                                                       _OSCEN 0000B3  
                                                       _TMR0H 000319  
                                                       _TMR1H 00031D  
                                                       _TMR0L 000318  
                                                       _TMR1L 00031C  
                                                       _TRISA 0004C6  
                                                       _TRISB 0004C7  
                                              ?_INT0_CallBack 0501  
                                                       _TRISC 0004C8  
                                                       _TRISE 0004CA  
                                   ??_ADC_GetSingleConversion 0503  
                                    ??_DefaultBusErrorHandler 0501  
                           __size_of_TMR0_SetInterruptHandler 000A  
                                     _ucSteering_angle_actual 0550  
                                   ?_TMR0_SetInterruptHandler 05A9  
                                               i2___fladd@grs 0537  
                                   _ADC_Context3Thereshld_ISR 05F4  
                                    __size_of_CAN1_Initialize 0058  
                                            __end_of_TMR0_ISR 4EB4  
                                            __end_of_TMR1_ISR 4D7A  
                                            __end_of_TMR2_ISR 4BC8  
            _PWM2_16BIT_Slice1Output1_DefaultInterruptHandler 000000  
            _PWM1_16BIT_Slice1Output1_DefaultInterruptHandler 000000  
                                                       _ucAN1 0562  
                                                       _ucAN2 0560  
                                     _ucSteering_angle_target 059A  
                              GPIO_PWM1_Control@uiConvertedDC 05E7  
                      __end_of_PWM2_16BIT_LoadBufferRegisters 4EDC  
                     __size_of_PWM2_16BIT_LoadBufferRegisters 0004  
                              _PWM2_16BIT_LoadBufferRegisters 4ED8  
                                     __end_of_TMR1_Initialize 4A40  
                                                       pclath 0004FA  
                                                       tablat 0004F5  
                                                       status 0004D8  
                            _ADC_DefaultContext2Threshold_ISR 000000  
                    CAN1_SetTxAttemptInterruptHandler@handler 05A9  
                                               _uiAcc_lateral 0572  
                                             _TMR1_WriteTimer 4BF6  
                                          __size_ofi2___fladd 04C0  
                                          __size_ofi2___fltol 0106  
                      __end_of_PWM1_16BIT_WritePeriodRegister 4D88  
                     __size_of_PWM1_16BIT_WritePeriodRegister 000E  
                              _PWM1_16BIT_WritePeriodRegister 4D7A  
                                ??_CAN1_TX_FIFO_Configuration 05A9  
                                                __end_of_FIFO 260C  
                                       _PWM2_16BIT_Initialize 473A  
                                             __initialization 49A4  
                                           __end_of_DLC_BYTES 260A  
                                                __end_of_main 48F0  
                                 CAN1_RX_FIFO_ResetInfo@index 05A9  
                                               _ucLap_counter 0554  
                                     __end_of_TMR2_Initialize 4B6C  
                             __end_of_DefaultTxAttemptHandler 4EEA  
                                 ?_INTERRUPT_InterruptManager 0501  
                             fp__DefaultInvalidMessageHandler 0000  
                               ?_DefaultInvalidMessageHandler 0501  
                                    _TMR2_SetInterruptHandler 4DB2  
                                                      ??_main 05EC  
                                               __activetblptr 000003  
                                        __end_of_EBS_Watchdog 494C  
                                       EBS_Watchdog@ucWDState 05EB  
                                           _uiCones_count_all 0576  
               __end_of_PWM1_16BIT_Period_SetInterruptHandler 4E0C  
              __size_of_PWM1_16BIT_Period_SetInterruptHandler 000A  
               __end_of_PWM2_16BIT_Period_SetInterruptHandler 4DEE  
              __size_of_PWM2_16BIT_Period_SetInterruptHandler 000A  
                     ??_PWM2_16BIT_Period_SetInterruptHandler 05AB  
                     ??_PWM1_16BIT_Period_SetInterruptHandler 05AB  
                      ?_PWM2_16BIT_Period_SetInterruptHandler 05A9  
                      ?_PWM1_16BIT_Period_SetInterruptHandler 05A9  
                       _PWM1_16BIT_Period_SetInterruptHandler 4E02  
                       _PWM2_16BIT_Period_SetInterruptHandler 4DE4  
                                                 ?i2___xxtofl 0501  
                                          _uiAcc_longitudinal 0574  
              __end_of_CAN1_SetInvalidMessageInterruptHandler 4E52  
             __size_of_CAN1_SetInvalidMessageInterruptHandler 000A  
                    ??_CAN1_SetInvalidMessageInterruptHandler 05AB  
                     ?_CAN1_SetInvalidMessageInterruptHandler 05A9  
                      _CAN1_SetInvalidMessageInterruptHandler 4E48  
                                                      _C1CONH 000101  
                                                      _C1CONL 000100  
                                                      _C1CONU 000102  
                                                      _C1INTH 00011D  
                                                      _C1INTL 00011C  
                                                      _C1INTT 00011F  
                                                      _C1INTU 00011E  
                           __size_of_DefaultModeChangeHandler 0002  
               CAN1_SetInvalidMessageInterruptHandler@handler 05A9  
                                                      _ADACCH 0003E4  
                                                      _ADACCL 0003E3  
                                                      _ADACCU 0003E5  
                                   ?_DefaultModeChangeHandler 0501  
                                                      _ADACQH 0003EF  
                                                      _ADACQL 0003EE  
                                                      _ADCON0 0003F3  
                                                      _ADCON1 0003F4  
                                                      _ADCON2 0003F5  
                                                      _ADCON3 0003F6  
                                                      _ADERRH 0003DE  
                                                      _ADERRL 0003DD  
                                                      _ADLTHH 0003DA  
                                                      _ADLTHL 0003D9  
                                                      _ADRESH 0003EB  
                                                      _ADRESL 0003EA  
                                                      _ADPREH 0003F2  
                                                      _ADPREL 0003F1  
                                                      _ADSTAT 0003F7  
                                                      _ADUTHH 0003DC  
                                                      _ADUTHL 0003DB  
                         __size_of_CAN1_TX_FIFO_Configuration 0014  
                                                      _ANSELA 000400  
                                                      _ANSELB 000408  
                                                      _ANSELC 000410  
                                                      _T0CON0 00031A  
                                                      _T0CON1 00031B  
                                                      _T1GATE 000320  
                           fp__DefaultRxBufferOverflowHandler 0000  
                            ??_DefaultRxBufferOverflowHandler 0501  
                             ?_DefaultRxBufferOverflowHandler 0501  
                                                      _T1GCON 00031F  
                                                      _RC0PPS 000211  
                                                      _RC1PPS 000212  
                                                      _RB4PPS 00020D  
                                     TMR1_WriteTimer@timerVal 0501  
                                                      _ODCONA 000402  
                                                      _ODCONB 00040A  
                                                      _ODCONC 000412  
                                                      i2l1105 4EE2  
                                                      i2l2200 35D6  
                                                      i2l1241 4C7E  
                                                      i2l2211 3694  
                                                      i2l2203 359A  
                                                      i2l1083 4C22  
                                                      i2l2212 3682  
                                                      i2l1237 4EB2  
                                                      i2l2230 3054  
                                                      i2l1247 4EE4  
                                                      i2l1095 4D78  
                                                      i2l2240 32D4  
                                                      i2l2144 2CBE  
                                                      i2l1184 4BC6  
                                                      i2l2209 361C  
                                                      i2l2161 2DD8  
                                                      i2l2153 2F8E  
                                                      i2l2145 2CAC  
                                                      i2l2234 33DC  
                                                      i2l2170 2EA8  
                                                      i2l2146 2C72  
                                                      i2l1194 4EE0  
                                                      i2l2171 2E96  
                                                      i2l1099 4C50  
                                                      i2l1452 4B08  
                                                      i2l1188 4BF4  
                                                      i2l2237 326E  
                                                      i2l2247 339E  
                                                      i2l2239 32E6  
                                                      i2l2271 3D9C  
                                                      i2l5001 2C08  
                                                      i2l2274 3EF8  
                                                      i2l5011 2C5A  
                                                      i2l5003 2C0C  
                                                      i2l5101 2ED2  
                                                      i2l5021 2C9E  
                                                      i2l5013 2C6A  
                                                      i2l5005 2C10  
                                                      i2l2285 3E90  
                                                      i2l1493 3B8C  
                                                      i2l2198 3776  
                                                      i2l2278 3E34  
                                                      i2l5111 2F4E  
                                                      i2l5103 2F0C  
                                                      i2l5023 2CA0  
                                                      i2l5015 2C80  
                                                      i2l5007 2C14  
                                                      i2l5121 2F6E  
                                                      i2l5113 2F52  
                                                      i2l5105 2F0E  
                                                      i2l5041 2D28  
                                                      i2l5033 2CF0  
                                                      i2l5025 2CAA  
                                                      i2l5017 2C8C  
                                                      i2l5009 2C3E  
                                                      i2l1913 436A  
                                                      i2l5201 39A8  
                                                      i2l5123 2F7C  
                                                      i2l5115 2F60  
                                                      i2l5107 2F1E  
                                                      i2l5043 2D2C  
                                                      i2l5035 2D00  
                                                      i2l5027 2CCC  
                                                      i2l5051 2D4C  
                                                      i2l5019 2C90  
                                                      i2l5131 3D58  
                                                      i2l5211 39CE  
                                                      i2l5203 39AE  
                                                      i2l5125 2F7E  
                                                      i2l5117 2F66  
                                                      i2l5109 2F2E  
                                                      i2l5053 2D72  
                                                      i2l5061 2DC8  
                                                      i2l5045 2D3A  
                                                      i2l5037 2D0E  
                                                      i2l5029 2CDC  
                                                      i2l5141 3DD6  
                                                      i2l5133 3D66  
                                                      i2l5205 39BC  
                                                      i2l6101 4C66  
                                                      i2l5119 2F68  
                                                      i2l5071 2E1C  
                                                      i2l5063 2DEE  
                                                      i2l5055 2DA6  
                                                      i2l5047 2D3C  
                                                      i2l5039 2D1C  
                                                      i2l5151 3E2A  
                                                      i2l5143 3DDE  
                                                      i2l5135 3DAC  
                                                      i2l5231 3A18  
                                                      i2l5223 39FC  
                                                      i2l5215 39E0  
                                                      i2l5207 39C4  
                                                      i2l4601 4EA4  
                                                      i2l5081 2E46  
                                                      i2l5073 2E2A  
                                                      i2l5065 2DFE  
                                                      i2l5057 2DA8  
                                                      i2l5049 2D46  
                                                      i2l5161 3EA0  
                                                      i2l5153 3E66  
                                                      i2l5145 3DEA  
                                                      i2l5137 3DC2  
                                                      i2l5129 3D48  
                                                      i2l5225 3A00  
                                                      i2l5217 39E4  
                                                      i2l5209 39C8  
                                                      i2l6121 4EB6  
                                                      i2l6201 4BBC  
                                                      i2l4611 4B28  
                                                      i2l4603 4B0C  
                                                      i2l5091 2E78  
                                                      i2l5083 2E56  
                                                      i2l5075 2E2C  
                                                      i2l5059 2DB8  
                                                      i2l5171 3EE8  
                                                      i2l5163 3EA4  
                                                      i2l5155 3E72  
                                                      i2l5147 3E1C  
                                                      i2l5251 3AAC  
                                                      i2l5227 3A06  
                                                      i2l5219 39EA  
                                                      i2l5243 3A20  
                                                      i2l6203 4D66  
                                                      i2l4605 4B12  
                                                      i2l4701 35FC  
                                                      i2l4621 33FA  
                                                      i2l5093 2E8E  
                                                      i2l5077 2E3A  
                                                      i2l5069 2E12  
                                                      i2l5085 2E58  
                                                      i2l5165 3EC8  
                                                      i2l5157 3E80  
                                                      i2l5149 3E1E  
                                                      i2l5253 3B22  
                                                      i2l5261 3B8C  
                                                      i2l5245 3A7A  
                                                      i2l6205 4D68  
                                                      i2l6151 3EFA  
                                                      i2l4607 4B16  
                                                      i2l4711 363A  
                                                      i2l4703 3602  
                                                      i2l4623 340A  
                                                      i2l4631 3434  
                                                      i2l4615 33DE  
                                                      i2l5079 2E42  
                                                      i2l5087 2E66  
                                                      i2l5167 3ED8  
                                                      i2l5159 3E9E  
                                                      i2l5247 3A8A  
                                                      i2l5271 4AE0  
                                                      i2l6119 4EB4  
                                                      i2l6207 4D74  
                                                      i2l6161 3F50  
                                                      i2l6153 3F0A  
                                                      i2l4609 4B18  
                                                      i2l4721 36A4  
                                                      i2l4713 363E  
                                                      i2l4705 360C  
                                                      i2l4641 3460  
                                                      i2l4633 3444  
                                                      i2l4625 341A  
                                                      i2l4617 33EA  
                                                      i2l4801 30C8  
                                                      i2l5097 2EB8  
                                                      i2l5089 2E6A  
                                                      i2l5169 3EE6  
                                                      i2l5257 3B3C  
                                                      i2l5249 3AA0  
                                                      i2l5273 4AF0  
                                                      i2l6081 4C08  
                                                      _INLVLA 000404  
                                                      _INLVLB 00040C  
                                                      i2l6171 3F8E  
                                                      i2l6163 3F54  
                                                      i2l6155 3F24  
                                                      i2l4731 3706  
                                                      i2l4723 36B0  
                                                      i2l4715 364C  
                                                      i2l4707 361A  
                                                      i2l4643 3470  
                                                      i2l4651 349A  
                                                      i2l4635 344A  
                                                      i2l4627 342A  
                                                      i2l4619 33F8  
                                                      i2l4811 311A  
                                                      i2l4803 30E4  
                                                      i2l5099 2EC4  
                                                      i2l5275 4B04  
                                                      i2l6147 4EAC  
                                                      i2l6091 4C24  
                                                      i2l6083 4C0C  
                                                      i2l6411 447A  
                                                      _INLVLC 000414  
                                                      i2l6181 3FD8  
                                                      i2l6173 3FA8  
                                                      i2l6165 3F62  
                                                      i2l6157 3F28  
                                                      i2l4741 3764  
                                                      i2l4733 371C  
                                                      i2l4725 36BE  
                                                      i2l4717 367A  
                                                      i2l4709 362C  
                                                      i2l4661 34DC  
                                                      i2l4653 34AA  
                                                      i2l4645 3480  
                                                      i2l4637 3450  
                                                      i2l4629 342C  
                                                      i2l4821 3178  
                                                      i2l4813 312A  
                                                      i2l4805 30F0  
                                                      i2l5197 39A0  
                                                      i2l5269 4AD8  
                                                      i2l6149 4EAE  
                                                      i2l6093 4C38  
                                                      i2l6085 4C12  
                                                      i2l6077 4BF6  
                                                      i2l6421 44D0  
                                                      i2l6413 4488  
                                                      i2l6405 4448  
                                                      _INLVLE 000424  
                                                      i2l6191 403A  
                                                      i2l6183 3FE6  
                                                      i2l6175 3FAC  
                                                      i2l6167 3F7C  
                                                      i2l6159 3F36  
                                                      i2l4743 376A  
                                                      i2l4735 3736  
                                                      i2l4727 36E8  
                                                      i2l4655 34C0  
                                                      i2l4647 3490  
                                                      i2l4639 345E  
                                                      i2l4831 3228  
                                                      i2l4823 3198  
                                                      i2l4815 313A  
                                                      i2l4807 30FC  
                                                      i2l5199 39A4  
                                                      i2l6079 4C06  
                                                      i2l6087 4C18  
                                                      i2l6095 4BC8  
                                                      i2l6423 44E6  
                                                      i2l6415 449E  
                                                      i2l6407 4456  
                                                      i2l6193 404A  
                                                      i2l6185 4000  
                                                      i2l6177 3FBA  
                                                      i2l6169 3F80  
                                                      i2l4745 376C  
                                                      i2l4737 3752  
                                                      i2l4729 36EC  
                                                      i2l4681 355E  
                                                      i2l4673 3514  
                                                      i2l4657 34D0  
                                                      i2l4665 34F0  
                                                      i2l4649 3492  
                                                      i2l4841 327E  
                                                      i2l4833 3236  
                                                      i2l4825 31A8  
                                                      i2l4817 314A  
                                                      i2l4809 310A  
                                                      i2l4761 2FBC  
                                                      i2l4753 2F90  
                                                      i2l4921 434A  
                                                      i2l4905 42F6  
                                                      i2l6089 4C1C  
                                                      i2l6097 4BDC  
                                                      i2l6425 44F4  
                                                      i2l6417 44AC  
                                                      i2l6409 4464  
                                                      i2l6187 4010  
                                                      i2l6179 3FD4  
                                                      i2l4739 3756  
                                                      i2l4691 35A4  
                                                      i2l4683 3566  
                                                      i2l4675 352E  
                                                      i2l4667 3500  
                                                      i2l4659 34D8  
                                                      i2l4843 328C  
                                                      i2l4835 3254  
                                                      i2l4827 31C8  
                                                      i2l4819 3168  
                                                      i2l4771 2FF8  
                                                      i2l4763 2FCC  
                                                      i2l4755 2F9C  
                                                      i2l4931 2AEA  
                                                      i2l4923 435A  
                                                      i2l4915 431E  
                                                      i2l4907 4300  
                                                      i2l6099 4C52  
                                                      i2l6195 4B9A  
                                                      i2l6419 44C2  
                                                      i2l6189 4020  
                                                      i2l4693 35C2  
                                                      i2l4685 3576  
                                                      i2l4677 353E  
                                                      i2l4669 3500  
                                                      i2l4853 32F6  
                                                      i2l4861 333E  
                                                      i2l4845 3290  
                                                      i2l4837 325E  
                                                      i2l4829 31F2  
                                                      i2l4781 302E  
                                                      i2l4773 2FFE  
                                                      i2l4765 2FDC  
                                                      i2l4757 2FAA  
                                                      i2l4941 2B1E  
                                                      i2l4933 2AEC  
                                                      i2l4917 432A  
                                                      i2l4909 430A  
                                                      i2l6197 4B9C  
                                                      i2l4599 4EC2  
                                                      i2l4695 35C4  
                                                      i2l4687 358A  
                                                      i2l4679 354E  
                                                      i2l4871 33B2  
                                                      i2l4863 3358  
                                                      i2l4855 3302  
                                                      i2l4847 329E  
                                                      i2l4839 326C  
                                                      i2l4783 303E  
                                                      i2l4775 300C  
                                                      i2l4767 2FE2  
                                                      i2l4759 2FAC  
                                                      i2l4951 2B50  
                                                      i2l4935 2AFC  
                                                      i2l4943 2B26  
                                                      i2l4927 2AD0  
                                                      i2l4919 433A  
                                                      i2l5823 4AA6  
                                                      i2l6199 4BB8  
                                                      i2l4697 35D4  
                                                      i2l4689 3598  
                                                      i2l4873 33C0  
                                                      i2l4865 336C  
                                                      i2l4857 3310  
                                                      i2l4849 32CC  
                                                      i2l4793 3088  
                                                      i2l4785 3044  
                                                      i2l4777 300E  
                                                      i2l4769 2FF2  
                                                      i2l4961 2B86  
                                                      i2l4953 2B56  
                                                      i2l4945 2B36  
                                                      i2l4937 2B0C  
                                                      i2l4929 2ADC  
                                                      i2l5825 4AAA  
                                                      i2l4699 35E6  
                                                      i2l4875 33C2  
                                                      i2l4867 3386  
                                                      i2l4859 333A  
                                                      i2l4795 3098  
                                                      i2l4787 3064  
                                                      i2l4779 301E  
                                                      i2l4971 2BC2  
                                                      i2l4963 2B96  
                                                      i2l4955 2B64  
                                                      i2l4947 2B3C  
                                                      i2l4939 2B1C  
                                                      i2l4891 42BA  
                                                      i2l4883 4266  
                                                      i2l5827 4ABE  
                                                      i2l4869 33A2  
                                                      i2l4877 33C8  
                                                      i2l4797 30A2  
                                                      i2l4789 3074  
                                                      i2l4981 2BE0  
                                                      i2l4973 2BD0  
                                                      i2l4965 2B98  
                                                      i2l4957 2B66  
                                                      i2l4949 2B4E  
                                                      i2l4893 42BC  
                                                      i2l4885 427C  
                                                      i2l4879 33CC  
                                                      i2l4799 30BC  
                                                      i2l4991 2BF4  
                                                      i2l4983 2BE4  
                                                      i2l4975 2BD4  
                                                      i2l4959 2B76  
                                                      i2l4967 2BA0  
                                                      i2l4895 42CC  
                                                      i2l6727 3A34  
                                                      i2l4993 2BF8  
                                                      i2l4985 2BE8  
                                                      i2l4977 2BD8  
                                                      i2l4969 2BB0  
                                                      i2l4897 42D0  
                                                      i2l4889 4290  
                                                      i2l4995 2BFC  
                                                      i2l4987 2BEC  
                                                      i2l4979 2BDC  
                                                      i2l4899 42DE  
                                                      i2l4997 2C00  
                                                      i2l4989 2BF0  
                                                      i2l4999 2C04  
                                     ??_CAN1_OperationModeGet 05A9  
                                                      _OSCFRQ 0000B1  
                                     ??_CAN1_OperationModeSet 05A9  
                                            __end_of___xxtofl 3D46  
                                          _ADC_DefaultADI_ISR 000000  
                                            _ucSteering_state 0556  
                                              i2___fladd@aexp 0535  
                                              i2___fladd@bexp 0536  
                                 ??_CAN1_BitRateConfiguration 05A9  
                        __end_of_TMR1_DefaultInterruptHandler 4EE4  
                       __size_of_TMR1_DefaultInterruptHandler 0002  
                                _TMR1_DefaultInterruptHandler 4EE2  
                                                   ??___aldiv 05B1  
                                     ANALOG_GetVoltage@ucFlag 0549  
                                                   ??___fladd 05CD  
                                                      ___wmul 4C80  
                                                   ??___fldiv 0517  
                          __size_of_DefaultSystemErrorHandler 0002  
                                                   ??___flmul 0517  
                                                   ??___fltol 05D9  
                                                   ??___lwdiv 05AD  
                                            ?_TMR0_Initialize 0501  
                                                      clear_0 49C6  
                                                      clear_1 49D2  
                                                      clear_2 49DE  
                                    ??_CAN1_RX_FIFO_ResetInfo 05A9  
                                             ??_INT0_CallBack 054A  
                   CAN1_SetModeChangeInterruptHandler@handler 05A9  
                                                   ?_CAN1_ISR 0501  
                                              _PMD_Initialize 4CD4  
                                           __end_ofi2___fladd 2F90  
                                           __end_ofi2___fltol 436C  
                                                __mediumconst 0000  
                             __size_of_DefaultBusErrorHandler 0002  
                                                      tblptrh 0004F7  
                                                      tblptrl 0004F6  
                                                      tblptru 0004F8  
                                   _ADC_Context4Thereshld_ISR 05F2  
                                       __end_of_TMR0_CallBack 4C80  
                    TMR0_SetInterruptHandler@InterruptHandler 05A9  
                    TMR2_SetInterruptHandler@InterruptHandler 05A9  
                    TMR1_SetInterruptHandler@InterruptHandler 05A9  
       PWM2_16BIT_Period_SetInterruptHandler@InterruptHandler 05A9  
PWM2_16BIT_Slice1Output2_SetInterruptHandler@InterruptHandler 05A9  
PWM2_16BIT_Slice1Output1_SetInterruptHandler@InterruptHandler 05A9  
    ADC_SetActiveClockTuningInterruptHandler@InterruptHandler 05A9  
    ADC_SetContext4ThresholdInterruptHandler@InterruptHandler 05A9  
    ADC_SetContext3ThresholdInterruptHandler@InterruptHandler 05A9  
    ADC_SetContext2ThresholdInterruptHandler@InterruptHandler 05A9  
    ADC_SetContext1ThresholdInterruptHandler@InterruptHandler 05A9  
                  ADC_SetADIInterruptHandler@InterruptHandler 05A9  
       PWM1_16BIT_Period_SetInterruptHandler@InterruptHandler 05A9  
PWM1_16BIT_Slice1Output2_SetInterruptHandler@InterruptHandler 05A9  
PWM1_16BIT_Slice1Output1_SetInterruptHandler@InterruptHandler 05A9  
                    INT0_SetInterruptHandler@InterruptHandler 05A9  
                                     __end_of_TMR1_WriteTimer 4C24  
                                                   ?_EBS_Init 0501  
                               __size_of_INTERRUPT_Initialize 0004  
                                       __end_of_TMR1_CallBack 4C52  
                                            ?_TMR1_Initialize 0501  
                                           _ANALOG_GetVoltage 399E  
                                                ___xxtofl@arg 05C1  
                                                ___xxtofl@exp 05C0  
                                           _SYSTEM_Initialize 4A74  
                                                ___xxtofl@val 05B7  
                                                  __accesstop 0560  
                                     __end_of__initialization 49F2  
                                              i2___fltol@exp1 0541  
                                           ??_CAN1_Initialize 05AC  
                                                   ?_INT0_ISR 0501  
                        __size_of_ADC_DisableChannelSequencer 0006  
                                       __end_of_TMR2_CallBack 4BF6  
                                        _CAN1_BusErrorHandler 0584  
                                          ?_ANALOG_GetVoltage 0501  
                                          ?_SYSTEM_Initialize 0501  
                            _ADC_DefaultContext3Threshold_ISR 000000  
                                      ?_PWM2_16BIT_Initialize 0501  
                                               ___rparam_used 000001  
                                                  ___fltol@f1 05D5  
                                      _CAN1_ModeChangeHandler 0582  
                                         __size_ofi2___xxtofl 01B4  
                                        _ucCones_count_actual 0553  
                                              __pcstackCOMRAM 0501  
                                         ??_ANALOG_GetVoltage 0542  
                                                __pidataBANK5 4EDC  
                                         ??_SYSTEM_Initialize 05AD  
                                                   ?_TMR0_ISR 0501  
                                                   ?_TMR1_ISR 0501  
                                                   ?_TMR2_ISR 0501  
                             fp__TMR1_DefaultInterruptHandler 0000  
                               ?_TMR1_DefaultInterruptHandler 0501  
            __end_of_CAN1_SetRxBufferOverFlowInterruptHandler 4E3E  
           __size_of_CAN1_SetRxBufferOverFlowInterruptHandler 000A  
                  ??_CAN1_SetRxBufferOverFlowInterruptHandler 05AB  
                   ?_CAN1_SetRxBufferOverFlowInterruptHandler 05A9  
                    _CAN1_SetRxBufferOverFlowInterruptHandler 4E34  
                                            ?_TMR2_Initialize 0501  
                                      __end_of_PMD_Initialize 4CFC  
                             ANALOG_GetVoltage@uiValorVoltage 0545  
                                                  ??_CAN1_ISR 0501  
                                 __size_of_EXT_INT_Initialize 0016  
            __end_of_ADC_SetContext2ThresholdInterruptHandler 4E84  
           __size_of_ADC_SetContext2ThresholdInterruptHandler 000A  
                  ??_ADC_SetContext2ThresholdInterruptHandler 05AB  
                   ?_ADC_SetContext2ThresholdInterruptHandler 05A9  
                    _ADC_SetContext2ThresholdInterruptHandler 4E7A  
                                   _CAN1_BitRateConfiguration 4D52  
            __end_of_ADC_SetActiveClockTuningInterruptHandler 4E98  
           __size_of_ADC_SetActiveClockTuningInterruptHandler 000A  
                  ??_ADC_SetActiveClockTuningInterruptHandler 05AB  
                   ?_ADC_SetActiveClockTuningInterruptHandler 05A9  
                    _ADC_SetActiveClockTuningInterruptHandler 4E8E  
                                               _ucTargetBrake 055C  
                                ??_ADC_SetADIInterruptHandler 05AB  
                 __end_of_CAN1_SetSystemErrorInterruptHandler 4E34  
                __size_of_CAN1_SetSystemErrorInterruptHandler 000A  
                       ??_CAN1_SetSystemErrorInterruptHandler 05AB  
                        ?_CAN1_SetSystemErrorInterruptHandler 05A9  
                         _CAN1_SetSystemErrorInterruptHandler 4E2A  
                                   __end_of_ANALOG_GetVoltage 3B8E  
                                   __end_of_SYSTEM_Initialize 4AA6  
                                                  ??_EBS_Init 05A9  
                                                  __pbssBANK5 0560  
                                                  __pbssBANK6 0600  
                         ANALOG_GetVoltage@ucEntradaAnalogica 0544  
                                          _DELAY_milliseconds 4A40  
                                       _INT0_InterruptHandler 05FC  
                                                  ??_INT0_ISR 054A  
                            __size_of_DefaultTxAttemptHandler 0002  
                          __end_of_CAN1_TX_FIFO_Configuration 4D3E  
                                  _CAN1_TX_FIFO_Configuration 4D2A  
                                                     IVTBASEH 00045E  
                                                     IVTBASEL 00045D  
                                                     IVTBASEU 00045F  
                                                  _ucASBState 0595  
                                      _DefaultBusErrorHandler 4EF4  
                                         ?_DELAY_milliseconds 05A9  
                            __end_of_TMR0_SetInterruptHandler 4DD0  
                   PWM2_16BIT_WritePeriodRegister@periodCount 05A9  
                   PWM1_16BIT_WritePeriodRegister@periodCount 05A9  
                                                  _ucLEDState 055F  
                                                     ?___wmul 05B0  
                               _CAN1_BusWakeUpActivityHandler 0586  
                                                  ??_TMR0_ISR 0501  
                                                  ??_TMR1_ISR 0503  
                                                  ??_TMR2_ISR 0501  
                                       __size_of_EBS_Watchdog 005C  
                                                     _ADCSEL1 0003FC  
                                                     _ADCSEL2 0003FD  
                                                     _ADCSEL3 0003FE  
                                                     _ADCSEL4 0003FF  
                                                     _ADFLTRH 0003E2  
                                                     _ADFLTRL 0003E1  
                                     ??_PWM1_16BIT_Initialize 05AB  
                         __size_of_ADC_SetADIInterruptHandler 000A  
                                                     _ADPREVH 0003E9  
                                                     _ADPREVL 0003E8  
                                                   _C1NBTCFGH 000105  
                                                   _C1NBTCFGL 000104  
                                                     _ADSTPTH 0003E0  
                                                     _ADSTPTL 0003DF  
                                                   _C1NBTCFGT 000107  
                                                   _C1NBTCFGU 000106  
                                             ?_PMD_Initialize 0501  
                                                  _ucAS_state 0559  
                             __size_of_CAN1_RX_FIFO_ResetInfo 002E  
                                     __size_of_ADC_Initialize 0226  
                                                     _INT0PPS 00023E  
                                                   ?___xxtofl 05B7  
                                        ??_DELAY_milliseconds 05AB  
                                                     _OSCCON1 0000AD  
                                                     _OSCCON3 0000AF  
                                                   _C1TXQCONH 000151  
                                                   _C1TXQCONL 000150  
                                       _CAN1_TxAttemptHandler 057E  
                                                   _C1TXQCONT 000153  
                                                   _C1TXQCONU 000152  
                                                     _OSCTUNE 0000B0  
                                                     _PWM1CLK 000461  
                                                     _PWM1GIE 000468  
                                                     _PWM2CLK 000470  
                                                     _PWM1CON 000469  
                                                     _PWM2GIE 000477  
                                                     _PWM1GIR 000467  
                                                     _PWM2CON 000478  
                                                     _PWM2GIR 000476  
                                                     _PWM1ERS 000460  
                                                     _PWM1LDS 000462  
                                                     _PWM2ERS 00046F  
                                                     _PWM2LDS 000471  
                                                     _PWM1PRH 000464  
                                                     _PWM1PRL 000463  
                                                 _C1FIFOCON1H 00015D  
                                                     _PWM2PRH 000473  
                                                 _C1FIFOCON1L 00015C  
                                                     _PWM2PRL 000472  
                                                 _C1FIFOCON1T 00015F  
                                                 _C1FIFOCON1U 00015E  
                                                     _SLRCONA 000403  
                                                     _SLRCONB 00040B  
                                                     _SLRCONC 000413  
                                            ?_TMR1_WriteTimer 0501  
                                  _ADC_ConversionComplete_ISR 05FA  
                                             _ucService_brake 0555  
                           __size_of_INT0_SetInterruptHandler 000A  
                                       _GPIO_BrakePedalAtRest 4AD8  
                                   ?_INT0_SetInterruptHandler 05A9  
                                 __size_of_PWM2_16BIT_Disable 0004  
                                                _EBS_Watchdog 48F0  
                            _ADC_DefaultContext4Threshold_ISR 000000  
                                             i2___fladd@signs 0534  
                                                     __Hparam 0000  
                                                     __Lparam 0000  
                                fp__DefaultSystemErrorHandler 0000  
                                                  _ucPedalPos 054D  
                                  ??_TMR2_SetInterruptHandler 05AB  
                                                     ___aldiv 4050  
                                                     ___fladd 260E  
                             ?_PWM2_16BIT_LoadBufferRegisters 0501  
                            ??_PWM2_16BIT_LoadBufferRegisters 05A9  
                                                     ___fldiv 33DE  
                                                     ___flmul 2F90  
                                                     ___fltol 415E  
                                             __size_of___wmul 002C  
                                                     ___lwdiv 46C4  
                                                __psmallconst 2600  
                            __end_of_DefaultModeChangeHandler 4EF0  
                                                   _DLC_BYTES 2601  
                                                     __pcinit 49A4  
                                                     __ramtop 2600  
                                                     __ptext0 4894  
                                                     __ptext1 4A74  
                                                     __ptext2 4B3C  
                                                     __ptext3 4DB2  
                                                     __ptext4 49F8  
                                                     __ptext5 4DBC  
                                                     __ptext6 4CAC  
                                                     __ptext7 4DC6  
                                                     __ptext8 473A  
                                                     __ptext9 4DD0  
                              ??_TMR1_DefaultInterruptHandler 0501  
                            ??_PWM1_16BIT_WritePeriodRegister 05AB  
                             ?_PWM1_16BIT_WritePeriodRegister 05A9  
        __end_of_PWM1_16BIT_Slice1Output1_SetInterruptHandler 4E02  
       __size_of_PWM1_16BIT_Slice1Output1_SetInterruptHandler 000A  
        __end_of_PWM2_16BIT_Slice1Output1_SetInterruptHandler 4DE4  
       __size_of_PWM2_16BIT_Slice1Output1_SetInterruptHandler 000A  
              ??_PWM2_16BIT_Slice1Output1_SetInterruptHandler 05AB  
              ??_PWM1_16BIT_Slice1Output1_SetInterruptHandler 05AB  
               ?_PWM2_16BIT_Slice1Output1_SetInterruptHandler 05A9  
               ?_PWM1_16BIT_Slice1Output1_SetInterruptHandler 05A9  
                _PWM1_16BIT_Slice1Output1_SetInterruptHandler 4DF8  
                _PWM2_16BIT_Slice1Output1_SetInterruptHandler 4DDA  
                                                   _T1CONbits 00031E  
                                           _GPIO_PWM1_Control 44FE  
                                       _OSCILLATOR_Initialize 4CFC  
                                                   _T2CONbits 000324  
                                                ??i2___xxtofl 0505  
                                                     _uiIndex 0578  
                                                  ??___xxtofl 05BB  
                                           _GPIO_PWM2_Control 436C  
                                                  _msgReceipt 059B  
                           __size_of_TMR1_SetInterruptHandler 000A  
                                            ___aldiv@dividend 05A9  
                                    ??_PIN_MANAGER_Initialize 05A9  
                                   ?_TMR1_SetInterruptHandler 05A9  
                                                   _T2HLTbits 000325  
                                                     _rxFifos 05FE  
                                          ?_GPIO_PWM1_Control 05DF  
                                          ?_GPIO_PWM2_Control 05DF  
                                  __size_of_ANALOG_GetVoltage 01F0  
            CAN1_SetBusWakeUpActivityInterruptHandler@handler 05A9  
                                  __size_of_SYSTEM_Initialize 0032  
                              GPIO_PWM2_Control@uiConvertedDC 05E7  
           __end_of_CAN1_SetBusWakeUpActivityInterruptHandler 4E5C  
          __size_of_CAN1_SetBusWakeUpActivityInterruptHandler 000A  
                 ??_CAN1_SetBusWakeUpActivityInterruptHandler 05AB  
                  ?_CAN1_SetBusWakeUpActivityInterruptHandler 05A9  
                   _CAN1_SetBusWakeUpActivityInterruptHandler 4E52  
                                        end_of_initialization 49F2  
            _PWM2_16BIT_Slice1Output2_DefaultInterruptHandler 000000  
            _PWM1_16BIT_Slice1Output2_DefaultInterruptHandler 000000  
                          GPIO_PWM1_Control@uiConvertedPeriod 05E5  
                                                   _T2RSTbits 000327  
                                         ??_GPIO_PWM1_Control 05E3  
                                      _CAN1_RX_FIFO_ResetInfo 4B6C  
                                                  _uiYaw_rate 0570  
                                                 _C1TRECUbits 000136  
                                         ??_GPIO_PWM2_Control 05E3  
                              __size_of_CAN1_OperationModeGet 000A  
                              __size_of_CAN1_OperationModeSet 0098  
                                              i2___xxtofl@arg 050B  
                                              i2___xxtofl@exp 050A  
                               __end_of_CAN1_OperationModeGet 4E20  
                                     GPIO_PWM2_Control@uiFreq 05E1  
                                              i2___xxtofl@val 0501  
                               __end_of_CAN1_OperationModeSet 464A  
                                ??_CAN1_RX_FIFO_Configuration 05A9  
                                          __end_ofi2___xxtofl 3EFA  
                                            ___aldiv@quotient 05B3  
                                                   _PWM1S1CFG 00046A  
                                                   _PWM1S1P1H 00046C  
                      __end_of_DefaultRxBufferOverflowHandler 4EEE  
                     __size_of_DefaultRxBufferOverflowHandler 0002  
                              _DefaultRxBufferOverflowHandler 4EEC  
                                                   _PWM1S1P2H 00046E  
                                                   _PWM1S1P1L 00046B  
                                                   _PWM1S1P2L 00046D  
                                                   _PWM2S1CFG 000479  
                                                   _PWM2S1P1H 00047B  
                                                     postinc0 0004EE  
                                                   _PWM2S1P2H 00047D  
                                                   _PWM2S1P1L 00047A  
                                                   _PWM2S1P2L 00047C  
                                                   _NPRES_max 0590  
                                                   _NPRES_min 054A  
                                                   _PWM1PIPOS 000466  
                                                   _PWM2PIPOS 000475  
                                    ?_ADC_GetSingleConversion 0501  
                                   __end_of_GPIO_PWM1_Control 45B2  
                                    _TMR0_SetInterruptHandler 4DC6  
                                                   _PORTAbits 0004CE  
                                                   _PORTCbits 0004D0  
                                   __end_of_GPIO_PWM2_Control 4448  
                          fp__DefaultBusWakeUpActivityHandler 0000  
                     __end_of_DefaultBusWakeUpActivityHandler 4EF4  
                    __size_of_DefaultBusWakeUpActivityHandler 0002  
                           ??_DefaultBusWakeUpActivityHandler 0501  
                            ?_DefaultBusWakeUpActivityHandler 0501  
                             _DefaultBusWakeUpActivityHandler 4EF2  
                                                 ___fladd@grs 05D4  
                      __end_of_PWM2_16BIT_WritePeriodRegister 4DA4  
                     __size_of_PWM2_16BIT_WritePeriodRegister 000E  
                              _PWM2_16BIT_WritePeriodRegister 4D96  
                          __end_of_ADC_SetADIInterruptHandler 4EA2  
                                  _ADC_SetADIInterruptHandler 4E98  
                                             _CAN1_Initialize 494C  
                                               ___xxtofl@sign 05BF  
                                                   _TRISBbits 0004C7  
                                                   _TRISCbits 0004C8  
                                           __size_of_CAN1_ISR 0156  
                                                 ___fldiv@grs 0522  
                                           _PWM2_16BIT_Enable 4ED0  
                                                 ___fldiv@rem 051B  
                                             i2___fltol@sign1 0540  
                                                 _ADCSEL1bits 0003FC  
                                                 _ADCSEL2bits 0003FD  
                                                 _ADCSEL3bits 0003FE  
                                                 _ADCSEL4bits 0003FF  
                                                   i2___fladd 2AD0  
                         __size_of_CAN1_RX_FIFO_Configuration 0014  
                                                   i2___fltol 4266  
                __end_of_CAN1_RX_FIFO_FilterMaskConfiguration 4EE0  
               __size_of_CAN1_RX_FIFO_FilterMaskConfiguration 0002  
                       ?_CAN1_RX_FIFO_FilterMaskConfiguration 0501  
                      ??_CAN1_RX_FIFO_FilterMaskConfiguration 05A9  
                        _CAN1_RX_FIFO_FilterMaskConfiguration 4EDE  
                                          ?_PWM2_16BIT_Enable 0501  
                                     ??_PWM2_16BIT_Initialize 05AB  
                                     _DefaultTxAttemptHandler 4EE8  
                                  fp__DefaultTxAttemptHandler 0000  
                                      ?_GPIO_BrakePedalAtRest 0501  
                                                 ___flmul@grs 051C  
                                           __size_of_EBS_Init 0006  
                                         ??_PWM2_16BIT_Enable 05A9  
                                           __size_of_INT0_ISR 0008  
                                                 _CANDATAdata 0600  
                                   fp__DefaultBusErrorHandler 0000  
                                __end_of_INTERRUPT_Initialize 4ECC  
                        __end_of_TMR2_DefaultInterruptHandler 4EE2  
                       __size_of_TMR2_DefaultInterruptHandler 0002  
                                _TMR2_DefaultInterruptHandler 4EE0  
                        __end_of_INT0_DefaultInterruptHandler 4EE8  
                       __size_of_INT0_DefaultInterruptHandler 0002  
                                _INT0_DefaultInterruptHandler 4EE6  
                                              __end_of___wmul 4CAC  
                         __end_of_ADC_DisableChannelSequencer 4EC8  
                                 _ADC_DisableChannelSequencer 4EC2  
                                           __size_of_TMR0_ISR 0008  
                                           __size_of_TMR1_ISR 0014  
                                           __size_of_TMR2_ISR 002E  
                                              _ADC_Initialize 3778  
                                      ?_OSCILLATOR_Initialize 0501  
               __end_of_CAN1_ErrorNotificationInterruptEnable 46C4  
              __size_of_CAN1_ErrorNotificationInterruptEnable 007A  
                      ?_CAN1_ErrorNotificationInterruptEnable 0501  
                     ??_CAN1_ErrorNotificationInterruptEnable 05AB  
                       _CAN1_ErrorNotificationInterruptEnable 464A  
                                    _DefaultModeChangeHandler 4EEE  
                                       __end_of_INT0_CallBack 4AD8  
                                 fp__DefaultModeChangeHandler 0000  
                                   __end_of_PWM2_16BIT_Enable 4ED4  
                                         start_initialization 49A4  
                                    __size_of_TMR0_Initialize 0028  
                             __size_of_PIN_MANAGER_Initialize 0072  
                               ??_ADC_DisableChannelSequencer 0501  
                                                  ?i2___fladd 0528  
                                                  ?i2___fltol 0538  
                                                  ivt0x8_base 0008  
                                     ?_DefaultBusErrorHandler 0501  
                  __end_of_CAN1_SetModeChangeInterruptHandler 4E48  
                 __size_of_CAN1_SetModeChangeInterruptHandler 000A  
                        ??_CAN1_SetModeChangeInterruptHandler 05AB  
                         ?_CAN1_SetModeChangeInterruptHandler 05A9  
                          _CAN1_SetModeChangeInterruptHandler 4E3E  
                                 ?_CAN1_TX_FIFO_Configuration 0501  
                                              _ucTargetClutch 055D  
                                    __size_of_TMR1_Initialize 0048  
                             __end_of_ADC_GetSingleConversion 4B3C  
                                            ??_PMD_Initialize 05A9  
                                         _ucBrake_hydr_actual 0599  
                                                    ??___wmul 05B4  
            __end_of_ADC_SetContext1ThresholdInterruptHandler 4E8E  
           __size_of_ADC_SetContext1ThresholdInterruptHandler 000A  
                  ??_ADC_SetContext1ThresholdInterruptHandler 05AB  
                   ?_ADC_SetContext1ThresholdInterruptHandler 05A9  
                    _ADC_SetContext1ThresholdInterruptHandler 4E84  
                                      __size_of_TMR0_CallBack 002E  
                                      __end_of_ADC_Initialize 399E  
                                                 __pdataBANK5 05FE  
                                     __end_of_CAN1_Initialize 49A4  
                                         _ucBrake_hydr_target 0598  
                                  __end_of_EXT_INT_Initialize 4D2A  
                             fp__TMR2_DefaultInterruptHandler 0000  
                               ?_TMR2_DefaultInterruptHandler 0501  
                                  __size_of_GPIO_PWM1_Control 00B4  
                             fp__INT0_DefaultInterruptHandler 0000  
                               ?_INT0_DefaultInterruptHandler 0501  
                                      __size_of_TMR1_CallBack 002E  
                              __size_of_PWM1_16BIT_Initialize 0074  
                                  ?_DefaultSystemErrorHandler 0501  
                                  __size_of_GPIO_PWM2_Control 00DC  
                               __end_of_PWM1_16BIT_Initialize 4822  
                                                   ___fladd@a 05C9  
                                                   ___fladd@b 05C5  
                                                   ___fldiv@a 0513  
                                                   ___fldiv@b 050F  
                                      __size_of_TMR2_CallBack 002E  
                                                   ___flmul@a 0513  
                                                   ___flmul@b 050F  
                                                 __pbssCOMRAM 054A  
                            __end_of_INT0_SetInterruptHandler 4E16  
                                            _ucPICHDRPRES1min 0593  
                                            _ucPICHDRPRES2min 0592  
                                               __pcstackBANK5 05A9  
                     CAN1_SetBusErrorInterruptHandler@handler 05A9  
                                    __size_of_TMR2_Initialize 0030  
                                           __size_of___xxtofl 01B8  
                                   ??_DefaultTxAttemptHandler 0501  
                              __end_of_DefaultBusErrorHandler 4EF6  
                                GPIO_PWM1_Control@uiDutyCycle 05DF  
                                                _ucTargetGear 055A  
                          __end_of_CAN1_RX_FIFO_Configuration 4D52  
                                  _CAN1_RX_FIFO_Configuration 4D3E  
            __end_of_ADC_SetContext4ThresholdInterruptHandler 4E70  
           __size_of_ADC_SetContext4ThresholdInterruptHandler 000A  
                  ??_ADC_SetContext4ThresholdInterruptHandler 05AB  
                   ?_ADC_SetContext4ThresholdInterruptHandler 05A9  
                    _ADC_SetContext4ThresholdInterruptHandler 4E66  
                                       _TMR0_InterruptHandler 0610  
                                                   __pnvBANK5 05EC  
                                                   __pnvBANK6 0610  
                                                 _ucAMI_state 0557  
                                                 _ucEBS_state 0558  
                                            ___lwdiv@dividend 05A9  
                                      _PIN_MANAGER_Initialize 4822  
                                                    _C1FIFOBA 00014C  
                            __end_of_TMR1_SetInterruptHandler 4DC6  
                                                    ?___aldiv 05A9  
                                                    ?___fladd 05C5  
                                                    ?___fldiv 050F  
                                                    ?___flmul 050F  
                                                    ?___fltol 05D5  
                                                    ?___lwdiv 05A9  
                                             ?_ADC_Initialize 0501  
                                           _ADC_SelectContext 4EA2  
                                                 _ucPICNPRES1 056A  
                                                 _ucPICNPRES2 0568  
                                                 _ucPICNPRES3 0566  
                                                 _ucPICNPRES4 0564  
                                ??_INTERRUPT_InterruptManager 054A  
                                              _ucSpeed_actual 0552  
                                                    _ADACTPPS 000269  
                                          ?_ADC_SelectContext 0501  
                                                    _CAN1_ISR 3EFA  
                           __end_of_DefaultSystemErrorHandler 4EEC  
                                                 __smallconst 2600  
                                              _ucSpeed_target 0551  
                                                    _ADCPbits 0003D8  
                                  __size_of_PWM2_16BIT_Enable 0004  
                                                  _C1CONHbits 000101  
                            CAN1_OperationModeSet@requestMode 05AB  
                                                    _CANRXPPS 00023D  
                                                  _C1CONTbits 000103  
                                                 _HDRPRES_max 054B  
                                                 _HDRPRES_min 054C  
                                                  _C1CONUbits 000102  
                                 __size_of_DELAY_milliseconds 0034  
                                         ??_ADC_SelectContext 0501  
                                               _ucPICHDRPRES1 056E  
                                               _ucPICHDRPRES2 056C  
                                            ___lwdiv@quotient 05AD  
                              ??_DefaultInvalidMessageHandler 0501  
                                     ?_CAN1_RX_FIFO_ResetInfo 0501  
                                                 ??i2___fladd 0530  
                                                 ??i2___fltol 053C  
                                               _TMR0_CallBack 4C52  
                                                    _T2CLKCON 000326  
                                                  _C1INTHbits 00011D  
                                                    _EBS_Init 4EBC  
                                                  _C1INTLbits 00011C  
                                        _INTERRUPT_Initialize 4EC8  
                   _PWM2_16BIT_Period_DefaultInterruptHandler 000000  
                   _PWM1_16BIT_Period_DefaultInterruptHandler 000000  
                                                  _C1INTTbits 00011F  
                                  __end_of_PWM2_16BIT_Disable 4ED8  
                                               _TMR1_CallBack 4C24  
                                             ___aldiv@divisor 05AD  
                                           ??_TMR0_Initialize 05AB  
                                             ___aldiv@counter 05B1  
                                                    _INT0_ISR 4EB4  
                                              ___wmul@product 05B4  
                                                    _LATAbits 0004BE  
                                                    _LATBbits 0004BF  
                                                    _LATCbits 0004C0  
                                               _TMR2_CallBack 4BC8  
                                                    _PIE0bits 00049E  
                          _PWM2_16BIT_Period_InterruptHandler 0616  
                                                    _PIE1bits 00049F  
                                                    _PIE3bits 0004A1  
                                                    _PIE4bits 0004A2  
                                                    _PIE5bits 0004A3  
                                    __size_of_TMR1_WriteTimer 002E  
                         __size_of_INTERRUPT_InterruptManager 00B6  
                                                    i2u400_40 2B64  
                                                    i2u400_41 2B60  
                                                    i2u401_40 2B76  
                                                    i2u401_41 2B72  
                                                    i2u410_40 2CBE  
                                                    i2u402_40 2B86  
                                                    i2u410_41 2CBA  
                                                    i2u402_41 2B82  
                                                    i2u411_40 2CCC  
                                                    i2u403_40 2BC2  
                                                    i2u411_41 2CC8  
                                                    i2u403_41 2BBE  
                                                    i2u420_40 2E2A  
                                                    i2u412_40 2CDC  
                                                    i2u404_40 2BD0  
                                                    i2u420_41 2E26  
                                                    i2u412_41 2CD8  
                                                    i2u404_41 2BCC  
                                                    i2u421_40 2E3A  
                                                    i2u413_40 2D0E  
                                                    i2u405_40 2C3E  
                                  ??_TMR0_SetInterruptHandler 05AB  
                                                    i2u421_41 2E36  
                                                    i2u413_41 2D0A  
                                                    i2u405_41 2C3A  
                                                    i2u350_40 345E  
                                                    i2u430_40 2F1E  
                                                    i2u422_40 2E56  
                                                    i2u414_40 2D1C  
                                                    i2u406_40 2C56  
                                                    i2u350_41 345A  
                                                    i2u430_41 2F1A  
                                                    i2u422_41 2E52  
                                                    i2u414_41 2D18  
                                                    i2u406_41 2C50  
                                                    i2u351_40 3470  
                                                    i2u431_40 2F2E  
                                                    i2u423_40 2E66  
                                                    i2u415_40 2D3A  
                                                    i2u407_40 2C58  
                                                    i2u351_41 346C  
                                                    i2u431_41 2F2A  
                                                    i2u423_41 2E62  
                                                    i2u415_41 2D36  
                                                    _PIR0bits 0004AE  
                                                    i2u360_40 361A  
                                                    i2u352_40 3480  
                                                    i2u432_40 2F4E  
                                                    i2u424_40 2E78  
                                                    i2u416_40 2D72  
                                                    i2u408_40 2C80  
                                                    i2u440_40 3E80  
                                                    i2u360_41 3616  
                                                    i2u352_41 347C  
                                                    i2u432_41 2F4A  
                                                    i2u424_41 2E74  
                                                    i2u416_41 2D6E  
                                                    i2u408_41 2C7C  
                                                    i2u440_41 3E7C  
                                                    i2u361_40 363A  
                                                    i2u353_40 34C0  
                                                    i2u433_40 2F60  
                                                    i2u425_40 2E8E  
                                                    i2u417_40 2DB8  
                                                    i2u409_40 2C9E  
                                                    i2u441_40 3E90  
                                                    i2u361_41 3636  
                                                    i2u353_41 34BC  
                                                    i2u433_41 2F5C  
                                                    i2u425_41 2E8A  
                                                    i2u417_41 2DB4  
                                                    i2u409_41 2C9A  
                                                    i2u441_41 3E8C  
                                                    _PIR1bits 0004AF  
                                                    i2u346_40 4B28  
                                                    i2u362_40 364C  
                                                    i2u354_40 3500  
                                                    i2u370_40 2FAA  
                                                    i2u434_40 2F7C  
                                                    i2u426_40 2EA4  
                                                    i2u418_40 2DEE  
                                                    i2u442_40 3E9E  
                                                    i2u346_41 4B24  
                                                    i2u362_41 3648  
                                                    i2u354_41 34FC  
                                                    i2u370_41 2FA6  
                                                    i2u434_41 2F78  
                                                    i2u426_41 2EA0  
                                                    i2u418_41 2DEA  
                                                    i2u442_41 3E9A  
                                                    i2u363_40 367A  
                                                    i2u355_40 3576  
                                                    i2u347_40 33F8  
                                                    i2u371_40 2FBC  
                                                    i2u427_40 2EB8  
                                                    i2u419_40 2DFE  
                                                    i2u443_40 3ED8  
                                                    i2u435_40 3D58  
                                                    i2u363_41 3676  
                                                    i2u355_41 3572  
                                                    i2u347_41 33F4  
                                                    i2u371_41 2FB8  
                                                    i2u427_41 2EB4  
                                                    i2u419_41 2DFA  
                                                    i2u443_41 3ED4  
                                                    i2u435_41 3D54  
                                                    _PIR2bits 0004B0  
                                                   _rxMsgData 0608  
                                                    i2u364_40 3690  
                                                    i2u356_40 3598  
                                                    i2u348_40 340A  
                                                    i2u380_40 328C  
                                                    i2u372_40 2FCC  
                                                    i2u428_40 2ED2  
                                                    i2u444_40 3EE6  
                                                    i2u436_40 3D66  
                                                    i2u364_41 368C  
                                                    i2u356_41 3594  
                                                    i2u348_41 3406  
                                                    i2u380_41 3288  
                                                    i2u372_41 2FC8  
                                                    i2u428_41 2ECE  
                                                    i2u444_41 3EE2  
                                                    i2u436_41 3D62  
                                                    i2u365_40 36A4  
                                                    i2u357_40 35C2  
                                                    i2u349_40 341A  
                                                    i2u381_40 329E  
                                                    i2u373_40 300C  
                                                    i2u429_40 2F0C  
                                                    i2u437_40 3DC2  
                                                    i2u445_40 3A8A  
                                                    i2u541_40 4ABE  
                                                    i2u365_41 36A0  
                                                    i2u357_41 35BE  
                                                    i2u349_41 3416  
                                                    i2u381_41 329A  
                                                    i2u373_41 3008  
                                                    i2u429_41 2F08  
                                                    i2u437_41 3DBE  
                                                    i2u445_41 3A86  
                                                    i2u541_41 4ABA  
                                                    _PIR3bits 0004B1  
                                                    i2u366_40 36BE  
                                                    i2u358_40 35E6  
                                                    i2u382_40 32CC  
                                                    i2u374_40 301E  
                                                    i2u390_40 42B0  
                                                    i2u438_40 3E18  
                                                    i2u446_40 3AA0  
                                                    i2u630_40 44AC  
                                                    i2u366_41 36BA  
                                                    i2u358_41 35E2  
                                                    i2u382_41 32C8  
                                                    i2u374_41 301A  
                                                    i2u438_41 3E14  
                                                    i2u446_41 3A9C  
                                                    i2u630_41 44A8  
                                                    i2u390_45 42A6  
                                                    i2u367_40 3706  
                                                    i2u359_40 35FC  
                                                    i2u383_40 32E2  
                                                    i2u375_40 302E  
                                                    i2u391_40 42DE  
                                                    i2u439_40 3E62  
                                                    i2u447_40 3B38  
                                                    i2u542_48 4AC4  
                                                    i2u631_40 44C2  
                                                    i2u367_41 3702  
                                                    i2u359_41 35F8  
                                                    i2u383_41 32DE  
                                                    i2u375_41 302A  
                                                    i2u391_41 42DA  
                                                    i2u439_41 3E5E  
                                                    i2u447_41 3B34  
                                                    i2u542_49 4AD6  
                                                    i2u631_41 44BE  
                                                    _PIR4bits 0004B2  
                                                    i2u368_40 3736  
                                                    i2u384_40 32F6  
                                                    i2u376_40 3064  
                                                    i2u392_40 42F2  
                                                    i2u448_40 4AF0  
                                                    i2u632_40 44D0  
                                                    i2u368_41 3732  
                                                    i2u384_41 32F2  
                                                    i2u376_41 3060  
                                                    i2u392_41 42EE  
                                                    i2u448_41 4AEC  
                                                    i2u632_41 44CC  
                                                    i2u369_40 3764  
                                                    i2u385_40 3310  
                                                    i2u377_40 3074  
                                                    i2u393_40 431A  
                                                    i2u633_40 44E6  
                                                    i2u625_40 4456  
                                                    i2u369_41 3760  
                                                    i2u385_41 330C  
                                                    i2u377_41 3070  
                                                    i2u393_41 4316  
                                                    i2u633_41 44E2  
                                                    i2u625_41 4452  
                                                    _PIR5bits 0004B3  
                                                    i2u386_40 3358  
                                                    i2u378_40 3212  
                                                    i2u394_40 433A  
                                                    i2u634_40 44F4  
                                                    i2u626_40 4464  
                                                    i2u386_41 3354  
                                                    i2u394_41 4336  
                                                    i2u634_41 44F0  
                                                    i2u626_41 4460  
                                                    i2u378_45 3208  
                                                    i2u571_40 3F0A  
                                                    i2u387_40 3386  
                                                    i2u379_40 326C  
                                                    i2u395_40 434A  
                                                    i2u563_40 4C06  
                                                    i2u627_40 447A  
                                                    i2u571_41 3F06  
                                                    i2u387_41 3382  
                                                    i2u379_41 3268  
                                                    i2u395_41 4346  
                                                    i2u563_41 4C02  
                                                    i2u627_41 4476  
                                                    i2u388_40 33C0  
                                                    i2u396_40 2AEA  
                                                    i2u564_40 4C38  
                                                    i2u628_40 4488  
                                                    i2u388_41 33BC  
                                                    i2u396_41 2AE6  
                                                    i2u564_41 4C34  
                                                    i2u628_41 4484  
                                                    i2u581_40 3FE6  
                                                    i2u580_48 3FC0  
                                                    i2u573_40 3F36  
                                                    i2u572_48 3F10  
                                                    i2u397_40 2AFC  
                                                    i2u389_40 427C  
                                                    i2u629_40 449E  
                                                    i2u581_41 3FE2  
                                                    i2u580_49 3FD4  
                                                    i2u573_41 3F32  
                                                    i2u572_49 3F24  
                                                    i2u397_41 2AF8  
                                                    i2u389_41 4278  
                                                    i2u629_41 449A  
                                                    i2u398_40 2B0C  
                                                    i2u565_48 4C3E  
                                                    i2u566_40 4BDC  
                                                    i2u398_41 2B08  
                                                    i2u565_49 4C50  
                                                    i2u566_41 4BD8  
                                                    i2u583_40 4010  
                                                    i2u582_48 3FEC  
                                                    i2u575_40 3F62  
                                                    i2u574_48 3F3C  
                                                    i2u399_40 2B4E  
                                                    i2u583_41 400C  
                                                    i2u582_49 4000  
                                                    i2u575_41 3F5E  
                                                    i2u574_49 3F50  
                                                    i2u399_41 2B4A  
                                                    i2u584_40 4020  
                                                    i2u568_40 4C66  
                                                    i2u567_48 4BE2  
                                                    i2u584_41 401C  
                                                    i2u568_41 4C62  
                                                    i2u567_49 4BF4  
                                                    i2u577_40 3F8E  
                                                    i2u576_48 3F68  
                                                    i2u577_41 3F8A  
                                                    i2u576_49 3F7C  
                                                    i2u586_40 404A  
                                                    i2u585_48 4026  
                                                    i2u569_48 4C6C  
                                                    i2u586_41 4046  
                                                    i2u585_49 403A  
                                                    i2u569_49 4C7E  
                                                    i2u579_40 3FBA  
                                                    i2u578_48 3F94  
                                                    i2u587_40 4BB8  
                                                    i2u579_41 3FB6  
                                                    i2u578_49 3FA8  
                                                    i2u587_41 4BB4  
                                   _ADC_ActiveClockTuning_ISR 05F0  
                              DELAY_milliseconds@milliseconds 05A9  
                                                    _PWM1CPRE 000465  
                                                    _PWM2CPRE 000474  
                                   __end_of_ADC_SelectContext 4EAC  
        __end_of_PWM2_16BIT_SetSlice1Output1DutyCycleRegister 4DB2  
       __size_of_PWM2_16BIT_SetSlice1Output1DutyCycleRegister 000E  
        __end_of_PWM1_16BIT_SetSlice1Output1DutyCycleRegister 4D96  
       __size_of_PWM1_16BIT_SetSlice1Output1DutyCycleRegister 000E  
              ??_PWM2_16BIT_SetSlice1Output1DutyCycleRegister 05AB  
              ??_PWM1_16BIT_SetSlice1Output1DutyCycleRegister 05AB  
               ?_PWM2_16BIT_SetSlice1Output1DutyCycleRegister 05A9  
               ?_PWM1_16BIT_SetSlice1Output1DutyCycleRegister 05A9  
                _PWM2_16BIT_SetSlice1Output1DutyCycleRegister 4DA4  
                _PWM1_16BIT_SetSlice1Output1DutyCycleRegister 4D88  
                            _ADC_DefaultActiveClockTuning_ISR 000000  
                                                    _TMR0_ISR 4EAC  
                                                    _TMR1_ISR 4D66  
                                                    _TMR2_ISR 4B9A  
                                           _ucTargetDirection 055B  
                      __end_of_PWM1_16BIT_LoadBufferRegisters 4ED0  
                     __size_of_PWM1_16BIT_LoadBufferRegisters 0004  
                              _PWM1_16BIT_LoadBufferRegisters 4ECC  
                              ADC_GetSingleConversion@channel 0505  
                                            ?_CAN1_Initialize 0501  
                                           ??_TMR1_Initialize 05AB  
                                                  _ADCON0bits 0003F3  
                                                  _ADCON1bits 0003F4  
                                                  _ADCON2bits 0003F5  
                                                  _ADCON3bits 0003F6  
                                           ___wmul@multiplier 05B0  
        __end_of_PWM1_16BIT_Slice1Output2_SetInterruptHandler 4DF8  
       __size_of_PWM1_16BIT_Slice1Output2_SetInterruptHandler 000A  
        __end_of_PWM2_16BIT_Slice1Output2_SetInterruptHandler 4DDA  
       __size_of_PWM2_16BIT_Slice1Output2_SetInterruptHandler 000A  
              ??_PWM2_16BIT_Slice1Output2_SetInterruptHandler 05AB  
              ??_PWM1_16BIT_Slice1Output2_SetInterruptHandler 05AB  
               ?_PWM2_16BIT_Slice1Output2_SetInterruptHandler 05A9  
               ?_PWM1_16BIT_Slice1Output2_SetInterruptHandler 05A9  
                _PWM1_16BIT_Slice1Output2_SetInterruptHandler 4DEE  
                _PWM2_16BIT_Slice1Output2_SetInterruptHandler 4DD0  
                              ??_TMR2_DefaultInterruptHandler 0501  
                                 ?_ADC_SetADIInterruptHandler 05A9  
                           __size_of_TMR2_SetInterruptHandler 000A  
                              ??_INT0_DefaultInterruptHandler 0501  
                                   ?_TMR2_SetInterruptHandler 05A9  
                              __end_of_CAN1_RX_FIFO_ResetInfo 4B9A  
                                              ?_TMR0_CallBack 0501  
                                     ??_GPIO_BrakePedalAtRest 054A  
                                                 _INTCON0bits 0004D6  
                   _PWM2_16BIT_Slice1Output1_InterruptHandler 05EE  
                   _PWM1_16BIT_Slice1Output1_InterruptHandler 058E  
                                       ?_INTERRUPT_Initialize 0501  
                            __size_of_ADC_GetSingleConversion 0032  
                                    _INT0_SetInterruptHandler 4E0C  
                                              ?_TMR1_CallBack 0501  
                                           ??_TMR2_Initialize 05AB  
                              __size_of_PWM2_16BIT_Initialize 0074  
                                              ?_TMR2_CallBack 0501  
                               __end_of_PWM2_16BIT_Initialize 47AE  
                            ??_PWM2_16BIT_WritePeriodRegister 05AB  
                             ?_PWM2_16BIT_WritePeriodRegister 05A9  
                                                  _ADSTATbits 0003F7  
                                                    __Hrparam 0000  
                                       _CAN1_OperationModeGet 4E16  
                                                    __Lrparam 0000  
                                       _CAN1_OperationModeSet 45B2  
                                     _CAN1_SystemErrorHandler 0580  
                                  ??_DefaultModeChangeHandler 0501  
                                     ??_OSCILLATOR_Initialize 05A9  
                                            __size_of___aldiv 010E  
                                            __size_of___fladd 04C2  
                          GPIO_PWM2_Control@uiConvertedPeriod 05E5  
                                         _ucTargetAccelerator 055E  
                                            __size_of___fldiv 039A  
                                            __size_of___flmul 044E  
                                            __size_of___fltol 0108  
                                            __size_of___lwdiv 0076  
                                    _TMR1_SetInterruptHandler 4DBC  
                                       _TMR1_InterruptHandler 0614  
                                                    ___xxtofl 3B8E  
                                                  _T0CON0bits 00031A  
                                   _ADC_Context1Thereshld_ISR 05F8  
                                            _ucDutyServomotor 054E  
                                                    __pivt0x8 0008  
                                             ___lwdiv@divisor 05AB  
                              ANALOG_GetVoltage@uiValorAnalog 0547  
                                             ___lwdiv@counter 05AF  
                                                 _ucServoLmax 0591  
                                                 _ucServoLmin 0594  
                                                    __ptext10 4DDA  
                                                    __ptext11 4DE4  
                                                    __ptext20 4D14  
                                                    __ptext12 47AE  
                                                    __ptext21 4E0C  
                                                    __ptext13 4DEE  
                                                  _T1GCONbits 00031F  
                                                    __ptext30 4E20  
                                                    __ptext22 494C  
                                                    __ptext14 4DF8  
                                                    __ptext31 4E2A  
                                                    __ptext23 4D2A  
                                                    __ptext15 4E02  
                                                    __ptext40 4E70  
                                                    __ptext32 4E34  
                                                    __ptext24 4B6C  
                                                    __ptext16 4CD4  
                                                    __ptext41 4E7A  
                                                    __ptext33 4E3E  
                                                    __ptext25 4EDE  
                                                    __ptext17 4822  
                                                    __ptext50 4ED0  
                                                    __ptext42 4E84  
                                                    __ptext34 4E48  
                                                    __ptext26 4D3E  
                                                    __ptext18 4CFC  
                                                    __ptext51 4ED4  
                                                    __ptext43 4E8E  
                                                    __ptext35 4E52  
                                                    __ptext27 45B2  
                                                    __ptext19 4EC8  
                                                    __ptext60 4DA4  
                                                    __ptext52 436C  
                                                    __ptext44 4E98  
                                                    __ptext36 4E5C  
                                                    __ptext28 4E16  
                                                    __ptext61 4ED8  
                                                    __ptext53 3B8E  
                                                    __ptext45 44FE  
                                                    __ptext37 4D52  
                                                    __ptext29 464A  
                                                    __ptext70 4C24  
                                                    __ptext62 4EBC  
                                                    __ptext54 4C80  
                                                    __ptext46 4D7A  
                                                    __ptext38 3778  
                                                    __ptext71 4EE2  
                                                    __ptext63 4A40  
                                                    __ptext55 46C4  
                                                    __ptext47 4D88  
                                                    __ptext39 4E66  
                                                    __ptext80 3D46  
                                                    __ptext72 4EAC  
                                                    __ptext64 4448  
                                                    __ptext56 415E  
                                                    __ptext48 4ECC  
                                                    __ptext81 4266  
                                                    __ptext73 4C52  
                                                    __ptext65 4B9A  
                                                    __ptext57 260E  
                                                    __ptext49 48F0  
                                                    __ptext90 4EEA  
                                                    __ptext82 2AD0  
                                                    __ptext74 4EE4  
                                                    __ptext66 4BC8  
                                                    __ptext58 4050  
                                                    __ptext91 4EEC  
                                                    __ptext83 2F90  
                                                    __ptext75 4EB4  
                                                    __ptext67 4EE0  
                                                    __ptext59 4D96  
                                                    __ptext92 4EEE  
                                                    __ptext84 33DE  
                                                    __ptext76 4AA6  
                                                    __ptext68 4D66  
                                                    __ptext93 4EF0  
                                                    __ptext85 4EA2  
                                                    __ptext77 4EE6  
                                                    __ptext69 4BF6  
                                                    __ptext94 4EF2  
                                                    __ptext86 4B0A  
                                                    __ptext78 4AD8  
                                                    __ptext95 4EF4  
                                                    __ptext87 4EC2  
                                                    __ptext79 399E  
                                                    __ptext96 0000  
                                                    __ptext88 3EFA  
                                                    __ptext89 4EE8  
                                    ADC_SelectContext@context 0501  
                                 CAN1_OperationModeSet@opMode 05A9  
                                 CAN1_OperationModeSet@status 05AA  
                                               __size_of_main 005C  
                        __end_of_TMR0_DefaultInterruptHandler 4EE6  
                       __size_of_TMR0_DefaultInterruptHandler 0002  
                                _TMR0_DefaultInterruptHandler 4EE4  
                                  __size_of_ADC_SelectContext 000A  
                          _PWM1_16BIT_Period_InterruptHandler 058A  
                          __end_of_INTERRUPT_InterruptManager 44FE  
                                  _INTERRUPT_InterruptManager 4448  
                                                 _msgTransmit 05A2  
                                           ??_TMR1_WriteTimer 0503  
                                 ??_DefaultSystemErrorHandler 0501  
                                                 _PWM1GIEbits 000468  
                                             ??_TMR0_CallBack 0501  
                                                 _PWM1CONbits 000469  
                                                 _PWM2GIEbits 000477  
                                _CAN1_RxBufferOverflowHandler 057C  
                                                 _PWM1GIRbits 000467  
                                                 _PWM2CONbits 000478  
                                                 _PWM2GIRbits 000476  
                                      ??_INTERRUPT_Initialize 05A9  
                                             ??_TMR1_CallBack 0501  
                                          _EXT_INT_Initialize 4D14  
                                                    intlevel2 0000  
                                             ??_TMR2_CallBack 0501  
                                             i2___xxtofl@sign 0509  
                                               _C1TXQSTALbits 000154  
                                     GPIO_PWM1_Control@uiFreq 05E1  
                                     ?_PIN_MANAGER_Initialize 0501  
                                               ?_EBS_Watchdog 0501  
                                         ?_EXT_INT_Initialize 0501  
                                 ?_CAN1_RX_FIFO_Configuration 0501  
                          __size_of_CAN1_BitRateConfiguration 0014  
                                      ?_CAN1_OperationModeGet 0501  
                                  ?_CAN1_BitRateConfiguration 0501  
                                      ?_CAN1_OperationModeSet 0501  
                                            ??_ADC_Initialize 05AB  
                                      __size_of_INT0_CallBack 0032  
                             fp__TMR0_DefaultInterruptHandler 0000  
                               ?_TMR0_DefaultInterruptHandler 0501  
                   _PWM2_16BIT_Slice1Output2_InterruptHandler 0618  
                   _PWM1_16BIT_Slice1Output2_InterruptHandler 058C  
                                             _ucASRequesState 054F  
                                        ??_EXT_INT_Initialize 05AB  
                                       TMR2_ISR@CountCallBack 057A  
                                             _TMR0_Initialize 4CAC  
                                       _PWM1_16BIT_Initialize 47AE  
                                   _ADC_Context2Thereshld_ISR 05F6  
                                                ___aldiv@sign 05B2  
                                     _ADC_GetSingleConversion 4B0A  
            __end_of_ADC_SetContext3ThresholdInterruptHandler 4E7A  
           __size_of_ADC_SetContext3ThresholdInterruptHandler 000A  
                  ??_ADC_SetContext3ThresholdInterruptHandler 05AB  
                   ?_ADC_SetContext3ThresholdInterruptHandler 05A9  
                    _ADC_SetContext3ThresholdInterruptHandler 4E70  
                                               ___fladd@signs 05D1  
             CAN1_SetRxBufferOverFlowInterruptHandler@handler 05A9  
                                             _C1FIFOSTA1Lbits 000160  
                                GPIO_PWM2_Control@uiDutyCycle 05DF  
                              __end_of_PIN_MANAGER_Initialize 4894  
                                                ___fladd@aexp 05D2  
                                                ___fladd@bexp 05D3  
                                   _DefaultSystemErrorHandler 4EEA  
                            _ADC_DefaultContext1Threshold_ISR 000000  
                                              ??_EBS_Watchdog 05E9  
                                       _TMR2_InterruptHandler 0612  
                                       _ucMotor_moment_actual 0597  
                                             _TMR1_Initialize 49F8  
                           __end_of_CAN1_BitRateConfiguration 4D66  
                                       _ucMotor_moment_target 0596  
