

Microchip MPLAB XC8 Assembler V2.32 build 20210201212658 
                                                                                               Mon Sep 27 17:29:47 2021

Microchip MPLAB XC8 C Compiler v2.32 (Free license) build 20210201212658 Og1 
     1                           	processor	18F26Q84
     2                           	fnconf	rparam,??,?,0
     3                           	pagewidth 120
     4                           	opt	flic
     5                           	psect	idataBANK5,global,class=CODE,delta=1,noexec
     6                           	psect	smallconst,global,reloc=2,class=SMALLCONST,delta=1,noexec
     7                           	psect	nvCOMRAM,global,class=COMRAM,space=1,delta=1,lowdata,noexec
     8                           	psect	cinit,global,reloc=2,class=CODE,delta=1
     9                           	psect	bssCOMRAM,global,class=COMRAM,space=1,delta=1,lowdata,noexec
    10                           	psect	dataBANK5,global,class=BANK5,space=1,delta=1,lowdata,noexec
    11                           	psect	cstackCOMRAM,global,class=COMRAM,space=1,delta=1,lowdata,noexec
    12                           	psect	text0,global,reloc=2,class=CODE,delta=1
    13                           	psect	text1,global,reloc=2,class=CODE,delta=1
    14                           	psect	text2,global,reloc=2,class=CODE,delta=1
    15                           	psect	text3,global,reloc=2,class=CODE,delta=1
    16                           	psect	text4,global,reloc=2,class=CODE,delta=1
    17                           	psect	text5,global,reloc=2,class=CODE,delta=1
    18                           	psect	text6,global,reloc=2,class=CODE,delta=1
    19                           	psect	text7,global,reloc=2,class=CODE,delta=1
    20                           	psect	text8,global,reloc=2,class=CODE,delta=1
    21                           	psect	text9,global,reloc=2,class=CODE,delta=1
    22                           	psect	text10,global,reloc=2,class=CODE,delta=1
    23                           	psect	text11,global,reloc=2,class=CODE,delta=1
    24                           	psect	text12,global,reloc=2,class=CODE,delta=1
    25                           	psect	text13,global,reloc=2,class=CODE,delta=1
    26                           	psect	text14,global,reloc=2,class=CODE,delta=1
    27                           	psect	text15,global,reloc=2,class=CODE,delta=1
    28                           	psect	text16,global,reloc=2,class=CODE,delta=1
    29                           	psect	text17,global,reloc=2,class=CODE,delta=1
    30                           	psect	text18,global,reloc=2,class=CODE,delta=1
    31                           	psect	text19,global,reloc=2,class=CODE,delta=1
    32                           	psect	text20,global,reloc=2,class=CODE,delta=1
    33                           	psect	text21,global,reloc=2,class=CODE,delta=1
    34                           	psect	text22,global,reloc=2,class=CODE,delta=1
    35                           	psect	text23,global,reloc=2,class=CODE,delta=1
    36                           	psect	text24,global,reloc=2,class=CODE,delta=1
    37                           	psect	text25,global,reloc=2,class=CODE,delta=1
    38                           	psect	text26,global,reloc=2,class=CODE,delta=1
    39                           	psect	text27,global,reloc=2,class=CODE,delta=1
    40                           	psect	text28,global,reloc=2,class=CODE,delta=1
    41                           	psect	text29,global,reloc=2,class=CODE,delta=1
    42                           	psect	text30,global,reloc=2,class=CODE,delta=1
    43                           	psect	text31,global,reloc=2,class=CODE,delta=1
    44                           	psect	text32,global,reloc=2,class=CODE,delta=1
    45                           	psect	text33,global,reloc=2,class=CODE,delta=1
    46                           	psect	text34,global,reloc=2,class=CODE,delta=1,group=2
    47                           	psect	text35,global,reloc=2,class=CODE,delta=1
    48                           	psect	text36,global,reloc=2,class=CODE,delta=1
    49                           	psect	text37,global,reloc=2,class=CODE,delta=1
    50                           	psect	text38,global,reloc=2,class=CODE,delta=1
    51                           	psect	text39,global,reloc=2,class=CODE,delta=1
    52                           	psect	text40,global,reloc=2,class=CODE,delta=1
    53                           	psect	text41,global,reloc=2,class=CODE,delta=1
    54                           	psect	text42,global,reloc=2,class=CODE,delta=1
    55                           	psect	text43,global,reloc=2,class=CODE,delta=1
    56                           	psect	text44,global,reloc=2,class=CODE,delta=1
    57                           	psect	text45,global,reloc=2,class=CODE,delta=1
    58                           	psect	text46,global,reloc=2,class=CODE,delta=1
    59                           	psect	text47,global,reloc=2,class=CODE,delta=1
    60                           	psect	text48,global,reloc=2,class=CODE,delta=1
    61                           	psect	text49,global,reloc=2,class=CODE,delta=1
    62                           	psect	text50,global,reloc=2,class=CODE,delta=1
    63                           	psect	text51,global,reloc=2,class=CODE,delta=1
    64                           	psect	text52,global,reloc=2,class=CODE,delta=1
    65                           	psect	ivt0x8,global,reloc=2,class=CODE,delta=1,noexec,keep,optim=
    66                           	psect	intsave_regs,global,class=BIGRAM,space=1,delta=1,noexec
    67                           	psect	text53,global,reloc=2,class=CODE,delta=1
    68                           	psect	rparam,global,class=COMRAM,space=1,delta=1,noexec
    69                           	psect	idloc,global,abs,ovrld,class=IDLOC,space=5,delta=1,noexec
    70                           	psect	config,global,abs,ovrld,class=CONFIG,space=4,delta=1,noexec
    71  0000                     
    72                           ; Version 2.35
    73                           ; Generated 04/06/2021 GMT
    74                           ; 
    75                           ; Copyright © 2021, Microchip Technology Inc. and its subsidiaries ("Microchip")
    76                           ; All rights reserved.
    77                           ; 
    78                           ; This software is developed by Microchip Technology Inc. and its subsidiaries ("Microch
      +                          ip").
    79                           ; 
    80                           ; Redistribution and use in source and binary forms, with or without modification, are
    81                           ; permitted provided that the following conditions are met:
    82                           ; 
    83                           ;     1. Redistributions of source code must retain the above copyright notice, this lis
      +                          t of
    84                           ;        conditions and the following disclaimer.
    85                           ; 
    86                           ;     2. Redistributions in binary form must reproduce the above copyright notice, this 
      +                          list
    87                           ;        of conditions and the following disclaimer in the documentation and/or other
    88                           ;        materials provided with the distribution. Publication is not required when
    89                           ;        this file is used in an embedded application.
    90                           ; 
    91                           ;     3. Microchip's name may not be used to endorse or promote products derived from th
      +                          is
    92                           ;        software without specific prior written permission.
    93                           ; 
    94                           ; THIS SOFTWARE IS PROVIDED BY MICROCHIP "AS IS" AND ANY EXPRESS OR IMPLIED WARRANTIES,
    95                           ; INCLUDING, BUT NOT LIMITED TO, THE IMPLIED WARRANTIES OF MERCHANTABILITY AND FITNESS F
      +                          OR
    96                           ; PURPOSE ARE DISCLAIMED.  IN NO EVENT SHALL MICROCHIP BE LIABLE FOR ANY DIRECT, INDIREC
      +                          T,
    97                           ; INCIDENTAL, SPECIAL, EXEMPLARY, OR CONSEQUENTIAL DAMAGES (INCLUDING BUT NOT LIMITED TO
    98                           ; PROCUREMENT OF SUBSTITUTE GOODS OR SERVICES; LOSS OF USE, DATA OR PROFITS; OR BUSINESS
    99                           ; INTERRUPTION) HOWSOEVER CAUSED AND ON ANY THEORY OF LIABILITY, WHETHER IN CONTRACT, ST
      +                          RICT
   100                           ; LIABILITY, OR TORT (INCLUDING NEGLIGENCE OR OTHERWISE) ARISING IN ANY WAY OUT OF THE U
      +                          SE OF
   101                           ; THIS SOFTWARE, EVEN IF ADVISED OF THE POSSIBILITY OF SUCH DAMAGE.
   102                           ; 
   103                           ; 
   104                           ; Code-generator required, PIC18F26Q84 Definitions
   105                           ; 
   106                           ; SFR Addresses
   107  0000                     
   108 ;; Function _PWM1_16BIT_Slice1Output1_DefaultInterruptHandler is unused but had its address taken
   109  0000                     
   110 ;; Function _PWM1_16BIT_Slice1Output2_DefaultInterruptHandler is unused but had its address taken
   111  0000                     
   112 ;; Function _PWM1_16BIT_Period_DefaultInterruptHandler is unused but had its address taken
   113  0000                     
   114 ;; Function _ADC_DefaultADI_ISR is unused but had its address taken
   115  0000                     
   116 ;; Function _ADC_DefaultContext1Threshold_ISR is unused but had its address taken
   117  0000                     
   118 ;; Function _ADC_DefaultActiveClockTuning_ISR is unused but had its address taken
   119  0000                     
   120 ;; Function _PWM2_16BIT_Slice1Output1_DefaultInterruptHandler is unused but had its address taken
   121  0000                     
   122 ;; Function _PWM2_16BIT_Slice1Output2_DefaultInterruptHandler is unused but had its address taken
   123  0000                     
   124 ;; Function _PWM2_16BIT_Period_DefaultInterruptHandler is unused but had its address taken
   125  0000                     
   126                           	psect	idataBANK5
   127  003132                     __pidataBANK5:
   128                           	callstack 0
   129                           
   130                           ;initializer for _CANDATAdata
   131  003132  42                 	db	66
   132  003133  55                 	db	85
   133  003134  46                 	db	70
   134  003135  46                 	db	70
   135  003136  45                 	db	69
   136  003137  52                 	db	82
   137  003138  43                 	db	67
   138  003139  41                 	db	65
   139  00313A  4E                 	db	78
   140  00313B  00                 	db	0
   141  00313C  00                 	db	0
   142  00313D  00                 	db	0
   143  00313E  00                 	db	0
   144  00313F  00                 	db	0
   145  003140  00                 	db	0
   146  003141  00                 	db	0
   147  003142  00                 	db	0
   148  003143  00                 	db	0
   149  003144  00                 	db	0
   150  003145  00                 	db	0
   151  003146  00                 	db	0
   152  003147  00                 	db	0
   153  003148  00                 	db	0
   154  003149  00                 	db	0
   155  00314A  00                 	db	0
   156  00314B  00                 	db	0
   157  00314C  00                 	db	0
   158  00314D  00                 	db	0
   159  00314E  00                 	db	0
   160  00314F  00                 	db	0
   161  003150  00                 	db	0
   162  003151  00                 	db	0
   163                           
   164                           	psect	smallconst
   165  002600                     __psmallconst:
   166                           	callstack 0
   167  002600  00                 	db	0
   168  002601                     _DLC_BYTES:
   169                           	callstack 0
   170  002601  00                 	db	0
   171  002602  01                 	db	1
   172  002603  02                 	db	2
   173  002604  03                 	db	3
   174  002605  04                 	db	4
   175  002606  05                 	db	5
   176  002607  06                 	db	6
   177  002608  07                 	db	7
   178  002609  08                 	db	8
   179  00260A                     __end_of_DLC_BYTES:
   180                           	callstack 0
   181  00260A  50                 	db	80
   182  00260B  01                 	db	1
   183  00260C                     __end_of_FIFO:
   184                           	callstack 0
   185  00260C  00                 	db	0	; dummy byte at the end
   186  0000                     
   187                           	psect	nvCOMRAM
   188  000536                     __pnvCOMRAM:
   189                           	callstack 0
   190  000536                     _TMR0_InterruptHandler:
   191                           	callstack 0
   192  000536                     	ds	2
   193  000538                     _TMR2_InterruptHandler:
   194                           	callstack 0
   195  000538                     	ds	2
   196  00053A                     _TMR1_InterruptHandler:
   197                           	callstack 0
   198  00053A                     	ds	2
   199  00053C                     _timer1ReloadVal:
   200                           	callstack 0
   201  00053C                     	ds	2
   202  00053E                     _PWM2_16BIT_Period_InterruptHandler:
   203                           	callstack 0
   204  00053E                     	ds	2
   205  000540                     _PWM2_16BIT_Slice1Output2_InterruptHandler:
   206                           	callstack 0
   207  000540                     	ds	2
   208  000542                     _PWM2_16BIT_Slice1Output1_InterruptHandler:
   209                           	callstack 0
   210  000542                     	ds	2
   211  000544                     _ADC_ActiveClockTuning_ISR:
   212                           	callstack 0
   213  000544                     	ds	2
   214  000546                     _ADC_Context1Thereshld_ISR:
   215                           	callstack 0
   216  000546                     	ds	2
   217  000548                     _ADC_ConversionComplete_ISR:
   218                           	callstack 0
   219  000548                     	ds	2
   220  00054A                     _INT0_InterruptHandler:
   221                           	callstack 0
   222  00054A                     	ds	2
   223  0000                     _PMD8	set	104
   224  0000                     _PMD7	set	103
   225  0000                     _PMD6	set	102
   226  0000                     _PMD5	set	101
   227  0000                     _PMD4	set	100
   228  0000                     _PMD3	set	99
   229  0000                     _PMD2	set	98
   230  0000                     _PMD1	set	97
   231  0000                     _PMD0	set	96
   232  0000                     _OSCTUNE	set	176
   233  0000                     _OSCFRQ	set	177
   234  0000                     _OSCEN	set	179
   235  0000                     _OSCCON3	set	175
   236  0000                     _OSCCON1	set	173
   237  0000                     _C1FIFOBA	set	332
   238  0000                     _C1INTTbits	set	287
   239  0000                     _C1INTHbits	set	285
   240  0000                     _C1TRECUbits	set	310
   241  0000                     _C1CONUbits	set	258
   242  0000                     _C1CONTbits	set	259
   243  0000                     _C1CONU	set	258
   244  0000                     _C1CONH	set	257
   245  0000                     _C1CONL	set	256
   246  0000                     _C1CONHbits	set	257
   247  0000                     _C1NBTCFGT	set	263
   248  0000                     _C1NBTCFGU	set	262
   249  0000                     _C1NBTCFGH	set	261
   250  0000                     _C1NBTCFGL	set	260
   251  0000                     _C1TXQCONT	set	339
   252  0000                     _C1TXQCONU	set	338
   253  0000                     _C1TXQCONH	set	337
   254  0000                     _C1TXQCONL	set	336
   255  0000                     _RB4PPS	set	525
   256  0000                     _CANRXPPS	set	573
   257  0000                     _RC1PPS	set	530
   258  0000                     _INT0PPS	set	574
   259  0000                     _ADACTPPS	set	617
   260  0000                     _RC0PPS	set	529
   261  0000                     _T0CON0bits	set	794
   262  0000                     _T0CON0	set	794
   263  0000                     _TMR0L	set	792
   264  0000                     _TMR0H	set	793
   265  0000                     _T0CON1	set	795
   266  0000                     _PR2	set	803
   267  0000                     _TMR2	set	802
   268  0000                     _T2CONbits	set	804
   269  0000                     _T2RSTbits	set	807
   270  0000                     _T2HLTbits	set	805
   271  0000                     _T2CON	set	804
   272  0000                     _T2TMR	set	802
   273  0000                     _T2PR	set	803
   274  0000                     _T2RST	set	807
   275  0000                     _T2HLT	set	805
   276  0000                     _T2CLKCON	set	806
   277  0000                     _T1GCONbits	set	799
   278  0000                     _T1CONbits	set	798
   279  0000                     _T1CON	set	798
   280  0000                     _TMR1L	set	796
   281  0000                     _TMR1H	set	797
   282  0000                     _T1CLK	set	801
   283  0000                     _T1GATE	set	800
   284  0000                     _T1GCON	set	799
   285  0000                     _ADCPbits	set	984
   286  0000                     _ADCON1bits	set	1012
   287  0000                     _ADERRL	set	989
   288  0000                     _ADERRH	set	990
   289  0000                     _ADPREVL	set	1000
   290  0000                     _ADPREVH	set	1001
   291  0000                     _ADFLTRL	set	993
   292  0000                     _ADFLTRH	set	994
   293  0000                     _ADSTATbits	set	1015
   294  0000                     _ADCON2bits	set	1013
   295  0000                     _ADCON3bits	set	1014
   296  0000                     _ADCSEL1bits	set	1020
   297  0000                     _ADCON0bits	set	1011
   298  0000                     _ADCSEL1	set	1020
   299  0000                     _ADREF	set	1016
   300  0000                     _ADSTAT	set	1015
   301  0000                     _ADCON3	set	1014
   302  0000                     _ADCON2	set	1013
   303  0000                     _ADCON1	set	1012
   304  0000                     _ADCON0	set	1011
   305  0000                     _ADPREH	set	1010
   306  0000                     _ADPREL	set	1009
   307  0000                     _ADCAP	set	1008
   308  0000                     _ADACQH	set	1007
   309  0000                     _ADACQL	set	1006
   310  0000                     _ADPCH	set	1004
   311  0000                     _ADRESH	set	1003
   312  0000                     _ADRESL	set	1002
   313  0000                     _ADRPT	set	999
   314  0000                     _ADCNT	set	998
   315  0000                     _ADACCU	set	997
   316  0000                     _ADACCH	set	996
   317  0000                     _ADACCL	set	995
   318  0000                     _ADSTPTH	set	992
   319  0000                     _ADSTPTL	set	991
   320  0000                     _ADUTHH	set	988
   321  0000                     _ADUTHL	set	987
   322  0000                     _ADLTHH	set	986
   323  0000                     _ADLTHL	set	985
   324  0000                     _ADCTX	set	1019
   325  0000                     _ADCP	set	984
   326  0000                     _ADCLK	set	1018
   327  0000                     _ADACT	set	1017
   328  0000                     _INLVLE	set	1060
   329  0000                     _INLVLC	set	1044
   330  0000                     _INLVLB	set	1036
   331  0000                     _INLVLA	set	1028
   332  0000                     _SLRCONC	set	1043
   333  0000                     _SLRCONB	set	1035
   334  0000                     _SLRCONA	set	1027
   335  0000                     _ODCONC	set	1042
   336  0000                     _ODCONB	set	1034
   337  0000                     _ODCONA	set	1026
   338  0000                     _WPUC	set	1041
   339  0000                     _WPUA	set	1025
   340  0000                     _WPUB	set	1033
   341  0000                     _WPUE	set	1057
   342  0000                     _ANSELA	set	1024
   343  0000                     _ANSELB	set	1032
   344  0000                     _ANSELC	set	1040
   345  0000                     _PWM2GIEbits	set	1143
   346  0000                     _PWM2CONbits	set	1144
   347  0000                     _PWM2CON	set	1144
   348  0000                     _PIE5bits	set	1187
   349  0000                     _PWM2GIRbits	set	1142
   350  0000                     _PIR5bits	set	1203
   351  0000                     _PWM2S1P2H	set	1149
   352  0000                     _PWM2S1P2L	set	1148
   353  0000                     _PWM2S1P1H	set	1147
   354  0000                     _PWM2S1P1L	set	1146
   355  0000                     _PWM2S1CFG	set	1145
   356  0000                     _PWM2GIE	set	1143
   357  0000                     _PWM2GIR	set	1142
   358  0000                     _PWM2PIPOS	set	1141
   359  0000                     _PWM2CPRE	set	1140
   360  0000                     _PWM2PRH	set	1139
   361  0000                     _PWM2PRL	set	1138
   362  0000                     _PWM2LDS	set	1137
   363  0000                     _PWM2CLK	set	1136
   364  0000                     _PWM2ERS	set	1135
   365  0000                     _PIR3bits	set	1201
   366  0000                     _PIE3bits	set	1185
   367  0000                     _PIR2bits	set	1200
   368  0000                     _PWM1GIEbits	set	1128
   369  0000                     _PWM1CONbits	set	1129
   370  0000                     _PWM1CON	set	1129
   371  0000                     _PIE4bits	set	1186
   372  0000                     _PWM1GIRbits	set	1127
   373  0000                     _PIR4bits	set	1202
   374  0000                     _PWM1S1P2H	set	1134
   375  0000                     _PWM1S1P2L	set	1133
   376  0000                     _PWM1S1P1H	set	1132
   377  0000                     _PWM1S1P1L	set	1131
   378  0000                     _PWM1S1CFG	set	1130
   379  0000                     _PWM1GIE	set	1128
   380  0000                     _PWM1GIR	set	1127
   381  0000                     _PWM1PIPOS	set	1126
   382  0000                     _PWM1CPRE	set	1125
   383  0000                     _PWM1PRH	set	1124
   384  0000                     _PWM1PRL	set	1123
   385  0000                     _PWM1LDS	set	1122
   386  0000                     _PWM1CLK	set	1121
   387  0000                     _PWM1ERS	set	1120
   388  0000                     _LATBbits	set	1215
   389  0000                     _TRISBbits	set	1223
   390  0000                     _TRISC	set	1224
   391  0000                     _TRISB	set	1223
   392  0000                     _TRISA	set	1222
   393  0000                     _TRISE	set	1226
   394  0000                     _LATC	set	1216
   395  0000                     _LATB	set	1215
   396  0000                     _LATA	set	1214
   397  0000                     _PIE1bits	set	1183
   398  0000                     _INTCON0bits	set	1238
   399  0000                     _PIR1bits	set	1199
   400                           
   401                           ; #config settings
   402                           
   403                           	psect	cinit
   404  002ED6                     __pcinit:
   405                           	callstack 0
   406  002ED6                     start_initialization:
   407                           	callstack 0
   408  002ED6                     __initialization:
   409                           	callstack 0
   410                           
   411                           ; Initialize objects allocated to BANK5 (32 bytes)
   412                           ; load TBLPTR registers with __pidataBANK5
   413  002ED6  0E32               	movlw	low __pidataBANK5
   414  002ED8  6EF6               	movwf	tblptrl,c
   415  002EDA  0E31               	movlw	high __pidataBANK5
   416  002EDC  6EF7               	movwf	tblptrh,c
   417  002EDE  0E00               	movlw	low (__pidataBANK5 shr (0+16))
   418  002EE0  6EF8               	movwf	tblptru,c
   419  002EE2  EE01  F160         	lfsr	0,__pdataBANK5
   420  002EE6  EE10 F020          	lfsr	1,32
   421  002EEA                     copy_data0:
   422  002EEA  0009               	tblrd		*+
   423  002EEC  C4F5 F4EE          	movff	tablat,postinc0
   424  002EF0  50E5               	movf	postdec1,w,c
   425  002EF2  50E1               	movf	fsr1l,w,c
   426  002EF4  E1FA               	bnz	copy_data0
   427                           
   428                           ; Clear objects allocated to COMRAM (15 bytes)
   429  002EF6  EE01  F14C         	lfsr	0,__pbssCOMRAM
   430  002EFA  0E0F               	movlw	15
   431  002EFC                     clear_0:
   432  002EFC  6AEE               	clrf	postinc0,c
   433  002EFE  06E8               	decf	wreg,f,c
   434  002F00  E1FD               	bnz	clear_0
   435                           
   436                           ;
   437                           ; Setup IVTBASE
   438                           ;
   439  002F02  0104               	movlb	4
   440  002F04  0E08               	movlw	(ivt0x8_base shr 0)& (0+255)
   441  002F06  6F5D               	movwf	93,b
   442  002F08  0E00               	movlw	(ivt0x8_base shr (0+8))& (0+255)
   443  002F0A  6F5E               	movwf	94,b
   444  002F0C  0E00               	movlw	(ivt0x8_base shr (0+16))& (0+255)
   445  002F0E  6F5F               	movwf	95,b
   446  002F10                     end_of_initialization:
   447                           	callstack 0
   448  002F10                     __end_of__initialization:
   449                           	callstack 0
   450  002F10  0100               	movlb	0
   451  002F12  EFFE  F016         	goto	_main	;jump to C main() function
   452                           
   453                           	psect	bssCOMRAM
   454  00054C                     __pbssCOMRAM:
   455                           	callstack 0
   456  00054C                     TMR2_ISR@CountCallBack:
   457                           	callstack 0
   458  00054C                     	ds	2
   459  00054E                     _PWM1_16BIT_Period_InterruptHandler:
   460                           	callstack 0
   461  00054E                     	ds	2
   462  000550                     _PWM1_16BIT_Slice1Output2_InterruptHandler:
   463                           	callstack 0
   464  000550                     	ds	2
   465  000552                     _PWM1_16BIT_Slice1Output1_InterruptHandler:
   466                           	callstack 0
   467  000552                     	ds	2
   468  000554                     _msg:
   469                           	callstack 0
   470  000554                     	ds	7
   471                           
   472                           	psect	dataBANK5
   473  000560                     __pdataBANK5:
   474                           	callstack 0
   475  000560                     _CANDATAdata:
   476                           	callstack 0
   477  000560                     	ds	32
   478                           
   479                           	psect	cstackCOMRAM
   480  000501                     __pcstackCOMRAM:
   481                           	callstack 0
   482  000501                     TMR1_WriteTimer@timerVal:
   483                           	callstack 0
   484                           
   485                           ; 2 bytes @ 0x0
   486  000501                     	ds	2
   487  000503                     CAN1_OperationModeSet@opMode:
   488                           	callstack 0
   489  000503                     _isTxChannel$1434:
   490                           	callstack 0
   491  000503                     GetTxFifoStatus@validChannel:
   492                           	callstack 0
   493  000503                     INT0_SetInterruptHandler@InterruptHandler:
   494                           	callstack 0
   495  000503                     PWM1_16BIT_Slice1Output1_SetInterruptHandler@InterruptHandler:
   496                           	callstack 0
   497  000503                     PWM1_16BIT_Slice1Output2_SetInterruptHandler@InterruptHandler:
   498                           	callstack 0
   499  000503                     PWM1_16BIT_Period_SetInterruptHandler@InterruptHandler:
   500                           	callstack 0
   501  000503                     ADC_SetADIInterruptHandler@InterruptHandler:
   502                           	callstack 0
   503  000503                     ADC_SetContext1ThresholdInterruptHandler@InterruptHandler:
   504                           	callstack 0
   505  000503                     ADC_SetActiveClockTuningInterruptHandler@InterruptHandler:
   506                           	callstack 0
   507  000503                     PWM2_16BIT_Slice1Output1_SetInterruptHandler@InterruptHandler:
   508                           	callstack 0
   509  000503                     PWM2_16BIT_Slice1Output2_SetInterruptHandler@InterruptHandler:
   510                           	callstack 0
   511  000503                     PWM2_16BIT_Period_SetInterruptHandler@InterruptHandler:
   512                           	callstack 0
   513  000503                     TMR1_SetInterruptHandler@InterruptHandler:
   514                           	callstack 0
   515  000503                     TMR2_SetInterruptHandler@InterruptHandler:
   516                           	callstack 0
   517  000503                     TMR0_SetInterruptHandler@InterruptHandler:
   518                           	callstack 0
   519  000503                     memcpy@d1:
   520                           	callstack 0
   521                           
   522                           ; 2 bytes @ 0x2
   523  000503                     	ds	1
   524  000504                     CAN1_OperationModeSet@status:
   525                           	callstack 0
   526  000504                     isTxChannel@channel:
   527                           	callstack 0
   528  000504                     ValidateTransmission@txCanMsg:
   529                           	callstack 0
   530                           
   531                           ; 2 bytes @ 0x3
   532  000504                     	ds	1
   533  000505                     ??_TMR1_Initialize:
   534  000505                     CAN1_OperationModeSet@requestMode:
   535                           	callstack 0
   536  000505                     CAN1_TransmitFIFOStatusGet@status:
   537                           	callstack 0
   538  000505                     memcpy@s1:
   539                           	callstack 0
   540                           
   541                           ; 2 bytes @ 0x4
   542  000505                     	ds	1
   543  000506                     ??_ValidateTransmission:
   544  000506                     CAN1_TransmitFIFOStatusGet@fifoChannel:
   545                           	callstack 0
   546                           
   547                           ; 1 bytes @ 0x5
   548  000506                     	ds	1
   549  000507                     memcpy@n:
   550                           	callstack 0
   551                           
   552                           ; 2 bytes @ 0x6
   553  000507                     	ds	2
   554  000509                     ValidateTransmission@validChannel:
   555                           	callstack 0
   556  000509                     memcpy@d:
   557                           	callstack 0
   558                           
   559                           ; 2 bytes @ 0x8
   560  000509                     	ds	1
   561  00050A                     ValidateTransmission@txMsgStatus:
   562                           	callstack 0
   563                           
   564                           ; 1 bytes @ 0x9
   565  00050A                     	ds	1
   566  00050B                     ValidateTransmission@field:
   567                           	callstack 0
   568  00050B                     memcpy@s:
   569                           	callstack 0
   570                           
   571                           ; 2 bytes @ 0xA
   572  00050B                     	ds	2
   573  00050D                     memcpy@tmp:
   574                           	callstack 0
   575                           
   576                           ; 1 bytes @ 0xC
   577  00050D                     	ds	1
   578  00050E                     WriteMessageToFifo@txFifoObj:
   579                           	callstack 0
   580                           
   581                           ; 2 bytes @ 0xD
   582  00050E                     	ds	2
   583  000510                     WriteMessageToFifo@txCanMsg:
   584                           	callstack 0
   585                           
   586                           ; 2 bytes @ 0xF
   587  000510                     	ds	2
   588  000512                     ??_WriteMessageToFifo:
   589                           
   590                           ; 1 bytes @ 0x11
   591  000512                     	ds	2
   592  000514                     WriteMessageToFifo@status:
   593                           	callstack 0
   594                           
   595                           ; 1 bytes @ 0x13
   596  000514                     	ds	1
   597  000515                     WriteMessageToFifo@msgId:
   598                           	callstack 0
   599                           
   600                           ; 4 bytes @ 0x14
   601  000515                     	ds	4
   602  000519                     CAN1_Transmit@txCanMsg:
   603                           	callstack 0
   604                           
   605                           ; 2 bytes @ 0x18
   606  000519                     	ds	2
   607  00051B                     CAN1_Transmit@status:
   608                           	callstack 0
   609                           
   610                           ; 1 bytes @ 0x1A
   611  00051B                     	ds	1
   612  00051C                     CAN1_Transmit@txFifoObj:
   613                           	callstack 0
   614                           
   615                           ; 2 bytes @ 0x1B
   616  00051C                     	ds	2
   617  00051E                     CAN1_Transmit@fifoChannel:
   618                           	callstack 0
   619                           
   620                           ; 1 bytes @ 0x1D
   621  00051E                     	ds	1
   622  00051F                     CANWriteMessage@id:
   623                           	callstack 0
   624                           
   625                           ; 4 bytes @ 0x1E
   626  00051F                     	ds	4
   627  000523                     CANWriteMessage@dataLength:
   628                           	callstack 0
   629                           
   630                           ; 1 bytes @ 0x22
   631  000523                     	ds	1
   632  000524                     CANWriteMessage@data1:
   633                           	callstack 0
   634                           
   635                           ; 1 bytes @ 0x23
   636  000524                     	ds	1
   637  000525                     CANWriteMessage@data2:
   638                           	callstack 0
   639                           
   640                           ; 1 bytes @ 0x24
   641  000525                     	ds	1
   642  000526                     CANWriteMessage@data3:
   643                           	callstack 0
   644                           
   645                           ; 1 bytes @ 0x25
   646  000526                     	ds	1
   647  000527                     CANWriteMessage@data4:
   648                           	callstack 0
   649                           
   650                           ; 1 bytes @ 0x26
   651  000527                     	ds	1
   652  000528                     CANWriteMessage@data5:
   653                           	callstack 0
   654                           
   655                           ; 1 bytes @ 0x27
   656  000528                     	ds	1
   657  000529                     CANWriteMessage@data6:
   658                           	callstack 0
   659                           
   660                           ; 1 bytes @ 0x28
   661  000529                     	ds	1
   662  00052A                     CANWriteMessage@data7:
   663                           	callstack 0
   664                           
   665                           ; 1 bytes @ 0x29
   666  00052A                     	ds	1
   667  00052B                     CANWriteMessage@data8:
   668                           	callstack 0
   669                           
   670                           ; 1 bytes @ 0x2A
   671  00052B                     	ds	1
   672  00052C                     ??_CANWriteMessage:
   673                           
   674                           ; 1 bytes @ 0x2B
   675  00052C                     	ds	2
   676  00052E                     CANWriteMessage@uiData1:
   677                           	callstack 0
   678                           
   679                           ; 2 bytes @ 0x2D
   680  00052E                     	ds	2
   681  000530                     CANWriteMessage@uiData2:
   682                           	callstack 0
   683                           
   684                           ; 2 bytes @ 0x2F
   685  000530                     	ds	2
   686  000532                     CANWriteMessage@uiData3:
   687                           	callstack 0
   688                           
   689                           ; 2 bytes @ 0x31
   690  000532                     	ds	2
   691  000534                     CANWriteMessage@uiData4:
   692                           	callstack 0
   693                           
   694                           ; 2 bytes @ 0x33
   695  000534                     	ds	2
   696  000536                     
   697                           ; 1 bytes @ 0x35
   698 ;;
   699 ;;Main: autosize = 0, tempsize = 0, incstack = 0, save=0
   700 ;;
   701 ;; *************** function _main *****************
   702 ;; Defined at:
   703 ;;		line 50 in file "main.c"
   704 ;; Parameters:    Size  Location     Type
   705 ;;		None
   706 ;; Auto vars:     Size  Location     Type
   707 ;;		None
   708 ;; Return value:  Size  Location     Type
   709 ;;                  1    wreg      void 
   710 ;; Registers used:
   711 ;;		wreg, fsr1l, fsr1h, fsr2l, fsr2h, status,2, status,0, tblptrl, tblptrh, tblptru, prodl, prodh, cstack
   712 ;; Tracked objects:
   713 ;;		On entry : 0/0
   714 ;;		On exit  : 0/0
   715 ;;		Unchanged: 0/0
   716 ;; Data sizes:     COMRAM   BANK5   BANK6   BANK7   BANK8   BANK9  BANK10  BANK11  BANK12  BANK13  BANK14  BANK15  BANK1
      +6  BANK17  BANK18  BANK19  BANK20  BANK21  BANK22  BANK23  BANK24  BANK25  BANK26  BANK27  BANK28  BANK29  BANK30  BANK3
      +1  BANK32  BANK33  BANK34  BANK35  BANK36  BANK37
   717 ;;      Params:         0       0       0       0       0       0       0       0       0       0       0       0       
      +0       0       0       0       0       0       0       0       0       0       0       0       0       0       0       
      +0       0       0       0       0       0       0
   718 ;;      Locals:         0       0       0       0       0       0       0       0       0       0       0       0       
      +0       0       0       0       0       0       0       0       0       0       0       0       0       0       0       
      +0       0       0       0       0       0       0
   719 ;;      Temps:          0       0       0       0       0       0       0       0       0       0       0       0       
      +0       0       0       0       0       0       0       0       0       0       0       0       0       0       0       
      +0       0       0       0       0       0       0
   720 ;;      Totals:         0       0       0       0       0       0       0       0       0       0       0       0       
      +0       0       0       0       0       0       0       0       0       0       0       0       0       0       0       
      +0       0       0       0       0       0       0
   721 ;;Total ram usage:        0 bytes
   722 ;; Hardware stack levels required when called: 8
   723 ;; This function calls:
   724 ;;		_CANWriteMessage
   725 ;;		_SYSTEM_Initialize
   726 ;; This function is called by:
   727 ;;		Startup code after reset
   728 ;; This function uses a non-reentrant model
   729 ;;
   730                           
   731                           	psect	text0
   732  002DFC                     __ptext0:
   733                           	callstack 0
   734  002DFC                     _main:
   735                           	callstack 119
   736  002DFC                     
   737                           ;main.c: 53:     SYSTEM_Initialize();
   738  002DFC  ECAA  F017         	call	_SYSTEM_Initialize	;wreg free
   739  002E00                     
   740                           ;main.c: 60:     (INTCON0bits.GIE = 1);
   741  002E00  8ED6               	bsf	214,7,c	;volatile
   742  002E02  9AC7               	bcf	199,5,c	;volatile
   743  002E04  8ABF               	bsf	191,5,c	;volatile
   744  002E06                     l2918:
   745                           
   746                           ;main.c: 68:     {;main.c: 75:         __nop();
   747  002E06  F000               	nop	
   748  002E08                     
   749                           ;main.c: 76:         CANWriteMessage ( 0x158, 0x08, 0x01, 0x02, 0x03, 0x04, 0x05, 0x06, 
      +                          0x07, 0x08 );
   750  002E08  0E58               	movlw	88
   751  002E0A  6E1F               	movwf	CANWriteMessage@id^(0+1280),c
   752  002E0C  0E01               	movlw	1
   753  002E0E  6E20               	movwf	(CANWriteMessage@id+1)^(0+1280),c
   754  002E10  0E00               	movlw	0
   755  002E12  6E21               	movwf	(CANWriteMessage@id+2)^(0+1280),c
   756  002E14  0E00               	movlw	0
   757  002E16  6E22               	movwf	(CANWriteMessage@id+3)^(0+1280),c
   758  002E18  0E08               	movlw	8
   759  002E1A  6E23               	movwf	CANWriteMessage@dataLength^(0+1280),c
   760  002E1C  0E01               	movlw	1
   761  002E1E  6E24               	movwf	CANWriteMessage@data1^(0+1280),c
   762  002E20  0E02               	movlw	2
   763  002E22  6E25               	movwf	CANWriteMessage@data2^(0+1280),c
   764  002E24  0E03               	movlw	3
   765  002E26  6E26               	movwf	CANWriteMessage@data3^(0+1280),c
   766  002E28  0E04               	movlw	4
   767  002E2A  6E27               	movwf	CANWriteMessage@data4^(0+1280),c
   768  002E2C  0E05               	movlw	5
   769  002E2E  6E28               	movwf	CANWriteMessage@data5^(0+1280),c
   770  002E30  0E06               	movlw	6
   771  002E32  6E29               	movwf	CANWriteMessage@data6^(0+1280),c
   772  002E34  0E07               	movlw	7
   773  002E36  6E2A               	movwf	CANWriteMessage@data7^(0+1280),c
   774  002E38  0E08               	movlw	8
   775  002E3A  6E2B               	movwf	CANWriteMessage@data8^(0+1280),c
   776  002E3C  EC2A  F014         	call	_CANWriteMessage	;wreg free
   777  002E40  EF03  F017         	goto	l2918
   778  002E44  EF0D  F000         	goto	start
   779  002E48                     __end_of_main:
   780                           	callstack 0
   781                           
   782 ;; *************** function _SYSTEM_Initialize *****************
   783 ;; Defined at:
   784 ;;		line 50 in file "mcc_generated_files/mcc.c"
   785 ;; Parameters:    Size  Location     Type
   786 ;;		None
   787 ;; Auto vars:     Size  Location     Type
   788 ;;		None
   789 ;; Return value:  Size  Location     Type
   790 ;;                  1    wreg      void 
   791 ;; Registers used:
   792 ;;		wreg, status,2, status,0, cstack
   793 ;; Tracked objects:
   794 ;;		On entry : 0/0
   795 ;;		On exit  : 0/0
   796 ;;		Unchanged: 0/0
   797 ;; Data sizes:     COMRAM   BANK5   BANK6   BANK7   BANK8   BANK9  BANK10  BANK11  BANK12  BANK13  BANK14  BANK15  BANK1
      +6  BANK17  BANK18  BANK19  BANK20  BANK21  BANK22  BANK23  BANK24  BANK25  BANK26  BANK27  BANK28  BANK29  BANK30  BANK3
      +1  BANK32  BANK33  BANK34  BANK35  BANK36  BANK37
   798 ;;      Params:         0       0       0       0       0       0       0       0       0       0       0       0       
      +0       0       0       0       0       0       0       0       0       0       0       0       0       0       0       
      +0       0       0       0       0       0       0
   799 ;;      Locals:         0       0       0       0       0       0       0       0       0       0       0       0       
      +0       0       0       0       0       0       0       0       0       0       0       0       0       0       0       
      +0       0       0       0       0       0       0
   800 ;;      Temps:          0       0       0       0       0       0       0       0       0       0       0       0       
      +0       0       0       0       0       0       0       0       0       0       0       0       0       0       0       
      +0       0       0       0       0       0       0
   801 ;;      Totals:         0       0       0       0       0       0       0       0       0       0       0       0       
      +0       0       0       0       0       0       0       0       0       0       0       0       0       0       0       
      +0       0       0       0       0       0       0
   802 ;;Total ram usage:        0 bytes
   803 ;; Hardware stack levels used: 1
   804 ;; Hardware stack levels required when called: 7
   805 ;; This function calls:
   806 ;;		_ADC_Initialize
   807 ;;		_CAN1_Initialize
   808 ;;		_EXT_INT_Initialize
   809 ;;		_INTERRUPT_Initialize
   810 ;;		_OSCILLATOR_Initialize
   811 ;;		_PIN_MANAGER_Initialize
   812 ;;		_PMD_Initialize
   813 ;;		_PWM1_16BIT_Initialize
   814 ;;		_PWM2_16BIT_Initialize
   815 ;;		_TMR0_Initialize
   816 ;;		_TMR1_Initialize
   817 ;;		_TMR2_Initialize
   818 ;; This function is called by:
   819 ;;		_main
   820 ;; This function uses a non-reentrant model
   821 ;;
   822                           
   823                           	psect	text1
   824  002F54                     __ptext1:
   825                           	callstack 0
   826  002F54                     _SYSTEM_Initialize:
   827                           	callstack 119
   828  002F54                     
   829                           ;mcc_generated_files/mcc.c: 52:     INTERRUPT_Initialize();
   830  002F54  EC37  F019         	call	_INTERRUPT_Initialize	;wreg free
   831  002F58                     
   832                           ;mcc_generated_files/mcc.c: 53:     PMD_Initialize();
   833  002F58  EC5E  F018         	call	_PMD_Initialize	;wreg free
   834  002F5C                     
   835                           ;mcc_generated_files/mcc.c: 54:     ADC_Initialize();
   836  002F5C  EC13  F015         	call	_ADC_Initialize	;wreg free
   837  002F60                     
   838                           ;mcc_generated_files/mcc.c: 55:     PIN_MANAGER_Initialize();
   839  002F60  ECFC  F015         	call	_PIN_MANAGER_Initialize	;wreg free
   840  002F64                     
   841                           ;mcc_generated_files/mcc.c: 56:     OSCILLATOR_Initialize();
   842  002F64  ECA9  F018         	call	_OSCILLATOR_Initialize	;wreg free
   843  002F68                     
   844                           ;mcc_generated_files/mcc.c: 57:     TMR2_Initialize();
   845  002F68  ECC3  F017         	call	_TMR2_Initialize	;wreg free
   846  002F6C                     
   847                           ;mcc_generated_files/mcc.c: 58:     TMR1_Initialize();
   848  002F6C  EC48  F017         	call	_TMR1_Initialize	;wreg free
   849  002F70                     
   850                           ;mcc_generated_files/mcc.c: 59:     EXT_INT_Initialize();
   851  002F70  ECC1  F018         	call	_EXT_INT_Initialize	;wreg free
   852  002F74                     
   853                           ;mcc_generated_files/mcc.c: 60:     TMR0_Initialize();
   854  002F74  EC86  F018         	call	_TMR0_Initialize	;wreg free
   855  002F78                     
   856                           ;mcc_generated_files/mcc.c: 61:     PWM2_16BIT_Initialize();
   857  002F78  EC37  F016         	call	_PWM2_16BIT_Initialize	;wreg free
   858  002F7C                     
   859                           ;mcc_generated_files/mcc.c: 62:     CAN1_Initialize();
   860  002F7C  EC24  F017         	call	_CAN1_Initialize	;wreg free
   861  002F80                     
   862                           ;mcc_generated_files/mcc.c: 63:     PWM1_16BIT_Initialize();
   863  002F80  EC6E  F016         	call	_PWM1_16BIT_Initialize	;wreg free
   864  002F84  0012               	return		;funcret
   865  002F86                     __end_of_SYSTEM_Initialize:
   866                           	callstack 0
   867                           
   868 ;; *************** function _TMR2_Initialize *****************
   869 ;; Defined at:
   870 ;;		line 64 in file "mcc_generated_files/tmr2.c"
   871 ;; Parameters:    Size  Location     Type
   872 ;;		None
   873 ;; Auto vars:     Size  Location     Type
   874 ;;		None
   875 ;; Return value:  Size  Location     Type
   876 ;;                  1    wreg      void 
   877 ;; Registers used:
   878 ;;		wreg, status,2, status,0, cstack
   879 ;; Tracked objects:
   880 ;;		On entry : 0/0
   881 ;;		On exit  : 0/0
   882 ;;		Unchanged: 0/0
   883 ;; Data sizes:     COMRAM   BANK5   BANK6   BANK7   BANK8   BANK9  BANK10  BANK11  BANK12  BANK13  BANK14  BANK15  BANK1
      +6  BANK17  BANK18  BANK19  BANK20  BANK21  BANK22  BANK23  BANK24  BANK25  BANK26  BANK27  BANK28  BANK29  BANK30  BANK3
      +1  BANK32  BANK33  BANK34  BANK35  BANK36  BANK37
   884 ;;      Params:         0       0       0       0       0       0       0       0       0       0       0       0       
      +0       0       0       0       0       0       0       0       0       0       0       0       0       0       0       
      +0       0       0       0       0       0       0
   885 ;;      Locals:         0       0       0       0       0       0       0       0       0       0       0       0       
      +0       0       0       0       0       0       0       0       0       0       0       0       0       0       0       
      +0       0       0       0       0       0       0
   886 ;;      Temps:          0       0       0       0       0       0       0       0       0       0       0       0       
      +0       0       0       0       0       0       0       0       0       0       0       0       0       0       0       
      +0       0       0       0       0       0       0
   887 ;;      Totals:         0       0       0       0       0       0       0       0       0       0       0       0       
      +0       0       0       0       0       0       0       0       0       0       0       0       0       0       0       
      +0       0       0       0       0       0       0
   888 ;;Total ram usage:        0 bytes
   889 ;; Hardware stack levels used: 1
   890 ;; Hardware stack levels required when called: 5
   891 ;; This function calls:
   892 ;;		_TMR2_SetInterruptHandler
   893 ;; This function is called by:
   894 ;;		_SYSTEM_Initialize
   895 ;; This function uses a non-reentrant model
   896 ;;
   897                           
   898                           	psect	text2
   899  002F86                     __ptext2:
   900                           	callstack 0
   901  002F86                     _TMR2_Initialize:
   902                           	callstack 120
   903  002F86                     
   904                           ;mcc_generated_files/tmr2.c: 69:     T2CLKCON = 0x01;
   905  002F86  0E01               	movlw	1
   906  002F88  0103               	movlb	3	; () banked
   907  002F8A  6F26               	movwf	38,b	;volatile
   908                           
   909                           ;mcc_generated_files/tmr2.c: 72:     T2HLT = 0x00;
   910  002F8C  0E00               	movlw	0
   911  002F8E  6F25               	movwf	37,b	;volatile
   912                           
   913                           ;mcc_generated_files/tmr2.c: 75:     T2RST = 0x00;
   914  002F90  0E00               	movlw	0
   915  002F92  6F27               	movwf	39,b	;volatile
   916                           
   917                           ;mcc_generated_files/tmr2.c: 78:     T2PR = 0xC2;
   918  002F94  0EC2               	movlw	194
   919  002F96  6F23               	movwf	35,b	;volatile
   920                           
   921                           ;mcc_generated_files/tmr2.c: 81:     T2TMR = 0x00;
   922  002F98  0E00               	movlw	0
   923  002F9A  6F22               	movwf	34,b	;volatile
   924  002F9C                     
   925                           ; BSR set to: 3
   926                           ;mcc_generated_files/tmr2.c: 84:     PIR3bits.TMR2IF = 0;
   927  002F9C  96B1               	bcf	177,3,c	;volatile
   928  002F9E                     
   929                           ; BSR set to: 3
   930                           ;mcc_generated_files/tmr2.c: 87:     PIE3bits.TMR2IE = 1;
   931  002F9E  86A1               	bsf	161,3,c	;volatile
   932  002FA0                     
   933                           ; BSR set to: 3
   934                           ;mcc_generated_files/tmr2.c: 90:     TMR2_SetInterruptHandler(TMR2_DefaultInterruptHandl
      +                          er);
   935  002FA0  0E72               	movlw	low _TMR2_DefaultInterruptHandler
   936  002FA2  6E03               	movwf	TMR2_SetInterruptHandler@InterruptHandler^(0+1280),c
   937  002FA4  0E32               	movlw	high _TMR2_DefaultInterruptHandler
   938  002FA6  6E04               	movwf	(TMR2_SetInterruptHandler@InterruptHandler+1)^(0+1280),c
   939  002FA8  ECE9  F018         	call	_TMR2_SetInterruptHandler	;wreg free
   940  002FAC                     
   941                           ;mcc_generated_files/tmr2.c: 93:     T2CON = 0xF0;
   942  002FAC  0EF0               	movlw	240
   943  002FAE  0103               	movlb	3	; () banked
   944  002FB0  6F24               	movwf	36,b	;volatile
   945  002FB2                     
   946                           ; BSR set to: 3
   947  002FB2  0012               	return		;funcret
   948  002FB4                     __end_of_TMR2_Initialize:
   949                           	callstack 0
   950                           
   951 ;; *************** function _TMR2_SetInterruptHandler *****************
   952 ;; Defined at:
   953 ;;		line 193 in file "mcc_generated_files/tmr2.c"
   954 ;; Parameters:    Size  Location     Type
   955 ;;  InterruptHan    2    2[COMRAM] PTR FTN()void 
   956 ;;		 -> TMR2_DefaultInterruptHandler(1), 
   957 ;; Auto vars:     Size  Location     Type
   958 ;;		None
   959 ;; Return value:  Size  Location     Type
   960 ;;                  1    wreg      void 
   961 ;; Registers used:
   962 ;;		wreg, status,2, status,0
   963 ;; Tracked objects:
   964 ;;		On entry : 0/0
   965 ;;		On exit  : 0/0
   966 ;;		Unchanged: 0/0
   967 ;; Data sizes:     COMRAM   BANK5   BANK6   BANK7   BANK8   BANK9  BANK10  BANK11  BANK12  BANK13  BANK14  BANK15  BANK1
      +6  BANK17  BANK18  BANK19  BANK20  BANK21  BANK22  BANK23  BANK24  BANK25  BANK26  BANK27  BANK28  BANK29  BANK30  BANK3
      +1  BANK32  BANK33  BANK34  BANK35  BANK36  BANK37
   968 ;;      Params:         2       0       0       0       0       0       0       0       0       0       0       0       
      +0       0       0       0       0       0       0       0       0       0       0       0       0       0       0       
      +0       0       0       0       0       0       0
   969 ;;      Locals:         0       0       0       0       0       0       0       0       0       0       0       0       
      +0       0       0       0       0       0       0       0       0       0       0       0       0       0       0       
      +0       0       0       0       0       0       0
   970 ;;      Temps:          0       0       0       0       0       0       0       0       0       0       0       0       
      +0       0       0       0       0       0       0       0       0       0       0       0       0       0       0       
      +0       0       0       0       0       0       0
   971 ;;      Totals:         2       0       0       0       0       0       0       0       0       0       0       0       
      +0       0       0       0       0       0       0       0       0       0       0       0       0       0       0       
      +0       0       0       0       0       0       0
   972 ;;Total ram usage:        2 bytes
   973 ;; Hardware stack levels used: 1
   974 ;; Hardware stack levels required when called: 4
   975 ;; This function calls:
   976 ;;		Nothing
   977 ;; This function is called by:
   978 ;;		_TMR2_Initialize
   979 ;; This function uses a non-reentrant model
   980 ;;
   981                           
   982                           	psect	text3
   983  0031D2                     __ptext3:
   984                           	callstack 0
   985  0031D2                     _TMR2_SetInterruptHandler:
   986                           	callstack 120
   987  0031D2                     
   988                           ;mcc_generated_files/tmr2.c: 194:     TMR2_InterruptHandler = InterruptHandler;
   989  0031D2  C503  F538         	movff	TMR2_SetInterruptHandler@InterruptHandler,_TMR2_InterruptHandler
   990  0031D6  C504  F539         	movff	TMR2_SetInterruptHandler@InterruptHandler+1,_TMR2_InterruptHandler+1
   991  0031DA  0012               	return		;funcret
   992  0031DC                     __end_of_TMR2_SetInterruptHandler:
   993                           	callstack 0
   994                           
   995 ;; *************** function _TMR1_Initialize *****************
   996 ;; Defined at:
   997 ;;		line 64 in file "mcc_generated_files/tmr1.c"
   998 ;; Parameters:    Size  Location     Type
   999 ;;		None
  1000 ;; Auto vars:     Size  Location     Type
  1001 ;;		None
  1002 ;; Return value:  Size  Location     Type
  1003 ;;                  1    wreg      void 
  1004 ;; Registers used:
  1005 ;;		wreg, status,2, status,0, cstack
  1006 ;; Tracked objects:
  1007 ;;		On entry : 0/0
  1008 ;;		On exit  : 0/0
  1009 ;;		Unchanged: 0/0
  1010 ;; Data sizes:     COMRAM   BANK5   BANK6   BANK7   BANK8   BANK9  BANK10  BANK11  BANK12  BANK13  BANK14  BANK15  BANK1
      +6  BANK17  BANK18  BANK19  BANK20  BANK21  BANK22  BANK23  BANK24  BANK25  BANK26  BANK27  BANK28  BANK29  BANK30  BANK3
      +1  BANK32  BANK33  BANK34  BANK35  BANK36  BANK37
  1011 ;;      Params:         0       0       0       0       0       0       0       0       0       0       0       0       
      +0       0       0       0       0       0       0       0       0       0       0       0       0       0       0       
      +0       0       0       0       0       0       0
  1012 ;;      Locals:         0       0       0       0       0       0       0       0       0       0       0       0       
      +0       0       0       0       0       0       0       0       0       0       0       0       0       0       0       
      +0       0       0       0       0       0       0
  1013 ;;      Temps:          2       0       0       0       0       0       0       0       0       0       0       0       
      +0       0       0       0       0       0       0       0       0       0       0       0       0       0       0       
      +0       0       0       0       0       0       0
  1014 ;;      Totals:         2       0       0       0       0       0       0       0       0       0       0       0       
      +0       0       0       0       0       0       0       0       0       0       0       0       0       0       0       
      +0       0       0       0       0       0       0
  1015 ;;Total ram usage:        2 bytes
  1016 ;; Hardware stack levels used: 1
  1017 ;; Hardware stack levels required when called: 5
  1018 ;; This function calls:
  1019 ;;		_TMR1_SetInterruptHandler
  1020 ;; This function is called by:
  1021 ;;		_SYSTEM_Initialize
  1022 ;; This function uses a non-reentrant model
  1023 ;;
  1024                           
  1025                           	psect	text4
  1026  002E90                     __ptext4:
  1027                           	callstack 0
  1028  002E90                     _TMR1_Initialize:
  1029                           	callstack 120
  1030  002E90                     
  1031                           ;mcc_generated_files/tmr1.c: 69:     T1GCON = 0x00;
  1032  002E90  0E00               	movlw	0
  1033  002E92  0103               	movlb	3	; () banked
  1034  002E94  6F1F               	movwf	31,b	;volatile
  1035                           
  1036                           ;mcc_generated_files/tmr1.c: 72:     T1GATE = 0x00;
  1037  002E96  0E00               	movlw	0
  1038  002E98  6F20               	movwf	32,b	;volatile
  1039                           
  1040                           ;mcc_generated_files/tmr1.c: 75:     T1CLK = 0x01;
  1041  002E9A  0E01               	movlw	1
  1042  002E9C  6F21               	movwf	33,b	;volatile
  1043                           
  1044                           ;mcc_generated_files/tmr1.c: 78:     TMR1H = 0xCF;
  1045  002E9E  0ECF               	movlw	207
  1046  002EA0  6F1D               	movwf	29,b	;volatile
  1047                           
  1048                           ;mcc_generated_files/tmr1.c: 81:     TMR1L = 0x2C;
  1049  002EA2  0E2C               	movlw	44
  1050  002EA4  6F1C               	movwf	28,b	;volatile
  1051  002EA6                     
  1052                           ; BSR set to: 3
  1053                           ;mcc_generated_files/tmr1.c: 84:     PIR3bits.TMR1IF = 0;
  1054  002EA6  98B1               	bcf	177,4,c	;volatile
  1055  002EA8                     
  1056                           ; BSR set to: 3
  1057                           ;mcc_generated_files/tmr1.c: 87:     timer1ReloadVal=(uint16_t)((TMR1H << 8) | TMR1L);
  1058  002EA8  511C               	movf	28,w,b	;volatile
  1059  002EAA  0060 FC74  F505    	movff	797,??_TMR1_Initialize	;volatile
  1060  002EB0  6A06               	clrf	(??_TMR1_Initialize+1)^(0+1280),c
  1061  002EB2  C505  F506         	movff	??_TMR1_Initialize,??_TMR1_Initialize+1
  1062  002EB6  6A05               	clrf	??_TMR1_Initialize^(0+1280),c
  1063  002EB8  1005               	iorwf	??_TMR1_Initialize^(0+1280),w,c
  1064  002EBA  6E3C               	movwf	_timer1ReloadVal^(0+1280),c	;volatile
  1065  002EBC  5006               	movf	(??_TMR1_Initialize+1)^(0+1280),w,c
  1066  002EBE  6E3D               	movwf	(_timer1ReloadVal+1)^(0+1280),c	;volatile
  1067  002EC0                     
  1068                           ; BSR set to: 3
  1069                           ;mcc_generated_files/tmr1.c: 90:     PIE3bits.TMR1IE = 1;
  1070  002EC0  88A1               	bsf	161,4,c	;volatile
  1071  002EC2                     
  1072                           ; BSR set to: 3
  1073                           ;mcc_generated_files/tmr1.c: 93:     TMR1_SetInterruptHandler(TMR1_DefaultInterruptHandl
      +                          er);
  1074  002EC2  0E74               	movlw	low _TMR1_DefaultInterruptHandler
  1075  002EC4  6E03               	movwf	TMR1_SetInterruptHandler@InterruptHandler^(0+1280),c
  1076  002EC6  0E32               	movlw	high _TMR1_DefaultInterruptHandler
  1077  002EC8  6E04               	movwf	(TMR1_SetInterruptHandler@InterruptHandler+1)^(0+1280),c
  1078  002ECA  ECEE  F018         	call	_TMR1_SetInterruptHandler	;wreg free
  1079  002ECE                     
  1080                           ;mcc_generated_files/tmr1.c: 96:     T1CON = 0x11;
  1081  002ECE  0E11               	movlw	17
  1082  002ED0  0103               	movlb	3	; () banked
  1083  002ED2  6F1E               	movwf	30,b	;volatile
  1084  002ED4                     
  1085                           ; BSR set to: 3
  1086  002ED4  0012               	return		;funcret
  1087  002ED6                     __end_of_TMR1_Initialize:
  1088                           	callstack 0
  1089                           
  1090 ;; *************** function _TMR1_SetInterruptHandler *****************
  1091 ;; Defined at:
  1092 ;;		line 185 in file "mcc_generated_files/tmr1.c"
  1093 ;; Parameters:    Size  Location     Type
  1094 ;;  InterruptHan    2    2[COMRAM] PTR FTN()void 
  1095 ;;		 -> TMR1_DefaultInterruptHandler(1), 
  1096 ;; Auto vars:     Size  Location     Type
  1097 ;;		None
  1098 ;; Return value:  Size  Location     Type
  1099 ;;                  1    wreg      void 
  1100 ;; Registers used:
  1101 ;;		wreg, status,2, status,0
  1102 ;; Tracked objects:
  1103 ;;		On entry : 0/0
  1104 ;;		On exit  : 0/0
  1105 ;;		Unchanged: 0/0
  1106 ;; Data sizes:     COMRAM   BANK5   BANK6   BANK7   BANK8   BANK9  BANK10  BANK11  BANK12  BANK13  BANK14  BANK15  BANK1
      +6  BANK17  BANK18  BANK19  BANK20  BANK21  BANK22  BANK23  BANK24  BANK25  BANK26  BANK27  BANK28  BANK29  BANK30  BANK3
      +1  BANK32  BANK33  BANK34  BANK35  BANK36  BANK37
  1107 ;;      Params:         2       0       0       0       0       0       0       0       0       0       0       0       
      +0       0       0       0       0       0       0       0       0       0       0       0       0       0       0       
      +0       0       0       0       0       0       0
  1108 ;;      Locals:         0       0       0       0       0       0       0       0       0       0       0       0       
      +0       0       0       0       0       0       0       0       0       0       0       0       0       0       0       
      +0       0       0       0       0       0       0
  1109 ;;      Temps:          0       0       0       0       0       0       0       0       0       0       0       0       
      +0       0       0       0       0       0       0       0       0       0       0       0       0       0       0       
      +0       0       0       0       0       0       0
  1110 ;;      Totals:         2       0       0       0       0       0       0       0       0       0       0       0       
      +0       0       0       0       0       0       0       0       0       0       0       0       0       0       0       
      +0       0       0       0       0       0       0
  1111 ;;Total ram usage:        2 bytes
  1112 ;; Hardware stack levels used: 1
  1113 ;; Hardware stack levels required when called: 4
  1114 ;; This function calls:
  1115 ;;		Nothing
  1116 ;; This function is called by:
  1117 ;;		_TMR1_Initialize
  1118 ;; This function uses a non-reentrant model
  1119 ;;
  1120                           
  1121                           	psect	text5
  1122  0031DC                     __ptext5:
  1123                           	callstack 0
  1124  0031DC                     _TMR1_SetInterruptHandler:
  1125                           	callstack 120
  1126  0031DC                     
  1127                           ;mcc_generated_files/tmr1.c: 186:     TMR1_InterruptHandler = InterruptHandler;
  1128  0031DC  C503  F53A         	movff	TMR1_SetInterruptHandler@InterruptHandler,_TMR1_InterruptHandler
  1129  0031E0  C504  F53B         	movff	TMR1_SetInterruptHandler@InterruptHandler+1,_TMR1_InterruptHandler+1
  1130  0031E4  0012               	return		;funcret
  1131  0031E6                     __end_of_TMR1_SetInterruptHandler:
  1132                           	callstack 0
  1133                           
  1134 ;; *************** function _TMR0_Initialize *****************
  1135 ;; Defined at:
  1136 ;;		line 61 in file "mcc_generated_files/tmr0.c"
  1137 ;; Parameters:    Size  Location     Type
  1138 ;;		None
  1139 ;; Auto vars:     Size  Location     Type
  1140 ;;		None
  1141 ;; Return value:  Size  Location     Type
  1142 ;;                  1    wreg      void 
  1143 ;; Registers used:
  1144 ;;		wreg, status,2, status,0, cstack
  1145 ;; Tracked objects:
  1146 ;;		On entry : 0/0
  1147 ;;		On exit  : 0/0
  1148 ;;		Unchanged: 0/0
  1149 ;; Data sizes:     COMRAM   BANK5   BANK6   BANK7   BANK8   BANK9  BANK10  BANK11  BANK12  BANK13  BANK14  BANK15  BANK1
      +6  BANK17  BANK18  BANK19  BANK20  BANK21  BANK22  BANK23  BANK24  BANK25  BANK26  BANK27  BANK28  BANK29  BANK30  BANK3
      +1  BANK32  BANK33  BANK34  BANK35  BANK36  BANK37
  1150 ;;      Params:         0       0       0       0       0       0       0       0       0       0       0       0       
      +0       0       0       0       0       0       0       0       0       0       0       0       0       0       0       
      +0       0       0       0       0       0       0
  1151 ;;      Locals:         0       0       0       0       0       0       0       0       0       0       0       0       
      +0       0       0       0       0       0       0       0       0       0       0       0       0       0       0       
      +0       0       0       0       0       0       0
  1152 ;;      Temps:          0       0       0       0       0       0       0       0       0       0       0       0       
      +0       0       0       0       0       0       0       0       0       0       0       0       0       0       0       
      +0       0       0       0       0       0       0
  1153 ;;      Totals:         0       0       0       0       0       0       0       0       0       0       0       0       
      +0       0       0       0       0       0       0       0       0       0       0       0       0       0       0       
      +0       0       0       0       0       0       0
  1154 ;;Total ram usage:        0 bytes
  1155 ;; Hardware stack levels used: 1
  1156 ;; Hardware stack levels required when called: 5
  1157 ;; This function calls:
  1158 ;;		_TMR0_SetInterruptHandler
  1159 ;; This function is called by:
  1160 ;;		_SYSTEM_Initialize
  1161 ;; This function uses a non-reentrant model
  1162 ;;
  1163                           
  1164                           	psect	text6
  1165  00310C                     __ptext6:
  1166                           	callstack 0
  1167  00310C                     _TMR0_Initialize:
  1168                           	callstack 120
  1169  00310C                     
  1170                           ;mcc_generated_files/tmr0.c: 66:     T0CON1 = 0x44;
  1171  00310C  0E44               	movlw	68
  1172  00310E  0103               	movlb	3	; () banked
  1173  003110  6F1B               	movwf	27,b	;volatile
  1174                           
  1175                           ;mcc_generated_files/tmr0.c: 69:     TMR0H = 0x9B;
  1176  003112  0E9B               	movlw	155
  1177  003114  6F19               	movwf	25,b	;volatile
  1178                           
  1179                           ;mcc_generated_files/tmr0.c: 72:     TMR0L = 0x00;
  1180  003116  0E00               	movlw	0
  1181  003118  6F18               	movwf	24,b	;volatile
  1182  00311A                     
  1183                           ; BSR set to: 3
  1184                           ;mcc_generated_files/tmr0.c: 75:     PIR3bits.TMR0IF = 0;
  1185  00311A  9EB1               	bcf	177,7,c	;volatile
  1186  00311C                     
  1187                           ; BSR set to: 3
  1188                           ;mcc_generated_files/tmr0.c: 78:     PIE3bits.TMR0IE = 1;
  1189  00311C  8EA1               	bsf	161,7,c	;volatile
  1190  00311E                     
  1191                           ; BSR set to: 3
  1192                           ;mcc_generated_files/tmr0.c: 81:     TMR0_SetInterruptHandler(TMR0_DefaultInterruptHandl
      +                          er);
  1193  00311E  0E76               	movlw	low _TMR0_DefaultInterruptHandler
  1194  003120  6E03               	movwf	TMR0_SetInterruptHandler@InterruptHandler^(0+1280),c
  1195  003122  0E32               	movlw	high _TMR0_DefaultInterruptHandler
  1196  003124  6E04               	movwf	(TMR0_SetInterruptHandler@InterruptHandler+1)^(0+1280),c
  1197  003126  ECF3  F018         	call	_TMR0_SetInterruptHandler	;wreg free
  1198  00312A                     
  1199                           ;mcc_generated_files/tmr0.c: 84:     T0CON0 = 0x80;
  1200  00312A  0E80               	movlw	128
  1201  00312C  0103               	movlb	3	; () banked
  1202  00312E  6F1A               	movwf	26,b	;volatile
  1203  003130                     
  1204                           ; BSR set to: 3
  1205  003130  0012               	return		;funcret
  1206  003132                     __end_of_TMR0_Initialize:
  1207                           	callstack 0
  1208                           
  1209 ;; *************** function _TMR0_SetInterruptHandler *****************
  1210 ;; Defined at:
  1211 ;;		line 142 in file "mcc_generated_files/tmr0.c"
  1212 ;; Parameters:    Size  Location     Type
  1213 ;;  InterruptHan    2    2[COMRAM] PTR FTN()void 
  1214 ;;		 -> TMR0_DefaultInterruptHandler(1), 
  1215 ;; Auto vars:     Size  Location     Type
  1216 ;;		None
  1217 ;; Return value:  Size  Location     Type
  1218 ;;                  1    wreg      void 
  1219 ;; Registers used:
  1220 ;;		wreg, status,2, status,0
  1221 ;; Tracked objects:
  1222 ;;		On entry : 0/0
  1223 ;;		On exit  : 0/0
  1224 ;;		Unchanged: 0/0
  1225 ;; Data sizes:     COMRAM   BANK5   BANK6   BANK7   BANK8   BANK9  BANK10  BANK11  BANK12  BANK13  BANK14  BANK15  BANK1
      +6  BANK17  BANK18  BANK19  BANK20  BANK21  BANK22  BANK23  BANK24  BANK25  BANK26  BANK27  BANK28  BANK29  BANK30  BANK3
      +1  BANK32  BANK33  BANK34  BANK35  BANK36  BANK37
  1226 ;;      Params:         2       0       0       0       0       0       0       0       0       0       0       0       
      +0       0       0       0       0       0       0       0       0       0       0       0       0       0       0       
      +0       0       0       0       0       0       0
  1227 ;;      Locals:         0       0       0       0       0       0       0       0       0       0       0       0       
      +0       0       0       0       0       0       0       0       0       0       0       0       0       0       0       
      +0       0       0       0       0       0       0
  1228 ;;      Temps:          0       0       0       0       0       0       0       0       0       0       0       0       
      +0       0       0       0       0       0       0       0       0       0       0       0       0       0       0       
      +0       0       0       0       0       0       0
  1229 ;;      Totals:         2       0       0       0       0       0       0       0       0       0       0       0       
      +0       0       0       0       0       0       0       0       0       0       0       0       0       0       0       
      +0       0       0       0       0       0       0
  1230 ;;Total ram usage:        2 bytes
  1231 ;; Hardware stack levels used: 1
  1232 ;; Hardware stack levels required when called: 4
  1233 ;; This function calls:
  1234 ;;		Nothing
  1235 ;; This function is called by:
  1236 ;;		_TMR0_Initialize
  1237 ;; This function uses a non-reentrant model
  1238 ;;
  1239                           
  1240                           	psect	text7
  1241  0031E6                     __ptext7:
  1242                           	callstack 0
  1243  0031E6                     _TMR0_SetInterruptHandler:
  1244                           	callstack 120
  1245  0031E6                     
  1246                           ;mcc_generated_files/tmr0.c: 143:     TMR0_InterruptHandler = InterruptHandler;
  1247  0031E6  C503  F536         	movff	TMR0_SetInterruptHandler@InterruptHandler,_TMR0_InterruptHandler
  1248  0031EA  C504  F537         	movff	TMR0_SetInterruptHandler@InterruptHandler+1,_TMR0_InterruptHandler+1
  1249  0031EE  0012               	return		;funcret
  1250  0031F0                     __end_of_TMR0_SetInterruptHandler:
  1251                           	callstack 0
  1252                           
  1253 ;; *************** function _PWM2_16BIT_Initialize *****************
  1254 ;; Defined at:
  1255 ;;		line 63 in file "mcc_generated_files/pwm2_16bit.c"
  1256 ;; Parameters:    Size  Location     Type
  1257 ;;		None
  1258 ;; Auto vars:     Size  Location     Type
  1259 ;;		None
  1260 ;; Return value:  Size  Location     Type
  1261 ;;                  1    wreg      void 
  1262 ;; Registers used:
  1263 ;;		wreg, status,2, status,0, cstack
  1264 ;; Tracked objects:
  1265 ;;		On entry : 0/0
  1266 ;;		On exit  : 0/0
  1267 ;;		Unchanged: 0/0
  1268 ;; Data sizes:     COMRAM   BANK5   BANK6   BANK7   BANK8   BANK9  BANK10  BANK11  BANK12  BANK13  BANK14  BANK15  BANK1
      +6  BANK17  BANK18  BANK19  BANK20  BANK21  BANK22  BANK23  BANK24  BANK25  BANK26  BANK27  BANK28  BANK29  BANK30  BANK3
      +1  BANK32  BANK33  BANK34  BANK35  BANK36  BANK37
  1269 ;;      Params:         0       0       0       0       0       0       0       0       0       0       0       0       
      +0       0       0       0       0       0       0       0       0       0       0       0       0       0       0       
      +0       0       0       0       0       0       0
  1270 ;;      Locals:         0       0       0       0       0       0       0       0       0       0       0       0       
      +0       0       0       0       0       0       0       0       0       0       0       0       0       0       0       
      +0       0       0       0       0       0       0
  1271 ;;      Temps:          0       0       0       0       0       0       0       0       0       0       0       0       
      +0       0       0       0       0       0       0       0       0       0       0       0       0       0       0       
      +0       0       0       0       0       0       0
  1272 ;;      Totals:         0       0       0       0       0       0       0       0       0       0       0       0       
      +0       0       0       0       0       0       0       0       0       0       0       0       0       0       0       
      +0       0       0       0       0       0       0
  1273 ;;Total ram usage:        0 bytes
  1274 ;; Hardware stack levels used: 1
  1275 ;; Hardware stack levels required when called: 5
  1276 ;; This function calls:
  1277 ;;		_PWM2_16BIT_Period_SetInterruptHandler
  1278 ;;		_PWM2_16BIT_Slice1Output1_SetInterruptHandler
  1279 ;;		_PWM2_16BIT_Slice1Output2_SetInterruptHandler
  1280 ;; This function is called by:
  1281 ;;		_SYSTEM_Initialize
  1282 ;; This function uses a non-reentrant model
  1283 ;;
  1284                           
  1285                           	psect	text8
  1286  002C6E                     __ptext8:
  1287                           	callstack 0
  1288  002C6E                     _PWM2_16BIT_Initialize:
  1289                           	callstack 120
  1290  002C6E                     
  1291                           ;mcc_generated_files/pwm2_16bit.c: 66:     PWM2ERS = 0x00;
  1292  002C6E  0E00               	movlw	0
  1293  002C70  6E6F               	movwf	111,c	;volatile
  1294                           
  1295                           ;mcc_generated_files/pwm2_16bit.c: 69:     PWM2CLK = 0x02;
  1296  002C72  0E02               	movlw	2
  1297  002C74  6E70               	movwf	112,c	;volatile
  1298                           
  1299                           ;mcc_generated_files/pwm2_16bit.c: 72:     PWM2LDS = 0x00;
  1300  002C76  0E00               	movlw	0
  1301  002C78  6E71               	movwf	113,c	;volatile
  1302                           
  1303                           ;mcc_generated_files/pwm2_16bit.c: 75:     PWM2PRL = 0x50;
  1304  002C7A  0E50               	movlw	80
  1305  002C7C  6E72               	movwf	114,c	;volatile
  1306                           
  1307                           ;mcc_generated_files/pwm2_16bit.c: 78:     PWM2PRH = 0x0F;
  1308  002C7E  0E0F               	movlw	15
  1309  002C80  6E73               	movwf	115,c	;volatile
  1310                           
  1311                           ;mcc_generated_files/pwm2_16bit.c: 81:     PWM2CPRE = 0xFE;
  1312  002C82  0EFE               	movlw	254
  1313  002C84  6E74               	movwf	116,c	;volatile
  1314                           
  1315                           ;mcc_generated_files/pwm2_16bit.c: 84:     PWM2PIPOS = 0x00;
  1316  002C86  0E00               	movlw	0
  1317  002C88  6E75               	movwf	117,c	;volatile
  1318                           
  1319                           ;mcc_generated_files/pwm2_16bit.c: 87:     PWM2GIR = 0x00;
  1320  002C8A  0E00               	movlw	0
  1321  002C8C  6E76               	movwf	118,c	;volatile
  1322                           
  1323                           ;mcc_generated_files/pwm2_16bit.c: 90:     PWM2GIE = 0x00;
  1324  002C8E  0E00               	movlw	0
  1325  002C90  6E77               	movwf	119,c	;volatile
  1326                           
  1327                           ;mcc_generated_files/pwm2_16bit.c: 93:     PWM2S1CFG = 0x00;
  1328  002C92  0E00               	movlw	0
  1329  002C94  6E79               	movwf	121,c	;volatile
  1330                           
  1331                           ;mcc_generated_files/pwm2_16bit.c: 96:     PWM2S1P1L = 0x0D;
  1332  002C96  0E0D               	movlw	13
  1333  002C98  6E7A               	movwf	122,c	;volatile
  1334                           
  1335                           ;mcc_generated_files/pwm2_16bit.c: 99:     PWM2S1P1H = 0x05;
  1336  002C9A  0E05               	movlw	5
  1337  002C9C  6E7B               	movwf	123,c	;volatile
  1338                           
  1339                           ;mcc_generated_files/pwm2_16bit.c: 102:     PWM2S1P2L = 0xA8;
  1340  002C9E  0EA8               	movlw	168
  1341  002CA0  6E7C               	movwf	124,c	;volatile
  1342                           
  1343                           ;mcc_generated_files/pwm2_16bit.c: 105:     PWM2S1P2H = 0x07;
  1344  002CA2  0E07               	movlw	7
  1345  002CA4  6E7D               	movwf	125,c	;volatile
  1346  002CA6                     
  1347                           ;mcc_generated_files/pwm2_16bit.c: 108:     PIR5bits.PWM2PIF = 0;
  1348  002CA6  9CB3               	bcf	179,6,c	;volatile
  1349  002CA8                     
  1350                           ;mcc_generated_files/pwm2_16bit.c: 111:     PIR5bits.PWM2IF = 0;
  1351  002CA8  9EB3               	bcf	179,7,c	;volatile
  1352  002CAA                     
  1353                           ;mcc_generated_files/pwm2_16bit.c: 114:     PWM2GIRbits.S1P1IF = 0;
  1354  002CAA  9076               	bcf	118,0,c	;volatile
  1355  002CAC                     
  1356                           ;mcc_generated_files/pwm2_16bit.c: 117:     PWM2GIRbits.S1P2IF = 0;
  1357  002CAC  9276               	bcf	118,1,c	;volatile
  1358  002CAE                     
  1359                           ;mcc_generated_files/pwm2_16bit.c: 120:     PIE5bits.PWM2IE = 0;
  1360  002CAE  9EA3               	bcf	163,7,c	;volatile
  1361  002CB0                     
  1362                           ;mcc_generated_files/pwm2_16bit.c: 123:     PIE5bits.PWM2PIE = 0;
  1363  002CB0  9CA3               	bcf	163,6,c	;volatile
  1364  002CB2                     
  1365                           ;mcc_generated_files/pwm2_16bit.c: 126:     PWM2_16BIT_Slice1Output1_SetInterruptHandler
      +                          (PWM2_16BIT_Slice1Output1_DefaultInterruptHandler);
  1366  002CB2  0E00               	movlw	0
  1367  002CB4  6E03               	movwf	PWM2_16BIT_Slice1Output1_SetInterruptHandler@InterruptHandler^(0+1280),c
  1368  002CB6  0E00               	movlw	0
  1369  002CB8  6E04               	movwf	(PWM2_16BIT_Slice1Output1_SetInterruptHandler@InterruptHandler+1)^(0+1280),c
  1370  002CBA  ECFD  F018         	call	_PWM2_16BIT_Slice1Output1_SetInterruptHandler	;wreg free
  1371  002CBE                     
  1372                           ;mcc_generated_files/pwm2_16bit.c: 127:     PWM2_16BIT_Slice1Output2_SetInterruptHandler
      +                          (PWM2_16BIT_Slice1Output2_DefaultInterruptHandler);
  1373  002CBE  0E00               	movlw	0
  1374  002CC0  6E03               	movwf	PWM2_16BIT_Slice1Output2_SetInterruptHandler@InterruptHandler^(0+1280),c
  1375  002CC2  0E00               	movlw	0
  1376  002CC4  6E04               	movwf	(PWM2_16BIT_Slice1Output2_SetInterruptHandler@InterruptHandler+1)^(0+1280),c
  1377  002CC6  ECF8  F018         	call	_PWM2_16BIT_Slice1Output2_SetInterruptHandler	;wreg free
  1378  002CCA                     
  1379                           ;mcc_generated_files/pwm2_16bit.c: 128:     PWM2_16BIT_Period_SetInterruptHandler(PWM2_1
      +                          6BIT_Period_DefaultInterruptHandler);
  1380  002CCA  0E00               	movlw	0
  1381  002CCC  6E03               	movwf	PWM2_16BIT_Period_SetInterruptHandler@InterruptHandler^(0+1280),c
  1382  002CCE  0E00               	movlw	0
  1383  002CD0  6E04               	movwf	(PWM2_16BIT_Period_SetInterruptHandler@InterruptHandler+1)^(0+1280),c
  1384  002CD2  EC02  F019         	call	_PWM2_16BIT_Period_SetInterruptHandler	;wreg free
  1385  002CD6                     
  1386                           ;mcc_generated_files/pwm2_16bit.c: 131:     PWM2CON = 0x80;
  1387  002CD6  0E80               	movlw	128
  1388  002CD8  6E78               	movwf	120,c	;volatile
  1389  002CDA  0012               	return		;funcret
  1390  002CDC                     __end_of_PWM2_16BIT_Initialize:
  1391                           	callstack 0
  1392                           
  1393 ;; *************** function _PWM2_16BIT_Slice1Output2_SetInterruptHandler *****************
  1394 ;; Defined at:
  1395 ;;		line 197 in file "mcc_generated_files/pwm2_16bit.c"
  1396 ;; Parameters:    Size  Location     Type
  1397 ;;  InterruptHan    2    2[COMRAM] PTR FTN()void 
  1398 ;;		 -> PWM2_16BIT_Slice1Output2_DefaultInterruptHandler(1), 
  1399 ;; Auto vars:     Size  Location     Type
  1400 ;;		None
  1401 ;; Return value:  Size  Location     Type
  1402 ;;                  1    wreg      void 
  1403 ;; Registers used:
  1404 ;;		wreg, status,2, status,0
  1405 ;; Tracked objects:
  1406 ;;		On entry : 0/0
  1407 ;;		On exit  : 0/0
  1408 ;;		Unchanged: 0/0
  1409 ;; Data sizes:     COMRAM   BANK5   BANK6   BANK7   BANK8   BANK9  BANK10  BANK11  BANK12  BANK13  BANK14  BANK15  BANK1
      +6  BANK17  BANK18  BANK19  BANK20  BANK21  BANK22  BANK23  BANK24  BANK25  BANK26  BANK27  BANK28  BANK29  BANK30  BANK3
      +1  BANK32  BANK33  BANK34  BANK35  BANK36  BANK37
  1410 ;;      Params:         2       0       0       0       0       0       0       0       0       0       0       0       
      +0       0       0       0       0       0       0       0       0       0       0       0       0       0       0       
      +0       0       0       0       0       0       0
  1411 ;;      Locals:         0       0       0       0       0       0       0       0       0       0       0       0       
      +0       0       0       0       0       0       0       0       0       0       0       0       0       0       0       
      +0       0       0       0       0       0       0
  1412 ;;      Temps:          0       0       0       0       0       0       0       0       0       0       0       0       
      +0       0       0       0       0       0       0       0       0       0       0       0       0       0       0       
      +0       0       0       0       0       0       0
  1413 ;;      Totals:         2       0       0       0       0       0       0       0       0       0       0       0       
      +0       0       0       0       0       0       0       0       0       0       0       0       0       0       0       
      +0       0       0       0       0       0       0
  1414 ;;Total ram usage:        2 bytes
  1415 ;; Hardware stack levels used: 1
  1416 ;; Hardware stack levels required when called: 4
  1417 ;; This function calls:
  1418 ;;		Nothing
  1419 ;; This function is called by:
  1420 ;;		_PWM2_16BIT_Initialize
  1421 ;; This function uses a non-reentrant model
  1422 ;;
  1423                           
  1424                           	psect	text9
  1425  0031F0                     __ptext9:
  1426                           	callstack 0
  1427  0031F0                     _PWM2_16BIT_Slice1Output2_SetInterruptHandler:
  1428                           	callstack 120
  1429  0031F0                     
  1430                           ;mcc_generated_files/pwm2_16bit.c: 197: void PWM2_16BIT_Slice1Output2_SetInterruptHandle
      +                          r(void (* InterruptHandler)(void));mcc_generated_files/pwm2_16bit.c: 198: {;mcc_generate
      +                          d_files/pwm2_16bit.c: 199:     PWM2_16BIT_Slice1Output2_InterruptHandler = InterruptHand
      +                          ler;
  1431  0031F0  C503  F540         	movff	PWM2_16BIT_Slice1Output2_SetInterruptHandler@InterruptHandler,_PWM2_16BIT_Slice1O
      +                          utput2_InterruptHandler
  1432  0031F4  C504  F541         	movff	PWM2_16BIT_Slice1Output2_SetInterruptHandler@InterruptHandler+1,_PWM2_16BIT_Slice
      +                          1Output2_InterruptHandler+1
  1433  0031F8  0012               	return		;funcret
  1434  0031FA                     __end_of_PWM2_16BIT_Slice1Output2_SetInterruptHandler:
  1435                           	callstack 0
  1436                           
  1437 ;; *************** function _PWM2_16BIT_Slice1Output1_SetInterruptHandler *****************
  1438 ;; Defined at:
  1439 ;;		line 192 in file "mcc_generated_files/pwm2_16bit.c"
  1440 ;; Parameters:    Size  Location     Type
  1441 ;;  InterruptHan    2    2[COMRAM] PTR FTN()void 
  1442 ;;		 -> PWM2_16BIT_Slice1Output1_DefaultInterruptHandler(1), 
  1443 ;; Auto vars:     Size  Location     Type
  1444 ;;		None
  1445 ;; Return value:  Size  Location     Type
  1446 ;;                  1    wreg      void 
  1447 ;; Registers used:
  1448 ;;		wreg, status,2, status,0
  1449 ;; Tracked objects:
  1450 ;;		On entry : 0/0
  1451 ;;		On exit  : 0/0
  1452 ;;		Unchanged: 0/0
  1453 ;; Data sizes:     COMRAM   BANK5   BANK6   BANK7   BANK8   BANK9  BANK10  BANK11  BANK12  BANK13  BANK14  BANK15  BANK1
      +6  BANK17  BANK18  BANK19  BANK20  BANK21  BANK22  BANK23  BANK24  BANK25  BANK26  BANK27  BANK28  BANK29  BANK30  BANK3
      +1  BANK32  BANK33  BANK34  BANK35  BANK36  BANK37
  1454 ;;      Params:         2       0       0       0       0       0       0       0       0       0       0       0       
      +0       0       0       0       0       0       0       0       0       0       0       0       0       0       0       
      +0       0       0       0       0       0       0
  1455 ;;      Locals:         0       0       0       0       0       0       0       0       0       0       0       0       
      +0       0       0       0       0       0       0       0       0       0       0       0       0       0       0       
      +0       0       0       0       0       0       0
  1456 ;;      Temps:          0       0       0       0       0       0       0       0       0       0       0       0       
      +0       0       0       0       0       0       0       0       0       0       0       0       0       0       0       
      +0       0       0       0       0       0       0
  1457 ;;      Totals:         2       0       0       0       0       0       0       0       0       0       0       0       
      +0       0       0       0       0       0       0       0       0       0       0       0       0       0       0       
      +0       0       0       0       0       0       0
  1458 ;;Total ram usage:        2 bytes
  1459 ;; Hardware stack levels used: 1
  1460 ;; Hardware stack levels required when called: 4
  1461 ;; This function calls:
  1462 ;;		Nothing
  1463 ;; This function is called by:
  1464 ;;		_PWM2_16BIT_Initialize
  1465 ;; This function uses a non-reentrant model
  1466 ;;
  1467                           
  1468                           	psect	text10
  1469  0031FA                     __ptext10:
  1470                           	callstack 0
  1471  0031FA                     _PWM2_16BIT_Slice1Output1_SetInterruptHandler:
  1472                           	callstack 120
  1473  0031FA                     
  1474                           ;mcc_generated_files/pwm2_16bit.c: 192: void PWM2_16BIT_Slice1Output1_SetInterruptHandle
      +                          r(void (* InterruptHandler)(void));mcc_generated_files/pwm2_16bit.c: 193: {;mcc_generate
      +                          d_files/pwm2_16bit.c: 194:     PWM2_16BIT_Slice1Output1_InterruptHandler = InterruptHand
      +                          ler;
  1475  0031FA  C503  F542         	movff	PWM2_16BIT_Slice1Output1_SetInterruptHandler@InterruptHandler,_PWM2_16BIT_Slice1O
      +                          utput1_InterruptHandler
  1476  0031FE  C504  F543         	movff	PWM2_16BIT_Slice1Output1_SetInterruptHandler@InterruptHandler+1,_PWM2_16BIT_Slice
      +                          1Output1_InterruptHandler+1
  1477  003202  0012               	return		;funcret
  1478  003204                     __end_of_PWM2_16BIT_Slice1Output1_SetInterruptHandler:
  1479                           	callstack 0
  1480                           
  1481 ;; *************** function _PWM2_16BIT_Period_SetInterruptHandler *****************
  1482 ;; Defined at:
  1483 ;;		line 202 in file "mcc_generated_files/pwm2_16bit.c"
  1484 ;; Parameters:    Size  Location     Type
  1485 ;;  InterruptHan    2    2[COMRAM] PTR FTN()void 
  1486 ;;		 -> PWM2_16BIT_Period_DefaultInterruptHandler(1), 
  1487 ;; Auto vars:     Size  Location     Type
  1488 ;;		None
  1489 ;; Return value:  Size  Location     Type
  1490 ;;                  1    wreg      void 
  1491 ;; Registers used:
  1492 ;;		wreg, status,2, status,0
  1493 ;; Tracked objects:
  1494 ;;		On entry : 0/0
  1495 ;;		On exit  : 0/0
  1496 ;;		Unchanged: 0/0
  1497 ;; Data sizes:     COMRAM   BANK5   BANK6   BANK7   BANK8   BANK9  BANK10  BANK11  BANK12  BANK13  BANK14  BANK15  BANK1
      +6  BANK17  BANK18  BANK19  BANK20  BANK21  BANK22  BANK23  BANK24  BANK25  BANK26  BANK27  BANK28  BANK29  BANK30  BANK3
      +1  BANK32  BANK33  BANK34  BANK35  BANK36  BANK37
  1498 ;;      Params:         2       0       0       0       0       0       0       0       0       0       0       0       
      +0       0       0       0       0       0       0       0       0       0       0       0       0       0       0       
      +0       0       0       0       0       0       0
  1499 ;;      Locals:         0       0       0       0       0       0       0       0       0       0       0       0       
      +0       0       0       0       0       0       0       0       0       0       0       0       0       0       0       
      +0       0       0       0       0       0       0
  1500 ;;      Temps:          0       0       0       0       0       0       0       0       0       0       0       0       
      +0       0       0       0       0       0       0       0       0       0       0       0       0       0       0       
      +0       0       0       0       0       0       0
  1501 ;;      Totals:         2       0       0       0       0       0       0       0       0       0       0       0       
      +0       0       0       0       0       0       0       0       0       0       0       0       0       0       0       
      +0       0       0       0       0       0       0
  1502 ;;Total ram usage:        2 bytes
  1503 ;; Hardware stack levels used: 1
  1504 ;; Hardware stack levels required when called: 4
  1505 ;; This function calls:
  1506 ;;		Nothing
  1507 ;; This function is called by:
  1508 ;;		_PWM2_16BIT_Initialize
  1509 ;; This function uses a non-reentrant model
  1510 ;;
  1511                           
  1512                           	psect	text11
  1513  003204                     __ptext11:
  1514                           	callstack 0
  1515  003204                     _PWM2_16BIT_Period_SetInterruptHandler:
  1516                           	callstack 120
  1517  003204                     
  1518                           ;mcc_generated_files/pwm2_16bit.c: 202: void PWM2_16BIT_Period_SetInterruptHandler(void 
      +                          (* InterruptHandler)(void));mcc_generated_files/pwm2_16bit.c: 203: {;mcc_generated_files
      +                          /pwm2_16bit.c: 204:     PWM2_16BIT_Period_InterruptHandler = InterruptHandler;
  1519  003204  C503  F53E         	movff	PWM2_16BIT_Period_SetInterruptHandler@InterruptHandler,_PWM2_16BIT_Period_Interru
      +                          ptHandler
  1520  003208  C504  F53F         	movff	PWM2_16BIT_Period_SetInterruptHandler@InterruptHandler+1,_PWM2_16BIT_Period_Inter
      +                          ruptHandler+1
  1521  00320C  0012               	return		;funcret
  1522  00320E                     __end_of_PWM2_16BIT_Period_SetInterruptHandler:
  1523                           	callstack 0
  1524                           
  1525 ;; *************** function _PWM1_16BIT_Initialize *****************
  1526 ;; Defined at:
  1527 ;;		line 63 in file "mcc_generated_files/pwm1_16bit.c"
  1528 ;; Parameters:    Size  Location     Type
  1529 ;;		None
  1530 ;; Auto vars:     Size  Location     Type
  1531 ;;		None
  1532 ;; Return value:  Size  Location     Type
  1533 ;;                  1    wreg      void 
  1534 ;; Registers used:
  1535 ;;		wreg, status,2, status,0, cstack
  1536 ;; Tracked objects:
  1537 ;;		On entry : 0/0
  1538 ;;		On exit  : 0/0
  1539 ;;		Unchanged: 0/0
  1540 ;; Data sizes:     COMRAM   BANK5   BANK6   BANK7   BANK8   BANK9  BANK10  BANK11  BANK12  BANK13  BANK14  BANK15  BANK1
      +6  BANK17  BANK18  BANK19  BANK20  BANK21  BANK22  BANK23  BANK24  BANK25  BANK26  BANK27  BANK28  BANK29  BANK30  BANK3
      +1  BANK32  BANK33  BANK34  BANK35  BANK36  BANK37
  1541 ;;      Params:         0       0       0       0       0       0       0       0       0       0       0       0       
      +0       0       0       0       0       0       0       0       0       0       0       0       0       0       0       
      +0       0       0       0       0       0       0
  1542 ;;      Locals:         0       0       0       0       0       0       0       0       0       0       0       0       
      +0       0       0       0       0       0       0       0       0       0       0       0       0       0       0       
      +0       0       0       0       0       0       0
  1543 ;;      Temps:          0       0       0       0       0       0       0       0       0       0       0       0       
      +0       0       0       0       0       0       0       0       0       0       0       0       0       0       0       
      +0       0       0       0       0       0       0
  1544 ;;      Totals:         0       0       0       0       0       0       0       0       0       0       0       0       
      +0       0       0       0       0       0       0       0       0       0       0       0       0       0       0       
      +0       0       0       0       0       0       0
  1545 ;;Total ram usage:        0 bytes
  1546 ;; Hardware stack levels used: 1
  1547 ;; Hardware stack levels required when called: 5
  1548 ;; This function calls:
  1549 ;;		_PWM1_16BIT_Period_SetInterruptHandler
  1550 ;;		_PWM1_16BIT_Slice1Output1_SetInterruptHandler
  1551 ;;		_PWM1_16BIT_Slice1Output2_SetInterruptHandler
  1552 ;; This function is called by:
  1553 ;;		_SYSTEM_Initialize
  1554 ;; This function uses a non-reentrant model
  1555 ;;
  1556                           
  1557                           	psect	text12
  1558  002CDC                     __ptext12:
  1559                           	callstack 0
  1560  002CDC                     _PWM1_16BIT_Initialize:
  1561                           	callstack 120
  1562  002CDC                     
  1563                           ;mcc_generated_files/pwm1_16bit.c: 66:     PWM1ERS = 0x00;
  1564  002CDC  0E00               	movlw	0
  1565  002CDE  6E60               	movwf	96,c	;volatile
  1566                           
  1567                           ;mcc_generated_files/pwm1_16bit.c: 69:     PWM1CLK = 0x02;
  1568  002CE0  0E02               	movlw	2
  1569  002CE2  6E61               	movwf	97,c	;volatile
  1570                           
  1571                           ;mcc_generated_files/pwm1_16bit.c: 72:     PWM1LDS = 0x00;
  1572  002CE4  0E00               	movlw	0
  1573  002CE6  6E62               	movwf	98,c	;volatile
  1574                           
  1575                           ;mcc_generated_files/pwm1_16bit.c: 75:     PWM1PRL = 0x3D;
  1576  002CE8  0E3D               	movlw	61
  1577  002CEA  6E63               	movwf	99,c	;volatile
  1578                           
  1579                           ;mcc_generated_files/pwm1_16bit.c: 78:     PWM1PRH = 0x00;
  1580  002CEC  0E00               	movlw	0
  1581  002CEE  6E64               	movwf	100,c	;volatile
  1582                           
  1583                           ;mcc_generated_files/pwm1_16bit.c: 81:     PWM1CPRE = 0xFE;
  1584  002CF0  0EFE               	movlw	254
  1585  002CF2  6E65               	movwf	101,c	;volatile
  1586                           
  1587                           ;mcc_generated_files/pwm1_16bit.c: 84:     PWM1PIPOS = 0x00;
  1588  002CF4  0E00               	movlw	0
  1589  002CF6  6E66               	movwf	102,c	;volatile
  1590                           
  1591                           ;mcc_generated_files/pwm1_16bit.c: 87:     PWM1GIR = 0x00;
  1592  002CF8  0E00               	movlw	0
  1593  002CFA  6E67               	movwf	103,c	;volatile
  1594                           
  1595                           ;mcc_generated_files/pwm1_16bit.c: 90:     PWM1GIE = 0x00;
  1596  002CFC  0E00               	movlw	0
  1597  002CFE  6E68               	movwf	104,c	;volatile
  1598                           
  1599                           ;mcc_generated_files/pwm1_16bit.c: 93:     PWM1S1CFG = 0x00;
  1600  002D00  0E00               	movlw	0
  1601  002D02  6E6A               	movwf	106,c	;volatile
  1602                           
  1603                           ;mcc_generated_files/pwm1_16bit.c: 96:     PWM1S1P1L = 0x1F;
  1604  002D04  0E1F               	movlw	31
  1605  002D06  6E6B               	movwf	107,c	;volatile
  1606                           
  1607                           ;mcc_generated_files/pwm1_16bit.c: 99:     PWM1S1P1H = 0x00;
  1608  002D08  0E00               	movlw	0
  1609  002D0A  6E6C               	movwf	108,c	;volatile
  1610                           
  1611                           ;mcc_generated_files/pwm1_16bit.c: 102:     PWM1S1P2L = 0x1F;
  1612  002D0C  0E1F               	movlw	31
  1613  002D0E  6E6D               	movwf	109,c	;volatile
  1614                           
  1615                           ;mcc_generated_files/pwm1_16bit.c: 105:     PWM1S1P2H = 0x00;
  1616  002D10  0E00               	movlw	0
  1617  002D12  6E6E               	movwf	110,c	;volatile
  1618  002D14                     
  1619                           ;mcc_generated_files/pwm1_16bit.c: 108:     PIR4bits.PWM1PIF = 0;
  1620  002D14  9CB2               	bcf	178,6,c	;volatile
  1621  002D16                     
  1622                           ;mcc_generated_files/pwm1_16bit.c: 111:     PIR4bits.PWM1IF = 0;
  1623  002D16  9EB2               	bcf	178,7,c	;volatile
  1624  002D18                     
  1625                           ;mcc_generated_files/pwm1_16bit.c: 114:     PWM1GIRbits.S1P1IF = 0;
  1626  002D18  9067               	bcf	103,0,c	;volatile
  1627  002D1A                     
  1628                           ;mcc_generated_files/pwm1_16bit.c: 117:     PWM1GIRbits.S1P2IF = 0;
  1629  002D1A  9267               	bcf	103,1,c	;volatile
  1630  002D1C                     
  1631                           ;mcc_generated_files/pwm1_16bit.c: 120:     PIE4bits.PWM1IE = 0;
  1632  002D1C  9EA2               	bcf	162,7,c	;volatile
  1633  002D1E                     
  1634                           ;mcc_generated_files/pwm1_16bit.c: 123:     PIE4bits.PWM1PIE = 0;
  1635  002D1E  9CA2               	bcf	162,6,c	;volatile
  1636  002D20                     
  1637                           ;mcc_generated_files/pwm1_16bit.c: 126:     PWM1_16BIT_Slice1Output1_SetInterruptHandler
      +                          (PWM1_16BIT_Slice1Output1_DefaultInterruptHandler);
  1638  002D20  0E00               	movlw	0
  1639  002D22  6E03               	movwf	PWM1_16BIT_Slice1Output1_SetInterruptHandler@InterruptHandler^(0+1280),c
  1640  002D24  0E00               	movlw	0
  1641  002D26  6E04               	movwf	(PWM1_16BIT_Slice1Output1_SetInterruptHandler@InterruptHandler+1)^(0+1280),c
  1642  002D28  EC0C  F019         	call	_PWM1_16BIT_Slice1Output1_SetInterruptHandler	;wreg free
  1643  002D2C                     
  1644                           ;mcc_generated_files/pwm1_16bit.c: 127:     PWM1_16BIT_Slice1Output2_SetInterruptHandler
      +                          (PWM1_16BIT_Slice1Output2_DefaultInterruptHandler);
  1645  002D2C  0E00               	movlw	0
  1646  002D2E  6E03               	movwf	PWM1_16BIT_Slice1Output2_SetInterruptHandler@InterruptHandler^(0+1280),c
  1647  002D30  0E00               	movlw	0
  1648  002D32  6E04               	movwf	(PWM1_16BIT_Slice1Output2_SetInterruptHandler@InterruptHandler+1)^(0+1280),c
  1649  002D34  EC07  F019         	call	_PWM1_16BIT_Slice1Output2_SetInterruptHandler	;wreg free
  1650  002D38                     
  1651                           ;mcc_generated_files/pwm1_16bit.c: 128:     PWM1_16BIT_Period_SetInterruptHandler(PWM1_1
      +                          6BIT_Period_DefaultInterruptHandler);
  1652  002D38  0E00               	movlw	0
  1653  002D3A  6E03               	movwf	PWM1_16BIT_Period_SetInterruptHandler@InterruptHandler^(0+1280),c
  1654  002D3C  0E00               	movlw	0
  1655  002D3E  6E04               	movwf	(PWM1_16BIT_Period_SetInterruptHandler@InterruptHandler+1)^(0+1280),c
  1656  002D40  EC11  F019         	call	_PWM1_16BIT_Period_SetInterruptHandler	;wreg free
  1657  002D44                     
  1658                           ;mcc_generated_files/pwm1_16bit.c: 131:     PWM1CON = 0x80;
  1659  002D44  0E80               	movlw	128
  1660  002D46  6E69               	movwf	105,c	;volatile
  1661  002D48  0012               	return		;funcret
  1662  002D4A                     __end_of_PWM1_16BIT_Initialize:
  1663                           	callstack 0
  1664                           
  1665 ;; *************** function _PWM1_16BIT_Slice1Output2_SetInterruptHandler *****************
  1666 ;; Defined at:
  1667 ;;		line 197 in file "mcc_generated_files/pwm1_16bit.c"
  1668 ;; Parameters:    Size  Location     Type
  1669 ;;  InterruptHan    2    2[COMRAM] PTR FTN()void 
  1670 ;;		 -> PWM1_16BIT_Slice1Output2_DefaultInterruptHandler(1), 
  1671 ;; Auto vars:     Size  Location     Type
  1672 ;;		None
  1673 ;; Return value:  Size  Location     Type
  1674 ;;                  1    wreg      void 
  1675 ;; Registers used:
  1676 ;;		wreg, status,2, status,0
  1677 ;; Tracked objects:
  1678 ;;		On entry : 0/0
  1679 ;;		On exit  : 0/0
  1680 ;;		Unchanged: 0/0
  1681 ;; Data sizes:     COMRAM   BANK5   BANK6   BANK7   BANK8   BANK9  BANK10  BANK11  BANK12  BANK13  BANK14  BANK15  BANK1
      +6  BANK17  BANK18  BANK19  BANK20  BANK21  BANK22  BANK23  BANK24  BANK25  BANK26  BANK27  BANK28  BANK29  BANK30  BANK3
      +1  BANK32  BANK33  BANK34  BANK35  BANK36  BANK37
  1682 ;;      Params:         2       0       0       0       0       0       0       0       0       0       0       0       
      +0       0       0       0       0       0       0       0       0       0       0       0       0       0       0       
      +0       0       0       0       0       0       0
  1683 ;;      Locals:         0       0       0       0       0       0       0       0       0       0       0       0       
      +0       0       0       0       0       0       0       0       0       0       0       0       0       0       0       
      +0       0       0       0       0       0       0
  1684 ;;      Temps:          0       0       0       0       0       0       0       0       0       0       0       0       
      +0       0       0       0       0       0       0       0       0       0       0       0       0       0       0       
      +0       0       0       0       0       0       0
  1685 ;;      Totals:         2       0       0       0       0       0       0       0       0       0       0       0       
      +0       0       0       0       0       0       0       0       0       0       0       0       0       0       0       
      +0       0       0       0       0       0       0
  1686 ;;Total ram usage:        2 bytes
  1687 ;; Hardware stack levels used: 1
  1688 ;; Hardware stack levels required when called: 4
  1689 ;; This function calls:
  1690 ;;		Nothing
  1691 ;; This function is called by:
  1692 ;;		_PWM1_16BIT_Initialize
  1693 ;; This function uses a non-reentrant model
  1694 ;;
  1695                           
  1696                           	psect	text13
  1697  00320E                     __ptext13:
  1698                           	callstack 0
  1699  00320E                     _PWM1_16BIT_Slice1Output2_SetInterruptHandler:
  1700                           	callstack 120
  1701  00320E                     
  1702                           ;mcc_generated_files/pwm1_16bit.c: 197: void PWM1_16BIT_Slice1Output2_SetInterruptHandle
      +                          r(void (* InterruptHandler)(void));mcc_generated_files/pwm1_16bit.c: 198: {;mcc_generate
      +                          d_files/pwm1_16bit.c: 199:     PWM1_16BIT_Slice1Output2_InterruptHandler = InterruptHand
      +                          ler;
  1703  00320E  C503  F550         	movff	PWM1_16BIT_Slice1Output2_SetInterruptHandler@InterruptHandler,_PWM1_16BIT_Slice1O
      +                          utput2_InterruptHandler
  1704  003212  C504  F551         	movff	PWM1_16BIT_Slice1Output2_SetInterruptHandler@InterruptHandler+1,_PWM1_16BIT_Slice
      +                          1Output2_InterruptHandler+1
  1705  003216  0012               	return		;funcret
  1706  003218                     __end_of_PWM1_16BIT_Slice1Output2_SetInterruptHandler:
  1707                           	callstack 0
  1708                           
  1709 ;; *************** function _PWM1_16BIT_Slice1Output1_SetInterruptHandler *****************
  1710 ;; Defined at:
  1711 ;;		line 192 in file "mcc_generated_files/pwm1_16bit.c"
  1712 ;; Parameters:    Size  Location     Type
  1713 ;;  InterruptHan    2    2[COMRAM] PTR FTN()void 
  1714 ;;		 -> PWM1_16BIT_Slice1Output1_DefaultInterruptHandler(1), 
  1715 ;; Auto vars:     Size  Location     Type
  1716 ;;		None
  1717 ;; Return value:  Size  Location     Type
  1718 ;;                  1    wreg      void 
  1719 ;; Registers used:
  1720 ;;		wreg, status,2, status,0
  1721 ;; Tracked objects:
  1722 ;;		On entry : 0/0
  1723 ;;		On exit  : 0/0
  1724 ;;		Unchanged: 0/0
  1725 ;; Data sizes:     COMRAM   BANK5   BANK6   BANK7   BANK8   BANK9  BANK10  BANK11  BANK12  BANK13  BANK14  BANK15  BANK1
      +6  BANK17  BANK18  BANK19  BANK20  BANK21  BANK22  BANK23  BANK24  BANK25  BANK26  BANK27  BANK28  BANK29  BANK30  BANK3
      +1  BANK32  BANK33  BANK34  BANK35  BANK36  BANK37
  1726 ;;      Params:         2       0       0       0       0       0       0       0       0       0       0       0       
      +0       0       0       0       0       0       0       0       0       0       0       0       0       0       0       
      +0       0       0       0       0       0       0
  1727 ;;      Locals:         0       0       0       0       0       0       0       0       0       0       0       0       
      +0       0       0       0       0       0       0       0       0       0       0       0       0       0       0       
      +0       0       0       0       0       0       0
  1728 ;;      Temps:          0       0       0       0       0       0       0       0       0       0       0       0       
      +0       0       0       0       0       0       0       0       0       0       0       0       0       0       0       
      +0       0       0       0       0       0       0
  1729 ;;      Totals:         2       0       0       0       0       0       0       0       0       0       0       0       
      +0       0       0       0       0       0       0       0       0       0       0       0       0       0       0       
      +0       0       0       0       0       0       0
  1730 ;;Total ram usage:        2 bytes
  1731 ;; Hardware stack levels used: 1
  1732 ;; Hardware stack levels required when called: 4
  1733 ;; This function calls:
  1734 ;;		Nothing
  1735 ;; This function is called by:
  1736 ;;		_PWM1_16BIT_Initialize
  1737 ;; This function uses a non-reentrant model
  1738 ;;
  1739                           
  1740                           	psect	text14
  1741  003218                     __ptext14:
  1742                           	callstack 0
  1743  003218                     _PWM1_16BIT_Slice1Output1_SetInterruptHandler:
  1744                           	callstack 120
  1745  003218                     
  1746                           ;mcc_generated_files/pwm1_16bit.c: 192: void PWM1_16BIT_Slice1Output1_SetInterruptHandle
      +                          r(void (* InterruptHandler)(void));mcc_generated_files/pwm1_16bit.c: 193: {;mcc_generate
      +                          d_files/pwm1_16bit.c: 194:     PWM1_16BIT_Slice1Output1_InterruptHandler = InterruptHand
      +                          ler;
  1747  003218  C503  F552         	movff	PWM1_16BIT_Slice1Output1_SetInterruptHandler@InterruptHandler,_PWM1_16BIT_Slice1O
      +                          utput1_InterruptHandler
  1748  00321C  C504  F553         	movff	PWM1_16BIT_Slice1Output1_SetInterruptHandler@InterruptHandler+1,_PWM1_16BIT_Slice
      +                          1Output1_InterruptHandler+1
  1749  003220  0012               	return		;funcret
  1750  003222                     __end_of_PWM1_16BIT_Slice1Output1_SetInterruptHandler:
  1751                           	callstack 0
  1752                           
  1753 ;; *************** function _PWM1_16BIT_Period_SetInterruptHandler *****************
  1754 ;; Defined at:
  1755 ;;		line 202 in file "mcc_generated_files/pwm1_16bit.c"
  1756 ;; Parameters:    Size  Location     Type
  1757 ;;  InterruptHan    2    2[COMRAM] PTR FTN()void 
  1758 ;;		 -> PWM1_16BIT_Period_DefaultInterruptHandler(1), 
  1759 ;; Auto vars:     Size  Location     Type
  1760 ;;		None
  1761 ;; Return value:  Size  Location     Type
  1762 ;;                  1    wreg      void 
  1763 ;; Registers used:
  1764 ;;		wreg, status,2, status,0
  1765 ;; Tracked objects:
  1766 ;;		On entry : 0/0
  1767 ;;		On exit  : 0/0
  1768 ;;		Unchanged: 0/0
  1769 ;; Data sizes:     COMRAM   BANK5   BANK6   BANK7   BANK8   BANK9  BANK10  BANK11  BANK12  BANK13  BANK14  BANK15  BANK1
      +6  BANK17  BANK18  BANK19  BANK20  BANK21  BANK22  BANK23  BANK24  BANK25  BANK26  BANK27  BANK28  BANK29  BANK30  BANK3
      +1  BANK32  BANK33  BANK34  BANK35  BANK36  BANK37
  1770 ;;      Params:         2       0       0       0       0       0       0       0       0       0       0       0       
      +0       0       0       0       0       0       0       0       0       0       0       0       0       0       0       
      +0       0       0       0       0       0       0
  1771 ;;      Locals:         0       0       0       0       0       0       0       0       0       0       0       0       
      +0       0       0       0       0       0       0       0       0       0       0       0       0       0       0       
      +0       0       0       0       0       0       0
  1772 ;;      Temps:          0       0       0       0       0       0       0       0       0       0       0       0       
      +0       0       0       0       0       0       0       0       0       0       0       0       0       0       0       
      +0       0       0       0       0       0       0
  1773 ;;      Totals:         2       0       0       0       0       0       0       0       0       0       0       0       
      +0       0       0       0       0       0       0       0       0       0       0       0       0       0       0       
      +0       0       0       0       0       0       0
  1774 ;;Total ram usage:        2 bytes
  1775 ;; Hardware stack levels used: 1
  1776 ;; Hardware stack levels required when called: 4
  1777 ;; This function calls:
  1778 ;;		Nothing
  1779 ;; This function is called by:
  1780 ;;		_PWM1_16BIT_Initialize
  1781 ;; This function uses a non-reentrant model
  1782 ;;
  1783                           
  1784                           	psect	text15
  1785  003222                     __ptext15:
  1786                           	callstack 0
  1787  003222                     _PWM1_16BIT_Period_SetInterruptHandler:
  1788                           	callstack 120
  1789  003222                     
  1790                           ;mcc_generated_files/pwm1_16bit.c: 202: void PWM1_16BIT_Period_SetInterruptHandler(void 
      +                          (* InterruptHandler)(void));mcc_generated_files/pwm1_16bit.c: 203: {;mcc_generated_files
      +                          /pwm1_16bit.c: 204:     PWM1_16BIT_Period_InterruptHandler = InterruptHandler;
  1791  003222  C503  F54E         	movff	PWM1_16BIT_Period_SetInterruptHandler@InterruptHandler,_PWM1_16BIT_Period_Interru
      +                          ptHandler
  1792  003226  C504  F54F         	movff	PWM1_16BIT_Period_SetInterruptHandler@InterruptHandler+1,_PWM1_16BIT_Period_Inter
      +                          ruptHandler+1
  1793  00322A  0012               	return		;funcret
  1794  00322C                     __end_of_PWM1_16BIT_Period_SetInterruptHandler:
  1795                           	callstack 0
  1796                           
  1797 ;; *************** function _PMD_Initialize *****************
  1798 ;; Defined at:
  1799 ;;		line 84 in file "mcc_generated_files/mcc.c"
  1800 ;; Parameters:    Size  Location     Type
  1801 ;;		None
  1802 ;; Auto vars:     Size  Location     Type
  1803 ;;		None
  1804 ;; Return value:  Size  Location     Type
  1805 ;;                  1    wreg      void 
  1806 ;; Registers used:
  1807 ;;		wreg, status,2
  1808 ;; Tracked objects:
  1809 ;;		On entry : 0/0
  1810 ;;		On exit  : 0/0
  1811 ;;		Unchanged: 0/0
  1812 ;; Data sizes:     COMRAM   BANK5   BANK6   BANK7   BANK8   BANK9  BANK10  BANK11  BANK12  BANK13  BANK14  BANK15  BANK1
      +6  BANK17  BANK18  BANK19  BANK20  BANK21  BANK22  BANK23  BANK24  BANK25  BANK26  BANK27  BANK28  BANK29  BANK30  BANK3
      +1  BANK32  BANK33  BANK34  BANK35  BANK36  BANK37
  1813 ;;      Params:         0       0       0       0       0       0       0       0       0       0       0       0       
      +0       0       0       0       0       0       0       0       0       0       0       0       0       0       0       
      +0       0       0       0       0       0       0
  1814 ;;      Locals:         0       0       0       0       0       0       0       0       0       0       0       0       
      +0       0       0       0       0       0       0       0       0       0       0       0       0       0       0       
      +0       0       0       0       0       0       0
  1815 ;;      Temps:          0       0       0       0       0       0       0       0       0       0       0       0       
      +0       0       0       0       0       0       0       0       0       0       0       0       0       0       0       
      +0       0       0       0       0       0       0
  1816 ;;      Totals:         0       0       0       0       0       0       0       0       0       0       0       0       
      +0       0       0       0       0       0       0       0       0       0       0       0       0       0       0       
      +0       0       0       0       0       0       0
  1817 ;;Total ram usage:        0 bytes
  1818 ;; Hardware stack levels used: 1
  1819 ;; Hardware stack levels required when called: 4
  1820 ;; This function calls:
  1821 ;;		Nothing
  1822 ;; This function is called by:
  1823 ;;		_SYSTEM_Initialize
  1824 ;; This function uses a non-reentrant model
  1825 ;;
  1826                           
  1827                           	psect	text16
  1828  0030BC                     __ptext16:
  1829                           	callstack 0
  1830  0030BC                     _PMD_Initialize:
  1831                           	callstack 121
  1832  0030BC                     
  1833                           ;mcc_generated_files/mcc.c: 87:     PMD0 = 0x00;
  1834  0030BC  0E00               	movlw	0
  1835  0030BE  0100               	movlb	0	; () banked
  1836  0030C0  6F60               	movwf	96,b	;volatile
  1837                           
  1838                           ;mcc_generated_files/mcc.c: 89:     PMD1 = 0x00;
  1839  0030C2  0E00               	movlw	0
  1840  0030C4  6F61               	movwf	97,b	;volatile
  1841                           
  1842                           ;mcc_generated_files/mcc.c: 91:     PMD2 = 0x00;
  1843  0030C6  0E00               	movlw	0
  1844  0030C8  6F62               	movwf	98,b	;volatile
  1845                           
  1846                           ;mcc_generated_files/mcc.c: 93:     PMD3 = 0x00;
  1847  0030CA  0E00               	movlw	0
  1848  0030CC  6F63               	movwf	99,b	;volatile
  1849                           
  1850                           ;mcc_generated_files/mcc.c: 95:     PMD4 = 0x00;
  1851  0030CE  0E00               	movlw	0
  1852  0030D0  6F64               	movwf	100,b	;volatile
  1853                           
  1854                           ;mcc_generated_files/mcc.c: 97:     PMD5 = 0x00;
  1855  0030D2  0E00               	movlw	0
  1856  0030D4  6F65               	movwf	101,b	;volatile
  1857                           
  1858                           ;mcc_generated_files/mcc.c: 99:     PMD6 = 0x00;
  1859  0030D6  0E00               	movlw	0
  1860  0030D8  6F66               	movwf	102,b	;volatile
  1861                           
  1862                           ;mcc_generated_files/mcc.c: 101:     PMD7 = 0x00;
  1863  0030DA  0E00               	movlw	0
  1864  0030DC  6F67               	movwf	103,b	;volatile
  1865                           
  1866                           ;mcc_generated_files/mcc.c: 103:     PMD8 = 0x00;
  1867  0030DE  0E00               	movlw	0
  1868  0030E0  6F68               	movwf	104,b	;volatile
  1869  0030E2                     
  1870                           ; BSR set to: 0
  1871  0030E2  0012               	return		;funcret
  1872  0030E4                     __end_of_PMD_Initialize:
  1873                           	callstack 0
  1874                           
  1875 ;; *************** function _PIN_MANAGER_Initialize *****************
  1876 ;; Defined at:
  1877 ;;		line 55 in file "mcc_generated_files/pin_manager.c"
  1878 ;; Parameters:    Size  Location     Type
  1879 ;;		None
  1880 ;; Auto vars:     Size  Location     Type
  1881 ;;		None
  1882 ;; Return value:  Size  Location     Type
  1883 ;;                  1    wreg      void 
  1884 ;; Registers used:
  1885 ;;		wreg, status,2
  1886 ;; Tracked objects:
  1887 ;;		On entry : 0/0
  1888 ;;		On exit  : 0/0
  1889 ;;		Unchanged: 0/0
  1890 ;; Data sizes:     COMRAM   BANK5   BANK6   BANK7   BANK8   BANK9  BANK10  BANK11  BANK12  BANK13  BANK14  BANK15  BANK1
      +6  BANK17  BANK18  BANK19  BANK20  BANK21  BANK22  BANK23  BANK24  BANK25  BANK26  BANK27  BANK28  BANK29  BANK30  BANK3
      +1  BANK32  BANK33  BANK34  BANK35  BANK36  BANK37
  1891 ;;      Params:         0       0       0       0       0       0       0       0       0       0       0       0       
      +0       0       0       0       0       0       0       0       0       0       0       0       0       0       0       
      +0       0       0       0       0       0       0
  1892 ;;      Locals:         0       0       0       0       0       0       0       0       0       0       0       0       
      +0       0       0       0       0       0       0       0       0       0       0       0       0       0       0       
      +0       0       0       0       0       0       0
  1893 ;;      Temps:          0       0       0       0       0       0       0       0       0       0       0       0       
      +0       0       0       0       0       0       0       0       0       0       0       0       0       0       0       
      +0       0       0       0       0       0       0
  1894 ;;      Totals:         0       0       0       0       0       0       0       0       0       0       0       0       
      +0       0       0       0       0       0       0       0       0       0       0       0       0       0       0       
      +0       0       0       0       0       0       0
  1895 ;;Total ram usage:        0 bytes
  1896 ;; Hardware stack levels used: 1
  1897 ;; Hardware stack levels required when called: 4
  1898 ;; This function calls:
  1899 ;;		Nothing
  1900 ;; This function is called by:
  1901 ;;		_SYSTEM_Initialize
  1902 ;; This function uses a non-reentrant model
  1903 ;;
  1904                           
  1905                           	psect	text17
  1906  002BF8                     __ptext17:
  1907                           	callstack 0
  1908  002BF8                     _PIN_MANAGER_Initialize:
  1909                           	callstack 121
  1910  002BF8                     
  1911                           ;mcc_generated_files/pin_manager.c: 60:     LATA = 0x00;
  1912  002BF8  0E00               	movlw	0
  1913  002BFA  6EBE               	movwf	190,c	;volatile
  1914                           
  1915                           ;mcc_generated_files/pin_manager.c: 61:     LATB = 0x00;
  1916  002BFC  0E00               	movlw	0
  1917  002BFE  6EBF               	movwf	191,c	;volatile
  1918                           
  1919                           ;mcc_generated_files/pin_manager.c: 62:     LATC = 0x00;
  1920  002C00  0E00               	movlw	0
  1921  002C02  6EC0               	movwf	192,c	;volatile
  1922                           
  1923                           ;mcc_generated_files/pin_manager.c: 67:     TRISE = 0x08;
  1924  002C04  0E08               	movlw	8
  1925  002C06  6ECA               	movwf	202,c	;volatile
  1926                           
  1927                           ;mcc_generated_files/pin_manager.c: 68:     TRISA = 0xEF;
  1928  002C08  0EEF               	movlw	239
  1929  002C0A  6EC6               	movwf	198,c	;volatile
  1930                           
  1931                           ;mcc_generated_files/pin_manager.c: 69:     TRISB = 0xC9;
  1932  002C0C  0EC9               	movlw	201
  1933  002C0E  6EC7               	movwf	199,c	;volatile
  1934                           
  1935                           ;mcc_generated_files/pin_manager.c: 70:     TRISC = 0xDC;
  1936  002C10  0EDC               	movlw	220
  1937  002C12  6EC8               	movwf	200,c	;volatile
  1938                           
  1939                           ;mcc_generated_files/pin_manager.c: 75:     ANSELC = 0xFB;
  1940  002C14  0EFB               	movlw	251
  1941  002C16  0104               	movlb	4	; () banked
  1942  002C18  6F10               	movwf	16,b	;volatile
  1943                           
  1944                           ;mcc_generated_files/pin_manager.c: 76:     ANSELB = 0x77;
  1945  002C1A  0E77               	movlw	119
  1946  002C1C  6F08               	movwf	8,b	;volatile
  1947                           
  1948                           ;mcc_generated_files/pin_manager.c: 77:     ANSELA = 0xDF;
  1949  002C1E  0EDF               	movlw	223
  1950  002C20  6F00               	movwf	0,b	;volatile
  1951                           
  1952                           ;mcc_generated_files/pin_manager.c: 82:     WPUE = 0x00;
  1953  002C22  0E00               	movlw	0
  1954  002C24  6F21               	movwf	33,b	;volatile
  1955                           
  1956                           ;mcc_generated_files/pin_manager.c: 83:     WPUB = 0x00;
  1957  002C26  0E00               	movlw	0
  1958  002C28  6F09               	movwf	9,b	;volatile
  1959                           
  1960                           ;mcc_generated_files/pin_manager.c: 84:     WPUA = 0x00;
  1961  002C2A  0E00               	movlw	0
  1962  002C2C  6F01               	movwf	1,b	;volatile
  1963                           
  1964                           ;mcc_generated_files/pin_manager.c: 85:     WPUC = 0x00;
  1965  002C2E  0E00               	movlw	0
  1966  002C30  6F11               	movwf	17,b	;volatile
  1967                           
  1968                           ;mcc_generated_files/pin_manager.c: 90:     ODCONA = 0x00;
  1969  002C32  0E00               	movlw	0
  1970  002C34  6F02               	movwf	2,b	;volatile
  1971                           
  1972                           ;mcc_generated_files/pin_manager.c: 91:     ODCONB = 0x00;
  1973  002C36  0E00               	movlw	0
  1974  002C38  6F0A               	movwf	10,b	;volatile
  1975                           
  1976                           ;mcc_generated_files/pin_manager.c: 92:     ODCONC = 0x10;
  1977  002C3A  0E10               	movlw	16
  1978  002C3C  6F12               	movwf	18,b	;volatile
  1979  002C3E                     
  1980                           ; BSR set to: 4
  1981                           ;mcc_generated_files/pin_manager.c: 97:     SLRCONA = 0xFF;
  1982  002C3E  6903               	setf	3,b	;volatile
  1983  002C40                     
  1984                           ; BSR set to: 4
  1985                           ;mcc_generated_files/pin_manager.c: 98:     SLRCONB = 0xFF;
  1986  002C40  690B               	setf	11,b	;volatile
  1987  002C42                     
  1988                           ; BSR set to: 4
  1989                           ;mcc_generated_files/pin_manager.c: 99:     SLRCONC = 0xFF;
  1990  002C42  6913               	setf	19,b	;volatile
  1991  002C44                     
  1992                           ; BSR set to: 4
  1993                           ;mcc_generated_files/pin_manager.c: 104:     INLVLA = 0xFF;
  1994  002C44  6904               	setf	4,b	;volatile
  1995  002C46                     
  1996                           ; BSR set to: 4
  1997                           ;mcc_generated_files/pin_manager.c: 105:     INLVLB = 0xFF;
  1998  002C46  690C               	setf	12,b	;volatile
  1999  002C48                     
  2000                           ; BSR set to: 4
  2001                           ;mcc_generated_files/pin_manager.c: 106:     INLVLC = 0xFF;
  2002  002C48  6914               	setf	20,b	;volatile
  2003                           
  2004                           ;mcc_generated_files/pin_manager.c: 107:     INLVLE = 0x08;
  2005  002C4A  0E08               	movlw	8
  2006  002C4C  6F24               	movwf	36,b	;volatile
  2007                           
  2008                           ;mcc_generated_files/pin_manager.c: 116:     RC0PPS = 0x18;
  2009  002C4E  0E18               	movlw	24
  2010  002C50  0102               	movlb	2	; () banked
  2011  002C52  6F11               	movwf	17,b	;volatile
  2012                           
  2013                           ;mcc_generated_files/pin_manager.c: 117:     ADACTPPS = 0x0F;
  2014  002C54  0E0F               	movlw	15
  2015  002C56  6F69               	movwf	105,b	;volatile
  2016                           
  2017                           ;mcc_generated_files/pin_manager.c: 118:     INT0PPS = 0x05;
  2018  002C58  0E05               	movlw	5
  2019  002C5A  6F3E               	movwf	62,b	;volatile
  2020                           
  2021                           ;mcc_generated_files/pin_manager.c: 119:     RC1PPS = 0x1A;
  2022  002C5C  0E1A               	movlw	26
  2023  002C5E  6F12               	movwf	18,b	;volatile
  2024                           
  2025                           ;mcc_generated_files/pin_manager.c: 120:     CANRXPPS = 0x0B;
  2026  002C60  0E0B               	movlw	11
  2027  002C62  6F3D               	movwf	61,b	;volatile
  2028                           
  2029                           ;mcc_generated_files/pin_manager.c: 121:     RB4PPS = 0x46;
  2030  002C64  0E46               	movlw	70
  2031  002C66  6F0D               	movwf	13,b	;volatile
  2032  002C68                     
  2033                           ; BSR set to: 2
  2034  002C68  9AC7               	bcf	199,5,c	;volatile
  2035  002C6A                     
  2036                           ; BSR set to: 2
  2037  002C6A  8ABF               	bsf	191,5,c	;volatile
  2038  002C6C                     
  2039                           ; BSR set to: 2
  2040  002C6C  0012               	return		;funcret
  2041  002C6E                     __end_of_PIN_MANAGER_Initialize:
  2042                           	callstack 0
  2043                           
  2044 ;; *************** function _OSCILLATOR_Initialize *****************
  2045 ;; Defined at:
  2046 ;;		line 66 in file "mcc_generated_files/mcc.c"
  2047 ;; Parameters:    Size  Location     Type
  2048 ;;		None
  2049 ;; Auto vars:     Size  Location     Type
  2050 ;;		None
  2051 ;; Return value:  Size  Location     Type
  2052 ;;                  1    wreg      void 
  2053 ;; Registers used:
  2054 ;;		wreg, status,2
  2055 ;; Tracked objects:
  2056 ;;		On entry : 0/0
  2057 ;;		On exit  : 0/0
  2058 ;;		Unchanged: 0/0
  2059 ;; Data sizes:     COMRAM   BANK5   BANK6   BANK7   BANK8   BANK9  BANK10  BANK11  BANK12  BANK13  BANK14  BANK15  BANK1
      +6  BANK17  BANK18  BANK19  BANK20  BANK21  BANK22  BANK23  BANK24  BANK25  BANK26  BANK27  BANK28  BANK29  BANK30  BANK3
      +1  BANK32  BANK33  BANK34  BANK35  BANK36  BANK37
  2060 ;;      Params:         0       0       0       0       0       0       0       0       0       0       0       0       
      +0       0       0       0       0       0       0       0       0       0       0       0       0       0       0       
      +0       0       0       0       0       0       0
  2061 ;;      Locals:         0       0       0       0       0       0       0       0       0       0       0       0       
      +0       0       0       0       0       0       0       0       0       0       0       0       0       0       0       
      +0       0       0       0       0       0       0
  2062 ;;      Temps:          0       0       0       0       0       0       0       0       0       0       0       0       
      +0       0       0       0       0       0       0       0       0       0       0       0       0       0       0       
      +0       0       0       0       0       0       0
  2063 ;;      Totals:         0       0       0       0       0       0       0       0       0       0       0       0       
      +0       0       0       0       0       0       0       0       0       0       0       0       0       0       0       
      +0       0       0       0       0       0       0
  2064 ;;Total ram usage:        0 bytes
  2065 ;; Hardware stack levels used: 1
  2066 ;; Hardware stack levels required when called: 4
  2067 ;; This function calls:
  2068 ;;		Nothing
  2069 ;; This function is called by:
  2070 ;;		_SYSTEM_Initialize
  2071 ;; This function uses a non-reentrant model
  2072 ;;
  2073                           
  2074                           	psect	text18
  2075  003152                     __ptext18:
  2076                           	callstack 0
  2077  003152                     _OSCILLATOR_Initialize:
  2078                           	callstack 121
  2079  003152                     
  2080                           ;mcc_generated_files/mcc.c: 69:     OSCCON1 = 0x72;
  2081  003152  0E72               	movlw	114
  2082  003154  0100               	movlb	0	; () banked
  2083  003156  6FAD               	movwf	173,b	;volatile
  2084                           
  2085                           ;mcc_generated_files/mcc.c: 71:     OSCCON3 = 0x00;
  2086  003158  0E00               	movlw	0
  2087  00315A  6FAF               	movwf	175,b	;volatile
  2088                           
  2089                           ;mcc_generated_files/mcc.c: 73:     OSCEN = 0x01;
  2090  00315C  0E01               	movlw	1
  2091  00315E  6FB3               	movwf	179,b	;volatile
  2092                           
  2093                           ;mcc_generated_files/mcc.c: 75:     OSCFRQ = 0x02;
  2094  003160  0E02               	movlw	2
  2095  003162  6FB1               	movwf	177,b	;volatile
  2096                           
  2097                           ;mcc_generated_files/mcc.c: 77:     OSCTUNE = 0x00;
  2098  003164  0E00               	movlw	0
  2099  003166  6FB0               	movwf	176,b	;volatile
  2100  003168                     
  2101                           ; BSR set to: 0
  2102  003168  0012               	return		;funcret
  2103  00316A                     __end_of_OSCILLATOR_Initialize:
  2104                           	callstack 0
  2105                           
  2106 ;; *************** function _INTERRUPT_Initialize *****************
  2107 ;; Defined at:
  2108 ;;		line 52 in file "mcc_generated_files/interrupt_manager.c"
  2109 ;; Parameters:    Size  Location     Type
  2110 ;;		None
  2111 ;; Auto vars:     Size  Location     Type
  2112 ;;		None
  2113 ;; Return value:  Size  Location     Type
  2114 ;;                  1    wreg      void 
  2115 ;; Registers used:
  2116 ;;		None
  2117 ;; Tracked objects:
  2118 ;;		On entry : 0/0
  2119 ;;		On exit  : 0/0
  2120 ;;		Unchanged: 0/0
  2121 ;; Data sizes:     COMRAM   BANK5   BANK6   BANK7   BANK8   BANK9  BANK10  BANK11  BANK12  BANK13  BANK14  BANK15  BANK1
      +6  BANK17  BANK18  BANK19  BANK20  BANK21  BANK22  BANK23  BANK24  BANK25  BANK26  BANK27  BANK28  BANK29  BANK30  BANK3
      +1  BANK32  BANK33  BANK34  BANK35  BANK36  BANK37
  2122 ;;      Params:         0       0       0       0       0       0       0       0       0       0       0       0       
      +0       0       0       0       0       0       0       0       0       0       0       0       0       0       0       
      +0       0       0       0       0       0       0
  2123 ;;      Locals:         0       0       0       0       0       0       0       0       0       0       0       0       
      +0       0       0       0       0       0       0       0       0       0       0       0       0       0       0       
      +0       0       0       0       0       0       0
  2124 ;;      Temps:          0       0       0       0       0       0       0       0       0       0       0       0       
      +0       0       0       0       0       0       0       0       0       0       0       0       0       0       0       
      +0       0       0       0       0       0       0
  2125 ;;      Totals:         0       0       0       0       0       0       0       0       0       0       0       0       
      +0       0       0       0       0       0       0       0       0       0       0       0       0       0       0       
      +0       0       0       0       0       0       0
  2126 ;;Total ram usage:        0 bytes
  2127 ;; Hardware stack levels used: 1
  2128 ;; Hardware stack levels required when called: 4
  2129 ;; This function calls:
  2130 ;;		Nothing
  2131 ;; This function is called by:
  2132 ;;		_SYSTEM_Initialize
  2133 ;; This function uses a non-reentrant model
  2134 ;;
  2135                           
  2136                           	psect	text19
  2137  00326E                     __ptext19:
  2138                           	callstack 0
  2139  00326E                     _INTERRUPT_Initialize:
  2140                           	callstack 121
  2141  00326E                     
  2142                           ;mcc_generated_files/interrupt_manager.c: 55:     INTCON0bits.IPEN = 0;
  2143  00326E  9AD6               	bcf	214,5,c	;volatile
  2144  003270  0012               	return		;funcret
  2145  003272                     __end_of_INTERRUPT_Initialize:
  2146                           	callstack 0
  2147                           
  2148 ;; *************** function _EXT_INT_Initialize *****************
  2149 ;; Defined at:
  2150 ;;		line 59 in file "mcc_generated_files/ext_int.c"
  2151 ;; Parameters:    Size  Location     Type
  2152 ;;		None
  2153 ;; Auto vars:     Size  Location     Type
  2154 ;;		None
  2155 ;; Return value:  Size  Location     Type
  2156 ;;                  1    wreg      void 
  2157 ;; Registers used:
  2158 ;;		wreg, status,2, status,0, cstack
  2159 ;; Tracked objects:
  2160 ;;		On entry : 0/0
  2161 ;;		On exit  : 0/0
  2162 ;;		Unchanged: 0/0
  2163 ;; Data sizes:     COMRAM   BANK5   BANK6   BANK7   BANK8   BANK9  BANK10  BANK11  BANK12  BANK13  BANK14  BANK15  BANK1
      +6  BANK17  BANK18  BANK19  BANK20  BANK21  BANK22  BANK23  BANK24  BANK25  BANK26  BANK27  BANK28  BANK29  BANK30  BANK3
      +1  BANK32  BANK33  BANK34  BANK35  BANK36  BANK37
  2164 ;;      Params:         0       0       0       0       0       0       0       0       0       0       0       0       
      +0       0       0       0       0       0       0       0       0       0       0       0       0       0       0       
      +0       0       0       0       0       0       0
  2165 ;;      Locals:         0       0       0       0       0       0       0       0       0       0       0       0       
      +0       0       0       0       0       0       0       0       0       0       0       0       0       0       0       
      +0       0       0       0       0       0       0
  2166 ;;      Temps:          0       0       0       0       0       0       0       0       0       0       0       0       
      +0       0       0       0       0       0       0       0       0       0       0       0       0       0       0       
      +0       0       0       0       0       0       0
  2167 ;;      Totals:         0       0       0       0       0       0       0       0       0       0       0       0       
      +0       0       0       0       0       0       0       0       0       0       0       0       0       0       0       
      +0       0       0       0       0       0       0
  2168 ;;Total ram usage:        0 bytes
  2169 ;; Hardware stack levels used: 1
  2170 ;; Hardware stack levels required when called: 5
  2171 ;; This function calls:
  2172 ;;		_INT0_SetInterruptHandler
  2173 ;; This function is called by:
  2174 ;;		_SYSTEM_Initialize
  2175 ;; This function uses a non-reentrant model
  2176 ;;
  2177                           
  2178                           	psect	text20
  2179  003182                     __ptext20:
  2180                           	callstack 0
  2181  003182                     _EXT_INT_Initialize:
  2182                           	callstack 120
  2183  003182                     
  2184                           ;mcc_generated_files/ext_int.c: 64:     (PIR1bits.INT0IF = 0);
  2185  003182  90AF               	bcf	175,0,c	;volatile
  2186                           
  2187                           ;mcc_generated_files/ext_int.c: 65:     (INTCON0bits.INT0EDG = 1);
  2188  003184  80D6               	bsf	214,0,c	;volatile
  2189  003186                     
  2190                           ;mcc_generated_files/ext_int.c: 67:     INT0_SetInterruptHandler(INT0_DefaultInterruptHa
      +                          ndler);
  2191  003186  0E78               	movlw	low _INT0_DefaultInterruptHandler
  2192  003188  6E03               	movwf	INT0_SetInterruptHandler@InterruptHandler^(0+1280),c
  2193  00318A  0E32               	movlw	high _INT0_DefaultInterruptHandler
  2194  00318C  6E04               	movwf	(INT0_SetInterruptHandler@InterruptHandler+1)^(0+1280),c
  2195  00318E  EC16  F019         	call	_INT0_SetInterruptHandler	;wreg free
  2196  003192                     
  2197                           ;mcc_generated_files/ext_int.c: 68:     (PIE1bits.INT0IE = 1);
  2198  003192  809F               	bsf	159,0,c	;volatile
  2199  003194  0012               	return		;funcret
  2200  003196                     __end_of_EXT_INT_Initialize:
  2201                           	callstack 0
  2202                           
  2203 ;; *************** function _INT0_SetInterruptHandler *****************
  2204 ;; Defined at:
  2205 ;;		line 50 in file "mcc_generated_files/ext_int.c"
  2206 ;; Parameters:    Size  Location     Type
  2207 ;;  InterruptHan    2    2[COMRAM] PTR FTN()void 
  2208 ;;		 -> INT0_DefaultInterruptHandler(1), 
  2209 ;; Auto vars:     Size  Location     Type
  2210 ;;		None
  2211 ;; Return value:  Size  Location     Type
  2212 ;;                  1    wreg      void 
  2213 ;; Registers used:
  2214 ;;		wreg, status,2, status,0
  2215 ;; Tracked objects:
  2216 ;;		On entry : 0/0
  2217 ;;		On exit  : 0/0
  2218 ;;		Unchanged: 0/0
  2219 ;; Data sizes:     COMRAM   BANK5   BANK6   BANK7   BANK8   BANK9  BANK10  BANK11  BANK12  BANK13  BANK14  BANK15  BANK1
      +6  BANK17  BANK18  BANK19  BANK20  BANK21  BANK22  BANK23  BANK24  BANK25  BANK26  BANK27  BANK28  BANK29  BANK30  BANK3
      +1  BANK32  BANK33  BANK34  BANK35  BANK36  BANK37
  2220 ;;      Params:         2       0       0       0       0       0       0       0       0       0       0       0       
      +0       0       0       0       0       0       0       0       0       0       0       0       0       0       0       
      +0       0       0       0       0       0       0
  2221 ;;      Locals:         0       0       0       0       0       0       0       0       0       0       0       0       
      +0       0       0       0       0       0       0       0       0       0       0       0       0       0       0       
      +0       0       0       0       0       0       0
  2222 ;;      Temps:          0       0       0       0       0       0       0       0       0       0       0       0       
      +0       0       0       0       0       0       0       0       0       0       0       0       0       0       0       
      +0       0       0       0       0       0       0
  2223 ;;      Totals:         2       0       0       0       0       0       0       0       0       0       0       0       
      +0       0       0       0       0       0       0       0       0       0       0       0       0       0       0       
      +0       0       0       0       0       0       0
  2224 ;;Total ram usage:        2 bytes
  2225 ;; Hardware stack levels used: 1
  2226 ;; Hardware stack levels required when called: 4
  2227 ;; This function calls:
  2228 ;;		Nothing
  2229 ;; This function is called by:
  2230 ;;		_EXT_INT_Initialize
  2231 ;; This function uses a non-reentrant model
  2232 ;;
  2233                           
  2234                           	psect	text21
  2235  00322C                     __ptext21:
  2236                           	callstack 0
  2237  00322C                     _INT0_SetInterruptHandler:
  2238                           	callstack 120
  2239  00322C                     
  2240                           ;mcc_generated_files/ext_int.c: 51:     INT0_InterruptHandler = InterruptHandler;
  2241  00322C  C503  F54A         	movff	INT0_SetInterruptHandler@InterruptHandler,_INT0_InterruptHandler
  2242  003230  C504  F54B         	movff	INT0_SetInterruptHandler@InterruptHandler+1,_INT0_InterruptHandler+1
  2243  003234  0012               	return		;funcret
  2244  003236                     __end_of_INT0_SetInterruptHandler:
  2245                           	callstack 0
  2246                           
  2247 ;; *************** function _CAN1_Initialize *****************
  2248 ;; Defined at:
  2249 ;;		line 120 in file "mcc_generated_files/can1.c"
  2250 ;; Parameters:    Size  Location     Type
  2251 ;;		None
  2252 ;; Auto vars:     Size  Location     Type
  2253 ;;		None
  2254 ;; Return value:  Size  Location     Type
  2255 ;;                  1    wreg      void 
  2256 ;; Registers used:
  2257 ;;		wreg, status,2, status,0, cstack
  2258 ;; Tracked objects:
  2259 ;;		On entry : 0/0
  2260 ;;		On exit  : 0/0
  2261 ;;		Unchanged: 0/0
  2262 ;; Data sizes:     COMRAM   BANK5   BANK6   BANK7   BANK8   BANK9  BANK10  BANK11  BANK12  BANK13  BANK14  BANK15  BANK1
      +6  BANK17  BANK18  BANK19  BANK20  BANK21  BANK22  BANK23  BANK24  BANK25  BANK26  BANK27  BANK28  BANK29  BANK30  BANK3
      +1  BANK32  BANK33  BANK34  BANK35  BANK36  BANK37
  2263 ;;      Params:         0       0       0       0       0       0       0       0       0       0       0       0       
      +0       0       0       0       0       0       0       0       0       0       0       0       0       0       0       
      +0       0       0       0       0       0       0
  2264 ;;      Locals:         0       0       0       0       0       0       0       0       0       0       0       0       
      +0       0       0       0       0       0       0       0       0       0       0       0       0       0       0       
      +0       0       0       0       0       0       0
  2265 ;;      Temps:          0       0       0       0       0       0       0       0       0       0       0       0       
      +0       0       0       0       0       0       0       0       0       0       0       0       0       0       0       
      +0       0       0       0       0       0       0
  2266 ;;      Totals:         0       0       0       0       0       0       0       0       0       0       0       0       
      +0       0       0       0       0       0       0       0       0       0       0       0       0       0       0       
      +0       0       0       0       0       0       0
  2267 ;;Total ram usage:        0 bytes
  2268 ;; Hardware stack levels used: 1
  2269 ;; Hardware stack levels required when called: 6
  2270 ;; This function calls:
  2271 ;;		_CAN1_BitRateConfiguration
  2272 ;;		_CAN1_OperationModeSet
  2273 ;;		_CAN1_TX_FIFO_Configuration
  2274 ;; This function is called by:
  2275 ;;		_SYSTEM_Initialize
  2276 ;; This function uses a non-reentrant model
  2277 ;;
  2278                           
  2279                           	psect	text22
  2280  002E48                     __ptext22:
  2281                           	callstack 0
  2282  002E48                     _CAN1_Initialize:
  2283                           	callstack 119
  2284  002E48                     
  2285                           ;mcc_generated_files/can1.c: 123:     C1CONHbits.ON = 1;
  2286  002E48  0101               	movlb	1	; () banked
  2287  002E4A  8F01               	bsf	1,7,b	;volatile
  2288  002E4C                     
  2289                           ; BSR set to: 1
  2290                           ;mcc_generated_files/can1.c: 125:     if (CAN_OP_MODE_REQUEST_SUCCESS == CAN1_OperationM
      +                          odeSet(CAN_CONFIGURATION_MODE))
  2291  002E4C  0E04               	movlw	4
  2292  002E4E  ECD2  F016         	call	_CAN1_OperationModeSet
  2293  002E52  0900               	iorlw	0
  2294  002E54  A4D8               	btfss	status,2,c
  2295  002E56  EF2F  F017         	goto	u1071
  2296  002E5A  EF31  F017         	goto	u1070
  2297  002E5E                     u1071:
  2298  002E5E  EF47  F017         	goto	l631
  2299  002E62                     u1070:
  2300  002E62                     
  2301                           ;mcc_generated_files/can1.c: 126:     {;mcc_generated_files/can1.c: 128:         C1FIFOB
      +                          A = 0x3800;
  2302  002E62  0E00               	movlw	0
  2303  002E64  0101               	movlb	1	; () banked
  2304  002E66  6F4C               	movwf	76,b	;volatile
  2305  002E68  0E38               	movlw	56
  2306  002E6A  6F4D               	movwf	77,b	;volatile
  2307  002E6C  0E00               	movlw	0
  2308  002E6E  6F4E               	movwf	78,b	;volatile
  2309  002E70  0E00               	movlw	0
  2310  002E72  6F4F               	movwf	79,b	;volatile
  2311                           
  2312                           ;mcc_generated_files/can1.c: 131:         C1CONL = 0x60;
  2313  002E74  0E60               	movlw	96
  2314  002E76  6F00               	movwf	0,b	;volatile
  2315                           
  2316                           ;mcc_generated_files/can1.c: 134:         C1CONH = 0x97;
  2317  002E78  0E97               	movlw	151
  2318  002E7A  6F01               	movwf	1,b	;volatile
  2319                           
  2320                           ;mcc_generated_files/can1.c: 137:         C1CONU = 0x10;
  2321  002E7C  0E10               	movlw	16
  2322  002E7E  6F02               	movwf	2,b	;volatile
  2323  002E80                     
  2324                           ; BSR set to: 1
  2325                           ;mcc_generated_files/can1.c: 139:         CAN1_BitRateConfiguration();
  2326  002E80  ECD5  F018         	call	_CAN1_BitRateConfiguration	;wreg free
  2327  002E84                     
  2328                           ;mcc_generated_files/can1.c: 140:         CAN1_TX_FIFO_Configuration();
  2329  002E84  ECCB  F018         	call	_CAN1_TX_FIFO_Configuration	;wreg free
  2330  002E88                     
  2331                           ;mcc_generated_files/can1.c: 141:         CAN1_OperationModeSet(CAN_NORMAL_2_0_MODE);
  2332  002E88  0E06               	movlw	6
  2333  002E8A  ECD2  F016         	call	_CAN1_OperationModeSet
  2334  002E8E                     l631:
  2335  002E8E  0012               	return		;funcret
  2336  002E90                     __end_of_CAN1_Initialize:
  2337                           	callstack 0
  2338                           
  2339 ;; *************** function _CAN1_TX_FIFO_Configuration *****************
  2340 ;; Defined at:
  2341 ;;		line 87 in file "mcc_generated_files/can1.c"
  2342 ;; Parameters:    Size  Location     Type
  2343 ;;		None
  2344 ;; Auto vars:     Size  Location     Type
  2345 ;;		None
  2346 ;; Return value:  Size  Location     Type
  2347 ;;                  1    wreg      void 
  2348 ;; Registers used:
  2349 ;;		wreg, status,2
  2350 ;; Tracked objects:
  2351 ;;		On entry : 0/0
  2352 ;;		On exit  : 0/0
  2353 ;;		Unchanged: 0/0
  2354 ;; Data sizes:     COMRAM   BANK5   BANK6   BANK7   BANK8   BANK9  BANK10  BANK11  BANK12  BANK13  BANK14  BANK15  BANK1
      +6  BANK17  BANK18  BANK19  BANK20  BANK21  BANK22  BANK23  BANK24  BANK25  BANK26  BANK27  BANK28  BANK29  BANK30  BANK3
      +1  BANK32  BANK33  BANK34  BANK35  BANK36  BANK37
  2355 ;;      Params:         0       0       0       0       0       0       0       0       0       0       0       0       
      +0       0       0       0       0       0       0       0       0       0       0       0       0       0       0       
      +0       0       0       0       0       0       0
  2356 ;;      Locals:         0       0       0       0       0       0       0       0       0       0       0       0       
      +0       0       0       0       0       0       0       0       0       0       0       0       0       0       0       
      +0       0       0       0       0       0       0
  2357 ;;      Temps:          0       0       0       0       0       0       0       0       0       0       0       0       
      +0       0       0       0       0       0       0       0       0       0       0       0       0       0       0       
      +0       0       0       0       0       0       0
  2358 ;;      Totals:         0       0       0       0       0       0       0       0       0       0       0       0       
      +0       0       0       0       0       0       0       0       0       0       0       0       0       0       0       
      +0       0       0       0       0       0       0
  2359 ;;Total ram usage:        0 bytes
  2360 ;; Hardware stack levels used: 1
  2361 ;; Hardware stack levels required when called: 4
  2362 ;; This function calls:
  2363 ;;		Nothing
  2364 ;; This function is called by:
  2365 ;;		_CAN1_Initialize
  2366 ;; This function uses a non-reentrant model
  2367 ;;
  2368                           
  2369                           	psect	text23
  2370  003196                     __ptext23:
  2371                           	callstack 0
  2372  003196                     _CAN1_TX_FIFO_Configuration:
  2373                           	callstack 120
  2374  003196                     
  2375                           ;mcc_generated_files/can1.c: 90:     C1TXQCONL = 0x00;
  2376  003196  0E00               	movlw	0
  2377  003198  0101               	movlb	1	; () banked
  2378  00319A  6F50               	movwf	80,b	;volatile
  2379                           
  2380                           ;mcc_generated_files/can1.c: 93:     C1TXQCONH = 0x04;
  2381  00319C  0E04               	movlw	4
  2382  00319E  6F51               	movwf	81,b	;volatile
  2383                           
  2384                           ;mcc_generated_files/can1.c: 96:     C1TXQCONU = 0x60;
  2385  0031A0  0E60               	movlw	96
  2386  0031A2  6F52               	movwf	82,b	;volatile
  2387                           
  2388                           ;mcc_generated_files/can1.c: 99:     C1TXQCONT = 0x05;
  2389  0031A4  0E05               	movlw	5
  2390  0031A6  6F53               	movwf	83,b	;volatile
  2391  0031A8                     
  2392                           ; BSR set to: 1
  2393  0031A8  0012               	return		;funcret
  2394  0031AA                     __end_of_CAN1_TX_FIFO_Configuration:
  2395                           	callstack 0
  2396                           
  2397 ;; *************** function _CAN1_BitRateConfiguration *****************
  2398 ;; Defined at:
  2399 ;;		line 103 in file "mcc_generated_files/can1.c"
  2400 ;; Parameters:    Size  Location     Type
  2401 ;;		None
  2402 ;; Auto vars:     Size  Location     Type
  2403 ;;		None
  2404 ;; Return value:  Size  Location     Type
  2405 ;;                  1    wreg      void 
  2406 ;; Registers used:
  2407 ;;		wreg, status,2
  2408 ;; Tracked objects:
  2409 ;;		On entry : 0/0
  2410 ;;		On exit  : 0/0
  2411 ;;		Unchanged: 0/0
  2412 ;; Data sizes:     COMRAM   BANK5   BANK6   BANK7   BANK8   BANK9  BANK10  BANK11  BANK12  BANK13  BANK14  BANK15  BANK1
      +6  BANK17  BANK18  BANK19  BANK20  BANK21  BANK22  BANK23  BANK24  BANK25  BANK26  BANK27  BANK28  BANK29  BANK30  BANK3
      +1  BANK32  BANK33  BANK34  BANK35  BANK36  BANK37
  2413 ;;      Params:         0       0       0       0       0       0       0       0       0       0       0       0       
      +0       0       0       0       0       0       0       0       0       0       0       0       0       0       0       
      +0       0       0       0       0       0       0
  2414 ;;      Locals:         0       0       0       0       0       0       0       0       0       0       0       0       
      +0       0       0       0       0       0       0       0       0       0       0       0       0       0       0       
      +0       0       0       0       0       0       0
  2415 ;;      Temps:          0       0       0       0       0       0       0       0       0       0       0       0       
      +0       0       0       0       0       0       0       0       0       0       0       0       0       0       0       
      +0       0       0       0       0       0       0
  2416 ;;      Totals:         0       0       0       0       0       0       0       0       0       0       0       0       
      +0       0       0       0       0       0       0       0       0       0       0       0       0       0       0       
      +0       0       0       0       0       0       0
  2417 ;;Total ram usage:        0 bytes
  2418 ;; Hardware stack levels used: 1
  2419 ;; Hardware stack levels required when called: 4
  2420 ;; This function calls:
  2421 ;;		Nothing
  2422 ;; This function is called by:
  2423 ;;		_CAN1_Initialize
  2424 ;; This function uses a non-reentrant model
  2425 ;;
  2426                           
  2427                           	psect	text24
  2428  0031AA                     __ptext24:
  2429                           	callstack 0
  2430  0031AA                     _CAN1_BitRateConfiguration:
  2431                           	callstack 120
  2432  0031AA                     
  2433                           ;mcc_generated_files/can1.c: 106:     C1NBTCFGL = 0x01;
  2434  0031AA  0E01               	movlw	1
  2435  0031AC  0101               	movlb	1	; () banked
  2436  0031AE  6F04               	movwf	4,b	;volatile
  2437                           
  2438                           ;mcc_generated_files/can1.c: 109:     C1NBTCFGH = 0x01;
  2439  0031B0  0E01               	movlw	1
  2440  0031B2  6F05               	movwf	5,b	;volatile
  2441                           
  2442                           ;mcc_generated_files/can1.c: 112:     C1NBTCFGU = 0x06;
  2443  0031B4  0E06               	movlw	6
  2444  0031B6  6F06               	movwf	6,b	;volatile
  2445                           
  2446                           ;mcc_generated_files/can1.c: 115:     C1NBTCFGT = 0x00;
  2447  0031B8  0E00               	movlw	0
  2448  0031BA  6F07               	movwf	7,b	;volatile
  2449  0031BC                     
  2450                           ; BSR set to: 1
  2451  0031BC  0012               	return		;funcret
  2452  0031BE                     __end_of_CAN1_BitRateConfiguration:
  2453                           	callstack 0
  2454                           
  2455 ;; *************** function _ADC_Initialize *****************
  2456 ;; Defined at:
  2457 ;;		line 65 in file "mcc_generated_files/adc.c"
  2458 ;; Parameters:    Size  Location     Type
  2459 ;;		None
  2460 ;; Auto vars:     Size  Location     Type
  2461 ;;		None
  2462 ;; Return value:  Size  Location     Type
  2463 ;;                  1    wreg      void 
  2464 ;; Registers used:
  2465 ;;		wreg, status,2, status,0, cstack
  2466 ;; Tracked objects:
  2467 ;;		On entry : 0/0
  2468 ;;		On exit  : 0/0
  2469 ;;		Unchanged: 0/0
  2470 ;; Data sizes:     COMRAM   BANK5   BANK6   BANK7   BANK8   BANK9  BANK10  BANK11  BANK12  BANK13  BANK14  BANK15  BANK1
      +6  BANK17  BANK18  BANK19  BANK20  BANK21  BANK22  BANK23  BANK24  BANK25  BANK26  BANK27  BANK28  BANK29  BANK30  BANK3
      +1  BANK32  BANK33  BANK34  BANK35  BANK36  BANK37
  2471 ;;      Params:         0       0       0       0       0       0       0       0       0       0       0       0       
      +0       0       0       0       0       0       0       0       0       0       0       0       0       0       0       
      +0       0       0       0       0       0       0
  2472 ;;      Locals:         0       0       0       0       0       0       0       0       0       0       0       0       
      +0       0       0       0       0       0       0       0       0       0       0       0       0       0       0       
      +0       0       0       0       0       0       0
  2473 ;;      Temps:          0       0       0       0       0       0       0       0       0       0       0       0       
      +0       0       0       0       0       0       0       0       0       0       0       0       0       0       0       
      +0       0       0       0       0       0       0
  2474 ;;      Totals:         0       0       0       0       0       0       0       0       0       0       0       0       
      +0       0       0       0       0       0       0       0       0       0       0       0       0       0       0       
      +0       0       0       0       0       0       0
  2475 ;;Total ram usage:        0 bytes
  2476 ;; Hardware stack levels used: 1
  2477 ;; Hardware stack levels required when called: 5
  2478 ;; This function calls:
  2479 ;;		_ADC_SetADIInterruptHandler
  2480 ;;		_ADC_SetActiveClockTuningInterruptHandler
  2481 ;;		_ADC_SetContext1ThresholdInterruptHandler
  2482 ;; This function is called by:
  2483 ;;		_SYSTEM_Initialize
  2484 ;; This function uses a non-reentrant model
  2485 ;;
  2486                           
  2487                           	psect	text25
  2488  002A26                     __ptext25:
  2489                           	callstack 0
  2490  002A26                     _ADC_Initialize:
  2491                           	callstack 120
  2492  002A26                     
  2493                           ;mcc_generated_files/adc.c: 68:     ADACT = 0x04;
  2494  002A26  0E04               	movlw	4
  2495  002A28  0103               	movlb	3	; () banked
  2496  002A2A  6FF9               	movwf	249,b	;volatile
  2497                           
  2498                           ;mcc_generated_files/adc.c: 71:     ADCLK = 0x00;
  2499  002A2C  0E00               	movlw	0
  2500  002A2E  6FFA               	movwf	250,b	;volatile
  2501                           
  2502                           ;mcc_generated_files/adc.c: 74:     ADCP = 0x00;
  2503  002A30  0E00               	movlw	0
  2504  002A32  6FD8               	movwf	216,b	;volatile
  2505                           
  2506                           ;mcc_generated_files/adc.c: 80:     ADCTX = 0x0;
  2507  002A34  0E00               	movlw	0
  2508  002A36  6FFB               	movwf	251,b	;volatile
  2509                           
  2510                           ;mcc_generated_files/adc.c: 83:     ADLTHL = 0x00;
  2511  002A38  0E00               	movlw	0
  2512  002A3A  6FD9               	movwf	217,b	;volatile
  2513                           
  2514                           ;mcc_generated_files/adc.c: 86:     ADLTHH = 0x00;
  2515  002A3C  0E00               	movlw	0
  2516  002A3E  6FDA               	movwf	218,b	;volatile
  2517                           
  2518                           ;mcc_generated_files/adc.c: 89:     ADUTHL = 0x00;
  2519  002A40  0E00               	movlw	0
  2520  002A42  6FDB               	movwf	219,b	;volatile
  2521                           
  2522                           ;mcc_generated_files/adc.c: 92:     ADUTHH = 0x00;
  2523  002A44  0E00               	movlw	0
  2524  002A46  6FDC               	movwf	220,b	;volatile
  2525                           
  2526                           ;mcc_generated_files/adc.c: 95:     ADSTPTL = 0x00;
  2527  002A48  0E00               	movlw	0
  2528  002A4A  6FDF               	movwf	223,b	;volatile
  2529                           
  2530                           ;mcc_generated_files/adc.c: 98:     ADSTPTH = 0x00;
  2531  002A4C  0E00               	movlw	0
  2532  002A4E  6FE0               	movwf	224,b	;volatile
  2533                           
  2534                           ;mcc_generated_files/adc.c: 101:     ADACCL = 0x00;
  2535  002A50  0E00               	movlw	0
  2536  002A52  6FE3               	movwf	227,b	;volatile
  2537                           
  2538                           ;mcc_generated_files/adc.c: 104:     ADACCH = 0x00;
  2539  002A54  0E00               	movlw	0
  2540  002A56  6FE4               	movwf	228,b	;volatile
  2541                           
  2542                           ;mcc_generated_files/adc.c: 107:     ADACCU = 0x00;
  2543  002A58  0E00               	movlw	0
  2544  002A5A  6FE5               	movwf	229,b	;volatile
  2545                           
  2546                           ;mcc_generated_files/adc.c: 110:     ADCNT = 0x00;
  2547  002A5C  0E00               	movlw	0
  2548  002A5E  6FE6               	movwf	230,b	;volatile
  2549                           
  2550                           ;mcc_generated_files/adc.c: 113:     ADRPT = 0x00;
  2551  002A60  0E00               	movlw	0
  2552  002A62  6FE7               	movwf	231,b	;volatile
  2553                           
  2554                           ;mcc_generated_files/adc.c: 116:     ADRESL = 0x00;
  2555  002A64  0E00               	movlw	0
  2556  002A66  6FEA               	movwf	234,b	;volatile
  2557                           
  2558                           ;mcc_generated_files/adc.c: 119:     ADRESH = 0x00;
  2559  002A68  0E00               	movlw	0
  2560  002A6A  6FEB               	movwf	235,b	;volatile
  2561                           
  2562                           ;mcc_generated_files/adc.c: 122:     ADPCH = 0x00;
  2563  002A6C  0E00               	movlw	0
  2564  002A6E  6FEC               	movwf	236,b	;volatile
  2565                           
  2566                           ;mcc_generated_files/adc.c: 125:     ADACQL = 0x00;
  2567  002A70  0E00               	movlw	0
  2568  002A72  6FEE               	movwf	238,b	;volatile
  2569                           
  2570                           ;mcc_generated_files/adc.c: 128:     ADACQH = 0x00;
  2571  002A74  0E00               	movlw	0
  2572  002A76  6FEF               	movwf	239,b	;volatile
  2573                           
  2574                           ;mcc_generated_files/adc.c: 131:     ADCAP = 0x00;
  2575  002A78  0E00               	movlw	0
  2576  002A7A  6FF0               	movwf	240,b	;volatile
  2577                           
  2578                           ;mcc_generated_files/adc.c: 134:     ADPREL = 0x00;
  2579  002A7C  0E00               	movlw	0
  2580  002A7E  6FF1               	movwf	241,b	;volatile
  2581                           
  2582                           ;mcc_generated_files/adc.c: 137:     ADPREH = 0x00;
  2583  002A80  0E00               	movlw	0
  2584  002A82  6FF2               	movwf	242,b	;volatile
  2585                           
  2586                           ;mcc_generated_files/adc.c: 140:     ADCON0 = 0x00;
  2587  002A84  0E00               	movlw	0
  2588  002A86  6FF3               	movwf	243,b	;volatile
  2589                           
  2590                           ;mcc_generated_files/adc.c: 143:     ADCON1 = 0x00;
  2591  002A88  0E00               	movlw	0
  2592  002A8A  6FF4               	movwf	244,b	;volatile
  2593                           
  2594                           ;mcc_generated_files/adc.c: 146:     ADCON2 = 0x10;
  2595  002A8C  0E10               	movlw	16
  2596  002A8E  6FF5               	movwf	245,b	;volatile
  2597                           
  2598                           ;mcc_generated_files/adc.c: 149:     ADCON3 = 0x00;
  2599  002A90  0E00               	movlw	0
  2600  002A92  6FF6               	movwf	246,b	;volatile
  2601                           
  2602                           ;mcc_generated_files/adc.c: 152:     ADSTAT = 0x00;
  2603  002A94  0E00               	movlw	0
  2604  002A96  6FF7               	movwf	247,b	;volatile
  2605                           
  2606                           ;mcc_generated_files/adc.c: 155:     ADREF = 0x12;
  2607  002A98  0E12               	movlw	18
  2608  002A9A  6FF8               	movwf	248,b	;volatile
  2609                           
  2610                           ;mcc_generated_files/adc.c: 158:     ADCSEL1 = 0x00;
  2611  002A9C  0E00               	movlw	0
  2612  002A9E  6FFC               	movwf	252,b	;volatile
  2613  002AA0                     
  2614                           ; BSR set to: 3
  2615                           ;mcc_generated_files/adc.c: 161:     PIR1bits.ADIF = 0;
  2616  002AA0  94AF               	bcf	175,2,c	;volatile
  2617  002AA2                     
  2618                           ; BSR set to: 3
  2619                           ;mcc_generated_files/adc.c: 164:     PIR1bits.ACTIF = 0;
  2620  002AA2  96AF               	bcf	175,3,c	;volatile
  2621  002AA4                     
  2622                           ; BSR set to: 3
  2623                           ;mcc_generated_files/adc.c: 167:     PIR2bits.ADCH1IF = 0;
  2624  002AA4  90B0               	bcf	176,0,c	;volatile
  2625  002AA6                     
  2626                           ; BSR set to: 3
  2627                           ;mcc_generated_files/adc.c: 171:     ADC_SetADIInterruptHandler(ADC_DefaultADI_ISR);
  2628  002AA6  0E00               	movlw	0
  2629  002AA8  6E03               	movwf	ADC_SetADIInterruptHandler@InterruptHandler^(0+1280),c
  2630  002AAA  0E00               	movlw	0
  2631  002AAC  6E04               	movwf	(ADC_SetADIInterruptHandler@InterruptHandler+1)^(0+1280),c
  2632  002AAE  EC25  F019         	call	_ADC_SetADIInterruptHandler	;wreg free
  2633  002AB2                     
  2634                           ;mcc_generated_files/adc.c: 172:     ADC_SetContext1ThresholdInterruptHandler(ADC_Defaul
      +                          tContext1Threshold_ISR);
  2635  002AB2  0E00               	movlw	0
  2636  002AB4  6E03               	movwf	ADC_SetContext1ThresholdInterruptHandler@InterruptHandler^(0+1280),c
  2637  002AB6  0E00               	movlw	0
  2638  002AB8  6E04               	movwf	(ADC_SetContext1ThresholdInterruptHandler@InterruptHandler+1)^(0+1280),c
  2639  002ABA  EC1B  F019         	call	_ADC_SetContext1ThresholdInterruptHandler	;wreg free
  2640  002ABE                     
  2641                           ;mcc_generated_files/adc.c: 173:     ADC_SetActiveClockTuningInterruptHandler(ADC_Defaul
      +                          tActiveClockTuning_ISR);
  2642  002ABE  0E00               	movlw	0
  2643  002AC0  6E03               	movwf	ADC_SetActiveClockTuningInterruptHandler@InterruptHandler^(0+1280),c
  2644  002AC2  0E00               	movlw	0
  2645  002AC4  6E04               	movwf	(ADC_SetActiveClockTuningInterruptHandler@InterruptHandler+1)^(0+1280),c
  2646  002AC6  EC20  F019         	call	_ADC_SetActiveClockTuningInterruptHandler	;wreg free
  2647  002ACA                     
  2648                           ;mcc_generated_files/adc.c: 176:     ADCON0 = 0x84;
  2649  002ACA  0E84               	movlw	132
  2650  002ACC  0103               	movlb	3	; () banked
  2651  002ACE  6FF3               	movwf	243,b	;volatile
  2652  002AD0                     
  2653                           ; BSR set to: 3
  2654  002AD0  0012               	return		;funcret
  2655  002AD2                     __end_of_ADC_Initialize:
  2656                           	callstack 0
  2657                           
  2658 ;; *************** function _ADC_SetContext1ThresholdInterruptHandler *****************
  2659 ;; Defined at:
  2660 ;;		line 423 in file "mcc_generated_files/adc.c"
  2661 ;; Parameters:    Size  Location     Type
  2662 ;;  InterruptHan    2    2[COMRAM] PTR FTN()void 
  2663 ;;		 -> ADC_DefaultContext1Threshold_ISR(1), 
  2664 ;; Auto vars:     Size  Location     Type
  2665 ;;		None
  2666 ;; Return value:  Size  Location     Type
  2667 ;;                  1    wreg      void 
  2668 ;; Registers used:
  2669 ;;		wreg, status,2, status,0
  2670 ;; Tracked objects:
  2671 ;;		On entry : 0/0
  2672 ;;		On exit  : 0/0
  2673 ;;		Unchanged: 0/0
  2674 ;; Data sizes:     COMRAM   BANK5   BANK6   BANK7   BANK8   BANK9  BANK10  BANK11  BANK12  BANK13  BANK14  BANK15  BANK1
      +6  BANK17  BANK18  BANK19  BANK20  BANK21  BANK22  BANK23  BANK24  BANK25  BANK26  BANK27  BANK28  BANK29  BANK30  BANK3
      +1  BANK32  BANK33  BANK34  BANK35  BANK36  BANK37
  2675 ;;      Params:         2       0       0       0       0       0       0       0       0       0       0       0       
      +0       0       0       0       0       0       0       0       0       0       0       0       0       0       0       
      +0       0       0       0       0       0       0
  2676 ;;      Locals:         0       0       0       0       0       0       0       0       0       0       0       0       
      +0       0       0       0       0       0       0       0       0       0       0       0       0       0       0       
      +0       0       0       0       0       0       0
  2677 ;;      Temps:          0       0       0       0       0       0       0       0       0       0       0       0       
      +0       0       0       0       0       0       0       0       0       0       0       0       0       0       0       
      +0       0       0       0       0       0       0
  2678 ;;      Totals:         2       0       0       0       0       0       0       0       0       0       0       0       
      +0       0       0       0       0       0       0       0       0       0       0       0       0       0       0       
      +0       0       0       0       0       0       0
  2679 ;;Total ram usage:        2 bytes
  2680 ;; Hardware stack levels used: 1
  2681 ;; Hardware stack levels required when called: 4
  2682 ;; This function calls:
  2683 ;;		Nothing
  2684 ;; This function is called by:
  2685 ;;		_ADC_Initialize
  2686 ;; This function uses a non-reentrant model
  2687 ;;
  2688                           
  2689                           	psect	text26
  2690  003236                     __ptext26:
  2691                           	callstack 0
  2692  003236                     _ADC_SetContext1ThresholdInterruptHandler:
  2693                           	callstack 120
  2694  003236                     
  2695                           ;mcc_generated_files/adc.c: 423: void ADC_SetContext1ThresholdInterruptHandler(void (* I
      +                          nterruptHandler)(void));mcc_generated_files/adc.c: 424: {;mcc_generated_files/adc.c: 425
      +                          :     ADC_Context1Thereshld_ISR = InterruptHandler;
  2696  003236  C503  F546         	movff	ADC_SetContext1ThresholdInterruptHandler@InterruptHandler,_ADC_Context1Thereshld_
      +                          ISR
  2697  00323A  C504  F547         	movff	ADC_SetContext1ThresholdInterruptHandler@InterruptHandler+1,_ADC_Context1Thereshl
      +                          d_ISR+1
  2698  00323E  0012               	return		;funcret
  2699  003240                     __end_of_ADC_SetContext1ThresholdInterruptHandler:
  2700                           	callstack 0
  2701                           
  2702 ;; *************** function _ADC_SetActiveClockTuningInterruptHandler *****************
  2703 ;; Defined at:
  2704 ;;		line 428 in file "mcc_generated_files/adc.c"
  2705 ;; Parameters:    Size  Location     Type
  2706 ;;  InterruptHan    2    2[COMRAM] PTR FTN()void 
  2707 ;;		 -> ADC_DefaultActiveClockTuning_ISR(1), 
  2708 ;; Auto vars:     Size  Location     Type
  2709 ;;		None
  2710 ;; Return value:  Size  Location     Type
  2711 ;;                  1    wreg      void 
  2712 ;; Registers used:
  2713 ;;		wreg, status,2, status,0
  2714 ;; Tracked objects:
  2715 ;;		On entry : 0/0
  2716 ;;		On exit  : 0/0
  2717 ;;		Unchanged: 0/0
  2718 ;; Data sizes:     COMRAM   BANK5   BANK6   BANK7   BANK8   BANK9  BANK10  BANK11  BANK12  BANK13  BANK14  BANK15  BANK1
      +6  BANK17  BANK18  BANK19  BANK20  BANK21  BANK22  BANK23  BANK24  BANK25  BANK26  BANK27  BANK28  BANK29  BANK30  BANK3
      +1  BANK32  BANK33  BANK34  BANK35  BANK36  BANK37
  2719 ;;      Params:         2       0       0       0       0       0       0       0       0       0       0       0       
      +0       0       0       0       0       0       0       0       0       0       0       0       0       0       0       
      +0       0       0       0       0       0       0
  2720 ;;      Locals:         0       0       0       0       0       0       0       0       0       0       0       0       
      +0       0       0       0       0       0       0       0       0       0       0       0       0       0       0       
      +0       0       0       0       0       0       0
  2721 ;;      Temps:          0       0       0       0       0       0       0       0       0       0       0       0       
      +0       0       0       0       0       0       0       0       0       0       0       0       0       0       0       
      +0       0       0       0       0       0       0
  2722 ;;      Totals:         2       0       0       0       0       0       0       0       0       0       0       0       
      +0       0       0       0       0       0       0       0       0       0       0       0       0       0       0       
      +0       0       0       0       0       0       0
  2723 ;;Total ram usage:        2 bytes
  2724 ;; Hardware stack levels used: 1
  2725 ;; Hardware stack levels required when called: 4
  2726 ;; This function calls:
  2727 ;;		Nothing
  2728 ;; This function is called by:
  2729 ;;		_ADC_Initialize
  2730 ;; This function uses a non-reentrant model
  2731 ;;
  2732                           
  2733                           	psect	text27
  2734  003240                     __ptext27:
  2735                           	callstack 0
  2736  003240                     _ADC_SetActiveClockTuningInterruptHandler:
  2737                           	callstack 120
  2738  003240                     
  2739                           ;mcc_generated_files/adc.c: 428: void ADC_SetActiveClockTuningInterruptHandler(void (* I
      +                          nterruptHandler)(void));mcc_generated_files/adc.c: 429: {;mcc_generated_files/adc.c: 430
      +                          :     ADC_ActiveClockTuning_ISR = InterruptHandler;
  2740  003240  C503  F544         	movff	ADC_SetActiveClockTuningInterruptHandler@InterruptHandler,_ADC_ActiveClockTuning_
      +                          ISR
  2741  003244  C504  F545         	movff	ADC_SetActiveClockTuningInterruptHandler@InterruptHandler+1,_ADC_ActiveClockTunin
      +                          g_ISR+1
  2742  003248  0012               	return		;funcret
  2743  00324A                     __end_of_ADC_SetActiveClockTuningInterruptHandler:
  2744                           	callstack 0
  2745                           
  2746 ;; *************** function _ADC_SetADIInterruptHandler *****************
  2747 ;; Defined at:
  2748 ;;		line 418 in file "mcc_generated_files/adc.c"
  2749 ;; Parameters:    Size  Location     Type
  2750 ;;  InterruptHan    2    2[COMRAM] PTR FTN()void 
  2751 ;;		 -> ADC_DefaultADI_ISR(1), 
  2752 ;; Auto vars:     Size  Location     Type
  2753 ;;		None
  2754 ;; Return value:  Size  Location     Type
  2755 ;;                  1    wreg      void 
  2756 ;; Registers used:
  2757 ;;		wreg, status,2, status,0
  2758 ;; Tracked objects:
  2759 ;;		On entry : 0/0
  2760 ;;		On exit  : 0/0
  2761 ;;		Unchanged: 0/0
  2762 ;; Data sizes:     COMRAM   BANK5   BANK6   BANK7   BANK8   BANK9  BANK10  BANK11  BANK12  BANK13  BANK14  BANK15  BANK1
      +6  BANK17  BANK18  BANK19  BANK20  BANK21  BANK22  BANK23  BANK24  BANK25  BANK26  BANK27  BANK28  BANK29  BANK30  BANK3
      +1  BANK32  BANK33  BANK34  BANK35  BANK36  BANK37
  2763 ;;      Params:         2       0       0       0       0       0       0       0       0       0       0       0       
      +0       0       0       0       0       0       0       0       0       0       0       0       0       0       0       
      +0       0       0       0       0       0       0
  2764 ;;      Locals:         0       0       0       0       0       0       0       0       0       0       0       0       
      +0       0       0       0       0       0       0       0       0       0       0       0       0       0       0       
      +0       0       0       0       0       0       0
  2765 ;;      Temps:          0       0       0       0       0       0       0       0       0       0       0       0       
      +0       0       0       0       0       0       0       0       0       0       0       0       0       0       0       
      +0       0       0       0       0       0       0
  2766 ;;      Totals:         2       0       0       0       0       0       0       0       0       0       0       0       
      +0       0       0       0       0       0       0       0       0       0       0       0       0       0       0       
      +0       0       0       0       0       0       0
  2767 ;;Total ram usage:        2 bytes
  2768 ;; Hardware stack levels used: 1
  2769 ;; Hardware stack levels required when called: 4
  2770 ;; This function calls:
  2771 ;;		Nothing
  2772 ;; This function is called by:
  2773 ;;		_ADC_Initialize
  2774 ;; This function uses a non-reentrant model
  2775 ;;
  2776                           
  2777                           	psect	text28
  2778  00324A                     __ptext28:
  2779                           	callstack 0
  2780  00324A                     _ADC_SetADIInterruptHandler:
  2781                           	callstack 120
  2782  00324A                     
  2783                           ;mcc_generated_files/adc.c: 418: void ADC_SetADIInterruptHandler(void (* InterruptHandle
      +                          r)(void));mcc_generated_files/adc.c: 419: {;mcc_generated_files/adc.c: 420:     ADC_Conv
      +                          ersionComplete_ISR = InterruptHandler;
  2784  00324A  C503  F548         	movff	ADC_SetADIInterruptHandler@InterruptHandler,_ADC_ConversionComplete_ISR
  2785  00324E  C504  F549         	movff	ADC_SetADIInterruptHandler@InterruptHandler+1,_ADC_ConversionComplete_ISR+1
  2786  003252  0012               	return		;funcret
  2787  003254                     __end_of_ADC_SetADIInterruptHandler:
  2788                           	callstack 0
  2789                           
  2790 ;; *************** function _CANWriteMessage *****************
  2791 ;; Defined at:
  2792 ;;		line 12 in file "MESSAGES.c"
  2793 ;; Parameters:    Size  Location     Type
  2794 ;;  id              4   30[COMRAM] unsigned long 
  2795 ;;  dataLength      1   34[COMRAM] unsigned char 
  2796 ;;  data1           1   35[COMRAM] unsigned char 
  2797 ;;  data2           1   36[COMRAM] unsigned char 
  2798 ;;  data3           1   37[COMRAM] unsigned char 
  2799 ;;  data4           1   38[COMRAM] unsigned char 
  2800 ;;  data5           1   39[COMRAM] unsigned char 
  2801 ;;  data6           1   40[COMRAM] unsigned char 
  2802 ;;  data7           1   41[COMRAM] unsigned char 
  2803 ;;  data8           1   42[COMRAM] unsigned char 
  2804 ;; Auto vars:     Size  Location     Type
  2805 ;;  uiData4         2   51[COMRAM] unsigned int 
  2806 ;;  uiData3         2   49[COMRAM] unsigned int 
  2807 ;;  uiData2         2   47[COMRAM] unsigned int 
  2808 ;;  uiData1         2   45[COMRAM] unsigned int 
  2809 ;; Return value:  Size  Location     Type
  2810 ;;                  1    wreg      void 
  2811 ;; Registers used:
  2812 ;;		wreg, fsr1l, fsr1h, fsr2l, fsr2h, status,2, status,0, tblptrl, tblptrh, tblptru, prodl, prodh, cstack
  2813 ;; Tracked objects:
  2814 ;;		On entry : 0/0
  2815 ;;		On exit  : 0/0
  2816 ;;		Unchanged: 0/0
  2817 ;; Data sizes:     COMRAM   BANK5   BANK6   BANK7   BANK8   BANK9  BANK10  BANK11  BANK12  BANK13  BANK14  BANK15  BANK1
      +6  BANK17  BANK18  BANK19  BANK20  BANK21  BANK22  BANK23  BANK24  BANK25  BANK26  BANK27  BANK28  BANK29  BANK30  BANK3
      +1  BANK32  BANK33  BANK34  BANK35  BANK36  BANK37
  2818 ;;      Params:        13       0       0       0       0       0       0       0       0       0       0       0       
      +0       0       0       0       0       0       0       0       0       0       0       0       0       0       0       
      +0       0       0       0       0       0       0
  2819 ;;      Locals:         8       0       0       0       0       0       0       0       0       0       0       0       
      +0       0       0       0       0       0       0       0       0       0       0       0       0       0       0       
      +0       0       0       0       0       0       0
  2820 ;;      Temps:          2       0       0       0       0       0       0       0       0       0       0       0       
      +0       0       0       0       0       0       0       0       0       0       0       0       0       0       0       
      +0       0       0       0       0       0       0
  2821 ;;      Totals:        23       0       0       0       0       0       0       0       0       0       0       0       
      +0       0       0       0       0       0       0       0       0       0       0       0       0       0       0       
      +0       0       0       0       0       0       0
  2822 ;;Total ram usage:       23 bytes
  2823 ;; Hardware stack levels used: 1
  2824 ;; Hardware stack levels required when called: 7
  2825 ;; This function calls:
  2826 ;;		_CAN1_OperationModeGet
  2827 ;;		_CAN1_OperationModeSet
  2828 ;;		_CAN1_Transmit
  2829 ;;		_CAN1_TransmitFIFOStatusGet
  2830 ;; This function is called by:
  2831 ;;		_main
  2832 ;; This function uses a non-reentrant model
  2833 ;;
  2834                           
  2835                           	psect	text29
  2836  002854                     __ptext29:
  2837                           	callstack 0
  2838  002854                     _CANWriteMessage:
  2839                           	callstack 119
  2840  002854                     
  2841                           ;MESSAGES.c: 12: void CANWriteMessage(unsigned long id, unsigned char dataLength, unsign
      +                          ed char data1, unsigned char data2, unsigned char data3, unsigned char data4, unsigned c
      +                          har data5, unsigned char data6, unsigned char data7, unsigned char data8);MESSAGES.c: 13
      +                          : {;MESSAGES.c: 14:     unsigned int uiData1;;MESSAGES.c: 15:     unsigned int uiData2;;
      +                          MESSAGES.c: 16:     unsigned int uiData3;;MESSAGES.c: 17:     unsigned int uiData4;;MESS
      +                          AGES.c: 21:     uiData1 = ( data1 << 0x08 ) & 0xFF00;
  2842  002854  5024               	movf	CANWriteMessage@data1^(0+1280),w,c
  2843  002856  6E2D               	movwf	(??_CANWriteMessage+1)^(0+1280),c
  2844  002858  6A2C               	clrf	??_CANWriteMessage^(0+1280),c
  2845  00285A  0E00               	movlw	0
  2846  00285C  142C               	andwf	??_CANWriteMessage^(0+1280),w,c
  2847  00285E  6E2E               	movwf	CANWriteMessage@uiData1^(0+1280),c
  2848  002860  0EFF               	movlw	255
  2849  002862  142D               	andwf	(??_CANWriteMessage+1)^(0+1280),w,c
  2850  002864  6E2F               	movwf	(CANWriteMessage@uiData1+1)^(0+1280),c
  2851                           
  2852                           ;MESSAGES.c: 22:     uiData1 |= data2;
  2853  002866  5025               	movf	CANWriteMessage@data2^(0+1280),w,c
  2854  002868  122E               	iorwf	CANWriteMessage@uiData1^(0+1280),f,c
  2855                           
  2856                           ;MESSAGES.c: 23:     uiData2 = ( data3 << 0x08 ) & 0xFF00;
  2857  00286A  5026               	movf	CANWriteMessage@data3^(0+1280),w,c
  2858  00286C  6E2D               	movwf	(??_CANWriteMessage+1)^(0+1280),c
  2859  00286E  6A2C               	clrf	??_CANWriteMessage^(0+1280),c
  2860  002870  0E00               	movlw	0
  2861  002872  142C               	andwf	??_CANWriteMessage^(0+1280),w,c
  2862  002874  6E30               	movwf	CANWriteMessage@uiData2^(0+1280),c
  2863  002876  0EFF               	movlw	255
  2864  002878  142D               	andwf	(??_CANWriteMessage+1)^(0+1280),w,c
  2865  00287A  6E31               	movwf	(CANWriteMessage@uiData2+1)^(0+1280),c
  2866                           
  2867                           ;MESSAGES.c: 24:     uiData2 |= data4;
  2868  00287C  5027               	movf	CANWriteMessage@data4^(0+1280),w,c
  2869  00287E  1230               	iorwf	CANWriteMessage@uiData2^(0+1280),f,c
  2870                           
  2871                           ;MESSAGES.c: 25:     uiData3 = ( data5 << 0x08 ) & 0xFF00;
  2872  002880  5028               	movf	CANWriteMessage@data5^(0+1280),w,c
  2873  002882  6E2D               	movwf	(??_CANWriteMessage+1)^(0+1280),c
  2874  002884  6A2C               	clrf	??_CANWriteMessage^(0+1280),c
  2875  002886  0E00               	movlw	0
  2876  002888  142C               	andwf	??_CANWriteMessage^(0+1280),w,c
  2877  00288A  6E32               	movwf	CANWriteMessage@uiData3^(0+1280),c
  2878  00288C  0EFF               	movlw	255
  2879  00288E  142D               	andwf	(??_CANWriteMessage+1)^(0+1280),w,c
  2880  002890  6E33               	movwf	(CANWriteMessage@uiData3+1)^(0+1280),c
  2881                           
  2882                           ;MESSAGES.c: 26:     uiData3 |= data6;
  2883  002892  5029               	movf	CANWriteMessage@data6^(0+1280),w,c
  2884  002894  1232               	iorwf	CANWriteMessage@uiData3^(0+1280),f,c
  2885                           
  2886                           ;MESSAGES.c: 27:     uiData4 = ( data7 << 0x08 ) & 0xFF00;
  2887  002896  502A               	movf	CANWriteMessage@data7^(0+1280),w,c
  2888  002898  6E2D               	movwf	(??_CANWriteMessage+1)^(0+1280),c
  2889  00289A  6A2C               	clrf	??_CANWriteMessage^(0+1280),c
  2890  00289C  0E00               	movlw	0
  2891  00289E  142C               	andwf	??_CANWriteMessage^(0+1280),w,c
  2892  0028A0  6E34               	movwf	CANWriteMessage@uiData4^(0+1280),c
  2893  0028A2  0EFF               	movlw	255
  2894  0028A4  142D               	andwf	(??_CANWriteMessage+1)^(0+1280),w,c
  2895  0028A6  6E35               	movwf	(CANWriteMessage@uiData4+1)^(0+1280),c
  2896                           
  2897                           ;MESSAGES.c: 28:     uiData4 |= data8;
  2898  0028A8  502B               	movf	CANWriteMessage@data8^(0+1280),w,c
  2899  0028AA  1234               	iorwf	CANWriteMessage@uiData4^(0+1280),f,c
  2900  0028AC                     
  2901                           ;MESSAGES.c: 30:     CANDATAdata [0] = data1;
  2902  0028AC  C524  F560         	movff	CANWriteMessage@data1,_CANDATAdata
  2903  0028B0                     
  2904                           ;MESSAGES.c: 31:     CANDATAdata [1] = data2;
  2905  0028B0  C525  F561         	movff	CANWriteMessage@data2,_CANDATAdata+1
  2906  0028B4                     
  2907                           ;MESSAGES.c: 32:     CANDATAdata [2] = data3;
  2908  0028B4  C526  F562         	movff	CANWriteMessage@data3,_CANDATAdata+2
  2909  0028B8                     
  2910                           ;MESSAGES.c: 33:     CANDATAdata [3] = data4;
  2911  0028B8  C527  F563         	movff	CANWriteMessage@data4,_CANDATAdata+3
  2912  0028BC                     
  2913                           ;MESSAGES.c: 34:     CANDATAdata [4] = data5;
  2914  0028BC  C528  F564         	movff	CANWriteMessage@data5,_CANDATAdata+4
  2915  0028C0                     
  2916                           ;MESSAGES.c: 35:     CANDATAdata [5] = data6;
  2917  0028C0  C529  F565         	movff	CANWriteMessage@data6,_CANDATAdata+5
  2918  0028C4                     
  2919                           ;MESSAGES.c: 36:     CANDATAdata [6] = data7;
  2920  0028C4  C52A  F566         	movff	CANWriteMessage@data7,_CANDATAdata+6
  2921  0028C8                     
  2922                           ;MESSAGES.c: 37:     CANDATAdata [7] = data8;
  2923  0028C8  C52B  F567         	movff	CANWriteMessage@data8,_CANDATAdata+7
  2924  0028CC                     
  2925                           ;MESSAGES.c: 39:     if(CAN_CONFIGURATION_MODE == CAN1_OperationModeGet())
  2926  0028CC  EC2A  F019         	call	_CAN1_OperationModeGet	;wreg free
  2927  0028D0  0A04               	xorlw	4
  2928  0028D2  A4D8               	btfss	status,2,c
  2929  0028D4  EF6E  F014         	goto	u1131
  2930  0028D8  EF70  F014         	goto	u1130
  2931  0028DC                     u1131:
  2932  0028DC  EFA6  F014         	goto	l1064
  2933  0028E0                     u1130:
  2934  0028E0                     
  2935                           ;MESSAGES.c: 40:     {;MESSAGES.c: 41:         if(CAN_OP_MODE_REQUEST_SUCCESS == CAN1_Op
      +                          erationModeSet(CAN_NORMAL_2_0_MODE))
  2936  0028E0  0E06               	movlw	6
  2937  0028E2  ECD2  F016         	call	_CAN1_OperationModeSet
  2938  0028E6  0900               	iorlw	0
  2939  0028E8  A4D8               	btfss	status,2,c
  2940  0028EA  EF79  F014         	goto	u1141
  2941  0028EE  EF7B  F014         	goto	u1140
  2942  0028F2                     u1141:
  2943  0028F2  EFA6  F014         	goto	l1064
  2944  0028F6                     u1140:
  2945  0028F6                     
  2946                           ;MESSAGES.c: 42:         {;MESSAGES.c: 43:             msg.msgId = id;
  2947  0028F6  C51F  F554         	movff	CANWriteMessage@id,_msg
  2948  0028FA  C520  F555         	movff	CANWriteMessage@id+1,_msg+1
  2949  0028FE  C521  F556         	movff	CANWriteMessage@id+2,_msg+2
  2950  002902  C522  F557         	movff	CANWriteMessage@id+3,_msg+3
  2951                           
  2952                           ;MESSAGES.c: 44:             msg.field.formatType = CAN_2_0_FORMAT;
  2953  002906  9C58               	bcf	(_msg+4)^(0+1280),6,c
  2954                           
  2955                           ;MESSAGES.c: 45:             msg.field.brs = CAN_NON_BRS_MODE;
  2956  002908  9E58               	bcf	(_msg+4)^(0+1280),7,c
  2957                           
  2958                           ;MESSAGES.c: 46:             msg.field.frameType = CAN_FRAME_DATA;
  2959  00290A  9258               	bcf	(_msg+4)^(0+1280),1,c
  2960                           
  2961                           ;MESSAGES.c: 47:             msg.field.idType = CAN_FRAME_STD;
  2962  00290C  9058               	bcf	(_msg+4)^(0+1280),0,c
  2963  00290E                     
  2964                           ;MESSAGES.c: 48:             msg.field.dlc = dataLength;
  2965  00290E  C523  F52C         	movff	CANWriteMessage@dataLength,??_CANWriteMessage
  2966  002912  462C               	rlncf	??_CANWriteMessage^(0+1280),f,c
  2967  002914  462C               	rlncf	??_CANWriteMessage^(0+1280),f,c
  2968  002916  5058               	movf	(_msg+4)^(0+1280),w,c
  2969  002918  182C               	xorwf	??_CANWriteMessage^(0+1280),w,c
  2970  00291A  0BC3               	andlw	-61
  2971  00291C  182C               	xorwf	??_CANWriteMessage^(0+1280),w,c
  2972  00291E  6E58               	movwf	(_msg+4)^(0+1280),c
  2973                           
  2974                           ;MESSAGES.c: 49:             msg.data = CANDATAdata;
  2975  002920  0E60               	movlw	low _CANDATAdata
  2976  002922  6E59               	movwf	(_msg+5)^(0+1280),c
  2977  002924  0E05               	movlw	high _CANDATAdata
  2978  002926  6E5A               	movwf	(_msg+6)^(0+1280),c
  2979  002928                     
  2980                           ;MESSAGES.c: 51:             if(CAN_TX_FIFO_AVAILABLE == (CAN1_TransmitFIFOStatusGet(TXQ
      +                          ) & CAN_TX_FIFO_AVAILABLE))
  2981  002928  0E00               	movlw	0
  2982  00292A  EC72  F018         	call	_CAN1_TransmitFIFOStatusGet
  2983  00292E  6E2C               	movwf	??_CANWriteMessage^(0+1280),c
  2984  002930  A02C               	btfss	??_CANWriteMessage^(0+1280),0,c
  2985  002932  EF9D  F014         	goto	u1151
  2986  002936  EF9F  F014         	goto	u1150
  2987  00293A                     u1151:
  2988  00293A  EFA6  F014         	goto	l1064
  2989  00293E                     u1150:
  2990  00293E                     
  2991                           ;MESSAGES.c: 52:             {;MESSAGES.c: 53:                 CAN1_Transmit(TXQ, &msg);
  2992  00293E  0E54               	movlw	low _msg
  2993  002940  6E19               	movwf	CAN1_Transmit@txCanMsg^(0+1280),c
  2994  002942  0E05               	movlw	high _msg
  2995  002944  6E1A               	movwf	(CAN1_Transmit@txCanMsg+1)^(0+1280),c
  2996  002946  0E00               	movlw	0
  2997  002948  EC69  F015         	call	_CAN1_Transmit
  2998  00294C                     l1064:
  2999  00294C  0012               	return		;funcret
  3000  00294E                     __end_of_CANWriteMessage:
  3001                           	callstack 0
  3002                           
  3003 ;; *************** function _CAN1_TransmitFIFOStatusGet *****************
  3004 ;; Defined at:
  3005 ;;		line 282 in file "mcc_generated_files/can1.c"
  3006 ;; Parameters:    Size  Location     Type
  3007 ;;  fifoChannel     1    wreg     const enum E22383
  3008 ;; Auto vars:     Size  Location     Type
  3009 ;;  fifoChannel     1    5[COMRAM] const enum E22383
  3010 ;;  status          1    4[COMRAM] enum E22361
  3011 ;; Return value:  Size  Location     Type
  3012 ;;                  1    wreg      enum E22361
  3013 ;; Registers used:
  3014 ;;		wreg, fsr2l, fsr2h, status,2, status,0, prodl, prodh, cstack
  3015 ;; Tracked objects:
  3016 ;;		On entry : 0/0
  3017 ;;		On exit  : 0/0
  3018 ;;		Unchanged: 0/0
  3019 ;; Data sizes:     COMRAM   BANK5   BANK6   BANK7   BANK8   BANK9  BANK10  BANK11  BANK12  BANK13  BANK14  BANK15  BANK1
      +6  BANK17  BANK18  BANK19  BANK20  BANK21  BANK22  BANK23  BANK24  BANK25  BANK26  BANK27  BANK28  BANK29  BANK30  BANK3
      +1  BANK32  BANK33  BANK34  BANK35  BANK36  BANK37
  3020 ;;      Params:         0       0       0       0       0       0       0       0       0       0       0       0       
      +0       0       0       0       0       0       0       0       0       0       0       0       0       0       0       
      +0       0       0       0       0       0       0
  3021 ;;      Locals:         2       0       0       0       0       0       0       0       0       0       0       0       
      +0       0       0       0       0       0       0       0       0       0       0       0       0       0       0       
      +0       0       0       0       0       0       0
  3022 ;;      Temps:          0       0       0       0       0       0       0       0       0       0       0       0       
      +0       0       0       0       0       0       0       0       0       0       0       0       0       0       0       
      +0       0       0       0       0       0       0
  3023 ;;      Totals:         2       0       0       0       0       0       0       0       0       0       0       0       
      +0       0       0       0       0       0       0       0       0       0       0       0       0       0       0       
      +0       0       0       0       0       0       0
  3024 ;;Total ram usage:        2 bytes
  3025 ;; Hardware stack levels used: 1
  3026 ;; Hardware stack levels required when called: 5
  3027 ;; This function calls:
  3028 ;;		_GetTxFifoStatus
  3029 ;;		_isTxChannel
  3030 ;; This function is called by:
  3031 ;;		_CANWriteMessage
  3032 ;; This function uses a non-reentrant model
  3033 ;;
  3034                           
  3035                           	psect	text30
  3036  0030E4                     __ptext30:
  3037                           	callstack 0
  3038  0030E4                     _CAN1_TransmitFIFOStatusGet:
  3039                           	callstack 120
  3040                           
  3041                           ;incstack = 0
  3042                           ;CAN1_TransmitFIFOStatusGet@fifoChannel stored from wreg
  3043  0030E4  6E06               	movwf	CAN1_TransmitFIFOStatusGet@fifoChannel^(0+1280),c
  3044  0030E6                     
  3045                           ;mcc_generated_files/can1.c: 282: CAN_TX_FIFO_STATUS CAN1_TransmitFIFOStatusGet(const CA
      +                          N1_TX_FIFO_CHANNELS fifoChannel);mcc_generated_files/can1.c: 283: {;mcc_generated_files/
      +                          can1.c: 284:     CAN_TX_FIFO_STATUS status = CAN_TX_FIFO_FULL;
  3046  0030E6  0E00               	movlw	0
  3047  0030E8  6E05               	movwf	CAN1_TransmitFIFOStatusGet@status^(0+1280),c
  3048  0030EA                     
  3049                           ;mcc_generated_files/can1.c: 286:     if (isTxChannel(fifoChannel))
  3050  0030EA  5006               	movf	CAN1_TransmitFIFOStatusGet@fifoChannel^(0+1280),w,c
  3051  0030EC  EC8B  F017         	call	_isTxChannel
  3052  0030F0  0900               	iorlw	0
  3053  0030F2  B4D8               	btfsc	status,2,c
  3054  0030F4  EF7E  F018         	goto	u1111
  3055  0030F8  EF80  F018         	goto	u1110
  3056  0030FC                     u1111:
  3057  0030FC  EF84  F018         	goto	l2808
  3058  003100                     u1110:
  3059  003100                     
  3060                           ;mcc_generated_files/can1.c: 287:     {;mcc_generated_files/can1.c: 288:         status 
      +                          = GetTxFifoStatus(fifoChannel);
  3061  003100  5006               	movf	CAN1_TransmitFIFOStatusGet@fifoChannel^(0+1280),w,c
  3062  003102  ECB5  F018         	call	_GetTxFifoStatus
  3063  003106  6E05               	movwf	CAN1_TransmitFIFOStatusGet@status^(0+1280),c
  3064  003108                     l2808:
  3065                           
  3066                           ;mcc_generated_files/can1.c: 291:     return status;
  3067  003108  5005               	movf	CAN1_TransmitFIFOStatusGet@status^(0+1280),w,c
  3068  00310A  0012               	return		;funcret
  3069  00310C                     __end_of_CAN1_TransmitFIFOStatusGet:
  3070                           	callstack 0
  3071                           
  3072 ;; *************** function _CAN1_Transmit *****************
  3073 ;; Defined at:
  3074 ;;		line 260 in file "mcc_generated_files/can1.c"
  3075 ;; Parameters:    Size  Location     Type
  3076 ;;  fifoChannel     1    wreg     const enum E22383
  3077 ;;  txCanMsg        2   24[COMRAM] PTR struct .
  3078 ;;		 -> msg(7), 
  3079 ;; Auto vars:     Size  Location     Type
  3080 ;;  fifoChannel     1   29[COMRAM] const enum E22383
  3081 ;;  txFifoObj       2   27[COMRAM] PTR unsigned char 
  3082 ;;		 -> RAM(9727), 
  3083 ;;  status          1   26[COMRAM] enum E22340
  3084 ;; Return value:  Size  Location     Type
  3085 ;;                  1    wreg      enum E22340
  3086 ;; Registers used:
  3087 ;;		wreg, fsr1l, fsr1h, fsr2l, fsr2h, status,2, status,0, tblptrl, tblptrh, tblptru, prodl, prodh, cstack
  3088 ;; Tracked objects:
  3089 ;;		On entry : 0/0
  3090 ;;		On exit  : 0/0
  3091 ;;		Unchanged: 0/0
  3092 ;; Data sizes:     COMRAM   BANK5   BANK6   BANK7   BANK8   BANK9  BANK10  BANK11  BANK12  BANK13  BANK14  BANK15  BANK1
      +6  BANK17  BANK18  BANK19  BANK20  BANK21  BANK22  BANK23  BANK24  BANK25  BANK26  BANK27  BANK28  BANK29  BANK30  BANK3
      +1  BANK32  BANK33  BANK34  BANK35  BANK36  BANK37
  3093 ;;      Params:         2       0       0       0       0       0       0       0       0       0       0       0       
      +0       0       0       0       0       0       0       0       0       0       0       0       0       0       0       
      +0       0       0       0       0       0       0
  3094 ;;      Locals:         4       0       0       0       0       0       0       0       0       0       0       0       
      +0       0       0       0       0       0       0       0       0       0       0       0       0       0       0       
      +0       0       0       0       0       0       0
  3095 ;;      Temps:          0       0       0       0       0       0       0       0       0       0       0       0       
      +0       0       0       0       0       0       0       0       0       0       0       0       0       0       0       
      +0       0       0       0       0       0       0
  3096 ;;      Totals:         6       0       0       0       0       0       0       0       0       0       0       0       
      +0       0       0       0       0       0       0       0       0       0       0       0       0       0       0       
      +0       0       0       0       0       0       0
  3097 ;;Total ram usage:        6 bytes
  3098 ;; Hardware stack levels used: 1
  3099 ;; Hardware stack levels required when called: 6
  3100 ;; This function calls:
  3101 ;;		_ValidateTransmission
  3102 ;;		_WriteMessageToFifo
  3103 ;;		_isTxChannel
  3104 ;; This function is called by:
  3105 ;;		_CANWriteMessage
  3106 ;; This function uses a non-reentrant model
  3107 ;;
  3108                           
  3109                           	psect	text31
  3110  002AD2                     __ptext31:
  3111                           	callstack 0
  3112  002AD2                     _CAN1_Transmit:
  3113                           	callstack 119
  3114                           
  3115                           ;incstack = 0
  3116                           ;CAN1_Transmit@fifoChannel stored from wreg
  3117  002AD2  6E1E               	movwf	CAN1_Transmit@fifoChannel^(0+1280),c
  3118  002AD4                     
  3119                           ;mcc_generated_files/can1.c: 264:     if (isTxChannel(fifoChannel))
  3120  002AD4  501E               	movf	CAN1_Transmit@fifoChannel^(0+1280),w,c
  3121  002AD6  EC8B  F017         	call	_isTxChannel
  3122  002ADA  0900               	iorlw	0
  3123  002ADC  B4D8               	btfsc	status,2,c
  3124  002ADE  EF73  F015         	goto	u1081
  3125  002AE2  EF75  F015         	goto	u1080
  3126  002AE6                     u1081:
  3127  002AE6  EFB2  F015         	goto	l670
  3128  002AEA                     u1080:
  3129  002AEA                     
  3130                           ;mcc_generated_files/can1.c: 265:     {;mcc_generated_files/can1.c: 266:         status 
      +                          = ValidateTransmission(fifoChannel, txCanMsg);
  3131  002AEA  C519  F504         	movff	CAN1_Transmit@txCanMsg,ValidateTransmission@txCanMsg
  3132  002AEE  C51A  F505         	movff	CAN1_Transmit@txCanMsg+1,ValidateTransmission@txCanMsg+1
  3133  002AF2  501E               	movf	CAN1_Transmit@fifoChannel^(0+1280),w,c
  3134  002AF4  ECA7  F014         	call	_ValidateTransmission
  3135  002AF8  6E1B               	movwf	CAN1_Transmit@status^(0+1280),c
  3136  002AFA                     
  3137                           ;mcc_generated_files/can1.c: 267:         if (CAN_TX_MSG_REQUEST_SUCCESS == status)
  3138  002AFA  501B               	movf	CAN1_Transmit@status^(0+1280),w,c
  3139  002AFC  A4D8               	btfss	status,2,c
  3140  002AFE  EF83  F015         	goto	u1091
  3141  002B02  EF85  F015         	goto	u1090
  3142  002B06                     u1091:
  3143  002B06  EFB2  F015         	goto	l670
  3144  002B0A                     u1090:
  3145  002B0A                     
  3146                           ;mcc_generated_files/can1.c: 268:         {;mcc_generated_files/can1.c: 269:            
      +                           uint8_t *txFifoObj = (uint8_t *) FIFO[fifoChannel].UA;
  3147  002B0A  501E               	movf	CAN1_Transmit@fifoChannel^(0+1280),w,c
  3148  002B0C  0D0C               	mullw	12
  3149  002B0E  0E58               	movlw	88
  3150  002B10  24F3               	addwf	243,w,c
  3151  002B12  6ED9               	movwf	fsr2l,c
  3152  002B14  0E01               	movlw	1
  3153  002B16  20F4               	addwfc	prodh,w,c
  3154  002B18  6EDA               	movwf	fsr2h,c
  3155  002B1A  0061 F378  F51C    	movff	postinc2,CAN1_Transmit@txFifoObj
  3156  002B20  0061 F374  F51D    	movff	postdec2,CAN1_Transmit@txFifoObj+1
  3157  002B26                     
  3158                           ;mcc_generated_files/can1.c: 271:             if (txFifoObj != ((void*)0))
  3159  002B26  501C               	movf	CAN1_Transmit@txFifoObj^(0+1280),w,c
  3160  002B28  101D               	iorwf	(CAN1_Transmit@txFifoObj+1)^(0+1280),w,c
  3161  002B2A  B4D8               	btfsc	status,2,c
  3162  002B2C  EF9A  F015         	goto	u1101
  3163  002B30  EF9C  F015         	goto	u1100
  3164  002B34                     u1101:
  3165  002B34  EFB2  F015         	goto	l667
  3166  002B38                     u1100:
  3167  002B38                     
  3168                           ;mcc_generated_files/can1.c: 272:             {;mcc_generated_files/can1.c: 273:        
      +                                   WriteMessageToFifo(txFifoObj, txCanMsg);
  3169  002B38  C51C  F50E         	movff	CAN1_Transmit@txFifoObj,WriteMessageToFifo@txFifoObj
  3170  002B3C  C51D  F50F         	movff	CAN1_Transmit@txFifoObj+1,WriteMessageToFifo@txFifoObj+1
  3171  002B40  C519  F510         	movff	CAN1_Transmit@txCanMsg,WriteMessageToFifo@txCanMsg
  3172  002B44  C51A  F511         	movff	CAN1_Transmit@txCanMsg+1,WriteMessageToFifo@txCanMsg+1
  3173  002B48  EC07  F013         	call	_WriteMessageToFifo	;wreg free
  3174  002B4C                     
  3175                           ;mcc_generated_files/can1.c: 274:                 FIFO[fifoChannel].CONH |= (0x2 | 0x1);
  3176  002B4C  501E               	movf	CAN1_Transmit@fifoChannel^(0+1280),w,c
  3177  002B4E  0D0C               	mullw	12
  3178  002B50  0E51               	movlw	81
  3179  002B52  24F3               	addwf	243,w,c
  3180  002B54  6ED9               	movwf	fsr2l,c
  3181  002B56  0E01               	movlw	1
  3182  002B58  20F4               	addwfc	prodh,w,c
  3183  002B5A  6EDA               	movwf	fsr2h,c
  3184  002B5C  0E03               	movlw	3
  3185  002B5E  12DF               	iorwf	indf2,f,c
  3186  002B60  EFB2  F015         	goto	l670
  3187  002B64                     l667:
  3188  002B64                     l670:
  3189  002B64  0012               	return		;funcret
  3190  002B66                     __end_of_CAN1_Transmit:
  3191                           	callstack 0
  3192                           
  3193 ;; *************** function _isTxChannel *****************
  3194 ;; Defined at:
  3195 ;;		line 180 in file "mcc_generated_files/can1.c"
  3196 ;; Parameters:    Size  Location     Type
  3197 ;;  channel         1    wreg     unsigned char 
  3198 ;; Auto vars:     Size  Location     Type
  3199 ;;  channel         1    3[COMRAM] unsigned char 
  3200 ;; Return value:  Size  Location     Type
  3201 ;;                  1    wreg      _Bool 
  3202 ;; Registers used:
  3203 ;;		wreg, fsr2l, fsr2h, status,2, status,0, prodl, prodh
  3204 ;; Tracked objects:
  3205 ;;		On entry : 0/0
  3206 ;;		On exit  : 0/0
  3207 ;;		Unchanged: 0/0
  3208 ;; Data sizes:     COMRAM   BANK5   BANK6   BANK7   BANK8   BANK9  BANK10  BANK11  BANK12  BANK13  BANK14  BANK15  BANK1
      +6  BANK17  BANK18  BANK19  BANK20  BANK21  BANK22  BANK23  BANK24  BANK25  BANK26  BANK27  BANK28  BANK29  BANK30  BANK3
      +1  BANK32  BANK33  BANK34  BANK35  BANK36  BANK37
  3209 ;;      Params:         0       0       0       0       0       0       0       0       0       0       0       0       
      +0       0       0       0       0       0       0       0       0       0       0       0       0       0       0       
      +0       0       0       0       0       0       0
  3210 ;;      Locals:         2       0       0       0       0       0       0       0       0       0       0       0       
      +0       0       0       0       0       0       0       0       0       0       0       0       0       0       0       
      +0       0       0       0       0       0       0
  3211 ;;      Temps:          0       0       0       0       0       0       0       0       0       0       0       0       
      +0       0       0       0       0       0       0       0       0       0       0       0       0       0       0       
      +0       0       0       0       0       0       0
  3212 ;;      Totals:         2       0       0       0       0       0       0       0       0       0       0       0       
      +0       0       0       0       0       0       0       0       0       0       0       0       0       0       0       
      +0       0       0       0       0       0       0
  3213 ;;Total ram usage:        2 bytes
  3214 ;; Hardware stack levels used: 1
  3215 ;; Hardware stack levels required when called: 4
  3216 ;; This function calls:
  3217 ;;		Nothing
  3218 ;; This function is called by:
  3219 ;;		_CAN1_Transmit
  3220 ;;		_CAN1_TransmitFIFOStatusGet
  3221 ;; This function uses a non-reentrant model
  3222 ;;
  3223                           
  3224                           	psect	text32
  3225  002F16                     __ptext32:
  3226                           	callstack 0
  3227  002F16                     _isTxChannel:
  3228                           	callstack 120
  3229                           
  3230                           ;incstack = 0
  3231                           ;isTxChannel@channel stored from wreg
  3232  002F16  6E04               	movwf	isTxChannel@channel^(0+1280),c
  3233  002F18                     
  3234                           ;mcc_generated_files/can1.c: 180: static _Bool isTxChannel(uint8_t channel);mcc_generate
      +                          d_files/can1.c: 181: {;mcc_generated_files/can1.c: 182:     return channel < 4u && (FIFO
      +                          [channel].CONL & 0x80);
  3235  002F18  0E00               	movlw	0
  3236  002F1A  6E03               	movwf	_isTxChannel$1434^(0+1280),c
  3237  002F1C  0E04               	movlw	4
  3238  002F1E  6004               	cpfslt	isTxChannel@channel^(0+1280),c
  3239  002F20  EF94  F017         	goto	u871
  3240  002F24  EF96  F017         	goto	u870
  3241  002F28                     u871:
  3242  002F28  EFA8  F017         	goto	l645
  3243  002F2C                     u870:
  3244  002F2C  5004               	movf	isTxChannel@channel^(0+1280),w,c
  3245  002F2E  0D0C               	mullw	12
  3246  002F30  0E50               	movlw	80
  3247  002F32  24F3               	addwf	243,w,c
  3248  002F34  6ED9               	movwf	fsr2l,c
  3249  002F36  0E01               	movlw	1
  3250  002F38  20F4               	addwfc	prodh,w,c
  3251  002F3A  6EDA               	movwf	fsr2h,c
  3252  002F3C  0101               	movlb	1	; () banked
  3253  002F3E  AEDF               	btfss	indf2,7,c
  3254  002F40  EFA4  F017         	goto	u881
  3255  002F44  EFA6  F017         	goto	u880
  3256  002F48                     u881:
  3257  002F48  EFA8  F017         	goto	l645
  3258  002F4C                     u880:
  3259  002F4C                     
  3260                           ; BSR set to: 1
  3261  002F4C  0E01               	movlw	1
  3262  002F4E  6E03               	movwf	_isTxChannel$1434^(0+1280),c
  3263  002F50                     l645:
  3264  002F50  5003               	movf	_isTxChannel$1434^(0+1280),w,c
  3265  002F52  0012               	return		;funcret
  3266  002F54                     __end_of_isTxChannel:
  3267                           	callstack 0
  3268                           
  3269 ;; *************** function _WriteMessageToFifo *****************
  3270 ;; Defined at:
  3271 ;;		line 190 in file "mcc_generated_files/can1.c"
  3272 ;; Parameters:    Size  Location     Type
  3273 ;;  txFifoObj       2   13[COMRAM] PTR unsigned char 
  3274 ;;		 -> RAM(9727), 
  3275 ;;  txCanMsg        2   15[COMRAM] PTR struct .
  3276 ;;		 -> msg(7), 
  3277 ;; Auto vars:     Size  Location     Type
  3278 ;;  msgId           4   20[COMRAM] unsigned long 
  3279 ;;  status          1   19[COMRAM] unsigned char 
  3280 ;;  payloadOffse    1    0        const unsigned char 
  3281 ;; Return value:  Size  Location     Type
  3282 ;;                  1    wreg      void 
  3283 ;; Registers used:
  3284 ;;		wreg, fsr1l, fsr1h, fsr2l, fsr2h, status,2, status,0, tblptrl, tblptrh, tblptru, cstack
  3285 ;; Tracked objects:
  3286 ;;		On entry : 0/0
  3287 ;;		On exit  : 0/0
  3288 ;;		Unchanged: 0/0
  3289 ;; Data sizes:     COMRAM   BANK5   BANK6   BANK7   BANK8   BANK9  BANK10  BANK11  BANK12  BANK13  BANK14  BANK15  BANK1
      +6  BANK17  BANK18  BANK19  BANK20  BANK21  BANK22  BANK23  BANK24  BANK25  BANK26  BANK27  BANK28  BANK29  BANK30  BANK3
      +1  BANK32  BANK33  BANK34  BANK35  BANK36  BANK37
  3290 ;;      Params:         4       0       0       0       0       0       0       0       0       0       0       0       
      +0       0       0       0       0       0       0       0       0       0       0       0       0       0       0       
      +0       0       0       0       0       0       0
  3291 ;;      Locals:         5       0       0       0       0       0       0       0       0       0       0       0       
      +0       0       0       0       0       0       0       0       0       0       0       0       0       0       0       
      +0       0       0       0       0       0       0
  3292 ;;      Temps:          2       0       0       0       0       0       0       0       0       0       0       0       
      +0       0       0       0       0       0       0       0       0       0       0       0       0       0       0       
      +0       0       0       0       0       0       0
  3293 ;;      Totals:        11       0       0       0       0       0       0       0       0       0       0       0       
      +0       0       0       0       0       0       0       0       0       0       0       0       0       0       0       
      +0       0       0       0       0       0       0
  3294 ;;Total ram usage:       11 bytes
  3295 ;; Hardware stack levels used: 1
  3296 ;; Hardware stack levels required when called: 5
  3297 ;; This function calls:
  3298 ;;		_memcpy
  3299 ;; This function is called by:
  3300 ;;		_CAN1_Transmit
  3301 ;; This function uses a non-reentrant model
  3302 ;;
  3303                           
  3304                           	psect	text33
  3305  00260E                     __ptext33:
  3306                           	callstack 0
  3307  00260E                     _WriteMessageToFifo:
  3308                           	callstack 119
  3309  00260E                     
  3310                           ;mcc_generated_files/can1.c: 190: static void WriteMessageToFifo(uint8_t *txFifoObj, CAN
      +                          _MSG_OBJ *txCanMsg);mcc_generated_files/can1.c: 191: {;mcc_generated_files/can1.c: 192: 
      +                              uint32_t msgId = txCanMsg->msgId;
  3311  00260E  0061  F440  F4D9   	movff	WriteMessageToFifo@txCanMsg,fsr2l
  3312  002614  0061  F444  F4DA   	movff	WriteMessageToFifo@txCanMsg+1,fsr2h
  3313  00261A  0061 F378  F515    	movff	postinc2,WriteMessageToFifo@msgId
  3314  002620  0061 F378  F516    	movff	postinc2,WriteMessageToFifo@msgId+1
  3315  002626  0061 F378  F517    	movff	postinc2,WriteMessageToFifo@msgId+2
  3316  00262C  0061 F378  F518    	movff	postinc2,WriteMessageToFifo@msgId+3
  3317  002632                     
  3318                           ;mcc_generated_files/can1.c: 200:     if (CAN_FRAME_EXT == txCanMsg->field.idType)
  3319  002632  EE20 F004          	lfsr	2,4
  3320  002636  5010               	movf	WriteMessageToFifo@txCanMsg^(0+1280),w,c
  3321  002638  26D9               	addwf	fsr2l,f,c
  3322  00263A  5011               	movf	(WriteMessageToFifo@txCanMsg+1)^(0+1280),w,c
  3323  00263C  22DA               	addwfc	fsr2h,f,c
  3324  00263E  A0DF               	btfss	indf2,0,c
  3325  002640  EF24  F013         	goto	u891
  3326  002644  EF26  F013         	goto	u890
  3327  002648                     u891:
  3328  002648  EF60  F013         	goto	l2606
  3329  00264C                     u890:
  3330  00264C                     
  3331                           ;mcc_generated_files/can1.c: 201:     {;mcc_generated_files/can1.c: 202:         txFifoO
      +                          bj[1] = (msgId << (3U)) & (0xF8U);
  3332  00264C  EE20 F001          	lfsr	2,1
  3333  002650  500E               	movf	WriteMessageToFifo@txFifoObj^(0+1280),w,c
  3334  002652  26D9               	addwf	fsr2l,f,c
  3335  002654  500F               	movf	(WriteMessageToFifo@txFifoObj+1)^(0+1280),w,c
  3336  002656  22DA               	addwfc	fsr2h,f,c
  3337  002658  3815               	swapf	WriteMessageToFifo@msgId^(0+1280),w,c
  3338  00265A  42E8               	rrncf	wreg,f,c
  3339  00265C  0BF8               	andlw	248
  3340  00265E  0BF8               	andlw	248
  3341  002660  6EDF               	movwf	indf2,c
  3342  002662                     
  3343                           ;mcc_generated_files/can1.c: 203:         msgId >>= (5U);
  3344  002662  0E05               	movlw	5
  3345  002664  6E12               	movwf	??_WriteMessageToFifo^(0+1280),c
  3346  002666                     u905:
  3347  002666  90D8               	bcf	status,0,c
  3348  002668  3218               	rrcf	(WriteMessageToFifo@msgId+3)^(0+1280),f,c
  3349  00266A  3217               	rrcf	(WriteMessageToFifo@msgId+2)^(0+1280),f,c
  3350  00266C  3216               	rrcf	(WriteMessageToFifo@msgId+1)^(0+1280),f,c
  3351  00266E  3215               	rrcf	WriteMessageToFifo@msgId^(0+1280),f,c
  3352  002670  2E12               	decfsz	??_WriteMessageToFifo^(0+1280),f,c
  3353  002672  EF33  F013         	goto	u905
  3354  002676                     
  3355                           ;mcc_generated_files/can1.c: 204:         txFifoObj[2] = msgId;
  3356  002676  EE20 F002          	lfsr	2,2
  3357  00267A  500E               	movf	WriteMessageToFifo@txFifoObj^(0+1280),w,c
  3358  00267C  26D9               	addwf	fsr2l,f,c
  3359  00267E  500F               	movf	(WriteMessageToFifo@txFifoObj+1)^(0+1280),w,c
  3360  002680  22DA               	addwfc	fsr2h,f,c
  3361  002682  0061  F454  F4DF   	movff	WriteMessageToFifo@msgId,indf2
  3362  002688                     
  3363                           ;mcc_generated_files/can1.c: 205:         msgId >>= (8U);
  3364  002688  C516  F515         	movff	WriteMessageToFifo@msgId+1,WriteMessageToFifo@msgId
  3365  00268C  C517  F516         	movff	WriteMessageToFifo@msgId+2,WriteMessageToFifo@msgId+1
  3366  002690  C518  F517         	movff	WriteMessageToFifo@msgId+3,WriteMessageToFifo@msgId+2
  3367  002694  6A18               	clrf	(WriteMessageToFifo@msgId+3)^(0+1280),c
  3368  002696                     
  3369                           ;mcc_generated_files/can1.c: 206:         txFifoObj[3] = (msgId & (0x1FU));
  3370  002696  EE20 F003          	lfsr	2,3
  3371  00269A  500E               	movf	WriteMessageToFifo@txFifoObj^(0+1280),w,c
  3372  00269C  26D9               	addwf	fsr2l,f,c
  3373  00269E  500F               	movf	(WriteMessageToFifo@txFifoObj+1)^(0+1280),w,c
  3374  0026A0  22DA               	addwfc	fsr2h,f,c
  3375  0026A2  5015               	movf	WriteMessageToFifo@msgId^(0+1280),w,c
  3376  0026A4  0B1F               	andlw	31
  3377  0026A6  6EDF               	movwf	indf2,c
  3378  0026A8                     
  3379                           ;mcc_generated_files/can1.c: 207:         msgId >>= (5U);
  3380  0026A8  0E05               	movlw	5
  3381  0026AA  6E12               	movwf	??_WriteMessageToFifo^(0+1280),c
  3382  0026AC                     u915:
  3383  0026AC  90D8               	bcf	status,0,c
  3384  0026AE  3218               	rrcf	(WriteMessageToFifo@msgId+3)^(0+1280),f,c
  3385  0026B0  3217               	rrcf	(WriteMessageToFifo@msgId+2)^(0+1280),f,c
  3386  0026B2  3216               	rrcf	(WriteMessageToFifo@msgId+1)^(0+1280),f,c
  3387  0026B4  3215               	rrcf	WriteMessageToFifo@msgId^(0+1280),f,c
  3388  0026B6  2E12               	decfsz	??_WriteMessageToFifo^(0+1280),f,c
  3389  0026B8  EF56  F013         	goto	u915
  3390                           
  3391                           ;mcc_generated_files/can1.c: 208:     }
  3392  0026BC  EF78  F013         	goto	l2608
  3393  0026C0                     l2606:
  3394                           
  3395                           ;mcc_generated_files/can1.c: 210:     {;mcc_generated_files/can1.c: 211:         txFifoO
      +                          bj[1] = txFifoObj[2] = txFifoObj[3] = 0;
  3396  0026C0  EE20 F003          	lfsr	2,3
  3397  0026C4  500E               	movf	WriteMessageToFifo@txFifoObj^(0+1280),w,c
  3398  0026C6  26D9               	addwf	fsr2l,f,c
  3399  0026C8  500F               	movf	(WriteMessageToFifo@txFifoObj+1)^(0+1280),w,c
  3400  0026CA  22DA               	addwfc	fsr2h,f,c
  3401  0026CC  0E00               	movlw	0
  3402  0026CE  6EDF               	movwf	indf2,c
  3403  0026D0  EE10 F002          	lfsr	1,2
  3404  0026D4  500E               	movf	WriteMessageToFifo@txFifoObj^(0+1280),w,c
  3405  0026D6  26E1               	addwf	fsr1l,f,c
  3406  0026D8  500F               	movf	(WriteMessageToFifo@txFifoObj+1)^(0+1280),w,c
  3407  0026DA  22E2               	addwfc	fsr1h,f,c
  3408  0026DC  C4DF F4E7          	movff	indf2,indf1
  3409  0026E0  EE20 F001          	lfsr	2,1
  3410  0026E4  500E               	movf	WriteMessageToFifo@txFifoObj^(0+1280),w,c
  3411  0026E6  26D9               	addwf	fsr2l,f,c
  3412  0026E8  500F               	movf	(WriteMessageToFifo@txFifoObj+1)^(0+1280),w,c
  3413  0026EA  22DA               	addwfc	fsr2h,f,c
  3414  0026EC  C4E7 F4DF          	movff	indf1,indf2
  3415  0026F0                     l2608:
  3416                           
  3417                           ;mcc_generated_files/can1.c: 214:     txFifoObj[0] = msgId;
  3418  0026F0  0061  F438  F4D9   	movff	WriteMessageToFifo@txFifoObj,fsr2l
  3419  0026F6  0061  F43C  F4DA   	movff	WriteMessageToFifo@txFifoObj+1,fsr2h
  3420  0026FC  0061  F454  F4DF   	movff	WriteMessageToFifo@msgId,indf2
  3421  002702                     
  3422                           ;mcc_generated_files/can1.c: 215:     msgId >>= (8U);
  3423  002702  C516  F515         	movff	WriteMessageToFifo@msgId+1,WriteMessageToFifo@msgId
  3424  002706  C517  F516         	movff	WriteMessageToFifo@msgId+2,WriteMessageToFifo@msgId+1
  3425  00270A  C518  F517         	movff	WriteMessageToFifo@msgId+3,WriteMessageToFifo@msgId+2
  3426  00270E  6A18               	clrf	(WriteMessageToFifo@msgId+3)^(0+1280),c
  3427  002710                     
  3428                           ;mcc_generated_files/can1.c: 216:     txFifoObj[1] |= (msgId & (0x07U));
  3429  002710  C515  F512         	movff	WriteMessageToFifo@msgId,??_WriteMessageToFifo
  3430  002714  0E07               	movlw	7
  3431  002716  1612               	andwf	??_WriteMessageToFifo^(0+1280),f,c
  3432  002718  EE20 F001          	lfsr	2,1
  3433  00271C  500E               	movf	WriteMessageToFifo@txFifoObj^(0+1280),w,c
  3434  00271E  26D9               	addwf	fsr2l,f,c
  3435  002720  500F               	movf	(WriteMessageToFifo@txFifoObj+1)^(0+1280),w,c
  3436  002722  22DA               	addwfc	fsr2h,f,c
  3437  002724  5012               	movf	??_WriteMessageToFifo^(0+1280),w,c
  3438  002726  12DF               	iorwf	indf2,f,c
  3439  002728                     
  3440                           ;mcc_generated_files/can1.c: 218:     status = txCanMsg->field.dlc;
  3441  002728  EE20 F004          	lfsr	2,4
  3442  00272C  5010               	movf	WriteMessageToFifo@txCanMsg^(0+1280),w,c
  3443  00272E  26D9               	addwf	fsr2l,f,c
  3444  002730  5011               	movf	(WriteMessageToFifo@txCanMsg+1)^(0+1280),w,c
  3445  002732  22DA               	addwfc	fsr2h,f,c
  3446  002734  30DF               	rrcf	479,w,c
  3447  002736  32E8               	rrcf	wreg,f,c
  3448  002738  0B0F               	andlw	15
  3449  00273A  6E14               	movwf	WriteMessageToFifo@status^(0+1280),c
  3450  00273C                     
  3451                           ;mcc_generated_files/can1.c: 219:     status |= (txCanMsg->field.idType << (4U));
  3452  00273C  EE20 F004          	lfsr	2,4
  3453  002740  5010               	movf	WriteMessageToFifo@txCanMsg^(0+1280),w,c
  3454  002742  26D9               	addwf	fsr2l,f,c
  3455  002744  5011               	movf	(WriteMessageToFifo@txCanMsg+1)^(0+1280),w,c
  3456  002746  22DA               	addwfc	fsr2h,f,c
  3457  002748  B0DF               	btfsc	indf2,0,c
  3458  00274A  EFA9  F013         	goto	u921
  3459  00274E  EFAD  F013         	goto	u920
  3460  002752                     u921:
  3461  002752  6A12               	clrf	??_WriteMessageToFifo^(0+1280),c
  3462  002754  2A12               	incf	??_WriteMessageToFifo^(0+1280),f,c
  3463  002756  EFAE  F013         	goto	u928
  3464  00275A                     u920:
  3465  00275A  6A12               	clrf	??_WriteMessageToFifo^(0+1280),c
  3466  00275C                     u928:
  3467  00275C  3812               	swapf	??_WriteMessageToFifo^(0+1280),w,c
  3468  00275E  0BF0               	andlw	240
  3469  002760  1214               	iorwf	WriteMessageToFifo@status^(0+1280),f,c
  3470  002762                     
  3471                           ;mcc_generated_files/can1.c: 220:     status |= (txCanMsg->field.frameType << (5U));
  3472  002762  EE20 F004          	lfsr	2,4
  3473  002766  5010               	movf	WriteMessageToFifo@txCanMsg^(0+1280),w,c
  3474  002768  26D9               	addwf	fsr2l,f,c
  3475  00276A  5011               	movf	(WriteMessageToFifo@txCanMsg+1)^(0+1280),w,c
  3476  00276C  22DA               	addwfc	fsr2h,f,c
  3477  00276E  B2DF               	btfsc	indf2,1,c
  3478  002770  EFBC  F013         	goto	u931
  3479  002774  EFC0  F013         	goto	u930
  3480  002778                     u931:
  3481  002778  0E20               	movlw	32
  3482  00277A  6E12               	movwf	??_WriteMessageToFifo^(0+1280),c
  3483  00277C  EFC1  F013         	goto	u945
  3484  002780                     u930:
  3485  002780  6A12               	clrf	??_WriteMessageToFifo^(0+1280),c
  3486  002782                     u945:
  3487  002782  5012               	movf	??_WriteMessageToFifo^(0+1280),w,c
  3488  002784  1214               	iorwf	WriteMessageToFifo@status^(0+1280),f,c
  3489  002786                     
  3490                           ;mcc_generated_files/can1.c: 221:     status |= (txCanMsg->field.brs << (6U));
  3491  002786  EE20 F004          	lfsr	2,4
  3492  00278A  5010               	movf	WriteMessageToFifo@txCanMsg^(0+1280),w,c
  3493  00278C  26D9               	addwf	fsr2l,f,c
  3494  00278E  5011               	movf	(WriteMessageToFifo@txCanMsg+1)^(0+1280),w,c
  3495  002790  22DA               	addwfc	fsr2h,f,c
  3496  002792  BEDF               	btfsc	indf2,7,c
  3497  002794  EFCE  F013         	goto	u951
  3498  002798  EFD2  F013         	goto	u950
  3499  00279C                     u951:
  3500  00279C  0E40               	movlw	64
  3501  00279E  6E12               	movwf	??_WriteMessageToFifo^(0+1280),c
  3502  0027A0  EFD3  F013         	goto	u965
  3503  0027A4                     u950:
  3504  0027A4  6A12               	clrf	??_WriteMessageToFifo^(0+1280),c
  3505  0027A6                     u965:
  3506  0027A6  5012               	movf	??_WriteMessageToFifo^(0+1280),w,c
  3507  0027A8  1214               	iorwf	WriteMessageToFifo@status^(0+1280),f,c
  3508  0027AA                     
  3509                           ;mcc_generated_files/can1.c: 222:     status |= (txCanMsg->field.formatType << (7U));
  3510  0027AA  EE20 F004          	lfsr	2,4
  3511  0027AE  5010               	movf	WriteMessageToFifo@txCanMsg^(0+1280),w,c
  3512  0027B0  26D9               	addwf	fsr2l,f,c
  3513  0027B2  5011               	movf	(WriteMessageToFifo@txCanMsg+1)^(0+1280),w,c
  3514  0027B4  22DA               	addwfc	fsr2h,f,c
  3515  0027B6  BCDF               	btfsc	indf2,6,c
  3516  0027B8  EFE0  F013         	goto	u971
  3517  0027BC  EFE4  F013         	goto	u970
  3518  0027C0                     u971:
  3519  0027C0  0E80               	movlw	128
  3520  0027C2  6E12               	movwf	??_WriteMessageToFifo^(0+1280),c
  3521  0027C4  EFE5  F013         	goto	u985
  3522  0027C8                     u970:
  3523  0027C8  6A12               	clrf	??_WriteMessageToFifo^(0+1280),c
  3524  0027CA                     u985:
  3525  0027CA  5012               	movf	??_WriteMessageToFifo^(0+1280),w,c
  3526  0027CC  1214               	iorwf	WriteMessageToFifo@status^(0+1280),f,c
  3527  0027CE                     
  3528                           ;mcc_generated_files/can1.c: 223:     txFifoObj[4] = status;
  3529  0027CE  EE20 F004          	lfsr	2,4
  3530  0027D2  500E               	movf	WriteMessageToFifo@txFifoObj^(0+1280),w,c
  3531  0027D4  26D9               	addwf	fsr2l,f,c
  3532  0027D6  500F               	movf	(WriteMessageToFifo@txFifoObj+1)^(0+1280),w,c
  3533  0027D8  22DA               	addwfc	fsr2h,f,c
  3534  0027DA  0061  F450  F4DF   	movff	WriteMessageToFifo@status,indf2
  3535  0027E0                     
  3536                           ;mcc_generated_files/can1.c: 225:     if (CAN_FRAME_DATA == txCanMsg->field.frameType)
  3537  0027E0  EE20 F004          	lfsr	2,4
  3538  0027E4  5010               	movf	WriteMessageToFifo@txCanMsg^(0+1280),w,c
  3539  0027E6  26D9               	addwf	fsr2l,f,c
  3540  0027E8  5011               	movf	(WriteMessageToFifo@txCanMsg+1)^(0+1280),w,c
  3541  0027EA  22DA               	addwfc	fsr2h,f,c
  3542  0027EC  B2DF               	btfsc	indf2,1,c
  3543  0027EE  EFFB  F013         	goto	u991
  3544  0027F2  EFFD  F013         	goto	u990
  3545  0027F6                     u991:
  3546  0027F6  EF29  F014         	goto	l655
  3547  0027FA                     u990:
  3548  0027FA                     
  3549                           ;mcc_generated_files/can1.c: 226:     {;mcc_generated_files/can1.c: 227:         memcpy(
      +                          txFifoObj + payloadOffsetBytes, txCanMsg->data, (DLC_BYTES[(txCanMsg->field.dlc)]));
  3550  0027FA  0E08               	movlw	8
  3551  0027FC  240E               	addwf	WriteMessageToFifo@txFifoObj^(0+1280),w,c
  3552  0027FE  6E03               	movwf	memcpy@d1^(0+1280),c
  3553  002800  0E00               	movlw	0
  3554  002802  200F               	addwfc	(WriteMessageToFifo@txFifoObj+1)^(0+1280),w,c
  3555  002804  6E04               	movwf	(memcpy@d1+1)^(0+1280),c
  3556  002806  EE20 F005          	lfsr	2,5
  3557  00280A  5010               	movf	WriteMessageToFifo@txCanMsg^(0+1280),w,c
  3558  00280C  26D9               	addwf	fsr2l,f,c
  3559  00280E  5011               	movf	(WriteMessageToFifo@txCanMsg+1)^(0+1280),w,c
  3560  002810  22DA               	addwfc	fsr2h,f,c
  3561  002812  0061 F378  F505    	movff	postinc2,memcpy@s1
  3562  002818  0061 F374  F506    	movff	postdec2,memcpy@s1+1
  3563  00281E  EE20 F004          	lfsr	2,4
  3564  002822  5010               	movf	WriteMessageToFifo@txCanMsg^(0+1280),w,c
  3565  002824  26D9               	addwf	fsr2l,f,c
  3566  002826  5011               	movf	(WriteMessageToFifo@txCanMsg+1)^(0+1280),w,c
  3567  002828  22DA               	addwfc	fsr2h,f,c
  3568  00282A  30DF               	rrcf	479,w,c
  3569  00282C  32E8               	rrcf	wreg,f,c
  3570  00282E  0B0F               	andlw	15
  3571  002830  6E12               	movwf	??_WriteMessageToFifo^(0+1280),c
  3572  002832  6A13               	clrf	(??_WriteMessageToFifo+1)^(0+1280),c
  3573  002834  0E01               	movlw	low _DLC_BYTES
  3574  002836  2412               	addwf	??_WriteMessageToFifo^(0+1280),w,c
  3575  002838  6EF6               	movwf	tblptrl,c
  3576  00283A  0E26               	movlw	high _DLC_BYTES
  3577  00283C  2013               	addwfc	(??_WriteMessageToFifo+1)^(0+1280),w,c
  3578  00283E  6EF7               	movwf	tblptrh,c
  3579  002840                     	if	1	;There are 3 active tblptr bytes
  3580  002840  6AF8               	clrf	tblptru,c
  3581  002842  0E00               	movlw	low (__mediumconst shr (0+16))
  3582  002844  22F8               	addwfc	tblptru,f,c
  3583  002846                     	endif
  3584  002846  0008               	tblrd		*
  3585  002848  50F5               	movf	tablat,w,c
  3586  00284A  6E07               	movwf	memcpy@n^(0+1280),c
  3587  00284C  6A08               	clrf	(memcpy@n+1)^(0+1280),c
  3588  00284E  ECA5  F016         	call	_memcpy	;wreg free
  3589  002852                     l655:
  3590  002852  0012               	return		;funcret
  3591  002854                     __end_of_WriteMessageToFifo:
  3592                           	callstack 0
  3593                           
  3594 ;; *************** function _memcpy *****************
  3595 ;; Defined at:
  3596 ;;		line 4 in file "C:\Program Files\Microchip\xc8\v2.32\pic\sources\c99\common\memcpy.c"
  3597 ;; Parameters:    Size  Location     Type
  3598 ;;  d1              2    2[COMRAM] PTR void 
  3599 ;;		 -> RAM(9727), 
  3600 ;;  s1              2    4[COMRAM] PTR const void 
  3601 ;;		 -> CANDATAdata(32), 
  3602 ;;  n               2    6[COMRAM] unsigned int 
  3603 ;; Auto vars:     Size  Location     Type
  3604 ;;  s               2   10[COMRAM] PTR const unsigned char 
  3605 ;;		 -> CANDATAdata(32), 
  3606 ;;  d               2    8[COMRAM] PTR unsigned char 
  3607 ;;		 -> RAM(9727), 
  3608 ;;  tmp             1   12[COMRAM] unsigned char 
  3609 ;; Return value:  Size  Location     Type
  3610 ;;                  2    2[COMRAM] PTR void 
  3611 ;; Registers used:
  3612 ;;		wreg, fsr2l, fsr2h, status,2, status,0
  3613 ;; Tracked objects:
  3614 ;;		On entry : 0/0
  3615 ;;		On exit  : 0/0
  3616 ;;		Unchanged: 0/0
  3617 ;; Data sizes:     COMRAM   BANK5   BANK6   BANK7   BANK8   BANK9  BANK10  BANK11  BANK12  BANK13  BANK14  BANK15  BANK1
      +6  BANK17  BANK18  BANK19  BANK20  BANK21  BANK22  BANK23  BANK24  BANK25  BANK26  BANK27  BANK28  BANK29  BANK30  BANK3
      +1  BANK32  BANK33  BANK34  BANK35  BANK36  BANK37
  3618 ;;      Params:         6       0       0       0       0       0       0       0       0       0       0       0       
      +0       0       0       0       0       0       0       0       0       0       0       0       0       0       0       
      +0       0       0       0       0       0       0
  3619 ;;      Locals:         5       0       0       0       0       0       0       0       0       0       0       0       
      +0       0       0       0       0       0       0       0       0       0       0       0       0       0       0       
      +0       0       0       0       0       0       0
  3620 ;;      Temps:          0       0       0       0       0       0       0       0       0       0       0       0       
      +0       0       0       0       0       0       0       0       0       0       0       0       0       0       0       
      +0       0       0       0       0       0       0
  3621 ;;      Totals:        11       0       0       0       0       0       0       0       0       0       0       0       
      +0       0       0       0       0       0       0       0       0       0       0       0       0       0       0       
      +0       0       0       0       0       0       0
  3622 ;;Total ram usage:       11 bytes
  3623 ;; Hardware stack levels used: 1
  3624 ;; Hardware stack levels required when called: 4
  3625 ;; This function calls:
  3626 ;;		Nothing
  3627 ;; This function is called by:
  3628 ;;		_WriteMessageToFifo
  3629 ;; This function uses a non-reentrant model
  3630 ;;
  3631                           
  3632                           	psect	text34
  3633  002D4A                     __ptext34:
  3634                           	callstack 0
  3635  002D4A                     _memcpy:
  3636                           	callstack 119
  3637  002D4A  C505  F50B         	movff	memcpy@s1,memcpy@s
  3638  002D4E  C506  F50C         	movff	memcpy@s1+1,memcpy@s+1
  3639  002D52  C503  F509         	movff	memcpy@d1,memcpy@d
  3640  002D56  C504  F50A         	movff	memcpy@d1+1,memcpy@d+1
  3641  002D5A  EFC4  F016         	goto	l2546
  3642  002D5E                     l2538:
  3643  002D5E  0061  F42C  F4D9   	movff	memcpy@s,fsr2l
  3644  002D64  0061  F430  F4DA   	movff	memcpy@s+1,fsr2h
  3645  002D6A  50DF               	movf	indf2,w,c
  3646  002D6C  6E0D               	movwf	memcpy@tmp^(0+1280),c
  3647  002D6E  4A0B               	infsnz	memcpy@s^(0+1280),f,c
  3648  002D70  2A0C               	incf	(memcpy@s+1)^(0+1280),f,c
  3649  002D72  0061  F424  F4D9   	movff	memcpy@d,fsr2l
  3650  002D78  0061  F428  F4DA   	movff	memcpy@d+1,fsr2h
  3651  002D7E  0061  F434  F4DF   	movff	memcpy@tmp,indf2
  3652  002D84  4A09               	infsnz	memcpy@d^(0+1280),f,c
  3653  002D86  2A0A               	incf	(memcpy@d+1)^(0+1280),f,c
  3654  002D88                     l2546:
  3655  002D88  0607               	decf	memcpy@n^(0+1280),f,c
  3656  002D8A  A0D8               	btfss	status,0,c
  3657  002D8C  0608               	decf	(memcpy@n+1)^(0+1280),f,c
  3658  002D8E  2807               	incf	memcpy@n^(0+1280),w,c
  3659  002D90  E106               	bnz	u831
  3660  002D92  2808               	incf	(memcpy@n+1)^(0+1280),w,c
  3661  002D94  A4D8               	btfss	status,2,c
  3662  002D96  EFCF  F016         	goto	u831
  3663  002D9A  EFD1  F016         	goto	u830
  3664  002D9E                     u831:
  3665  002D9E  EFAF  F016         	goto	l2538
  3666  002DA2                     u830:
  3667  002DA2  0012               	return		;funcret
  3668  002DA4                     __end_of_memcpy:
  3669                           	callstack 0
  3670                           
  3671 ;; *************** function _ValidateTransmission *****************
  3672 ;; Defined at:
  3673 ;;		line 231 in file "mcc_generated_files/can1.c"
  3674 ;; Parameters:    Size  Location     Type
  3675 ;;  validChannel    1    wreg     unsigned char 
  3676 ;;  txCanMsg        2    3[COMRAM] PTR struct .
  3677 ;;		 -> msg(7), 
  3678 ;; Auto vars:     Size  Location     Type
  3679 ;;  validChannel    1    8[COMRAM] unsigned char 
  3680 ;;  field           1   10[COMRAM] struct .
  3681 ;;  txMsgStatus     1    9[COMRAM] enum E22340
  3682 ;;  plsize          1    0        unsigned char 
  3683 ;; Return value:  Size  Location     Type
  3684 ;;                  1    wreg      enum E22340
  3685 ;; Registers used:
  3686 ;;		wreg, fsr2l, fsr2h, status,2, status,0, tblptrl, tblptrh, tblptru, prodl, prodh, cstack
  3687 ;; Tracked objects:
  3688 ;;		On entry : 0/0
  3689 ;;		On exit  : 0/0
  3690 ;;		Unchanged: 0/0
  3691 ;; Data sizes:     COMRAM   BANK5   BANK6   BANK7   BANK8   BANK9  BANK10  BANK11  BANK12  BANK13  BANK14  BANK15  BANK1
      +6  BANK17  BANK18  BANK19  BANK20  BANK21  BANK22  BANK23  BANK24  BANK25  BANK26  BANK27  BANK28  BANK29  BANK30  BANK3
      +1  BANK32  BANK33  BANK34  BANK35  BANK36  BANK37
  3692 ;;      Params:         2       0       0       0       0       0       0       0       0       0       0       0       
      +0       0       0       0       0       0       0       0       0       0       0       0       0       0       0       
      +0       0       0       0       0       0       0
  3693 ;;      Locals:         3       0       0       0       0       0       0       0       0       0       0       0       
      +0       0       0       0       0       0       0       0       0       0       0       0       0       0       0       
      +0       0       0       0       0       0       0
  3694 ;;      Temps:          3       0       0       0       0       0       0       0       0       0       0       0       
      +0       0       0       0       0       0       0       0       0       0       0       0       0       0       0       
      +0       0       0       0       0       0       0
  3695 ;;      Totals:         8       0       0       0       0       0       0       0       0       0       0       0       
      +0       0       0       0       0       0       0       0       0       0       0       0       0       0       0       
      +0       0       0       0       0       0       0
  3696 ;;Total ram usage:        8 bytes
  3697 ;; Hardware stack levels used: 1
  3698 ;; Hardware stack levels required when called: 5
  3699 ;; This function calls:
  3700 ;;		_CAN1_OperationModeGet
  3701 ;;		_GetTxFifoStatus
  3702 ;; This function is called by:
  3703 ;;		_CAN1_Transmit
  3704 ;; This function uses a non-reentrant model
  3705 ;;
  3706                           
  3707                           	psect	text35
  3708  00294E                     __ptext35:
  3709                           	callstack 0
  3710  00294E                     _ValidateTransmission:
  3711                           	callstack 119
  3712                           
  3713                           ;incstack = 0
  3714                           ;ValidateTransmission@validChannel stored from wreg
  3715  00294E  6E09               	movwf	ValidateTransmission@validChannel^(0+1280),c
  3716  002950                     
  3717                           ;mcc_generated_files/can1.c: 231: static CAN_TX_MSG_REQUEST_STATUS ValidateTransmission(
      +                          uint8_t validChannel, CAN_MSG_OBJ *txCanMsg);mcc_generated_files/can1.c: 232: {;mcc_gene
      +                          rated_files/can1.c: 233:     CAN_TX_MSG_REQUEST_STATUS txMsgStatus = CAN_TX_MSG_REQUEST_
      +                          SUCCESS;
  3718  002950  0E00               	movlw	0
  3719  002952  6E0A               	movwf	ValidateTransmission@txMsgStatus^(0+1280),c
  3720  002954                     
  3721                           ;mcc_generated_files/can1.c: 234:     CAN_MSG_FIELD field = txCanMsg->field;
  3722  002954  EE20 F004          	lfsr	2,4
  3723  002958  5004               	movf	ValidateTransmission@txCanMsg^(0+1280),w,c
  3724  00295A  26D9               	addwf	fsr2l,f,c
  3725  00295C  5005               	movf	(ValidateTransmission@txCanMsg+1)^(0+1280),w,c
  3726  00295E  22DA               	addwfc	fsr2h,f,c
  3727  002960  50DF               	movf	indf2,w,c
  3728  002962  6E0B               	movwf	ValidateTransmission@field^(0+1280),c
  3729  002964                     
  3730                           ;mcc_generated_files/can1.c: 237:     if (CAN_BRS_MODE == field.brs && (CAN_NORMAL_2_0_M
      +                          ODE == CAN1_OperationModeGet()))
  3731  002964  AE0B               	btfss	ValidateTransmission@field^(0+1280),7,c
  3732  002966  EFB7  F014         	goto	u1001
  3733  00296A  EFB9  F014         	goto	u1000
  3734  00296E                     u1001:
  3735  00296E  EFC4  F014         	goto	l2642
  3736  002972                     u1000:
  3737  002972  EC2A  F019         	call	_CAN1_OperationModeGet	;wreg free
  3738  002976  0A06               	xorlw	6
  3739  002978  A4D8               	btfss	status,2,c
  3740  00297A  EFC1  F014         	goto	u1011
  3741  00297E  EFC3  F014         	goto	u1010
  3742  002982                     u1011:
  3743  002982  EFC4  F014         	goto	l2642
  3744  002986                     u1010:
  3745  002986                     
  3746                           ;mcc_generated_files/can1.c: 238:     {;mcc_generated_files/can1.c: 239:         txMsgSt
      +                          atus |= CAN_TX_MSG_REQUEST_BRS_ERROR;
  3747  002986  820A               	bsf	ValidateTransmission@txMsgStatus^(0+1280),1,c
  3748  002988                     l2642:
  3749                           
  3750                           ;mcc_generated_files/can1.c: 242:     if (field.dlc > DLC_8 && (CAN_2_0_FORMAT == field.
      +                          formatType || CAN_NORMAL_2_0_MODE == CAN1_OperationModeGet()))
  3751  002988  300B               	rrcf	ValidateTransmission@field^(0+1280),w,c
  3752  00298A  32E8               	rrcf	wreg,f,c
  3753  00298C  0B0F               	andlw	15
  3754  00298E  6E06               	movwf	??_ValidateTransmission^(0+1280),c
  3755  002990  0E08               	movlw	8
  3756  002992  6406               	cpfsgt	??_ValidateTransmission^(0+1280),c
  3757  002994  EFCE  F014         	goto	u1021
  3758  002998  EFD0  F014         	goto	u1020
  3759  00299C                     u1021:
  3760  00299C  EFE2  F014         	goto	l2650
  3761  0029A0                     u1020:
  3762  0029A0  AC0B               	btfss	ValidateTransmission@field^(0+1280),6,c
  3763  0029A2  EFD5  F014         	goto	u1031
  3764  0029A6  EFD7  F014         	goto	u1030
  3765  0029AA                     u1031:
  3766  0029AA  EFE1  F014         	goto	l2648
  3767  0029AE                     u1030:
  3768  0029AE  EC2A  F019         	call	_CAN1_OperationModeGet	;wreg free
  3769  0029B2  0A06               	xorlw	6
  3770  0029B4  A4D8               	btfss	status,2,c
  3771  0029B6  EFDF  F014         	goto	u1041
  3772  0029BA  EFE1  F014         	goto	u1040
  3773  0029BE                     u1041:
  3774  0029BE  EFE2  F014         	goto	l2650
  3775  0029C2                     u1040:
  3776  0029C2                     l2648:
  3777                           
  3778                           ;mcc_generated_files/can1.c: 243:     {;mcc_generated_files/can1.c: 244:         txMsgSt
      +                          atus |= CAN_TX_MSG_REQUEST_DLC_EXCEED_ERROR;
  3779  0029C2  800A               	bsf	ValidateTransmission@txMsgStatus^(0+1280),0,c
  3780  0029C4                     l2650:
  3781                           
  3782                           ;mcc_generated_files/can1.c: 247:     if ((DLC_BYTES[(field.dlc)]) > ((DLC_BYTES[(8u + (
      +                          plsize))])))
  3783  0029C4  0E09               	movlw	low (_DLC_BYTES+8)
  3784  0029C6  6EF6               	movwf	tblptrl,c
  3785  0029C8  0E26               	movlw	high (_DLC_BYTES+8)
  3786  0029CA  6EF7               	movwf	tblptrh,c
  3787  0029CC                     	if	1	;Program memory is < 0x10000, tblptru is always zero
  3788  0029CC  6AF8               	clrf	tblptru,c
  3789  0029CE                     	endif
  3790  0029CE                     	if	0	;tblptru may be non-zero
  3791  0029CE                     	endif
  3792  0029CE  0008               	tblrd		*
  3793  0029D0  0061 F3D4  F506    	movff	tablat,??_ValidateTransmission
  3794  0029D6  300B               	rrcf	ValidateTransmission@field^(0+1280),w,c
  3795  0029D8  32E8               	rrcf	wreg,f,c
  3796  0029DA  0B0F               	andlw	15
  3797  0029DC  6E07               	movwf	(??_ValidateTransmission+1)^(0+1280),c
  3798  0029DE  6A08               	clrf	(??_ValidateTransmission+2)^(0+1280),c
  3799  0029E0  0E01               	movlw	low _DLC_BYTES
  3800  0029E2  2407               	addwf	(??_ValidateTransmission+1)^(0+1280),w,c
  3801  0029E4  6EF6               	movwf	tblptrl,c
  3802  0029E6  0E26               	movlw	high _DLC_BYTES
  3803  0029E8  2008               	addwfc	(??_ValidateTransmission+2)^(0+1280),w,c
  3804  0029EA  6EF7               	movwf	tblptrh,c
  3805  0029EC                     	if	1	;There are 3 active tblptr bytes
  3806  0029EC  6AF8               	clrf	tblptru,c
  3807  0029EE  0E00               	movlw	low (__mediumconst shr (0+16))
  3808  0029F0  22F8               	addwfc	tblptru,f,c
  3809  0029F2                     	endif
  3810  0029F2  0008               	tblrd		*
  3811  0029F4  50F5               	movf	tablat,w,c
  3812  0029F6  5C06               	subwf	??_ValidateTransmission^(0+1280),w,c
  3813  0029F8  B0D8               	btfsc	status,0,c
  3814  0029FA  EF01  F015         	goto	u1051
  3815  0029FE  EF03  F015         	goto	u1050
  3816  002A02                     u1051:
  3817  002A02  EF04  F015         	goto	l2654
  3818  002A06                     u1050:
  3819  002A06                     
  3820                           ;mcc_generated_files/can1.c: 248:     {;mcc_generated_files/can1.c: 249:         txMsgSt
      +                          atus |= CAN_TX_MSG_REQUEST_DLC_EXCEED_ERROR;
  3821  002A06  800A               	bsf	ValidateTransmission@txMsgStatus^(0+1280),0,c
  3822  002A08                     l2654:
  3823                           
  3824                           ;mcc_generated_files/can1.c: 252:     if (CAN_TX_FIFO_FULL == GetTxFifoStatus(validChann
      +                          el))
  3825  002A08  5009               	movf	ValidateTransmission@validChannel^(0+1280),w,c
  3826  002A0A  ECB5  F018         	call	_GetTxFifoStatus
  3827  002A0E  0900               	iorlw	0
  3828  002A10  A4D8               	btfss	status,2,c
  3829  002A12  EF0D  F015         	goto	u1061
  3830  002A16  EF0F  F015         	goto	u1060
  3831  002A1A                     u1061:
  3832  002A1A  EF11  F015         	goto	l2658
  3833  002A1E                     u1060:
  3834  002A1E                     
  3835                           ;mcc_generated_files/can1.c: 253:     {;mcc_generated_files/can1.c: 254:         txMsgSt
      +                          atus |= CAN_TX_MSG_REQUEST_FIFO_FULL;
  3836  002A1E  0E03               	movlw	3
  3837  002A20  120A               	iorwf	ValidateTransmission@txMsgStatus^(0+1280),f,c
  3838  002A22                     l2658:
  3839                           
  3840                           ;mcc_generated_files/can1.c: 257:     return txMsgStatus;
  3841  002A22  500A               	movf	ValidateTransmission@txMsgStatus^(0+1280),w,c
  3842  002A24  0012               	return		;funcret
  3843  002A26                     __end_of_ValidateTransmission:
  3844                           	callstack 0
  3845                           
  3846 ;; *************** function _GetTxFifoStatus *****************
  3847 ;; Defined at:
  3848 ;;		line 185 in file "mcc_generated_files/can1.c"
  3849 ;; Parameters:    Size  Location     Type
  3850 ;;  validChannel    1    wreg     unsigned char 
  3851 ;; Auto vars:     Size  Location     Type
  3852 ;;  validChannel    1    2[COMRAM] unsigned char 
  3853 ;; Return value:  Size  Location     Type
  3854 ;;                  1    wreg      enum E22361
  3855 ;; Registers used:
  3856 ;;		wreg, fsr2l, fsr2h, status,2, status,0, prodl, prodh
  3857 ;; Tracked objects:
  3858 ;;		On entry : 0/0
  3859 ;;		On exit  : 0/0
  3860 ;;		Unchanged: 0/0
  3861 ;; Data sizes:     COMRAM   BANK5   BANK6   BANK7   BANK8   BANK9  BANK10  BANK11  BANK12  BANK13  BANK14  BANK15  BANK1
      +6  BANK17  BANK18  BANK19  BANK20  BANK21  BANK22  BANK23  BANK24  BANK25  BANK26  BANK27  BANK28  BANK29  BANK30  BANK3
      +1  BANK32  BANK33  BANK34  BANK35  BANK36  BANK37
  3862 ;;      Params:         0       0       0       0       0       0       0       0       0       0       0       0       
      +0       0       0       0       0       0       0       0       0       0       0       0       0       0       0       
      +0       0       0       0       0       0       0
  3863 ;;      Locals:         1       0       0       0       0       0       0       0       0       0       0       0       
      +0       0       0       0       0       0       0       0       0       0       0       0       0       0       0       
      +0       0       0       0       0       0       0
  3864 ;;      Temps:          0       0       0       0       0       0       0       0       0       0       0       0       
      +0       0       0       0       0       0       0       0       0       0       0       0       0       0       0       
      +0       0       0       0       0       0       0
  3865 ;;      Totals:         1       0       0       0       0       0       0       0       0       0       0       0       
      +0       0       0       0       0       0       0       0       0       0       0       0       0       0       0       
      +0       0       0       0       0       0       0
  3866 ;;Total ram usage:        1 bytes
  3867 ;; Hardware stack levels used: 1
  3868 ;; Hardware stack levels required when called: 4
  3869 ;; This function calls:
  3870 ;;		Nothing
  3871 ;; This function is called by:
  3872 ;;		_ValidateTransmission
  3873 ;;		_CAN1_TransmitFIFOStatusGet
  3874 ;; This function uses a non-reentrant model
  3875 ;;
  3876                           
  3877                           	psect	text36
  3878  00316A                     __ptext36:
  3879                           	callstack 0
  3880  00316A                     _GetTxFifoStatus:
  3881                           	callstack 120
  3882                           
  3883                           ;incstack = 0
  3884                           ;GetTxFifoStatus@validChannel stored from wreg
  3885  00316A  6E03               	movwf	GetTxFifoStatus@validChannel^(0+1280),c
  3886  00316C                     
  3887                           ;mcc_generated_files/can1.c: 185: static CAN_TX_FIFO_STATUS GetTxFifoStatus(uint8_t vali
      +                          dChannel);mcc_generated_files/can1.c: 186: {;mcc_generated_files/can1.c: 187:     return
      +                           (FIFO[validChannel].STAL & 0x1);
  3888  00316C  5003               	movf	GetTxFifoStatus@validChannel^(0+1280),w,c
  3889  00316E  0D0C               	mullw	12
  3890  003170  0E54               	movlw	84
  3891  003172  24F3               	addwf	243,w,c
  3892  003174  6ED9               	movwf	fsr2l,c
  3893  003176  0E01               	movlw	1
  3894  003178  20F4               	addwfc	prodh,w,c
  3895  00317A  6EDA               	movwf	fsr2h,c
  3896  00317C  50DF               	movf	indf2,w,c
  3897  00317E  0B01               	andlw	1
  3898  003180  0012               	return		;funcret
  3899  003182                     __end_of_GetTxFifoStatus:
  3900                           	callstack 0
  3901                           
  3902 ;; *************** function _CAN1_OperationModeSet *****************
  3903 ;; Defined at:
  3904 ;;		line 145 in file "mcc_generated_files/can1.c"
  3905 ;; Parameters:    Size  Location     Type
  3906 ;;  requestMode     1    wreg     const enum E22346
  3907 ;; Auto vars:     Size  Location     Type
  3908 ;;  requestMode     1    4[COMRAM] const enum E22346
  3909 ;;  status          1    3[COMRAM] enum E22356
  3910 ;;  opMode          1    2[COMRAM] enum E22346
  3911 ;; Return value:  Size  Location     Type
  3912 ;;                  1    wreg      enum E22356
  3913 ;; Registers used:
  3914 ;;		wreg, status,2, status,0, cstack
  3915 ;; Tracked objects:
  3916 ;;		On entry : 0/0
  3917 ;;		On exit  : 0/0
  3918 ;;		Unchanged: 0/0
  3919 ;; Data sizes:     COMRAM   BANK5   BANK6   BANK7   BANK8   BANK9  BANK10  BANK11  BANK12  BANK13  BANK14  BANK15  BANK1
      +6  BANK17  BANK18  BANK19  BANK20  BANK21  BANK22  BANK23  BANK24  BANK25  BANK26  BANK27  BANK28  BANK29  BANK30  BANK3
      +1  BANK32  BANK33  BANK34  BANK35  BANK36  BANK37
  3920 ;;      Params:         0       0       0       0       0       0       0       0       0       0       0       0       
      +0       0       0       0       0       0       0       0       0       0       0       0       0       0       0       
      +0       0       0       0       0       0       0
  3921 ;;      Locals:         3       0       0       0       0       0       0       0       0       0       0       0       
      +0       0       0       0       0       0       0       0       0       0       0       0       0       0       0       
      +0       0       0       0       0       0       0
  3922 ;;      Temps:          0       0       0       0       0       0       0       0       0       0       0       0       
      +0       0       0       0       0       0       0       0       0       0       0       0       0       0       0       
      +0       0       0       0       0       0       0
  3923 ;;      Totals:         3       0       0       0       0       0       0       0       0       0       0       0       
      +0       0       0       0       0       0       0       0       0       0       0       0       0       0       0       
      +0       0       0       0       0       0       0
  3924 ;;Total ram usage:        3 bytes
  3925 ;; Hardware stack levels used: 1
  3926 ;; Hardware stack levels required when called: 5
  3927 ;; This function calls:
  3928 ;;		_CAN1_OperationModeGet
  3929 ;; This function is called by:
  3930 ;;		_CAN1_Initialize
  3931 ;;		_CANWriteMessage
  3932 ;;		_CAN1_Sleep
  3933 ;; This function uses a non-reentrant model
  3934 ;;
  3935                           
  3936                           	psect	text37
  3937  002DA4                     __ptext37:
  3938                           	callstack 0
  3939  002DA4                     _CAN1_OperationModeSet:
  3940                           	callstack 119
  3941                           
  3942                           ;incstack = 0
  3943                           ;CAN1_OperationModeSet@requestMode stored from wreg
  3944  002DA4  6E05               	movwf	CAN1_OperationModeSet@requestMode^(0+1280),c
  3945  002DA6                     
  3946                           ;mcc_generated_files/can1.c: 145: CAN_OP_MODE_STATUS CAN1_OperationModeSet(const CAN_OP_
      +                          MODES requestMode);mcc_generated_files/can1.c: 146: {;mcc_generated_files/can1.c: 147:  
      +                             CAN_OP_MODE_STATUS status = CAN_OP_MODE_REQUEST_SUCCESS;
  3947  002DA6  0E00               	movlw	0
  3948  002DA8  6E04               	movwf	CAN1_OperationModeSet@status^(0+1280),c
  3949  002DAA                     
  3950                           ;mcc_generated_files/can1.c: 148:     CAN_OP_MODES opMode = CAN1_OperationModeGet();
  3951  002DAA  EC2A  F019         	call	_CAN1_OperationModeGet	;wreg free
  3952  002DAE  6E03               	movwf	CAN1_OperationModeSet@opMode^(0+1280),c
  3953  002DB0                     
  3954                           ;mcc_generated_files/can1.c: 150:     if (CAN_CONFIGURATION_MODE == opMode
  3955  002DB0  0E04               	movlw	4
  3956  002DB2  1803               	xorwf	CAN1_OperationModeSet@opMode^(0+1280),w,c
  3957  002DB4  B4D8               	btfsc	status,2,c
  3958  002DB6  EFDF  F016         	goto	u841
  3959  002DBA  EFE1  F016         	goto	u840
  3960  002DBE                     u841:
  3961  002DBE  EFF2  F016         	goto	l2572
  3962  002DC2                     u840:
  3963  002DC2  0405               	decf	CAN1_OperationModeSet@requestMode^(0+1280),w,c
  3964  002DC4  B4D8               	btfsc	status,2,c
  3965  002DC6  EFE7  F016         	goto	u851
  3966  002DCA  EFE9  F016         	goto	u850
  3967  002DCE                     u851:
  3968  002DCE  EFF2  F016         	goto	l2572
  3969  002DD2                     u850:
  3970  002DD2  0E04               	movlw	4
  3971  002DD4  1805               	xorwf	CAN1_OperationModeSet@requestMode^(0+1280),w,c
  3972  002DD6  A4D8               	btfss	status,2,c
  3973  002DD8  EFF0  F016         	goto	u861
  3974  002DDC  EFF2  F016         	goto	u860
  3975  002DE0                     u861:
  3976  002DE0  EFFA  F016         	goto	l2574
  3977  002DE4                     u860:
  3978  002DE4                     l2572:
  3979                           
  3980                           ;mcc_generated_files/can1.c: 153:     {;mcc_generated_files/can1.c: 154:         C1CONTb
      +                          its.REQOP = requestMode;
  3981  002DE4  0101               	movlb	1	; () banked
  3982  002DE6  5103               	movf	3,w,b	;volatile
  3983  002DE8  1805               	xorwf	CAN1_OperationModeSet@requestMode^(0+1280),w,c
  3984  002DEA  0BF8               	andlw	-8
  3985  002DEC  1805               	xorwf	CAN1_OperationModeSet@requestMode^(0+1280),w,c
  3986  002DEE  6F03               	movwf	3,b	;volatile
  3987                           
  3988                           ;mcc_generated_files/can1.c: 165:     }
  3989  002DF0  EFFC  F016         	goto	l637
  3990  002DF4                     l2574:
  3991                           
  3992                           ;mcc_generated_files/can1.c: 167:     {;mcc_generated_files/can1.c: 168:         status 
      +                          = CAN_OP_MODE_REQUEST_FAIL;
  3993  002DF4  0E01               	movlw	1
  3994  002DF6  6E04               	movwf	CAN1_OperationModeSet@status^(0+1280),c
  3995  002DF8                     l637:
  3996                           
  3997                           ;mcc_generated_files/can1.c: 171:     return status;
  3998  002DF8  5004               	movf	CAN1_OperationModeSet@status^(0+1280),w,c
  3999  002DFA  0012               	return		;funcret
  4000  002DFC                     __end_of_CAN1_OperationModeSet:
  4001                           	callstack 0
  4002                           
  4003 ;; *************** function _CAN1_OperationModeGet *****************
  4004 ;; Defined at:
  4005 ;;		line 174 in file "mcc_generated_files/can1.c"
  4006 ;; Parameters:    Size  Location     Type
  4007 ;;		None
  4008 ;; Auto vars:     Size  Location     Type
  4009 ;;		None
  4010 ;; Return value:  Size  Location     Type
  4011 ;;                  1    wreg      enum E22346
  4012 ;; Registers used:
  4013 ;;		wreg, status,2, status,0
  4014 ;; Tracked objects:
  4015 ;;		On entry : 0/0
  4016 ;;		On exit  : 0/0
  4017 ;;		Unchanged: 0/0
  4018 ;; Data sizes:     COMRAM   BANK5   BANK6   BANK7   BANK8   BANK9  BANK10  BANK11  BANK12  BANK13  BANK14  BANK15  BANK1
      +6  BANK17  BANK18  BANK19  BANK20  BANK21  BANK22  BANK23  BANK24  BANK25  BANK26  BANK27  BANK28  BANK29  BANK30  BANK3
      +1  BANK32  BANK33  BANK34  BANK35  BANK36  BANK37
  4019 ;;      Params:         0       0       0       0       0       0       0       0       0       0       0       0       
      +0       0       0       0       0       0       0       0       0       0       0       0       0       0       0       
      +0       0       0       0       0       0       0
  4020 ;;      Locals:         0       0       0       0       0       0       0       0       0       0       0       0       
      +0       0       0       0       0       0       0       0       0       0       0       0       0       0       0       
      +0       0       0       0       0       0       0
  4021 ;;      Temps:          0       0       0       0       0       0       0       0       0       0       0       0       
      +0       0       0       0       0       0       0       0       0       0       0       0       0       0       0       
      +0       0       0       0       0       0       0
  4022 ;;      Totals:         0       0       0       0       0       0       0       0       0       0       0       0       
      +0       0       0       0       0       0       0       0       0       0       0       0       0       0       0       
      +0       0       0       0       0       0       0
  4023 ;;Total ram usage:        0 bytes
  4024 ;; Hardware stack levels used: 1
  4025 ;; Hardware stack levels required when called: 4
  4026 ;; This function calls:
  4027 ;;		Nothing
  4028 ;; This function is called by:
  4029 ;;		_CAN1_OperationModeSet
  4030 ;;		_ValidateTransmission
  4031 ;;		_CANWriteMessage
  4032 ;; This function uses a non-reentrant model
  4033 ;;
  4034                           
  4035                           	psect	text38
  4036  003254                     __ptext38:
  4037                           	callstack 0
  4038  003254                     _CAN1_OperationModeGet:
  4039                           	callstack 119
  4040  003254                     
  4041                           ;mcc_generated_files/can1.c: 176:     return C1CONUbits.OPMOD;
  4042  003254  0101               	movlb	1	; () banked
  4043  003256  3902               	swapf	2,w,b	;volatile
  4044  003258  32E8               	rrcf	wreg,f,c
  4045  00325A  0B07               	andlw	7
  4046  00325C                     
  4047                           ; BSR set to: 1
  4048  00325C  0012               	return		;funcret
  4049  00325E                     __end_of_CAN1_OperationModeGet:
  4050                           	callstack 0
  4051                           
  4052 ;; *************** function _INTERRUPT_InterruptManager *****************
  4053 ;; Defined at:
  4054 ;;		line 58 in file "mcc_generated_files/interrupt_manager.c"
  4055 ;; Parameters:    Size  Location     Type
  4056 ;;		None
  4057 ;; Auto vars:     Size  Location     Type
  4058 ;;		None
  4059 ;; Return value:  Size  Location     Type
  4060 ;;                  1    wreg      void 
  4061 ;; Registers used:
  4062 ;;		wreg, status,2, status,0, pclath, tosl, cstack
  4063 ;; Tracked objects:
  4064 ;;		On entry : 0/0
  4065 ;;		On exit  : 0/0
  4066 ;;		Unchanged: 0/0
  4067 ;; Data sizes:     COMRAM   BANK5   BANK6   BANK7   BANK8   BANK9  BANK10  BANK11  BANK12  BANK13  BANK14  BANK15  BANK1
      +6  BANK17  BANK18  BANK19  BANK20  BANK21  BANK22  BANK23  BANK24  BANK25  BANK26  BANK27  BANK28  BANK29  BANK30  BANK3
      +1  BANK32  BANK33  BANK34  BANK35  BANK36  BANK37
  4068 ;;      Params:         0       0       0       0       0       0       0       0       0       0       0       0       
      +0       0       0       0       0       0       0       0       0       0       0       0       0       0       0       
      +0       0       0       0       0       0       0
  4069 ;;      Locals:         0       0       0       0       0       0       0       0       0       0       0       0       
      +0       0       0       0       0       0       0       0       0       0       0       0       0       0       0       
      +0       0       0       0       0       0       0
  4070 ;;      Temps:          0       0       0       0       0       0       0       0       0       0       0       0       
      +0       0       0       0       0       0       0       0       0       0       0       0       0       0       0       
      +0       0       0       0       0       0       0
  4071 ;;      Totals:         0       0       0       0       0       0       0       0       0       0       0       0       
      +0       0       0       0       0       0       0       0       0       0       0       0       0       0       0       
      +0       0       0       0       0       0       0
  4072 ;;Total ram usage:        0 bytes
  4073 ;; Hardware stack levels used: 1
  4074 ;; Hardware stack levels required when called: 3
  4075 ;; This function calls:
  4076 ;;		_INT0_ISR
  4077 ;;		_TMR0_ISR
  4078 ;;		_TMR1_ISR
  4079 ;;		_TMR2_ISR
  4080 ;; This function is called by:
  4081 ;;		Interrupt level 2
  4082 ;; This function uses a non-reentrant model
  4083 ;;
  4084                           
  4085                           	psect	text39
  4086  002B66                     __ptext39:
  4087                           	callstack 0
  4088  002B66                     _INTERRUPT_InterruptManager:
  4089                           	callstack 119
  4090  002B66                     
  4091                           ;mcc_generated_files/interrupt_manager.c: 61:     if(PIE3bits.TMR0IE == 1 && PIR3bits.TM
      +                          R0IF == 1)
  4092  002B66  AEA1               	btfss	161,7,c	;volatile
  4093  002B68  EFB8  F015         	goto	i2u116_41
  4094  002B6C  EFBA  F015         	goto	i2u116_40
  4095  002B70                     i2u116_41:
  4096  002B70  EFC5  F015         	goto	i2l567
  4097  002B74                     i2u116_40:
  4098  002B74  AEB1               	btfss	177,7,c	;volatile
  4099  002B76  EFBF  F015         	goto	i2u117_41
  4100  002B7A  EFC1  F015         	goto	i2u117_40
  4101  002B7E                     i2u117_41:
  4102  002B7E  EFC5  F015         	goto	i2l567
  4103  002B82                     i2u117_40:
  4104  002B82                     
  4105                           ;mcc_generated_files/interrupt_manager.c: 62:     {;mcc_generated_files/interrupt_manage
      +                          r.c: 63:         TMR0_ISR();
  4106  002B82  EC2F  F019         	call	_TMR0_ISR	;wreg free
  4107                           
  4108                           ;mcc_generated_files/interrupt_manager.c: 64:     }
  4109  002B86  EFFB  F015         	goto	i2l575
  4110  002B8A                     i2l567:
  4111  002B8A  A09F               	btfss	159,0,c	;volatile
  4112  002B8C  EFCA  F015         	goto	i2u118_41
  4113  002B90  EFCC  F015         	goto	i2u118_40
  4114  002B94                     i2u118_41:
  4115  002B94  EFD7  F015         	goto	i2l569
  4116  002B98                     i2u118_40:
  4117  002B98  A0AF               	btfss	175,0,c	;volatile
  4118  002B9A  EFD1  F015         	goto	i2u119_41
  4119  002B9E  EFD3  F015         	goto	i2u119_40
  4120  002BA2                     i2u119_41:
  4121  002BA2  EFD7  F015         	goto	i2l569
  4122  002BA6                     i2u119_40:
  4123  002BA6                     
  4124                           ;mcc_generated_files/interrupt_manager.c: 66:     {;mcc_generated_files/interrupt_manage
      +                          r.c: 67:         INT0_ISR();
  4125  002BA6  EC33  F019         	call	_INT0_ISR	;wreg free
  4126                           
  4127                           ;mcc_generated_files/interrupt_manager.c: 68:     }
  4128  002BAA  EFFB  F015         	goto	i2l575
  4129  002BAE                     i2l569:
  4130  002BAE  A6A1               	btfss	161,3,c	;volatile
  4131  002BB0  EFDC  F015         	goto	i2u120_41
  4132  002BB4  EFDE  F015         	goto	i2u120_40
  4133  002BB8                     i2u120_41:
  4134  002BB8  EFE9  F015         	goto	i2l571
  4135  002BBC                     i2u120_40:
  4136  002BBC  A6B1               	btfss	177,3,c	;volatile
  4137  002BBE  EFE3  F015         	goto	i2u121_41
  4138  002BC2  EFE5  F015         	goto	i2u121_40
  4139  002BC6                     i2u121_41:
  4140  002BC6  EFE9  F015         	goto	i2l571
  4141  002BCA                     i2u121_40:
  4142  002BCA                     
  4143                           ;mcc_generated_files/interrupt_manager.c: 70:     {;mcc_generated_files/interrupt_manage
      +                          r.c: 71:         TMR2_ISR();
  4144  002BCA  EC49  F018         	call	_TMR2_ISR	;wreg free
  4145                           
  4146                           ;mcc_generated_files/interrupt_manager.c: 72:     }
  4147  002BCE  EFFB  F015         	goto	i2l575
  4148  002BD2                     i2l571:
  4149  002BD2  A8A1               	btfss	161,4,c	;volatile
  4150  002BD4  EFEE  F015         	goto	i2u122_41
  4151  002BD8  EFF0  F015         	goto	i2u122_40
  4152  002BDC                     i2u122_41:
  4153  002BDC  EFFB  F015         	goto	i2l570
  4154  002BE0                     i2u122_40:
  4155  002BE0  A8B1               	btfss	177,4,c	;volatile
  4156  002BE2  EFF5  F015         	goto	i2u123_41
  4157  002BE6  EFF7  F015         	goto	i2u123_40
  4158  002BEA                     i2u123_41:
  4159  002BEA  EFFB  F015         	goto	i2l570
  4160  002BEE                     i2u123_40:
  4161  002BEE                     
  4162                           ;mcc_generated_files/interrupt_manager.c: 74:     {;mcc_generated_files/interrupt_manage
      +                          r.c: 75:         TMR1_ISR();
  4163  002BEE  ECDF  F018         	call	_TMR1_ISR	;wreg free
  4164                           
  4165                           ;mcc_generated_files/interrupt_manager.c: 76:     }
  4166  002BF2  EFFB  F015         	goto	i2l575
  4167  002BF6                     i2l570:
  4168  002BF6                     i2l575:
  4169  002BF6  0011               	retfie		f
  4170  002BF8                     __end_of_INTERRUPT_InterruptManager:
  4171                           	callstack 0
  4172                           
  4173 ;; *************** function _TMR2_ISR *****************
  4174 ;; Defined at:
  4175 ;;		line 165 in file "mcc_generated_files/tmr2.c"
  4176 ;; Parameters:    Size  Location     Type
  4177 ;;		None
  4178 ;; Auto vars:     Size  Location     Type
  4179 ;;		None
  4180 ;; Return value:  Size  Location     Type
  4181 ;;                  1    wreg      void 
  4182 ;; Registers used:
  4183 ;;		wreg, status,2, status,0, pclath, tosl, cstack
  4184 ;; Tracked objects:
  4185 ;;		On entry : 0/0
  4186 ;;		On exit  : 0/0
  4187 ;;		Unchanged: 0/0
  4188 ;; Data sizes:     COMRAM   BANK5   BANK6   BANK7   BANK8   BANK9  BANK10  BANK11  BANK12  BANK13  BANK14  BANK15  BANK1
      +6  BANK17  BANK18  BANK19  BANK20  BANK21  BANK22  BANK23  BANK24  BANK25  BANK26  BANK27  BANK28  BANK29  BANK30  BANK3
      +1  BANK32  BANK33  BANK34  BANK35  BANK36  BANK37
  4189 ;;      Params:         0       0       0       0       0       0       0       0       0       0       0       0       
      +0       0       0       0       0       0       0       0       0       0       0       0       0       0       0       
      +0       0       0       0       0       0       0
  4190 ;;      Locals:         0       0       0       0       0       0       0       0       0       0       0       0       
      +0       0       0       0       0       0       0       0       0       0       0       0       0       0       0       
      +0       0       0       0       0       0       0
  4191 ;;      Temps:          0       0       0       0       0       0       0       0       0       0       0       0       
      +0       0       0       0       0       0       0       0       0       0       0       0       0       0       0       
      +0       0       0       0       0       0       0
  4192 ;;      Totals:         0       0       0       0       0       0       0       0       0       0       0       0       
      +0       0       0       0       0       0       0       0       0       0       0       0       0       0       0       
      +0       0       0       0       0       0       0
  4193 ;;Total ram usage:        0 bytes
  4194 ;; Hardware stack levels used: 1
  4195 ;; Hardware stack levels required when called: 2
  4196 ;; This function calls:
  4197 ;;		_TMR2_CallBack
  4198 ;; This function is called by:
  4199 ;;		_INTERRUPT_InterruptManager
  4200 ;; This function uses a non-reentrant model
  4201 ;;
  4202                           
  4203                           	psect	text40
  4204  003092                     __ptext40:
  4205                           	callstack 0
  4206  003092                     _TMR2_ISR:
  4207                           	callstack 119
  4208  003092                     
  4209                           ;mcc_generated_files/tmr2.c: 167:     static volatile unsigned int CountCallBack = 0;;mc
      +                          c_generated_files/tmr2.c: 170:     PIR3bits.TMR2IF = 0;
  4210  003092  96B1               	bcf	177,3,c	;volatile
  4211  003094                     
  4212                           ;mcc_generated_files/tmr2.c: 173:     if (++CountCallBack >= 10)
  4213  003094  4A4C               	infsnz	TMR2_ISR@CountCallBack^(0+1280),f,c	;volatile
  4214  003096  2A4D               	incf	(TMR2_ISR@CountCallBack+1)^(0+1280),f,c	;volatile
  4215  003098  504D               	movf	(TMR2_ISR@CountCallBack+1)^(0+1280),w,c	;volatile
  4216  00309A  E109               	bnz	i2u39_40
  4217  00309C  0E0A               	movlw	10
  4218  00309E  5C4C               	subwf	TMR2_ISR@CountCallBack^(0+1280),w,c	;volatile
  4219  0030A0  A0D8               	btfss	status,0,c
  4220  0030A2  EF55  F018         	goto	i2u39_41
  4221  0030A6  EF57  F018         	goto	i2u39_40
  4222  0030AA                     i2u39_41:
  4223  0030AA  EF5D  F018         	goto	i2l955
  4224  0030AE                     i2u39_40:
  4225  0030AE                     
  4226                           ;mcc_generated_files/tmr2.c: 174:     {;mcc_generated_files/tmr2.c: 176:         TMR2_Ca
      +                          llBack();
  4227  0030AE  ECF1  F017         	call	_TMR2_CallBack	;wreg free
  4228  0030B2                     
  4229                           ;mcc_generated_files/tmr2.c: 179:         CountCallBack = 0;
  4230  0030B2  0E00               	movlw	0
  4231  0030B4  6E4D               	movwf	(TMR2_ISR@CountCallBack+1)^(0+1280),c	;volatile
  4232  0030B6  0E00               	movlw	0
  4233  0030B8  6E4C               	movwf	TMR2_ISR@CountCallBack^(0+1280),c	;volatile
  4234  0030BA                     i2l955:
  4235  0030BA  0012               	return		;funcret
  4236  0030BC                     __end_of_TMR2_ISR:
  4237                           	callstack 0
  4238                           
  4239 ;; *************** function _TMR2_CallBack *****************
  4240 ;; Defined at:
  4241 ;;		line 183 in file "mcc_generated_files/tmr2.c"
  4242 ;; Parameters:    Size  Location     Type
  4243 ;;		None
  4244 ;; Auto vars:     Size  Location     Type
  4245 ;;		None
  4246 ;; Return value:  Size  Location     Type
  4247 ;;                  1    wreg      void 
  4248 ;; Registers used:
  4249 ;;		wreg, status,2, status,0, pclath, tosl, cstack
  4250 ;; Tracked objects:
  4251 ;;		On entry : 0/0
  4252 ;;		On exit  : 0/0
  4253 ;;		Unchanged: 0/0
  4254 ;; Data sizes:     COMRAM   BANK5   BANK6   BANK7   BANK8   BANK9  BANK10  BANK11  BANK12  BANK13  BANK14  BANK15  BANK1
      +6  BANK17  BANK18  BANK19  BANK20  BANK21  BANK22  BANK23  BANK24  BANK25  BANK26  BANK27  BANK28  BANK29  BANK30  BANK3
      +1  BANK32  BANK33  BANK34  BANK35  BANK36  BANK37
  4255 ;;      Params:         0       0       0       0       0       0       0       0       0       0       0       0       
      +0       0       0       0       0       0       0       0       0       0       0       0       0       0       0       
      +0       0       0       0       0       0       0
  4256 ;;      Locals:         0       0       0       0       0       0       0       0       0       0       0       0       
      +0       0       0       0       0       0       0       0       0       0       0       0       0       0       0       
      +0       0       0       0       0       0       0
  4257 ;;      Temps:          0       0       0       0       0       0       0       0       0       0       0       0       
      +0       0       0       0       0       0       0       0       0       0       0       0       0       0       0       
      +0       0       0       0       0       0       0
  4258 ;;      Totals:         0       0       0       0       0       0       0       0       0       0       0       0       
      +0       0       0       0       0       0       0       0       0       0       0       0       0       0       0       
      +0       0       0       0       0       0       0
  4259 ;;Total ram usage:        0 bytes
  4260 ;; Hardware stack levels used: 1
  4261 ;; Hardware stack levels required when called: 1
  4262 ;; This function calls:
  4263 ;;		Absolute function
  4264 ;;		_TMR2_DefaultInterruptHandler
  4265 ;; This function is called by:
  4266 ;;		_TMR2_ISR
  4267 ;; This function uses a non-reentrant model
  4268 ;;
  4269                           
  4270                           	psect	text41
  4271  002FE2                     __ptext41:
  4272                           	callstack 0
  4273  002FE2                     _TMR2_CallBack:
  4274                           	callstack 119
  4275  002FE2                     
  4276                           ;mcc_generated_files/tmr2.c: 187:     if(TMR2_InterruptHandler)
  4277  002FE2  5038               	movf	_TMR2_InterruptHandler^(0+1280),w,c
  4278  002FE4  1039               	iorwf	(_TMR2_InterruptHandler+1)^(0+1280),w,c
  4279  002FE6  B4D8               	btfsc	status,2,c
  4280  002FE8  EFF8  F017         	goto	i2u35_41
  4281  002FEC  EFFA  F017         	goto	i2u35_40
  4282  002FF0                     i2u35_41:
  4283  002FF0  EF06  F018         	goto	i2l959
  4284  002FF4                     i2u35_40:
  4285  002FF4                     
  4286                           ;mcc_generated_files/tmr2.c: 188:     {;mcc_generated_files/tmr2.c: 189:         TMR2_In
      +                          terruptHandler();
  4287  002FF4  D802               	call	i2u36_48
  4288  002FF6  EF06  F018         	goto	i2u36_49
  4289  002FFA                     i2u36_48:
  4290  002FFA  0005               	push	
  4291  002FFC  6EFA               	movwf	pclath,c
  4292  002FFE  5038               	movf	_TMR2_InterruptHandler^(0+1280),w,c
  4293  003000  6EFD               	movwf	tosl,c
  4294  003002  5039               	movf	(_TMR2_InterruptHandler+1)^(0+1280),w,c
  4295  003004  6EFE               	movwf	tosh,c
  4296  003006  6AFF               	clrf	tosu,c
  4297  003008  50FA               	movf	pclath,w,c
  4298  00300A  0012               	return		;indir
  4299  00300C                     i2u36_49:
  4300  00300C                     i2l959:
  4301  00300C  0012               	return		;funcret
  4302  00300E                     __end_of_TMR2_CallBack:
  4303                           	callstack 0
  4304                           
  4305 ;; *************** function _TMR2_DefaultInterruptHandler *****************
  4306 ;; Defined at:
  4307 ;;		line 197 in file "mcc_generated_files/tmr2.c"
  4308 ;; Parameters:    Size  Location     Type
  4309 ;;		None
  4310 ;; Auto vars:     Size  Location     Type
  4311 ;;		None
  4312 ;; Return value:  Size  Location     Type
  4313 ;;                  1    wreg      void 
  4314 ;; Registers used:
  4315 ;;		None
  4316 ;; Tracked objects:
  4317 ;;		On entry : 0/0
  4318 ;;		On exit  : 0/0
  4319 ;;		Unchanged: 0/0
  4320 ;; Data sizes:     COMRAM   BANK5   BANK6   BANK7   BANK8   BANK9  BANK10  BANK11  BANK12  BANK13  BANK14  BANK15  BANK1
      +6  BANK17  BANK18  BANK19  BANK20  BANK21  BANK22  BANK23  BANK24  BANK25  BANK26  BANK27  BANK28  BANK29  BANK30  BANK3
      +1  BANK32  BANK33  BANK34  BANK35  BANK36  BANK37
  4321 ;;      Params:         0       0       0       0       0       0       0       0       0       0       0       0       
      +0       0       0       0       0       0       0       0       0       0       0       0       0       0       0       
      +0       0       0       0       0       0       0
  4322 ;;      Locals:         0       0       0       0       0       0       0       0       0       0       0       0       
      +0       0       0       0       0       0       0       0       0       0       0       0       0       0       0       
      +0       0       0       0       0       0       0
  4323 ;;      Temps:          0       0       0       0       0       0       0       0       0       0       0       0       
      +0       0       0       0       0       0       0       0       0       0       0       0       0       0       0       
      +0       0       0       0       0       0       0
  4324 ;;      Totals:         0       0       0       0       0       0       0       0       0       0       0       0       
      +0       0       0       0       0       0       0       0       0       0       0       0       0       0       0       
      +0       0       0       0       0       0       0
  4325 ;;Total ram usage:        0 bytes
  4326 ;; Hardware stack levels used: 1
  4327 ;; This function calls:
  4328 ;;		Nothing
  4329 ;; This function is called by:
  4330 ;;		_TMR2_Initialize
  4331 ;;		_TMR2_CallBack
  4332 ;; This function uses a non-reentrant model
  4333 ;;
  4334                           
  4335                           	psect	text42
  4336  003272                     __ptext42:
  4337                           	callstack 0
  4338  003272                     _TMR2_DefaultInterruptHandler:
  4339                           	callstack 119
  4340  003272  0012               	return		;funcret
  4341  003274                     __end_of_TMR2_DefaultInterruptHandler:
  4342                           	callstack 0
  4343                           
  4344 ;; *************** function _TMR1_ISR *****************
  4345 ;; Defined at:
  4346 ;;		line 164 in file "mcc_generated_files/tmr1.c"
  4347 ;; Parameters:    Size  Location     Type
  4348 ;;		None
  4349 ;; Auto vars:     Size  Location     Type
  4350 ;;		None
  4351 ;; Return value:  Size  Location     Type
  4352 ;;                  1    wreg      void 
  4353 ;; Registers used:
  4354 ;;		wreg, status,2, status,0, pclath, tosl, cstack
  4355 ;; Tracked objects:
  4356 ;;		On entry : 0/0
  4357 ;;		On exit  : 0/0
  4358 ;;		Unchanged: 0/0
  4359 ;; Data sizes:     COMRAM   BANK5   BANK6   BANK7   BANK8   BANK9  BANK10  BANK11  BANK12  BANK13  BANK14  BANK15  BANK1
      +6  BANK17  BANK18  BANK19  BANK20  BANK21  BANK22  BANK23  BANK24  BANK25  BANK26  BANK27  BANK28  BANK29  BANK30  BANK3
      +1  BANK32  BANK33  BANK34  BANK35  BANK36  BANK37
  4360 ;;      Params:         0       0       0       0       0       0       0       0       0       0       0       0       
      +0       0       0       0       0       0       0       0       0       0       0       0       0       0       0       
      +0       0       0       0       0       0       0
  4361 ;;      Locals:         0       0       0       0       0       0       0       0       0       0       0       0       
      +0       0       0       0       0       0       0       0       0       0       0       0       0       0       0       
      +0       0       0       0       0       0       0
  4362 ;;      Temps:          0       0       0       0       0       0       0       0       0       0       0       0       
      +0       0       0       0       0       0       0       0       0       0       0       0       0       0       0       
      +0       0       0       0       0       0       0
  4363 ;;      Totals:         0       0       0       0       0       0       0       0       0       0       0       0       
      +0       0       0       0       0       0       0       0       0       0       0       0       0       0       0       
      +0       0       0       0       0       0       0
  4364 ;;Total ram usage:        0 bytes
  4365 ;; Hardware stack levels used: 1
  4366 ;; Hardware stack levels required when called: 2
  4367 ;; This function calls:
  4368 ;;		_TMR1_CallBack
  4369 ;;		_TMR1_WriteTimer
  4370 ;; This function is called by:
  4371 ;;		_INTERRUPT_InterruptManager
  4372 ;; This function uses a non-reentrant model
  4373 ;;
  4374                           
  4375                           	psect	text43
  4376  0031BE                     __ptext43:
  4377                           	callstack 0
  4378  0031BE                     _TMR1_ISR:
  4379                           	callstack 119
  4380  0031BE                     
  4381                           ;mcc_generated_files/tmr1.c: 168:     PIR3bits.TMR1IF = 0;
  4382  0031BE  98B1               	bcf	177,4,c	;volatile
  4383  0031C0                     
  4384                           ;mcc_generated_files/tmr1.c: 169:     TMR1_WriteTimer(timer1ReloadVal);
  4385  0031C0  C53C  F501         	movff	_timer1ReloadVal,TMR1_WriteTimer@timerVal	;volatile
  4386  0031C4  C53D  F502         	movff	_timer1ReloadVal+1,TMR1_WriteTimer@timerVal+1	;volatile
  4387  0031C8  ECDA  F017         	call	_TMR1_WriteTimer	;wreg free
  4388  0031CC                     
  4389                           ;mcc_generated_files/tmr1.c: 173:     TMR1_CallBack();
  4390  0031CC  EC07  F018         	call	_TMR1_CallBack	;wreg free
  4391  0031D0  0012               	return		;funcret
  4392  0031D2                     __end_of_TMR1_ISR:
  4393                           	callstack 0
  4394                           
  4395 ;; *************** function _TMR1_WriteTimer *****************
  4396 ;; Defined at:
  4397 ;;		line 127 in file "mcc_generated_files/tmr1.c"
  4398 ;; Parameters:    Size  Location     Type
  4399 ;;  timerVal        2    0[COMRAM] unsigned short 
  4400 ;; Auto vars:     Size  Location     Type
  4401 ;;		None
  4402 ;; Return value:  Size  Location     Type
  4403 ;;                  1    wreg      void 
  4404 ;; Registers used:
  4405 ;;		wreg, status,2
  4406 ;; Tracked objects:
  4407 ;;		On entry : 0/0
  4408 ;;		On exit  : 0/0
  4409 ;;		Unchanged: 0/0
  4410 ;; Data sizes:     COMRAM   BANK5   BANK6   BANK7   BANK8   BANK9  BANK10  BANK11  BANK12  BANK13  BANK14  BANK15  BANK1
      +6  BANK17  BANK18  BANK19  BANK20  BANK21  BANK22  BANK23  BANK24  BANK25  BANK26  BANK27  BANK28  BANK29  BANK30  BANK3
      +1  BANK32  BANK33  BANK34  BANK35  BANK36  BANK37
  4411 ;;      Params:         2       0       0       0       0       0       0       0       0       0       0       0       
      +0       0       0       0       0       0       0       0       0       0       0       0       0       0       0       
      +0       0       0       0       0       0       0
  4412 ;;      Locals:         0       0       0       0       0       0       0       0       0       0       0       0       
      +0       0       0       0       0       0       0       0       0       0       0       0       0       0       0       
      +0       0       0       0       0       0       0
  4413 ;;      Temps:          0       0       0       0       0       0       0       0       0       0       0       0       
      +0       0       0       0       0       0       0       0       0       0       0       0       0       0       0       
      +0       0       0       0       0       0       0
  4414 ;;      Totals:         2       0       0       0       0       0       0       0       0       0       0       0       
      +0       0       0       0       0       0       0       0       0       0       0       0       0       0       0       
      +0       0       0       0       0       0       0
  4415 ;;Total ram usage:        2 bytes
  4416 ;; Hardware stack levels used: 1
  4417 ;; This function calls:
  4418 ;;		Nothing
  4419 ;; This function is called by:
  4420 ;;		_TMR1_ISR
  4421 ;;		_TMR1_Reload
  4422 ;; This function uses a non-reentrant model
  4423 ;;
  4424                           
  4425                           	psect	text44
  4426  002FB4                     __ptext44:
  4427                           	callstack 0
  4428  002FB4                     _TMR1_WriteTimer:
  4429                           	callstack 120
  4430  002FB4                     
  4431                           ;mcc_generated_files/tmr1.c: 127: void TMR1_WriteTimer(uint16_t timerVal);mcc_generated_
      +                          files/tmr1.c: 128: {;mcc_generated_files/tmr1.c: 129:     if (T1CONbits.NOT_SYNC == 1)
  4432  002FB4  0103               	movlb	3	; () banked
  4433  002FB6  A51E               	btfss	30,2,b	;volatile
  4434  002FB8  EFE0  F017         	goto	i2u112_41
  4435  002FBC  EFE2  F017         	goto	i2u112_40
  4436  002FC0                     i2u112_41:
  4437  002FC0  EFEB  F017         	goto	i2l2822
  4438  002FC4                     i2u112_40:
  4439  002FC4                     
  4440                           ; BSR set to: 3
  4441                           ;mcc_generated_files/tmr1.c: 130:     {;mcc_generated_files/tmr1.c: 132:         T1CONbi
      +                          ts.TMR1ON = 0;
  4442  002FC4  911E               	bcf	30,0,b	;volatile
  4443  002FC6                     
  4444                           ; BSR set to: 3
  4445                           ;mcc_generated_files/tmr1.c: 135:         TMR1H = (uint8_t)(timerVal >> 8);
  4446  002FC6  5002               	movf	(TMR1_WriteTimer@timerVal+1)^(0+1280),w,c
  4447  002FC8  6F1D               	movwf	29,b	;volatile
  4448  002FCA                     
  4449                           ; BSR set to: 3
  4450                           ;mcc_generated_files/tmr1.c: 136:         TMR1L = (uint8_t)timerVal;
  4451  002FCA  0061  F404  F31C   	movff	TMR1_WriteTimer@timerVal,796	;volatile
  4452  002FD0                     
  4453                           ; BSR set to: 3
  4454                           ;mcc_generated_files/tmr1.c: 139:         T1CONbits.TMR1ON =1;
  4455  002FD0  811E               	bsf	30,0,b	;volatile
  4456                           
  4457                           ;mcc_generated_files/tmr1.c: 140:     }
  4458  002FD2  EFF0  F017         	goto	i2l854
  4459  002FD6                     i2l2822:
  4460                           
  4461                           ; BSR set to: 3
  4462                           ;mcc_generated_files/tmr1.c: 142:     {;mcc_generated_files/tmr1.c: 144:         TMR1H =
      +                           (uint8_t)(timerVal >> 8);
  4463  002FD6  5002               	movf	(TMR1_WriteTimer@timerVal+1)^(0+1280),w,c
  4464  002FD8  6F1D               	movwf	29,b	;volatile
  4465  002FDA                     
  4466                           ; BSR set to: 3
  4467                           ;mcc_generated_files/tmr1.c: 145:         TMR1L = (uint8_t)timerVal;
  4468  002FDA  0061  F404  F31C   	movff	TMR1_WriteTimer@timerVal,796	;volatile
  4469  002FE0                     i2l854:
  4470                           
  4471                           ; BSR set to: 3
  4472  002FE0  0012               	return		;funcret
  4473  002FE2                     __end_of_TMR1_WriteTimer:
  4474                           	callstack 0
  4475                           
  4476 ;; *************** function _TMR1_CallBack *****************
  4477 ;; Defined at:
  4478 ;;		line 176 in file "mcc_generated_files/tmr1.c"
  4479 ;; Parameters:    Size  Location     Type
  4480 ;;		None
  4481 ;; Auto vars:     Size  Location     Type
  4482 ;;		None
  4483 ;; Return value:  Size  Location     Type
  4484 ;;                  1    wreg      void 
  4485 ;; Registers used:
  4486 ;;		wreg, status,2, status,0, pclath, tosl, cstack
  4487 ;; Tracked objects:
  4488 ;;		On entry : 0/0
  4489 ;;		On exit  : 0/0
  4490 ;;		Unchanged: 0/0
  4491 ;; Data sizes:     COMRAM   BANK5   BANK6   BANK7   BANK8   BANK9  BANK10  BANK11  BANK12  BANK13  BANK14  BANK15  BANK1
      +6  BANK17  BANK18  BANK19  BANK20  BANK21  BANK22  BANK23  BANK24  BANK25  BANK26  BANK27  BANK28  BANK29  BANK30  BANK3
      +1  BANK32  BANK33  BANK34  BANK35  BANK36  BANK37
  4492 ;;      Params:         0       0       0       0       0       0       0       0       0       0       0       0       
      +0       0       0       0       0       0       0       0       0       0       0       0       0       0       0       
      +0       0       0       0       0       0       0
  4493 ;;      Locals:         0       0       0       0       0       0       0       0       0       0       0       0       
      +0       0       0       0       0       0       0       0       0       0       0       0       0       0       0       
      +0       0       0       0       0       0       0
  4494 ;;      Temps:          0       0       0       0       0       0       0       0       0       0       0       0       
      +0       0       0       0       0       0       0       0       0       0       0       0       0       0       0       
      +0       0       0       0       0       0       0
  4495 ;;      Totals:         0       0       0       0       0       0       0       0       0       0       0       0       
      +0       0       0       0       0       0       0       0       0       0       0       0       0       0       0       
      +0       0       0       0       0       0       0
  4496 ;;Total ram usage:        0 bytes
  4497 ;; Hardware stack levels used: 1
  4498 ;; Hardware stack levels required when called: 1
  4499 ;; This function calls:
  4500 ;;		Absolute function
  4501 ;;		_TMR1_DefaultInterruptHandler
  4502 ;; This function is called by:
  4503 ;;		_TMR1_ISR
  4504 ;; This function uses a non-reentrant model
  4505 ;;
  4506                           
  4507                           	psect	text45
  4508  00300E                     __ptext45:
  4509                           	callstack 0
  4510  00300E                     _TMR1_CallBack:
  4511                           	callstack 119
  4512  00300E                     
  4513                           ;mcc_generated_files/tmr1.c: 179:     if(TMR1_InterruptHandler)
  4514  00300E  503A               	movf	_TMR1_InterruptHandler^(0+1280),w,c
  4515  003010  103B               	iorwf	(_TMR1_InterruptHandler+1)^(0+1280),w,c
  4516  003012  B4D8               	btfsc	status,2,c
  4517  003014  EF0E  F018         	goto	i2u33_41
  4518  003018  EF10  F018         	goto	i2u33_40
  4519  00301C                     i2u33_41:
  4520  00301C  EF1C  F018         	goto	i2l870
  4521  003020                     i2u33_40:
  4522  003020                     
  4523                           ;mcc_generated_files/tmr1.c: 180:     {;mcc_generated_files/tmr1.c: 181:         TMR1_In
      +                          terruptHandler();
  4524  003020  D802               	call	i2u34_48
  4525  003022  EF1C  F018         	goto	i2u34_49
  4526  003026                     i2u34_48:
  4527  003026  0005               	push	
  4528  003028  6EFA               	movwf	pclath,c
  4529  00302A  503A               	movf	_TMR1_InterruptHandler^(0+1280),w,c
  4530  00302C  6EFD               	movwf	tosl,c
  4531  00302E  503B               	movf	(_TMR1_InterruptHandler+1)^(0+1280),w,c
  4532  003030  6EFE               	movwf	tosh,c
  4533  003032  6AFF               	clrf	tosu,c
  4534  003034  50FA               	movf	pclath,w,c
  4535  003036  0012               	return		;indir
  4536  003038                     i2u34_49:
  4537  003038                     i2l870:
  4538  003038  0012               	return		;funcret
  4539  00303A                     __end_of_TMR1_CallBack:
  4540                           	callstack 0
  4541                           
  4542 ;; *************** function _TMR1_DefaultInterruptHandler *****************
  4543 ;; Defined at:
  4544 ;;		line 189 in file "mcc_generated_files/tmr1.c"
  4545 ;; Parameters:    Size  Location     Type
  4546 ;;		None
  4547 ;; Auto vars:     Size  Location     Type
  4548 ;;		None
  4549 ;; Return value:  Size  Location     Type
  4550 ;;                  1    wreg      void 
  4551 ;; Registers used:
  4552 ;;		None
  4553 ;; Tracked objects:
  4554 ;;		On entry : 0/0
  4555 ;;		On exit  : 0/0
  4556 ;;		Unchanged: 0/0
  4557 ;; Data sizes:     COMRAM   BANK5   BANK6   BANK7   BANK8   BANK9  BANK10  BANK11  BANK12  BANK13  BANK14  BANK15  BANK1
      +6  BANK17  BANK18  BANK19  BANK20  BANK21  BANK22  BANK23  BANK24  BANK25  BANK26  BANK27  BANK28  BANK29  BANK30  BANK3
      +1  BANK32  BANK33  BANK34  BANK35  BANK36  BANK37
  4558 ;;      Params:         0       0       0       0       0       0       0       0       0       0       0       0       
      +0       0       0       0       0       0       0       0       0       0       0       0       0       0       0       
      +0       0       0       0       0       0       0
  4559 ;;      Locals:         0       0       0       0       0       0       0       0       0       0       0       0       
      +0       0       0       0       0       0       0       0       0       0       0       0       0       0       0       
      +0       0       0       0       0       0       0
  4560 ;;      Temps:          0       0       0       0       0       0       0       0       0       0       0       0       
      +0       0       0       0       0       0       0       0       0       0       0       0       0       0       0       
      +0       0       0       0       0       0       0
  4561 ;;      Totals:         0       0       0       0       0       0       0       0       0       0       0       0       
      +0       0       0       0       0       0       0       0       0       0       0       0       0       0       0       
      +0       0       0       0       0       0       0
  4562 ;;Total ram usage:        0 bytes
  4563 ;; Hardware stack levels used: 1
  4564 ;; This function calls:
  4565 ;;		Nothing
  4566 ;; This function is called by:
  4567 ;;		_TMR1_Initialize
  4568 ;;		_TMR1_CallBack
  4569 ;; This function uses a non-reentrant model
  4570 ;;
  4571                           
  4572                           	psect	text46
  4573  003274                     __ptext46:
  4574                           	callstack 0
  4575  003274                     _TMR1_DefaultInterruptHandler:
  4576                           	callstack 119
  4577  003274  0012               	return		;funcret
  4578  003276                     __end_of_TMR1_DefaultInterruptHandler:
  4579                           	callstack 0
  4580                           
  4581 ;; *************** function _TMR0_ISR *****************
  4582 ;; Defined at:
  4583 ;;		line 121 in file "mcc_generated_files/tmr0.c"
  4584 ;; Parameters:    Size  Location     Type
  4585 ;;		None
  4586 ;; Auto vars:     Size  Location     Type
  4587 ;;		None
  4588 ;; Return value:  Size  Location     Type
  4589 ;;                  1    wreg      void 
  4590 ;; Registers used:
  4591 ;;		wreg, status,2, status,0, pclath, tosl, cstack
  4592 ;; Tracked objects:
  4593 ;;		On entry : 0/0
  4594 ;;		On exit  : 0/0
  4595 ;;		Unchanged: 0/0
  4596 ;; Data sizes:     COMRAM   BANK5   BANK6   BANK7   BANK8   BANK9  BANK10  BANK11  BANK12  BANK13  BANK14  BANK15  BANK1
      +6  BANK17  BANK18  BANK19  BANK20  BANK21  BANK22  BANK23  BANK24  BANK25  BANK26  BANK27  BANK28  BANK29  BANK30  BANK3
      +1  BANK32  BANK33  BANK34  BANK35  BANK36  BANK37
  4597 ;;      Params:         0       0       0       0       0       0       0       0       0       0       0       0       
      +0       0       0       0       0       0       0       0       0       0       0       0       0       0       0       
      +0       0       0       0       0       0       0
  4598 ;;      Locals:         0       0       0       0       0       0       0       0       0       0       0       0       
      +0       0       0       0       0       0       0       0       0       0       0       0       0       0       0       
      +0       0       0       0       0       0       0
  4599 ;;      Temps:          0       0       0       0       0       0       0       0       0       0       0       0       
      +0       0       0       0       0       0       0       0       0       0       0       0       0       0       0       
      +0       0       0       0       0       0       0
  4600 ;;      Totals:         0       0       0       0       0       0       0       0       0       0       0       0       
      +0       0       0       0       0       0       0       0       0       0       0       0       0       0       0       
      +0       0       0       0       0       0       0
  4601 ;;Total ram usage:        0 bytes
  4602 ;; Hardware stack levels used: 1
  4603 ;; Hardware stack levels required when called: 2
  4604 ;; This function calls:
  4605 ;;		_TMR0_CallBack
  4606 ;; This function is called by:
  4607 ;;		_INTERRUPT_InterruptManager
  4608 ;; This function uses a non-reentrant model
  4609 ;;
  4610                           
  4611                           	psect	text47
  4612  00325E                     __ptext47:
  4613                           	callstack 0
  4614  00325E                     _TMR0_ISR:
  4615                           	callstack 119
  4616  00325E                     
  4617                           ;mcc_generated_files/tmr0.c: 124:     PIR3bits.TMR0IF = 0;
  4618  00325E  9EB1               	bcf	177,7,c	;volatile
  4619  003260                     
  4620                           ;mcc_generated_files/tmr0.c: 127:     TMR0_CallBack();
  4621  003260  EC1D  F018         	call	_TMR0_CallBack	;wreg free
  4622  003264  0012               	return		;funcret
  4623  003266                     __end_of_TMR0_ISR:
  4624                           	callstack 0
  4625                           
  4626 ;; *************** function _TMR0_CallBack *****************
  4627 ;; Defined at:
  4628 ;;		line 132 in file "mcc_generated_files/tmr0.c"
  4629 ;; Parameters:    Size  Location     Type
  4630 ;;		None
  4631 ;; Auto vars:     Size  Location     Type
  4632 ;;		None
  4633 ;; Return value:  Size  Location     Type
  4634 ;;                  1    wreg      void 
  4635 ;; Registers used:
  4636 ;;		wreg, status,2, status,0, pclath, tosl, cstack
  4637 ;; Tracked objects:
  4638 ;;		On entry : 0/0
  4639 ;;		On exit  : 0/0
  4640 ;;		Unchanged: 0/0
  4641 ;; Data sizes:     COMRAM   BANK5   BANK6   BANK7   BANK8   BANK9  BANK10  BANK11  BANK12  BANK13  BANK14  BANK15  BANK1
      +6  BANK17  BANK18  BANK19  BANK20  BANK21  BANK22  BANK23  BANK24  BANK25  BANK26  BANK27  BANK28  BANK29  BANK30  BANK3
      +1  BANK32  BANK33  BANK34  BANK35  BANK36  BANK37
  4642 ;;      Params:         0       0       0       0       0       0       0       0       0       0       0       0       
      +0       0       0       0       0       0       0       0       0       0       0       0       0       0       0       
      +0       0       0       0       0       0       0
  4643 ;;      Locals:         0       0       0       0       0       0       0       0       0       0       0       0       
      +0       0       0       0       0       0       0       0       0       0       0       0       0       0       0       
      +0       0       0       0       0       0       0
  4644 ;;      Temps:          0       0       0       0       0       0       0       0       0       0       0       0       
      +0       0       0       0       0       0       0       0       0       0       0       0       0       0       0       
      +0       0       0       0       0       0       0
  4645 ;;      Totals:         0       0       0       0       0       0       0       0       0       0       0       0       
      +0       0       0       0       0       0       0       0       0       0       0       0       0       0       0       
      +0       0       0       0       0       0       0
  4646 ;;Total ram usage:        0 bytes
  4647 ;; Hardware stack levels used: 1
  4648 ;; Hardware stack levels required when called: 1
  4649 ;; This function calls:
  4650 ;;		Absolute function
  4651 ;;		_TMR0_DefaultInterruptHandler
  4652 ;; This function is called by:
  4653 ;;		_TMR0_ISR
  4654 ;; This function uses a non-reentrant model
  4655 ;;
  4656                           
  4657                           	psect	text48
  4658  00303A                     __ptext48:
  4659                           	callstack 0
  4660  00303A                     _TMR0_CallBack:
  4661                           	callstack 119
  4662  00303A                     
  4663                           ;mcc_generated_files/tmr0.c: 136:     if(TMR0_InterruptHandler)
  4664  00303A  5036               	movf	_TMR0_InterruptHandler^(0+1280),w,c
  4665  00303C  1037               	iorwf	(_TMR0_InterruptHandler+1)^(0+1280),w,c
  4666  00303E  B4D8               	btfsc	status,2,c
  4667  003040  EF24  F018         	goto	i2u37_41
  4668  003044  EF26  F018         	goto	i2u37_40
  4669  003048                     i2u37_41:
  4670  003048  EF32  F018         	goto	i2l1012
  4671  00304C                     i2u37_40:
  4672  00304C                     
  4673                           ;mcc_generated_files/tmr0.c: 137:     {;mcc_generated_files/tmr0.c: 138:         TMR0_In
      +                          terruptHandler();
  4674  00304C  D802               	call	i2u38_48
  4675  00304E  EF32  F018         	goto	i2u38_49
  4676  003052                     i2u38_48:
  4677  003052  0005               	push	
  4678  003054  6EFA               	movwf	pclath,c
  4679  003056  5036               	movf	_TMR0_InterruptHandler^(0+1280),w,c
  4680  003058  6EFD               	movwf	tosl,c
  4681  00305A  5037               	movf	(_TMR0_InterruptHandler+1)^(0+1280),w,c
  4682  00305C  6EFE               	movwf	tosh,c
  4683  00305E  6AFF               	clrf	tosu,c
  4684  003060  50FA               	movf	pclath,w,c
  4685  003062  0012               	return		;indir
  4686  003064                     i2u38_49:
  4687  003064                     i2l1012:
  4688  003064  0012               	return		;funcret
  4689  003066                     __end_of_TMR0_CallBack:
  4690                           	callstack 0
  4691                           
  4692 ;; *************** function _TMR0_DefaultInterruptHandler *****************
  4693 ;; Defined at:
  4694 ;;		line 146 in file "mcc_generated_files/tmr0.c"
  4695 ;; Parameters:    Size  Location     Type
  4696 ;;		None
  4697 ;; Auto vars:     Size  Location     Type
  4698 ;;		None
  4699 ;; Return value:  Size  Location     Type
  4700 ;;                  1    wreg      void 
  4701 ;; Registers used:
  4702 ;;		None
  4703 ;; Tracked objects:
  4704 ;;		On entry : 0/0
  4705 ;;		On exit  : 0/0
  4706 ;;		Unchanged: 0/0
  4707 ;; Data sizes:     COMRAM   BANK5   BANK6   BANK7   BANK8   BANK9  BANK10  BANK11  BANK12  BANK13  BANK14  BANK15  BANK1
      +6  BANK17  BANK18  BANK19  BANK20  BANK21  BANK22  BANK23  BANK24  BANK25  BANK26  BANK27  BANK28  BANK29  BANK30  BANK3
      +1  BANK32  BANK33  BANK34  BANK35  BANK36  BANK37
  4708 ;;      Params:         0       0       0       0       0       0       0       0       0       0       0       0       
      +0       0       0       0       0       0       0       0       0       0       0       0       0       0       0       
      +0       0       0       0       0       0       0
  4709 ;;      Locals:         0       0       0       0       0       0       0       0       0       0       0       0       
      +0       0       0       0       0       0       0       0       0       0       0       0       0       0       0       
      +0       0       0       0       0       0       0
  4710 ;;      Temps:          0       0       0       0       0       0       0       0       0       0       0       0       
      +0       0       0       0       0       0       0       0       0       0       0       0       0       0       0       
      +0       0       0       0       0       0       0
  4711 ;;      Totals:         0       0       0       0       0       0       0       0       0       0       0       0       
      +0       0       0       0       0       0       0       0       0       0       0       0       0       0       0       
      +0       0       0       0       0       0       0
  4712 ;;Total ram usage:        0 bytes
  4713 ;; Hardware stack levels used: 1
  4714 ;; This function calls:
  4715 ;;		Nothing
  4716 ;; This function is called by:
  4717 ;;		_TMR0_Initialize
  4718 ;;		_TMR0_CallBack
  4719 ;; This function uses a non-reentrant model
  4720 ;;
  4721                           
  4722                           	psect	text49
  4723  003276                     __ptext49:
  4724                           	callstack 0
  4725  003276                     _TMR0_DefaultInterruptHandler:
  4726                           	callstack 119
  4727  003276  0012               	return		;funcret
  4728  003278                     __end_of_TMR0_DefaultInterruptHandler:
  4729                           	callstack 0
  4730                           
  4731 ;; *************** function _INT0_ISR *****************
  4732 ;; Defined at:
  4733 ;;		line 32 in file "mcc_generated_files/ext_int.c"
  4734 ;; Parameters:    Size  Location     Type
  4735 ;;		None
  4736 ;; Auto vars:     Size  Location     Type
  4737 ;;		None
  4738 ;; Return value:  Size  Location     Type
  4739 ;;                  1    wreg      void 
  4740 ;; Registers used:
  4741 ;;		wreg, status,2, status,0, pclath, tosl, cstack
  4742 ;; Tracked objects:
  4743 ;;		On entry : 0/0
  4744 ;;		On exit  : 0/0
  4745 ;;		Unchanged: 0/0
  4746 ;; Data sizes:     COMRAM   BANK5   BANK6   BANK7   BANK8   BANK9  BANK10  BANK11  BANK12  BANK13  BANK14  BANK15  BANK1
      +6  BANK17  BANK18  BANK19  BANK20  BANK21  BANK22  BANK23  BANK24  BANK25  BANK26  BANK27  BANK28  BANK29  BANK30  BANK3
      +1  BANK32  BANK33  BANK34  BANK35  BANK36  BANK37
  4747 ;;      Params:         0       0       0       0       0       0       0       0       0       0       0       0       
      +0       0       0       0       0       0       0       0       0       0       0       0       0       0       0       
      +0       0       0       0       0       0       0
  4748 ;;      Locals:         0       0       0       0       0       0       0       0       0       0       0       0       
      +0       0       0       0       0       0       0       0       0       0       0       0       0       0       0       
      +0       0       0       0       0       0       0
  4749 ;;      Temps:          0       0       0       0       0       0       0       0       0       0       0       0       
      +0       0       0       0       0       0       0       0       0       0       0       0       0       0       0       
      +0       0       0       0       0       0       0
  4750 ;;      Totals:         0       0       0       0       0       0       0       0       0       0       0       0       
      +0       0       0       0       0       0       0       0       0       0       0       0       0       0       0       
      +0       0       0       0       0       0       0
  4751 ;;Total ram usage:        0 bytes
  4752 ;; Hardware stack levels used: 1
  4753 ;; Hardware stack levels required when called: 2
  4754 ;; This function calls:
  4755 ;;		_INT0_CallBack
  4756 ;; This function is called by:
  4757 ;;		_INTERRUPT_InterruptManager
  4758 ;; This function uses a non-reentrant model
  4759 ;;
  4760                           
  4761                           	psect	text50
  4762  003266                     __ptext50:
  4763                           	callstack 0
  4764  003266                     _INT0_ISR:
  4765                           	callstack 119
  4766  003266                     
  4767                           ;mcc_generated_files/ext_int.c: 34:     (PIR1bits.INT0IF = 0);
  4768  003266  90AF               	bcf	175,0,c	;volatile
  4769  003268                     
  4770                           ;mcc_generated_files/ext_int.c: 37:     INT0_CallBack();
  4771  003268  EC33  F018         	call	_INT0_CallBack	;wreg free
  4772  00326C  0012               	return		;funcret
  4773  00326E                     __end_of_INT0_ISR:
  4774                           	callstack 0
  4775                           
  4776 ;; *************** function _INT0_CallBack *****************
  4777 ;; Defined at:
  4778 ;;		line 41 in file "mcc_generated_files/ext_int.c"
  4779 ;; Parameters:    Size  Location     Type
  4780 ;;		None
  4781 ;; Auto vars:     Size  Location     Type
  4782 ;;		None
  4783 ;; Return value:  Size  Location     Type
  4784 ;;                  1    wreg      void 
  4785 ;; Registers used:
  4786 ;;		wreg, status,2, status,0, pclath, tosl, cstack
  4787 ;; Tracked objects:
  4788 ;;		On entry : 0/0
  4789 ;;		On exit  : 0/0
  4790 ;;		Unchanged: 0/0
  4791 ;; Data sizes:     COMRAM   BANK5   BANK6   BANK7   BANK8   BANK9  BANK10  BANK11  BANK12  BANK13  BANK14  BANK15  BANK1
      +6  BANK17  BANK18  BANK19  BANK20  BANK21  BANK22  BANK23  BANK24  BANK25  BANK26  BANK27  BANK28  BANK29  BANK30  BANK3
      +1  BANK32  BANK33  BANK34  BANK35  BANK36  BANK37
  4792 ;;      Params:         0       0       0       0       0       0       0       0       0       0       0       0       
      +0       0       0       0       0       0       0       0       0       0       0       0       0       0       0       
      +0       0       0       0       0       0       0
  4793 ;;      Locals:         0       0       0       0       0       0       0       0       0       0       0       0       
      +0       0       0       0       0       0       0       0       0       0       0       0       0       0       0       
      +0       0       0       0       0       0       0
  4794 ;;      Temps:          0       0       0       0       0       0       0       0       0       0       0       0       
      +0       0       0       0       0       0       0       0       0       0       0       0       0       0       0       
      +0       0       0       0       0       0       0
  4795 ;;      Totals:         0       0       0       0       0       0       0       0       0       0       0       0       
      +0       0       0       0       0       0       0       0       0       0       0       0       0       0       0       
      +0       0       0       0       0       0       0
  4796 ;;Total ram usage:        0 bytes
  4797 ;; Hardware stack levels used: 1
  4798 ;; Hardware stack levels required when called: 1
  4799 ;; This function calls:
  4800 ;;		Absolute function
  4801 ;;		_INT0_DefaultInterruptHandler
  4802 ;; This function is called by:
  4803 ;;		_INT0_ISR
  4804 ;; This function uses a non-reentrant model
  4805 ;;
  4806                           
  4807                           	psect	text51
  4808  003066                     __ptext51:
  4809                           	callstack 0
  4810  003066                     _INT0_CallBack:
  4811                           	callstack 119
  4812  003066                     
  4813                           ;mcc_generated_files/ext_int.c: 44:     if(INT0_InterruptHandler)
  4814  003066  504A               	movf	_INT0_InterruptHandler^(0+1280),w,c
  4815  003068  104B               	iorwf	(_INT0_InterruptHandler+1)^(0+1280),w,c
  4816  00306A  B4D8               	btfsc	status,2,c
  4817  00306C  EF3A  F018         	goto	i2u25_41
  4818  003070  EF3C  F018         	goto	i2u25_40
  4819  003074                     i2u25_41:
  4820  003074  EF48  F018         	goto	i2l34
  4821  003078                     i2u25_40:
  4822  003078                     
  4823                           ;mcc_generated_files/ext_int.c: 45:     {;mcc_generated_files/ext_int.c: 46:         INT
      +                          0_InterruptHandler();
  4824  003078  D802               	call	i2u26_48
  4825  00307A  EF48  F018         	goto	i2u26_49
  4826  00307E                     i2u26_48:
  4827  00307E  0005               	push	
  4828  003080  6EFA               	movwf	pclath,c
  4829  003082  504A               	movf	_INT0_InterruptHandler^(0+1280),w,c
  4830  003084  6EFD               	movwf	tosl,c
  4831  003086  504B               	movf	(_INT0_InterruptHandler+1)^(0+1280),w,c
  4832  003088  6EFE               	movwf	tosh,c
  4833  00308A  6AFF               	clrf	tosu,c
  4834  00308C  50FA               	movf	pclath,w,c
  4835  00308E  0012               	return		;indir
  4836  003090                     i2u26_49:
  4837  003090                     i2l34:
  4838  003090  0012               	return		;funcret
  4839  003092                     __end_of_INT0_CallBack:
  4840                           	callstack 0
  4841                           
  4842 ;; *************** function _INT0_DefaultInterruptHandler *****************
  4843 ;; Defined at:
  4844 ;;		line 54 in file "mcc_generated_files/ext_int.c"
  4845 ;; Parameters:    Size  Location     Type
  4846 ;;		None
  4847 ;; Auto vars:     Size  Location     Type
  4848 ;;		None
  4849 ;; Return value:  Size  Location     Type
  4850 ;;                  1    wreg      void 
  4851 ;; Registers used:
  4852 ;;		None
  4853 ;; Tracked objects:
  4854 ;;		On entry : 0/0
  4855 ;;		On exit  : 0/0
  4856 ;;		Unchanged: 0/0
  4857 ;; Data sizes:     COMRAM   BANK5   BANK6   BANK7   BANK8   BANK9  BANK10  BANK11  BANK12  BANK13  BANK14  BANK15  BANK1
      +6  BANK17  BANK18  BANK19  BANK20  BANK21  BANK22  BANK23  BANK24  BANK25  BANK26  BANK27  BANK28  BANK29  BANK30  BANK3
      +1  BANK32  BANK33  BANK34  BANK35  BANK36  BANK37
  4858 ;;      Params:         0       0       0       0       0       0       0       0       0       0       0       0       
      +0       0       0       0       0       0       0       0       0       0       0       0       0       0       0       
      +0       0       0       0       0       0       0
  4859 ;;      Locals:         0       0       0       0       0       0       0       0       0       0       0       0       
      +0       0       0       0       0       0       0       0       0       0       0       0       0       0       0       
      +0       0       0       0       0       0       0
  4860 ;;      Temps:          0       0       0       0       0       0       0       0       0       0       0       0       
      +0       0       0       0       0       0       0       0       0       0       0       0       0       0       0       
      +0       0       0       0       0       0       0
  4861 ;;      Totals:         0       0       0       0       0       0       0       0       0       0       0       0       
      +0       0       0       0       0       0       0       0       0       0       0       0       0       0       0       
      +0       0       0       0       0       0       0
  4862 ;;Total ram usage:        0 bytes
  4863 ;; Hardware stack levels used: 1
  4864 ;; This function calls:
  4865 ;;		Nothing
  4866 ;; This function is called by:
  4867 ;;		_EXT_INT_Initialize
  4868 ;;		_INT0_CallBack
  4869 ;; This function uses a non-reentrant model
  4870 ;;
  4871                           
  4872                           	psect	text52
  4873  003278                     __ptext52:
  4874                           	callstack 0
  4875  003278                     _INT0_DefaultInterruptHandler:
  4876                           	callstack 119
  4877  003278  0012               	return		;funcret
  4878  00327A                     __end_of_INT0_DefaultInterruptHandler:
  4879                           	callstack 0
  4880                           
  4881                           ;
  4882                           ; Interrupt Vector Table @ 0x8
  4883                           ;
  4884                           
  4885                           	psect	ivt0x8
  4886  000008                     __pivt0x8:
  4887                           	callstack 0
  4888  000008                     ivt0x8_base:
  4889                           	callstack 0
  4890                           
  4891                           ; high-priority vector
  4892  000008  EFB3  F015         	goto	_INTERRUPT_InterruptManager
  4893  000018                     	org	16
  4894                           
  4895                           ; low-priority vector
  4896  000018  00FF               	reset	
  4897                           
  4898                           	psect	text53
  4899  000000                     __ptext53:
  4900                           	callstack 0
  4901  000000                     
  4902                           	psect	rparam
  4903  0000                     
  4904                           	psect	idloc
  4905                           
  4906                           ;Config register IDLOC0 @ 0x200000
  4907                           ;	unspecified, using default values
  4908  200000                     	org	2097152
  4909  200000  0FFF               	dw	4095
  4910                           
  4911                           ;Config register IDLOC1 @ 0x200002
  4912                           ;	unspecified, using default values
  4913  200002                     	org	2097154
  4914  200002  0FFF               	dw	4095
  4915                           
  4916                           ;Config register IDLOC2 @ 0x200004
  4917                           ;	unspecified, using default values
  4918  200004                     	org	2097156
  4919  200004  0FFF               	dw	4095
  4920                           
  4921                           ;Config register IDLOC3 @ 0x200006
  4922                           ;	unspecified, using default values
  4923  200006                     	org	2097158
  4924  200006  0FFF               	dw	4095
  4925                           
  4926                           ;Config register IDLOC4 @ 0x200008
  4927                           ;	unspecified, using default values
  4928  200008                     	org	2097160
  4929  200008  0FFF               	dw	4095
  4930                           
  4931                           ;Config register IDLOC5 @ 0x20000A
  4932                           ;	unspecified, using default values
  4933  20000A                     	org	2097162
  4934  20000A  0FFF               	dw	4095
  4935                           
  4936                           ;Config register IDLOC6 @ 0x20000C
  4937                           ;	unspecified, using default values
  4938  20000C                     	org	2097164
  4939  20000C  0FFF               	dw	4095
  4940                           
  4941                           ;Config register IDLOC7 @ 0x20000E
  4942                           ;	unspecified, using default values
  4943  20000E                     	org	2097166
  4944  20000E  0FFF               	dw	4095
  4945                           
  4946                           ;Config register IDLOC8 @ 0x200010
  4947                           ;	unspecified, using default values
  4948  200010                     	org	2097168
  4949  200010  0FFF               	dw	4095
  4950                           
  4951                           ;Config register IDLOC9 @ 0x200012
  4952                           ;	unspecified, using default values
  4953  200012                     	org	2097170
  4954  200012  0FFF               	dw	4095
  4955                           
  4956                           ;Config register IDLOC10 @ 0x200014
  4957                           ;	unspecified, using default values
  4958  200014                     	org	2097172
  4959  200014  0FFF               	dw	4095
  4960                           
  4961                           ;Config register IDLOC11 @ 0x200016
  4962                           ;	unspecified, using default values
  4963  200016                     	org	2097174
  4964  200016  0FFF               	dw	4095
  4965                           
  4966                           ;Config register IDLOC12 @ 0x200018
  4967                           ;	unspecified, using default values
  4968  200018                     	org	2097176
  4969  200018  0FFF               	dw	4095
  4970                           
  4971                           ;Config register IDLOC13 @ 0x20001A
  4972                           ;	unspecified, using default values
  4973  20001A                     	org	2097178
  4974  20001A  0FFF               	dw	4095
  4975                           
  4976                           ;Config register IDLOC14 @ 0x20001C
  4977                           ;	unspecified, using default values
  4978  20001C                     	org	2097180
  4979  20001C  0FFF               	dw	4095
  4980                           
  4981                           ;Config register IDLOC15 @ 0x20001E
  4982                           ;	unspecified, using default values
  4983  20001E                     	org	2097182
  4984  20001E  0FFF               	dw	4095
  4985                           
  4986                           	psect	config
  4987                           
  4988                           ;Config register CONFIG1 @ 0x300000
  4989                           ;	External Oscillator Selection
  4990                           ;	FEXTOSC = HS, HS (crystal oscillator) above 8 MHz
  4991                           ;	Reset Oscillator Selection
  4992                           ;	RSTOSC = EXTOSC, EXTOSC operating per FEXTOSC bits (device manufacturing default)
  4993  300000                     	org	3145728
  4994  300000  FA                 	db	250
  4995                           
  4996                           ;Config register CONFIG2 @ 0x300001
  4997                           ;	Clock out Enable bit
  4998                           ;	CLKOUTEN = OFF, CLKOUT function is disabled
  4999                           ;	PRLOCKED One-Way Set Enable bit
  5000                           ;	PR1WAY = ON, PRLOCKED bit can be cleared and set only once
  5001                           ;	Clock Switch Enable bit
  5002                           ;	CSWEN = ON, Writing to NOSC and NDIV is allowed
  5003                           ;	JTAG Enable bit
  5004                           ;	JTAGEN = ON, Enable JTAG Boundary Scan mode and pins
  5005                           ;	Fail-Safe Clock Monitor Enable bit
  5006                           ;	FCMEN = ON, Fail-Safe Clock Monitor enabled
  5007                           ;	Fail-Safe Clock Monitor -Primary XTAL Enable bit
  5008                           ;	FCMENP = ON, FSCM timer will set FSCMP bit and OSFIF interrupt on Primary XTAL failure
  5009                           ;	Fail-Safe Clock Monitor -Secondary XTAL Enable bit
  5010                           ;	FCMENS = ON, FSCM timer will set FSCMS bit and OSFIF interrupt on Secondary XTAL failu
      +                          re
  5011  300001                     	org	3145729
  5012  300001  FF                 	db	255
  5013                           
  5014                           ;Config register CONFIG3 @ 0x300002
  5015                           ;	MCLR Enable bit
  5016                           ;	MCLRE = EXTMCLR, If LVP = 0, MCLR pin is MCLR; If LVP = 1, RE3 pin function is MCLR
  5017                           ;	Power-up timer selection bits
  5018                           ;	PWRTS = PWRT_OFF, PWRT is disabled
  5019                           ;	Multi-vector enable bit
  5020                           ;	MVECEN = OFF, Interrupt contoller does not use vector table to prioritze interrupts
  5021                           ;	IVTLOCK bit One-way set enable bit
  5022                           ;	IVT1WAY = ON, IVTLOCKED bit can be cleared and set only once
  5023                           ;	Low Power BOR Enable bit
  5024                           ;	LPBOREN = OFF, Low-Power BOR disabled
  5025                           ;	Brown-out Reset Enable bits
  5026                           ;	BOREN = SBORDIS, Brown-out Reset enabled , SBOREN bit is ignored
  5027  300002                     	org	3145730
  5028  300002  F7                 	db	247
  5029                           
  5030                           ;Config register CONFIG4 @ 0x300003
  5031                           ;	Brown-out Reset Voltage Selection bits
  5032                           ;	BORV = VBOR_1P9, Brown-out Reset Voltage (VBOR) set to 1.9V
  5033                           ;	ZCD Disable bit
  5034                           ;	ZCD = OFF, ZCD module is disabled. ZCD can be enabled by setting the ZCDSEN bit of ZCD
      +                          CON
  5035                           ;	PPSLOCK bit One-Way Set Enable bit
  5036                           ;	PPS1WAY = ON, PPSLOCKED bit can be cleared and set only once; PPS registers remain loc
      +                          ked after one clear/set cycle
  5037                           ;	Stack Full/Underflow Reset Enable bit
  5038                           ;	STVREN = ON, Stack full/underflow will cause Reset
  5039                           ;	Low Voltage Programming Enable bit
  5040                           ;	LVP = OFF, HV on MCLR/VPP must be used for programming
  5041                           ;	Extended Instruction Set Enable bit
  5042                           ;	XINST = OFF, Extended Instruction Set and Indexed Addressing Mode disabled
  5043  300003                     	org	3145731
  5044  300003  DF                 	db	223
  5045                           
  5046                           ;Config register CONFIG5 @ 0x300004
  5047                           ;	WDT Period selection bits
  5048                           ;	WDTCPS = WDTCPS_31, Divider ratio 1:65536; software control of WDTPS
  5049                           ;	WDT operating mode
  5050                           ;	WDTE = OFF, WDT Disabled; SWDTEN is ignored
  5051  300004                     	org	3145732
  5052  300004  9F                 	db	159
  5053                           
  5054                           ;Config register CONFIG6 @ 0x300005
  5055                           ;	WDT Window Select bits
  5056                           ;	WDTCWS = WDTCWS_7, window always open (100%); software control; keyed access not requi
      +                          red
  5057                           ;	WDT input clock selector
  5058                           ;	WDTCCS = SC, Software Control
  5059  300005                     	org	3145733
  5060  300005  FF                 	db	255
  5061                           
  5062                           ;Config register CONFIG7 @ 0x300006
  5063                           ;	Boot Block Size selection bits
  5064                           ;	BBSIZE = BBSIZE_512, Boot Block size is 512 words
  5065                           ;	Boot Block enable bit
  5066                           ;	BBEN = OFF, Boot block disabled
  5067                           ;	Storage Area Flash enable bit
  5068                           ;	SAFEN = OFF, SAF disabled
  5069  300006                     	org	3145734
  5070  300006  FF                 	db	255
  5071                           
  5072                           ;Config register CONFIG8 @ 0x300007
  5073                           ;	Boot Block Write Protection bit
  5074                           ;	WRTB = OFF, Boot Block not Write protected
  5075                           ;	Configuration Register Write Protection bit
  5076                           ;	WRTC = OFF, Configuration registers not Write protected
  5077                           ;	Data EEPROM Write Protection bit
  5078                           ;	WRTD = OFF, Data EEPROM not Write protected
  5079                           ;	SAF Write protection bit
  5080                           ;	WRTSAF = OFF, SAF not Write Protected
  5081                           ;	Application Block write protection bit
  5082                           ;	WRTAPP = OFF, Application Block not write protected
  5083  300007                     	org	3145735
  5084  300007  FF                 	db	255
  5085                           
  5086                           ;Config register CONFIG9 @ 0x300008
  5087                           ;	CRC on boot output pin selection
  5088                           ;	BOOTPINSEL = RC5, CRC on boot output pin is RC5
  5089                           ;	CRC on boot output pin enable bit
  5090                           ;	BPEN = OFF, CRC on boot output pin disabled
  5091                           ;	CRC on boot output pin open drain bit
  5092                           ;	ODCON = OFF, Pin drives both high-going and low-going signals
  5093  300008                     	org	3145736
  5094  300008  FF                 	db	255
  5095                           
  5096                           ;Config register CONFIG10 @ 0x300009
  5097                           ;	PFM and Data EEPROM Code Protection bit
  5098                           ;	CP = OFF, PFM and Data EEPROM code protection disabled
  5099  300009                     	org	3145737
  5100  300009  FF                 	db	255
  5101                           
  5102                           ;Config register CONFIG11 @ 0x30000A
  5103                           ;	CRC on boot scan enable for boot area
  5104                           ;	BOOTSCEN = OFF, CRC on boot will not include the boot area of program memory in its ca
      +                          lculation
  5105                           ;	CRC on boot Continue on Error for boot areas bit
  5106                           ;	BOOTCOE = HALT, CRC on boot will stop device if error is detected in boot areas
  5107                           ;	CRC on boot application code scan enable
  5108                           ;	APPSCEN = OFF, CRC on boot will not include the application area of program memory in 
      +                          its calculation
  5109                           ;	CRC on boot SAF area scan enable
  5110                           ;	SAFSCEN = OFF, CRC on boot will not include the SAF area of program memory in its calc
      +                          ulation
  5111                           ;	CRC on boot Data EEPROM scan enable
  5112                           ;	DATASCEN = OFF, CRC on boot will not include data EEPROM in its calculation
  5113                           ;	CRC on boot Config fuses scan enable
  5114                           ;	CFGSCEN = OFF, CRC on boot will not include the configuration fuses in its calculation
  5115                           ;	CRC on boot Continue on Error for non-boot areas bit
  5116                           ;	COE = HALT, CRC on boot will stop device if error is detected in non-boot areas
  5117                           ;	Boot on CRC Enable bit
  5118                           ;	BOOTPOR = OFF, CRC on boot will not run
  5119  30000A                     	org	3145738
  5120  30000A  FF                 	db	255
  5121                           
  5122                           ;Config register CONFIG12 @ 0x30000B
  5123                           ;	Boot Sector Polynomial for CRC on boot bits 31-24
  5124                           ;	BCRCPOLT = hFF, Bits 31:24 of BCRCPOL are 0xFF
  5125  30000B                     	org	3145739
  5126  30000B  FF                 	db	255
  5127                           
  5128                           ;Config register CONFIG13 @ 0x30000C
  5129                           ;	Boot Sector Polynomial for CRC on boot bits 23-16
  5130                           ;	BCRCPOLU = hFF, Bits 23:16 of BCRCPOL are 0xFF
  5131  30000C                     	org	3145740
  5132  30000C  FF                 	db	255
  5133                           
  5134                           ;Config register CONFIG14 @ 0x30000D
  5135                           ;	Boot Sector Polynomial for CRC on boot bits 15-8
  5136                           ;	BCRCPOLH = hFF, Bits 15:8 of BCRCPOL are 0xFF
  5137  30000D                     	org	3145741
  5138  30000D  FF                 	db	255
  5139                           
  5140                           ;Config register CONFIG15 @ 0x30000E
  5141                           ;	Boot Sector Polynomial for CRC on boot bits 7-0
  5142                           ;	BCRCPOLL = hFF, Bits 7:0 of BCRCPOL are 0xFF
  5143  30000E                     	org	3145742
  5144  30000E  FF                 	db	255
  5145                           
  5146                           ;Config register CONFIG16 @ 0x30000F
  5147                           ;	Boot Sector Seed for CRC on boot bits 31-24
  5148                           ;	BCRCSEEDT = hFF, Bits 31:24 of BCRCSEED are 0xFF
  5149  30000F                     	org	3145743
  5150  30000F  FF                 	db	255
  5151                           
  5152                           ;Config register CONFIG17 @ 0x300010
  5153                           ;	Boot Sector Seed for CRC on boot bits 23-16
  5154                           ;	BCRCSEEDU = hFF, Bits 23:16 of BCRCSEED are 0xFF
  5155  300010                     	org	3145744
  5156  300010  FF                 	db	255
  5157                           
  5158                           ;Config register CONFIG18 @ 0x300011
  5159                           ;	Boot Sector Seed for CRC on boot bits 15-8
  5160                           ;	BCRCSEEDH = hFF, Bits 15:8 of BCRCSEED are 0xFF
  5161  300011                     	org	3145745
  5162  300011  FF                 	db	255
  5163                           
  5164                           ;Config register CONFIG19 @ 0x300012
  5165                           ;	Boot Sector Seed for CRC on boot bits 7-0
  5166                           ;	BCRCSEEDL = hFF, Bits 7:0 of BCRCSEED are 0xFF
  5167  300012                     	org	3145746
  5168  300012  FF                 	db	255
  5169                           
  5170                           ;Config register CONFIG20 @ 0x300013
  5171                           ;	unspecified, using default values
  5172                           ;	Boot Sector Expected Result for CRC on boot bits 31-24
  5173                           ;	BCRCEREST = 0xFF, unprogrammed default
  5174  300013                     	org	3145747
  5175  300013  FF                 	db	255
  5176                           
  5177                           ;Config register CONFIG21 @ 0x300014
  5178                           ;	unspecified, using default values
  5179                           ;	Boot Sector Expected Result for CRC on boot bits 23-16
  5180                           ;	BCRCERESU = 0xFF, unprogrammed default
  5181  300014                     	org	3145748
  5182  300014  FF                 	db	255
  5183                           
  5184                           ;Config register CONFIG22 @ 0x300015
  5185                           ;	unspecified, using default values
  5186                           ;	Boot Sector Expected Result for CRC on boot bits 15-8
  5187                           ;	BCRCERESH = 0xFF, unprogrammed default
  5188  300015                     	org	3145749
  5189  300015  FF                 	db	255
  5190                           
  5191                           ;Config register CONFIG23 @ 0x300016
  5192                           ;	unspecified, using default values
  5193                           ;	Boot Sector Expected Result for CRC on boot bits 7-0
  5194                           ;	BCRCERESL = 0xFF, unprogrammed default
  5195  300016                     	org	3145750
  5196  300016  FF                 	db	255
  5197                           
  5198                           ;Config register CONFIG24 @ 0x300017
  5199                           ;	Non-Boot Sector Polynomial for CRC on boot bits 31-24
  5200                           ;	CRCPOLT = hFF, Bits 31:24 of CRCPOL are 0xFF
  5201  300017                     	org	3145751
  5202  300017  FF                 	db	255
  5203                           
  5204                           ;Config register CONFIG25 @ 0x300018
  5205                           ;	Non-Boot Sector Polynomial for CRC on boot bits 23-16
  5206                           ;	CRCPOLU = hFF, Bits 23:16 of CRCPOL are 0xFF
  5207  300018                     	org	3145752
  5208  300018  FF                 	db	255
  5209                           
  5210                           ;Config register CONFIG26 @ 0x300019
  5211                           ;	Non-Boot Sector Polynomial for CRC on boot bits 15-8
  5212                           ;	CRCPOLH = hFF, Bits 15:8 of CRCPOL are 0xFF
  5213  300019                     	org	3145753
  5214  300019  FF                 	db	255
  5215                           
  5216                           ;Config register CONFIG27 @ 0x30001A
  5217                           ;	Non-Boot Sector Polynomial for CRC on boot bits 7-0
  5218                           ;	CRCPOLL = hFF, Bits 7:0 of CRCPOL are 0xFF
  5219  30001A                     	org	3145754
  5220  30001A  FF                 	db	255
  5221                           
  5222                           ;Config register CONFIG28 @ 0x30001B
  5223                           ;	Non-Boot Sector Seed for CRC on boot bits 31-24
  5224                           ;	CRCSEEDT = hFF, Bits 31:24 of CRCSEED are 0xFF
  5225  30001B                     	org	3145755
  5226  30001B  FF                 	db	255
  5227                           
  5228                           ;Config register CONFIG29 @ 0x30001C
  5229                           ;	Non-Boot Sector Seed for CRC on boot bits 23-16
  5230                           ;	CRCSEEDU = hFF, Bits 23:16 of CRCSEED are 0xFF
  5231  30001C                     	org	3145756
  5232  30001C  FF                 	db	255
  5233                           
  5234                           ;Config register CONFIG30 @ 0x30001D
  5235                           ;	Non-Boot Sector Seed for CRC on boot bits 15-8
  5236                           ;	CRCSEEDH = hFF, Bits 15:8 of CRCSEED are 0xFF
  5237  30001D                     	org	3145757
  5238  30001D  FF                 	db	255
  5239                           
  5240                           ;Config register CONFIG31 @ 0x30001E
  5241                           ;	Non-Boot Sector Seed for CRC on boot bits 7-0
  5242                           ;	CRCSEEDL = hFF, Bits 7:0 of CRCSEED are 0xFF
  5243  30001E                     	org	3145758
  5244  30001E  FF                 	db	255
  5245                           
  5246                           ;Config register CONFIG32 @ 0x30001F
  5247                           ;	unspecified, using default values
  5248                           ;	Non-Boot Sector Expected Result for CRC on boot bits 31-24
  5249                           ;	CRCEREST = 0xFF, unprogrammed default
  5250  30001F                     	org	3145759
  5251  30001F  FF                 	db	255
  5252                           
  5253                           ;Config register CONFIG33 @ 0x300020
  5254                           ;	unspecified, using default values
  5255                           ;	Non-Boot Sector Expected Result for CRC on boot bits 23-16
  5256                           ;	CRCERESU = 0xFF, unprogrammed default
  5257  300020                     	org	3145760
  5258  300020  FF                 	db	255
  5259                           
  5260                           ;Config register CONFIG34 @ 0x300021
  5261                           ;	unspecified, using default values
  5262                           ;	Non-Boot Sector Expected Result for CRC on boot bits 15-8
  5263                           ;	CRCERESH = 0xFF, unprogrammed default
  5264  300021                     	org	3145761
  5265  300021  FF                 	db	255
  5266                           
  5267                           ;Config register CONFIG35 @ 0x300022
  5268                           ;	unspecified, using default values
  5269                           ;	Non-Boot Sector Expected Result for CRC on boot bits 7-0
  5270                           ;	CRCERESL = 0xFF, unprogrammed default
  5271  300022                     	org	3145762
  5272  300022  FF                 	db	255
  5273                           
  5274                           ; Padding undefined space
  5275  300023                     	org	3145763
  5276  300023  FF                 	db	255
  5277                           tosu	equ	0x4FF
  5278                           tosh	equ	0x4FE
  5279                           tosl	equ	0x4FD
  5280                           stkptr	equ	0x4FC
  5281                           pclatu	equ	0x4FB
  5282                           pclath	equ	0x4FA
  5283                           pcl	equ	0x4F9
  5284                           tblptru	equ	0x4F8
  5285                           tblptrh	equ	0x4F7
  5286                           tblptrl	equ	0x4F6
  5287                           tablat	equ	0x4F5
  5288                           prodh	equ	0x4F4
  5289                           prodl	equ	0x4F3
  5290                           indf0	equ	0x4EF
  5291                           postinc0	equ	0x4EE
  5292                           postdec0	equ	0x4ED
  5293                           preinc0	equ	0x4EC
  5294                           plusw0	equ	0x4EB
  5295                           fsr0h	equ	0x4EA
  5296                           fsr0l	equ	0x4E9
  5297                           wreg	equ	0x4E8
  5298                           indf1	equ	0x4E7
  5299                           postinc1	equ	0x4E6
  5300                           postdec1	equ	0x4E5
  5301                           preinc1	equ	0x4E4
  5302                           plusw1	equ	0x4E3
  5303                           fsr1h	equ	0x4E2
  5304                           fsr1l	equ	0x4E1
  5305                           bsr	equ	0x4E0
  5306                           indf2	equ	0x4DF
  5307                           postinc2	equ	0x4DE
  5308                           postdec2	equ	0x4DD
  5309                           preinc2	equ	0x4DC
  5310                           plusw2	equ	0x4DB
  5311                           fsr2h	equ	0x4DA
  5312                           fsr2l	equ	0x4D9
  5313                           status	equ	0x4D8

Data Sizes:
    Strings     0
    Constant    11
    Data        32
    BSS         15
    Persistent  22
    Stack       0

Auto Spaces:
    Space          Size  Autos    Used
    COMRAM           95     53      90
    BANK5           160      0      32
    BANK6           256      0       0
    BANK7           256      0       0
    BANK8           256      0       0
    BANK9           256      0       0
    BANK10          256      0       0
    BANK11          256      0       0
    BANK12          256      0       0
    BANK13          256      0       0
    BANK14          256      0       0
    BANK15          256      0       0
    BANK16          256      0       0
    BANK17          256      0       0
    BANK18          256      0       0
    BANK19          256      0       0
    BANK20          256      0       0
    BANK21          256      0       0
    BANK22          256      0       0
    BANK23          256      0       0
    BANK24          256      0       0
    BANK25          256      0       0
    BANK26          256      0       0
    BANK27          256      0       0
    BANK28          256      0       0
    BANK29          256      0       0
    BANK30          256      0       0
    BANK31          256      0       0
    BANK32          256      0       0
    BANK33          256      0       0
    BANK34          256      0       0
    BANK35          256      0       0
    BANK36          256      0       0
    BANK37          256      0       0

Pointer List with Targets:

    memcpy@d1	PTR void  size(2) Largest target is 9727
		 -> RAM(DATA[9727]), 

    memcpy@d	PTR unsigned char  size(2) Largest target is 9727
		 -> RAM(DATA[9727]), 

    memcpy@s1	PTR const void  size(2) Largest target is 32
		 -> CANDATAdata(BANK5[32]), 

    memcpy@s	PTR const unsigned char  size(2) Largest target is 32
		 -> CANDATAdata(BANK5[32]), 

    msg.data	PTR unsigned char  size(2) Largest target is 32
		 -> CANDATAdata(BANK5[32]), 

    TMR0_SetInterruptHandler@InterruptHandler	PTR FTN()void  size(2) Largest target is 1
		 -> TMR0_DefaultInterruptHandler(), 

    TMR0_InterruptHandler	PTR FTN()void  size(2) Largest target is 1
		 -> TMR0_DefaultInterruptHandler(), Absolute function(), 

    TMR2_SetInterruptHandler@InterruptHandler	PTR FTN()void  size(2) Largest target is 1
		 -> TMR2_DefaultInterruptHandler(), 

    TMR2_InterruptHandler	PTR FTN()void  size(2) Largest target is 1
		 -> TMR2_DefaultInterruptHandler(), Absolute function(), 

    TMR1_SetInterruptHandler@InterruptHandler	PTR FTN()void  size(2) Largest target is 1
		 -> TMR1_DefaultInterruptHandler(), 

    TMR1_InterruptHandler	PTR FTN()void  size(2) Largest target is 1
		 -> TMR1_DefaultInterruptHandler(), Absolute function(), 

    PWM2_16BIT_Period_SetInterruptHandler@InterruptHandler	PTR FTN()void  size(2) Largest target is 1
		 -> PWM2_16BIT_Period_DefaultInterruptHandler(), 

    PWM2_16BIT_Slice1Output2_SetInterruptHandler@InterruptHandler	PTR FTN()void  size(2) Largest target is 1
		 -> PWM2_16BIT_Slice1Output2_DefaultInterruptHandler(), 

    PWM2_16BIT_Slice1Output1_SetInterruptHandler@InterruptHandler	PTR FTN()void  size(2) Largest target is 1
		 -> PWM2_16BIT_Slice1Output1_DefaultInterruptHandler(), 

    PWM2_16BIT_Period_InterruptHandler	PTR FTN()void  size(2) Largest target is 1
		 -> PWM2_16BIT_Period_DefaultInterruptHandler(), Absolute function(), 

    PWM2_16BIT_Slice1Output2_InterruptHandler	PTR FTN()void  size(2) Largest target is 1
		 -> PWM2_16BIT_Slice1Output2_DefaultInterruptHandler(), Absolute function(), 

    PWM2_16BIT_Slice1Output1_InterruptHandler	PTR FTN()void  size(2) Largest target is 1
		 -> PWM2_16BIT_Slice1Output1_DefaultInterruptHandler(), Absolute function(), 

    CAN1_Transmit@txFifoObj	PTR unsigned char  size(2) Largest target is 9727
		 -> RAM(DATA[9727]), 

    CAN1_Transmit@txCanMsg	PTR struct . size(2) Largest target is 8
		 -> msg(COMRAM[7]), 

    ValidateTransmission@txCanMsg.data	PTR unsigned char  size(2) Largest target is 32
		 -> CANDATAdata(BANK5[32]), 

    ValidateTransmission@txCanMsg	PTR struct . size(2) Largest target is 8
		 -> msg(COMRAM[7]), 

    sp__memcpy	PTR void  size(2) Largest target is 9727
		 -> RAM(DATA[9727]), 

    WriteMessageToFifo@txFifoObj	PTR unsigned char  size(2) Largest target is 9727
		 -> RAM(DATA[9727]), 

    S1292$data	PTR unsigned char  size(2) Largest target is 32
		 -> CANDATAdata(BANK5[32]), 

    WriteMessageToFifo@txCanMsg.data	PTR unsigned char  size(2) Largest target is 32
		 -> CANDATAdata(BANK5[32]), 

    WriteMessageToFifo@txCanMsg	PTR struct . size(2) Largest target is 8
		 -> msg(COMRAM[7]), 

    FIFO	const PTR volatile struct CAN_FIFOREG size(2) Largest target is 1
		 -> C1TXQCONL(SFR_1[1]), 

    ADC_SetActiveClockTuningInterruptHandler@InterruptHandler	PTR FTN()void  size(2) Largest target is 1
		 -> ADC_DefaultActiveClockTuning_ISR(), 

    ADC_SetContext1ThresholdInterruptHandler@InterruptHandler	PTR FTN()void  size(2) Largest target is 1
		 -> ADC_DefaultContext1Threshold_ISR(), 

    ADC_SetADIInterruptHandler@InterruptHandler	PTR FTN()void  size(2) Largest target is 1
		 -> ADC_DefaultADI_ISR(), 

    ADC_Context1Thereshld_ISR	PTR FTN()void  size(2) Largest target is 1
		 -> ADC_DefaultContext1Threshold_ISR(), Absolute function(), 

    ADC_ActiveClockTuning_ISR	PTR FTN()void  size(2) Largest target is 1
		 -> ADC_DefaultActiveClockTuning_ISR(), Absolute function(), 

    ADC_ConversionComplete_ISR	PTR FTN()void  size(2) Largest target is 1
		 -> ADC_DefaultADI_ISR(), Absolute function(), 

    PWM1_16BIT_Period_SetInterruptHandler@InterruptHandler	PTR FTN()void  size(2) Largest target is 1
		 -> PWM1_16BIT_Period_DefaultInterruptHandler(), 

    PWM1_16BIT_Slice1Output2_SetInterruptHandler@InterruptHandler	PTR FTN()void  size(2) Largest target is 1
		 -> PWM1_16BIT_Slice1Output2_DefaultInterruptHandler(), 

    PWM1_16BIT_Slice1Output1_SetInterruptHandler@InterruptHandler	PTR FTN()void  size(2) Largest target is 1
		 -> PWM1_16BIT_Slice1Output1_DefaultInterruptHandler(), 

    PWM1_16BIT_Period_InterruptHandler	PTR FTN()void  size(2) Largest target is 1
		 -> PWM1_16BIT_Period_DefaultInterruptHandler(), Absolute function(), 

    PWM1_16BIT_Slice1Output2_InterruptHandler	PTR FTN()void  size(2) Largest target is 1
		 -> PWM1_16BIT_Slice1Output2_DefaultInterruptHandler(), Absolute function(), 

    PWM1_16BIT_Slice1Output1_InterruptHandler	PTR FTN()void  size(2) Largest target is 1
		 -> PWM1_16BIT_Slice1Output1_DefaultInterruptHandler(), Absolute function(), 

    INT0_SetInterruptHandler@InterruptHandler	PTR FTN()void  size(2) Largest target is 1
		 -> INT0_DefaultInterruptHandler(), 

    INT0_InterruptHandler	PTR FTN()void  size(2) Largest target is 1
		 -> INT0_DefaultInterruptHandler(), Absolute function(), 


Critical Paths under _main in COMRAM

    _main->_CANWriteMessage
    _SYSTEM_Initialize->_TMR1_Initialize
    _TMR2_Initialize->_TMR2_SetInterruptHandler
    _TMR1_Initialize->_TMR1_SetInterruptHandler
    _TMR0_Initialize->_TMR0_SetInterruptHandler
    _PWM2_16BIT_Initialize->_PWM2_16BIT_Period_SetInterruptHandler
    _PWM2_16BIT_Initialize->_PWM2_16BIT_Slice1Output1_SetInterruptHandler
    _PWM2_16BIT_Initialize->_PWM2_16BIT_Slice1Output2_SetInterruptHandler
    _PWM1_16BIT_Initialize->_PWM1_16BIT_Period_SetInterruptHandler
    _PWM1_16BIT_Initialize->_PWM1_16BIT_Slice1Output1_SetInterruptHandler
    _PWM1_16BIT_Initialize->_PWM1_16BIT_Slice1Output2_SetInterruptHandler
    _EXT_INT_Initialize->_INT0_SetInterruptHandler
    _CAN1_Initialize->_CAN1_OperationModeSet
    _ADC_Initialize->_ADC_SetADIInterruptHandler
    _ADC_Initialize->_ADC_SetActiveClockTuningInterruptHandler
    _ADC_Initialize->_ADC_SetContext1ThresholdInterruptHandler
    _CANWriteMessage->_CAN1_Transmit
    _CAN1_TransmitFIFOStatusGet->_isTxChannel
    _CAN1_Transmit->_WriteMessageToFifo
    _WriteMessageToFifo->_memcpy
    _ValidateTransmission->_GetTxFifoStatus

Critical Paths under _INTERRUPT_InterruptManager in COMRAM

    _TMR1_ISR->_TMR1_WriteTimer

Critical Paths under _main in BANK5

    None.

Critical Paths under _INTERRUPT_InterruptManager in BANK5

    None.

Critical Paths under _main in BANK6

    None.

Critical Paths under _INTERRUPT_InterruptManager in BANK6

    None.

Critical Paths under _main in BANK7

    None.

Critical Paths under _INTERRUPT_InterruptManager in BANK7

    None.

Critical Paths under _main in BANK8

    None.

Critical Paths under _INTERRUPT_InterruptManager in BANK8

    None.

Critical Paths under _main in BANK9

    None.

Critical Paths under _INTERRUPT_InterruptManager in BANK9

    None.

Critical Paths under _main in BANK10

    None.

Critical Paths under _INTERRUPT_InterruptManager in BANK10

    None.

Critical Paths under _main in BANK11

    None.

Critical Paths under _INTERRUPT_InterruptManager in BANK11

    None.

Critical Paths under _main in BANK12

    None.

Critical Paths under _INTERRUPT_InterruptManager in BANK12

    None.

Critical Paths under _main in BANK13

    None.

Critical Paths under _INTERRUPT_InterruptManager in BANK13

    None.

Critical Paths under _main in BANK14

    None.

Critical Paths under _INTERRUPT_InterruptManager in BANK14

    None.

Critical Paths under _main in BANK15

    None.

Critical Paths under _INTERRUPT_InterruptManager in BANK15

    None.

Critical Paths under _main in BANK16

    None.

Critical Paths under _INTERRUPT_InterruptManager in BANK16

    None.

Critical Paths under _main in BANK17

    None.

Critical Paths under _INTERRUPT_InterruptManager in BANK17

    None.

Critical Paths under _main in BANK18

    None.

Critical Paths under _INTERRUPT_InterruptManager in BANK18

    None.

Critical Paths under _main in BANK19

    None.

Critical Paths under _INTERRUPT_InterruptManager in BANK19

    None.

Critical Paths under _main in BANK20

    None.

Critical Paths under _INTERRUPT_InterruptManager in BANK20

    None.

Critical Paths under _main in BANK21

    None.

Critical Paths under _INTERRUPT_InterruptManager in BANK21

    None.

Critical Paths under _main in BANK22

    None.

Critical Paths under _INTERRUPT_InterruptManager in BANK22

    None.

Critical Paths under _main in BANK23

    None.

Critical Paths under _INTERRUPT_InterruptManager in BANK23

    None.

Critical Paths under _main in BANK24

    None.

Critical Paths under _INTERRUPT_InterruptManager in BANK24

    None.

Critical Paths under _main in BANK25

    None.

Critical Paths under _INTERRUPT_InterruptManager in BANK25

    None.

Critical Paths under _main in BANK26

    None.

Critical Paths under _INTERRUPT_InterruptManager in BANK26

    None.

Critical Paths under _main in BANK27

    None.

Critical Paths under _INTERRUPT_InterruptManager in BANK27

    None.

Critical Paths under _main in BANK28

    None.

Critical Paths under _INTERRUPT_InterruptManager in BANK28

    None.

Critical Paths under _main in BANK29

    None.

Critical Paths under _INTERRUPT_InterruptManager in BANK29

    None.

Critical Paths under _main in BANK30

    None.

Critical Paths under _INTERRUPT_InterruptManager in BANK30

    None.

Critical Paths under _main in BANK31

    None.

Critical Paths under _INTERRUPT_InterruptManager in BANK31

    None.

Critical Paths under _main in BANK32

    None.

Critical Paths under _INTERRUPT_InterruptManager in BANK32

    None.

Critical Paths under _main in BANK33

    None.

Critical Paths under _INTERRUPT_InterruptManager in BANK33

    None.

Critical Paths under _main in BANK34

    None.

Critical Paths under _INTERRUPT_InterruptManager in BANK34

    None.

Critical Paths under _main in BANK35

    None.

Critical Paths under _INTERRUPT_InterruptManager in BANK35

    None.

Critical Paths under _main in BANK36

    None.

Critical Paths under _INTERRUPT_InterruptManager in BANK36

    None.

Critical Paths under _main in BANK37

    None.

Critical Paths under _INTERRUPT_InterruptManager in BANK37

    None.

Call Graph Tables:

 ---------------------------------------------------------------------------------
 (Depth) Function   	        Calls       Base Space   Used Autos Params    Refs
 ---------------------------------------------------------------------------------
 (0) _main                                                 0     0      0    4582
                    _CANWriteMessage
                  _SYSTEM_Initialize
 ---------------------------------------------------------------------------------
 (1) _SYSTEM_Initialize                                    0     0      0    1387
                     _ADC_Initialize
                    _CAN1_Initialize
                 _EXT_INT_Initialize
               _INTERRUPT_Initialize
              _OSCILLATOR_Initialize
             _PIN_MANAGER_Initialize
                     _PMD_Initialize
              _PWM1_16BIT_Initialize
              _PWM2_16BIT_Initialize
                    _TMR0_Initialize
                    _TMR1_Initialize
                    _TMR2_Initialize
 ---------------------------------------------------------------------------------
 (2) _TMR2_Initialize                                      0     0      0      98
           _TMR2_SetInterruptHandler
 ---------------------------------------------------------------------------------
 (3) _TMR2_SetInterruptHandler                             2     0      2      98
                                              2 COMRAM     2     0      2
 ---------------------------------------------------------------------------------
 (2) _TMR1_Initialize                                      2     2      0      98
                                              4 COMRAM     2     2      0
           _TMR1_SetInterruptHandler
 ---------------------------------------------------------------------------------
 (3) _TMR1_SetInterruptHandler                             2     0      2      98
                                              2 COMRAM     2     0      2
 ---------------------------------------------------------------------------------
 (2) _TMR0_Initialize                                      0     0      0      98
           _TMR0_SetInterruptHandler
 ---------------------------------------------------------------------------------
 (3) _TMR0_SetInterruptHandler                             2     0      2      98
                                              2 COMRAM     2     0      2
 ---------------------------------------------------------------------------------
 (2) _PWM2_16BIT_Initialize                                0     0      0     294
_PWM2_16BIT_Period_SetInterruptHandl
_PWM2_16BIT_Slice1Output1_SetInterru
_PWM2_16BIT_Slice1Output2_SetInterru
 ---------------------------------------------------------------------------------
 (3) _PWM2_16BIT_Slice1Output2_SetInterruptHandler         2     0      2      98
                                              2 COMRAM     2     0      2
 ---------------------------------------------------------------------------------
 (3) _PWM2_16BIT_Slice1Output1_SetInterruptHandler         2     0      2      98
                                              2 COMRAM     2     0      2
 ---------------------------------------------------------------------------------
 (3) _PWM2_16BIT_Period_SetInterruptHandler                2     0      2      98
                                              2 COMRAM     2     0      2
 ---------------------------------------------------------------------------------
 (2) _PWM1_16BIT_Initialize                                0     0      0     294
_PWM1_16BIT_Period_SetInterruptHandl
_PWM1_16BIT_Slice1Output1_SetInterru
_PWM1_16BIT_Slice1Output2_SetInterru
 ---------------------------------------------------------------------------------
 (3) _PWM1_16BIT_Slice1Output2_SetInterruptHandler         2     0      2      98
                                              2 COMRAM     2     0      2
 ---------------------------------------------------------------------------------
 (3) _PWM1_16BIT_Slice1Output1_SetInterruptHandler         2     0      2      98
                                              2 COMRAM     2     0      2
 ---------------------------------------------------------------------------------
 (3) _PWM1_16BIT_Period_SetInterruptHandler                2     0      2      98
                                              2 COMRAM     2     0      2
 ---------------------------------------------------------------------------------
 (2) _PMD_Initialize                                       0     0      0       0
 ---------------------------------------------------------------------------------
 (2) _PIN_MANAGER_Initialize                               0     0      0       0
 ---------------------------------------------------------------------------------
 (2) _OSCILLATOR_Initialize                                0     0      0       0
 ---------------------------------------------------------------------------------
 (2) _INTERRUPT_Initialize                                 0     0      0       0
 ---------------------------------------------------------------------------------
 (2) _EXT_INT_Initialize                                   0     0      0      98
           _INT0_SetInterruptHandler
 ---------------------------------------------------------------------------------
 (3) _INT0_SetInterruptHandler                             2     0      2      98
                                              2 COMRAM     2     0      2
 ---------------------------------------------------------------------------------
 (2) _CAN1_Initialize                                      0     0      0     113
          _CAN1_BitRateConfiguration
              _CAN1_OperationModeSet
         _CAN1_TX_FIFO_Configuration
 ---------------------------------------------------------------------------------
 (3) _CAN1_TX_FIFO_Configuration                           0     0      0       0
 ---------------------------------------------------------------------------------
 (3) _CAN1_BitRateConfiguration                            0     0      0       0
 ---------------------------------------------------------------------------------
 (2) _ADC_Initialize                                       0     0      0     294
         _ADC_SetADIInterruptHandler
_ADC_SetActiveClockTuningInterruptHa
_ADC_SetContext1ThresholdInterruptHa
 ---------------------------------------------------------------------------------
 (3) _ADC_SetContext1ThresholdInterruptHandler             2     0      2      98
                                              2 COMRAM     2     0      2
 ---------------------------------------------------------------------------------
 (3) _ADC_SetActiveClockTuningInterruptHandler             2     0      2      98
                                              2 COMRAM     2     0      2
 ---------------------------------------------------------------------------------
 (3) _ADC_SetADIInterruptHandler                           2     0      2      98
                                              2 COMRAM     2     0      2
 ---------------------------------------------------------------------------------
 (1) _CANWriteMessage                                     23    10     13    3195
                                             30 COMRAM    23    10     13
              _CAN1_OperationModeGet
              _CAN1_OperationModeSet
                      _CAN1_Transmit
         _CAN1_TransmitFIFOStatusGet
 ---------------------------------------------------------------------------------
 (2) _CAN1_TransmitFIFOStatusGet                           2     2      0     158
                                              4 COMRAM     2     2      0
                    _GetTxFifoStatus
                        _isTxChannel
 ---------------------------------------------------------------------------------
 (2) _CAN1_Transmit                                        6     4      2    1760
                                             24 COMRAM     6     4      2
               _ValidateTransmission
                 _WriteMessageToFifo
                        _isTxChannel
 ---------------------------------------------------------------------------------
 (3) _isTxChannel                                          2     2      0      68
                                              2 COMRAM     2     2      0
 ---------------------------------------------------------------------------------
 (3) _WriteMessageToFifo                                  12     8      4    1128
                                             13 COMRAM    11     7      4
                             _memcpy
 ---------------------------------------------------------------------------------
 (4) _memcpy                                              11     5      6     371
                                              2 COMRAM    11     5      6
 ---------------------------------------------------------------------------------
 (3) _ValidateTransmission                                 9     7      2     281
                                              3 COMRAM     8     6      2
              _CAN1_OperationModeGet
                    _GetTxFifoStatus
 ---------------------------------------------------------------------------------
 (3) _GetTxFifoStatus                                      1     1      0      22
                                              2 COMRAM     1     1      0
 ---------------------------------------------------------------------------------
 (3) _CAN1_OperationModeSet                                3     3      0     113
                                              2 COMRAM     3     3      0
              _CAN1_OperationModeGet
 ---------------------------------------------------------------------------------
 (4) _CAN1_OperationModeGet                                0     0      0       0
 ---------------------------------------------------------------------------------
 Estimated maximum stack depth 4
 ---------------------------------------------------------------------------------
 (Depth) Function   	        Calls       Base Space   Used Autos Params    Refs
 ---------------------------------------------------------------------------------
 (5) _INTERRUPT_InterruptManager                           0     0      0     240
                           _INT0_ISR
                           _TMR0_ISR
                           _TMR1_ISR
                           _TMR2_ISR
 ---------------------------------------------------------------------------------
 (6) _TMR2_ISR                                             0     0      0       0
                      _TMR2_CallBack
 ---------------------------------------------------------------------------------
 (7) _TMR2_CallBack                                        0     0      0       0
                   Absolute function *
       _TMR2_DefaultInterruptHandler *
 ---------------------------------------------------------------------------------
 (8) _TMR2_DefaultInterruptHandler                         0     0      0       0
 ---------------------------------------------------------------------------------
 (6) _TMR1_ISR                                             0     0      0     240
                      _TMR1_CallBack
                    _TMR1_WriteTimer
 ---------------------------------------------------------------------------------
 (7) _TMR1_WriteTimer                                      2     0      2     240
                                              0 COMRAM     2     0      2
 ---------------------------------------------------------------------------------
 (7) _TMR1_CallBack                                        0     0      0       0
                   Absolute function *
       _TMR1_DefaultInterruptHandler *
 ---------------------------------------------------------------------------------
 (8) _TMR1_DefaultInterruptHandler                         0     0      0       0
 ---------------------------------------------------------------------------------
 (6) _TMR0_ISR                                             0     0      0       0
                      _TMR0_CallBack
 ---------------------------------------------------------------------------------
 (7) _TMR0_CallBack                                        0     0      0       0
                   Absolute function *
       _TMR0_DefaultInterruptHandler *
 ---------------------------------------------------------------------------------
 (8) _TMR0_DefaultInterruptHandler                         0     0      0       0
 ---------------------------------------------------------------------------------
 (6) _INT0_ISR                                             0     0      0       0
                      _INT0_CallBack
 ---------------------------------------------------------------------------------
 (7) _INT0_CallBack                                        0     0      0       0
                   Absolute function *
       _INT0_DefaultInterruptHandler *
 ---------------------------------------------------------------------------------
 (8) _INT0_DefaultInterruptHandler                         0     0      0       0
 ---------------------------------------------------------------------------------
 (8) Absolute function(Fake)                               0     0      0       0
 ---------------------------------------------------------------------------------
 Estimated maximum stack depth 8
 ---------------------------------------------------------------------------------

 Call Graph Graphs:

 _main (ROOT)
   _CANWriteMessage
     _CAN1_OperationModeGet
     _CAN1_OperationModeSet
       _CAN1_OperationModeGet
     _CAN1_Transmit
       _ValidateTransmission
         _CAN1_OperationModeGet
         _GetTxFifoStatus
       _WriteMessageToFifo
         _memcpy
       _isTxChannel
     _CAN1_TransmitFIFOStatusGet
       _GetTxFifoStatus
       _isTxChannel
   _SYSTEM_Initialize
     _ADC_Initialize
       _ADC_SetADIInterruptHandler
       _ADC_SetActiveClockTuningInterruptHandler
       _ADC_SetContext1ThresholdInterruptHandler
     _CAN1_Initialize
       _CAN1_BitRateConfiguration
       _CAN1_OperationModeSet
       _CAN1_TX_FIFO_Configuration
     _EXT_INT_Initialize
       _INT0_SetInterruptHandler
     _INTERRUPT_Initialize
     _OSCILLATOR_Initialize
     _PIN_MANAGER_Initialize
     _PMD_Initialize
     _PWM1_16BIT_Initialize
       _PWM1_16BIT_Period_SetInterruptHandler
       _PWM1_16BIT_Slice1Output1_SetInterruptHandler
       _PWM1_16BIT_Slice1Output2_SetInterruptHandler
     _PWM2_16BIT_Initialize
       _PWM2_16BIT_Period_SetInterruptHandler
       _PWM2_16BIT_Slice1Output1_SetInterruptHandler
       _PWM2_16BIT_Slice1Output2_SetInterruptHandler
     _TMR0_Initialize
       _TMR0_SetInterruptHandler
     _TMR1_Initialize
       _TMR1_SetInterruptHandler
     _TMR2_Initialize
       _TMR2_SetInterruptHandler

 _INTERRUPT_InterruptManager (ROOT)
   _INT0_ISR
     _INT0_CallBack
       Absolute function(Fake) *
       _INT0_DefaultInterruptHandler *
   _TMR0_ISR
     _TMR0_CallBack
       Absolute function(Fake) *
       _TMR0_DefaultInterruptHandler *
   _TMR1_ISR
     _TMR1_CallBack
       Absolute function(Fake) *
       _TMR1_DefaultInterruptHandler *
     _TMR1_WriteTimer
   _TMR2_ISR
     _TMR2_CallBack
       Absolute function(Fake) *
       _TMR2_DefaultInterruptHandler *

 Address spaces:
Name               Size   Autos  Total    Cost      Usage
BIGRAM            20FF      0       0      71        0.0%
EEDATA             400      0       0       0        0.0%
BITBANK37          100      0       0      70        0.0%
BANK37             100      0       0      68        0.0%
BITBANK36          100      0       0      66        0.0%
BANK36             100      0       0      67        0.0%
BITBANK35          100      0       0      64        0.0%
BANK35             100      0       0      65        0.0%
BITBANK34          100      0       0      62        0.0%
BANK34             100      0       0      63        0.0%
BITBANK33          100      0       0      60        0.0%
BANK33             100      0       0      61        0.0%
BITBANK32          100      0       0      58        0.0%
BANK32             100      0       0      59        0.0%
BITBANK31          100      0       0      56        0.0%
BANK31             100      0       0      57        0.0%
BITBANK30          100      0       0      54        0.0%
BANK30             100      0       0      55        0.0%
BITBANK29          100      0       0      52        0.0%
BANK29             100      0       0      53        0.0%
BITBANK28          100      0       0      50        0.0%
BANK28             100      0       0      51        0.0%
BITBANK27          100      0       0      48        0.0%
BANK27             100      0       0      49        0.0%
BITBANK26          100      0       0      46        0.0%
BANK26             100      0       0      47        0.0%
BITBANK25          100      0       0      44        0.0%
BANK25             100      0       0      45        0.0%
BITBANK24          100      0       0      42        0.0%
BANK24             100      0       0      43        0.0%
BITBANK23          100      0       0      40        0.0%
BANK23             100      0       0      41        0.0%
BITBANK22          100      0       0      38        0.0%
BANK22             100      0       0      39        0.0%
BITBANK21          100      0       0      36        0.0%
BANK21             100      0       0      37        0.0%
BITBANK20          100      0       0      34        0.0%
BANK20             100      0       0      35        0.0%
BITBANK19          100      0       0      32        0.0%
BANK19             100      0       0      33        0.0%
BITBANK18          100      0       0      30        0.0%
BANK18             100      0       0      31        0.0%
BITBANK17          100      0       0      28        0.0%
BANK17             100      0       0      29        0.0%
BITBANK16          100      0       0      26        0.0%
BANK16             100      0       0      27        0.0%
BITBANK15          100      0       0      24        0.0%
BANK15             100      0       0      25        0.0%
BITBANK14          100      0       0      22        0.0%
BANK14             100      0       0      23        0.0%
BITBANK13          100      0       0      20        0.0%
BANK13             100      0       0      21        0.0%
BITBANK12          100      0       0      18        0.0%
BANK12             100      0       0      19        0.0%
BITBANK11          100      0       0      16        0.0%
BANK11             100      0       0      17        0.0%
BITBANK10          100      0       0      14        0.0%
BANK10             100      0       0      15        0.0%
BITBANK9           100      0       0      12        0.0%
BANK9              100      0       0      13        0.0%
BITBANK8           100      0       0      10        0.0%
BANK8              100      0       0      11        0.0%
BITBANK7           100      0       0       8        0.0%
BANK7              100      0       0       9        0.0%
BITBANK6           100      0       0       6        0.0%
BANK6              100      0       0       7        0.0%
BITBANK5            A0      0       0       4        0.0%
BANK5               A0      0      20       5       20.0%
BITCOMRAM           5F      0       0       0        0.0%
COMRAM              5F     35      5A       1       94.7%
BITSFR_5             0      0       0     200        0.0%
SFR_5                0      0       0     200        0.0%
BITSFR_4             0      0       0     200        0.0%
SFR_4                0      0       0     200        0.0%
BITSFR_3             0      0       0     200        0.0%
SFR_3                0      0       0     200        0.0%
BITSFR_2             0      0       0     200        0.0%
SFR_2                0      0       0     200        0.0%
BITSFR_1             0      0       0     200        0.0%
SFR_1                0      0       0     200        0.0%
BITSFR               0      0       0     200        0.0%
SFR                  0      0       0     200        0.0%
STACK                0      0       0       2        0.0%
NULL                 0      0       0       0        0.0%
ABS                  0      0      7A      69        0.0%
DATA                 0      0      7A       3        0.0%
CODE                 0      0       0       0        0.0%


Microchip Technology PIC18 Macro Assembler V2.32 build 20210201212658 
Symbol Table                                                                                   Mon Sep 27 17:29:47 2021

                            __end_of_TMR2_SetInterruptHandler 31DC  
                                                          l43 3194  
                                                          l37 3234  
                                                         l114 2C6C  
                                                         l211 3220  
                                                         l214 3216  
                                                         l217 322A  
                                                         l337 2AD0  
                                                         l178 2D48  
                                                         l541 30E2  
                                                         l471 3248  
                                                         l631 2E8E  
                                                         l535 2F84  
                                                         l624 31A8  
                                                         l641 325C  
                                                         l465 3252  
                                                         l562 3270  
                                                         l538 3168  
                                                         l627 31BC  
                                                         l468 323E  
                                                         l637 2DF8  
                                                         l645 2F50  
                                                         l638 2DFA  
                                                         l646 2F52  
                                                         l670 2B64  
                                                         l655 2852  
                                                         l664 2A24  
                                                         l840 2ED4  
                                                         l649 3180  
                                                         l913 2FB2  
                                                         l674 310A  
                                                         l667 2B64  
                                                         l759 2CDA  
                                                ?_isTxChannel 0501  
                                                         l792 3202  
                                                         l873 31E4  
                                                         l962 31DA  
                                                         l795 31F8  
                                                         l798 320C  
                                                         l990 3130  
                                                         _PR2 000323  
                                                         u830 2DA2  
                                                         u831 2D9E  
                                                         u840 2DC2  
                                                         u920 275A  
                                                         u841 2DBE  
                                                         u921 2752  
                                                         u905 2666  
                                                         u850 2DD2  
                                                         u930 2780  
                                                         u851 2DCE  
                                                         u931 2778  
                                                         u915 26AC  
                                                         u860 2DE4  
                                                         u861 2DE0  
                                                         u950 27A4  
                                                         u870 2F2C  
                                                         u951 279C  
                                                         u871 2F28  
                                                         u928 275C  
                                                         u880 2F4C  
                                                         u945 2782  
                                                         u881 2F48  
                                                         u970 27C8  
                                                         u890 264C  
                                                         u971 27C0  
                                                         u891 2648  
                                                         u965 27A6  
                                                         u990 27FA  
                                                         u991 27F6  
                                                         u985 27CA  
                                  ??_INT0_SetInterruptHandler 0505  
                                             _timer1ReloadVal 053C  
                                                         _msg 0554  
                                     __size_of_PMD_Initialize 0028  
                                             _TMR2_Initialize 2F86  
                                                         prod 0004F3  
                                                         tosl 0004FD  
                                                         wreg 0004E8  
                                               _INT0_CallBack 3066  
                                                        l1015 31EE  
                                                        l1064 294C  
                                                        l2600 2688  
                                                        l2610 2702  
                                                        l2602 2696  
                                                        l2532 316C  
                                                        l2540 2D6E  
                                                        l2620 2786  
                                                        l2612 2710  
                                                        l2604 26A8  
                                                        l2700 2D44  
                                                        l2630 2950  
                                                        l2542 2D72  
                                                        l2622 27AA  
                                                        l2614 2728  
                                                        l2606 26C0  
                                                        l2710 2AA6  
                                                        l2702 2A26  
                                                        l1910 2C40  
                                                        l2550 3218  
                                                        l2528 3254  
                                                        l2640 2986  
                                                        l2632 2954  
                                                        l1744 2DA2  
                                                        l2544 2D84  
                                                        l2536 2D4A  
                                                        l2624 27CE  
                                                        l2616 273C  
                                                        l2608 26F0  
                                                        l2560 3240  
                                                        l2712 2AB2  
                                                        l2704 2AA0  
                                                        l1920 2C68  
                                                        l1912 2C42  
                                                        l2552 320E  
                                                        l2720 2F9C  
                                                        l2570 2DD2  
                                                        l2562 2DA6  
                                                        l2650 29C4  
                                                        l2642 2988  
                                                        l2634 2964  
                                                        l2538 2D5E  
                                                        l2546 2D88  
                                                        l2626 27E0  
                                                        l2618 2762  
                                                        l2802 30E6  
                                                        l2714 2ABE  
                                                        l2706 2AA2  
                                                        l1922 2C6A  
                                                        l1914 2C44  
                                                        l1906 2BF8  
                                                        l2554 3222  
                                                        l2730 2EA6  
                                                        l2722 2F9E  
                                                        l2572 2DE4  
                                                        l2564 2DAA  
                                                        l2652 2A06  
                                                        l2644 29A0  
                                                        l2636 2964  
                                                        l2628 27FA  
                                                        l2580 2F1C  
                                                        l2804 30EA  
                                                        l2556 324A  
                                                        l2716 2ACA  
                                                        l2708 2AA4  
                                                        l1780 3196  
                                                        l2548 322C  
                                                        l1916 2C46  
                                                        l1908 2C3E  
                                                        l2740 310C  
                                                        l2732 2EA8  
                                                        l2724 2FA0  
                                                        l2574 2DF4  
                                                        l2566 2DB0  
                                                        l2654 2A08  
                                                        l2646 29AE  
                                                        l2638 2972  
                                                        l2590 2632  
                                                        l2582 2F2C  
                                                        l2806 3100  
                                                        l2558 3236  
                                                        l1782 31AA  
                                                        l1918 2C48  
                                                        l2662 31FA  
                                                        l2750 2C6E  
                                                        l2742 311A  
                                                        l2734 2EC0  
                                                        l2670 31D2  
                                                        l2726 2FAC  
                                                        l2718 2F86  
                                                        l2830 2F5C  
                                                        l2910 2DFC  
                                                        l2568 2DC2  
                                                        l2656 2A1E  
                                                        l2648 29C2  
                                                        l2592 2632  
                                                        l2584 2F4C  
                                                        l2808 3108  
                                                        l2680 2CDC  
                                                        l2664 31F0  
                                                        l2760 2CAE  
                                                        l2752 2CA6  
                                                        l2672 31E6  
                                                        l2744 311C  
                                                        l2736 2EC2  
                                                        l2728 2E90  
                                                        l2840 2F70  
                                                        l2832 2F60  
                                                        l2920 2E08  
                                                        l2912 2E00  
                                                        l2658 2A22  
                                                        l2594 264C  
                                                        l2578 2F18  
                                                        l2674 3182  
                                                        l1962 326E  
                                                        l2690 2D1C  
                                                        l2682 2D14  
                                                        l2666 3204  
                                                        l2770 2CD6  
                                                        l2762 2CB0  
                                                        l2754 2CA8  
                                                        l2746 311E  
                                                        l2738 2ECE  
                                                        l2842 2F74  
                                                        l2834 2F64  
                                                        l2826 2F54  
                                                        l2914 2E02  
                                                        l2596 2662  
                                                        l2588 260E  
                                                        l2860 28B0  
                                                        l2780 2E84  
                                                        l2772 2E48  
                                                        l2676 3186  
                                                        l1964 30BC  
                                                        l2692 2D1E  
                                                        l2684 2D16  
                                                        l2764 2CB2  
                                                        l2756 2CAA  
                                                        l2748 312A  
                                                        l2668 31DC  
                                                        l2844 2F78  
                                                        l2836 2F68  
                                                        l2828 2F58  
                                                        l2916 2E04  
                                                        l2598 2676  
                                                        l2790 2AFA  
                                                        l2870 28C4  
                                                        l2862 28B4  
                                                        l2782 2E88  
                                                        l2774 2E4C  
                                                        l2678 3192  
                                                        l1966 3152  
                                                        l2694 2D20  
                                                        l2686 2D18  
                                                        l2766 2CBE  
                                                        l2758 2CAC  
                                                        l2846 2F7C  
                                                        l2838 2F6C  
                                                        l2918 2E06  
                                                        l2792 2B0A  
                                                        l2784 2AD4  
                                                        l2880 290E  
                                                        l2872 28C8  
                                                        l2864 28B8  
                                                        l2856 2854  
                                                        l2776 2E62  
                                                        l2696 2D2C  
                                                        l2688 2D1A  
                                                        l2768 2CCA  
                                                        l2848 2F80  
                                                        l2794 2B26  
                                                        l2786 2AD4  
                                                        l2882 2928  
                                                        l2874 28CC  
                                                        l2866 28BC  
                                                        l2858 28AC  
                                                        l2778 2E80  
                                                        l2698 2D38  
                                                        l2796 2B38  
                                                        l2788 2AEA  
                                                        l2884 293E  
                                                        l2876 28E0  
                                                        l2868 28C0  
                                                        l2798 2B4C  
                                                        l2878 28F6  
                                                        _ADCP 0003D8  
                                                        _FIFO 260A  
                                                        u1000 2972  
                                                        u1001 296E  
                                                        u1010 2986  
                                                        u1011 2982  
                                                        u1020 29A0  
                                                        u1100 2B38  
                                                        u1021 299C  
                                                        u1101 2B34  
                                                        u1030 29AE  
                                                        u1110 3100  
                                                        u1031 29AA  
                                                        u1111 30FC  
                                                        u1040 29C2  
                                                        u1041 29BE  
                                          _WriteMessageToFifo 260E  
                                                        u1050 2A06  
                                                        u1130 28E0  
                                                        u1051 2A02  
                                                        u1131 28DC  
                                                        u1060 2A1E  
                                                        u1140 28F6  
                                                        u1061 2A1A  
                                                        u1141 28F2  
                                                        u1150 293E  
                                                        u1070 2E62  
                                                        u1151 293A  
                                                        u1071 2E5E  
                                                        u1080 2AEA  
                                                        u1081 2AE6  
                                                        u1090 2B0A  
                                                        u1091 2B06  
                                                        _LATA 0004BE  
                                                        _LATB 0004BF  
                                                        _LATC 0004C0  
                                                        _T2PR 000323  
                                                        _PMD0 000060  
                                                        _PMD1 000061  
                                                        _PMD2 000062  
                                                        _PMD3 000063  
                                                        _PMD4 000064  
                                                        _PMD5 000065  
                                                        _PMD6 000066  
                                                        _PMD7 000067  
                                                        _PMD8 000068  
                                                        i2l30 326C  
                                                        i2l40 3278  
                                                        i2l34 3090  
                                                        _TMR2 000322  
                                                        _WPUA 000401  
                                                        _WPUB 000409  
                                                        _WPUC 000411  
                                                        _WPUE 000421  
                                      __size_of_CAN1_Transmit 0094  
                                      CAN1_Transmit@txFifoObj 051C  
                                                        _main 2DFC  
                                                        fsr1h 0004E2  
                                                        fsr2h 0004DA  
                                                        indf1 0004E7  
                                                        indf2 0004DF  
                                                        fsr1l 0004E1  
                                                        fsr2l 0004D9  
                                                        prodl 0004F3  
                                                        start 001A  
                                         ?_WriteMessageToFifo 050E  
                                  ??_TMR1_SetInterruptHandler 0505  
                                                ___param_bank 000000  
                                     __end_of_TMR0_Initialize 3132  
                                            __end_of_INT0_ISR 326E  
                              ??_TMR0_DefaultInterruptHandler 0501  
                              __size_of_OSCILLATOR_Initialize 0018  
                                        CANWriteMessage@data1 0524  
                                        CANWriteMessage@data2 0525  
                                        CANWriteMessage@data3 0526  
                                        CANWriteMessage@data4 0527  
                                        CANWriteMessage@data5 0528  
                                        CANWriteMessage@data6 0529  
                                        CANWriteMessage@data7 052A  
                                        CANWriteMessage@data8 052B  
                               __end_of_OSCILLATOR_Initialize 316A  
                                                       _ADACT 0003F9  
                                                       _ADCAP 0003F0  
                                  WriteMessageToFifo@txCanMsg 0510  
                                                       ?_main 0501  
                                                       _ADCLK 0003FA  
                                                       _ADCNT 0003E6  
                                                       _ADCTX 0003FB  
                                                       _ADPCH 0003EC  
                                                       _ADREF 0003F8  
                                                       _ADRPT 0003E7  
                                                       _T1CLK 000321  
                                                       _T1CON 00031E  
                                                       _T2CON 000324  
                                                       _T2HLT 000325  
                                                       _T2TMR 000322  
                                                       _T2RST 000327  
                                                       i2l570 2BF6  
                                                       i2l571 2BD2  
                                                       i2l575 2BF6  
                                                       i2l567 2B8A  
                                                       i2l569 2BAE  
                                                       i2l870 3038  
                                                       i2l854 2FE0  
                                      ?_PWM1_16BIT_Initialize 0501  
                                                       i2l866 31D0  
                                                       i2l955 30BA  
                                                       i2l876 3274  
                                                       i2l965 3272  
                                                       i2l959 300C  
                                                       _OSCEN 0000B3  
                                                       _TMR0H 000319  
                                                       _TMR1H 00031D  
                                                       _TMR0L 000318  
                                                       _TMR1L 00031C  
                                        ??_WriteMessageToFifo 0512  
                                                       _TRISA 0004C6  
                                                       _TRISB 0004C7  
                                              ?_INT0_CallBack 0501  
                                                       _TRISC 0004C8  
                                                       _TRISE 0004CA  
                           __size_of_TMR0_SetInterruptHandler 000A  
                                   ?_TMR0_SetInterruptHandler 0503  
                                    __size_of_CAN1_Initialize 0048  
                                            __end_of_TMR0_ISR 3266  
                                            __end_of_TMR1_ISR 31D2  
                                            __end_of_TMR2_ISR 30BC  
            _PWM2_16BIT_Slice1Output1_DefaultInterruptHandler 000000  
            _PWM1_16BIT_Slice1Output1_DefaultInterruptHandler 000000  
                                           ??_CANWriteMessage 052C  
                                     __end_of_TMR1_Initialize 2ED6  
                                                       pclath 0004FA  
                                                       tablat 0004F5  
                                                       status 0004D8  
                                             _TMR1_WriteTimer 2FB4  
                                ??_CAN1_TX_FIFO_Configuration 0503  
                                                __end_of_FIFO 260C  
                                       _PWM2_16BIT_Initialize 2C6E  
                                             __initialization 2ED6  
                                           __end_of_DLC_BYTES 260A  
                                         CAN1_Transmit@status 051B  
                                           CANWriteMessage@id 051F  
                                                __end_of_main 2E48  
                                     __end_of_TMR2_Initialize 2FB4  
                                 ?_INTERRUPT_InterruptManager 0501  
                                               _CAN1_Transmit 2AD2  
                                    _TMR2_SetInterruptHandler 31D2  
                                                      ??_main 0536  
                                               __activetblptr 000003  
               __end_of_PWM1_16BIT_Period_SetInterruptHandler 322C  
              __size_of_PWM1_16BIT_Period_SetInterruptHandler 000A  
               __end_of_PWM2_16BIT_Period_SetInterruptHandler 320E  
              __size_of_PWM2_16BIT_Period_SetInterruptHandler 000A  
                     ??_PWM2_16BIT_Period_SetInterruptHandler 0505  
                     ??_PWM1_16BIT_Period_SetInterruptHandler 0505  
                      ?_PWM2_16BIT_Period_SetInterruptHandler 0503  
                      ?_PWM1_16BIT_Period_SetInterruptHandler 0503  
                       _PWM1_16BIT_Period_SetInterruptHandler 3222  
                       _PWM2_16BIT_Period_SetInterruptHandler 3204  
                                                      _C1CONH 000101  
                                                      _C1CONL 000100  
                                                      _C1CONU 000102  
                                                      _ADACCH 0003E4  
                                                      _ADACCL 0003E3  
                                                      _ADACCU 0003E5  
                                                      _ADACQH 0003EF  
                                                      _ADACQL 0003EE  
                                                      _ADCON0 0003F3  
                                                      _ADCON1 0003F4  
                                                      _ADCON2 0003F5  
                                                      _ADCON3 0003F6  
                                                      _ADERRH 0003DE  
                                                      _ADERRL 0003DD  
                                                      _ADLTHH 0003DA  
                                                      _ADLTHL 0003D9  
                                                      _ADRESH 0003EB  
                                                      _ADRESL 0003EA  
                                                      _ADPREH 0003F2  
                                                      _ADPREL 0003F1  
                                    __size_of_GetTxFifoStatus 0018  
                                                      _ADSTAT 0003F7  
                                                      _ADUTHH 0003DC  
                                                      _ADUTHL 0003DB  
                         __size_of_CAN1_TX_FIFO_Configuration 0014  
                                                      _ANSELA 000400  
                                                      _ANSELB 000408  
                                                      _ANSELC 000410  
                                                      _T0CON0 00031A  
                                                      _T0CON1 00031B  
                                                      _T1GATE 000320  
                                                      _T1GCON 00031F  
                                                      _RC0PPS 000211  
                                                      _RC1PPS 000212  
                                                      _RB4PPS 00020D  
                                            _isTxChannel$1434 0503  
                                 WriteMessageToFifo@txFifoObj 050E  
                                     TMR1_WriteTimer@timerVal 0501  
                                                      _ODCONA 000402  
                                                      _ODCONB 00040A  
                                                      _ODCONC 000412  
                                                      i2l1012 3064  
                                                      i2l1008 3264  
                                                      i2l1018 3276  
                                                      i2l2120 3092  
                                                      i2l2122 3094  
                                                      i2l2116 325E  
                                                      i2l2124 30AE  
                                                      i2l2118 3260  
                                                      i2l2126 30B2  
                                                      i2l2080 2FE2  
                                                      i2l2090 3268  
                                                      i2l2082 2FF4  
                                                      i2l2084 303A  
                                                      i2l2076 300E  
                                                      i2l2086 304C  
                                                      i2l2078 3020  
                                                      i2l2088 3266  
                                                      i2l2820 2FD0  
                                                      i2l2812 2FB4  
                                                      i2l2900 2BE0  
                                                      i2l2814 2FC4  
                                                      i2l2822 2FD6  
                                                      i2l2902 2BEE  
                                                      i2l2824 2FDA  
                                                      i2l2816 2FC6  
                                                      i2l2818 2FCA  
                                                      i2l2850 31BE  
                                                      i2l2852 31C0  
                                                      i2l2854 31CC  
                                                      i2l1896 3066  
                                                      _INLVLA 000404  
                                                      i2l1898 3078  
                                                      i2l2890 2B82  
                                                      _INLVLB 00040C  
                                                      _INLVLC 000414  
                                                      i2l2892 2B98  
                                                      _INLVLE 000424  
                                                      i2l2894 2BA6  
                                                      i2l2886 2B66  
                                                      i2l2896 2BBC  
                                                      i2l2888 2B74  
                                                      i2l2898 2BCA  
                                     ??_CAN1_OperationModeGet 0503  
                                                      _OSCFRQ 0000B1  
                                     ??_CAN1_OperationModeSet 0503  
                                          _ADC_DefaultADI_ISR 000000  
                                 ??_CAN1_BitRateConfiguration 0503  
                        __end_of_TMR1_DefaultInterruptHandler 3276  
                       __size_of_TMR1_DefaultInterruptHandler 0002  
                                _TMR1_DefaultInterruptHandler 3274  
                                              ?_CAN1_Transmit 0519  
                                                      _memcpy 2D4A  
                                            ?_TMR0_Initialize 0501  
                                                      clear_0 2EFC  
                                                      isa$std 000001  
                                             ??_INT0_CallBack 0501  
                                              _PMD_Initialize 30BC  
                               __size_of_ValidateTransmission 00D8  
                                                __mediumconst 0000  
                                        __size_of_isTxChannel 003E  
                                                      tblptrh 0004F7  
                                                      tblptrl 0004F6  
                                                      tblptru 0004F8  
                                       __end_of_TMR0_CallBack 3066  
                                          isTxChannel@channel 0504  
                    TMR0_SetInterruptHandler@InterruptHandler 0503  
                    TMR2_SetInterruptHandler@InterruptHandler 0503  
                    TMR1_SetInterruptHandler@InterruptHandler 0503  
       PWM2_16BIT_Period_SetInterruptHandler@InterruptHandler 0503  
PWM2_16BIT_Slice1Output2_SetInterruptHandler@InterruptHandler 0503  
PWM2_16BIT_Slice1Output1_SetInterruptHandler@InterruptHandler 0503  
    ADC_SetActiveClockTuningInterruptHandler@InterruptHandler 0503  
    ADC_SetContext1ThresholdInterruptHandler@InterruptHandler 0503  
                  ADC_SetADIInterruptHandler@InterruptHandler 0503  
       PWM1_16BIT_Period_SetInterruptHandler@InterruptHandler 0503  
PWM1_16BIT_Slice1Output2_SetInterruptHandler@InterruptHandler 0503  
PWM1_16BIT_Slice1Output1_SetInterruptHandler@InterruptHandler 0503  
                    INT0_SetInterruptHandler@InterruptHandler 0503  
                                     __end_of_TMR1_WriteTimer 2FE2  
                               __size_of_INTERRUPT_Initialize 0004  
                                       __end_of_TMR1_CallBack 303A  
                                            ?_TMR1_Initialize 0501  
                                           _SYSTEM_Initialize 2F54  
                                                  __accesstop 0560  
                                     __end_of__initialization 2F10  
                                           ??_CAN1_Initialize 0506  
                                                   ?_INT0_ISR 0501  
                                   CANWriteMessage@dataLength 0523  
                                       __end_of_TMR2_CallBack 300E  
                                          ?_SYSTEM_Initialize 0501  
                                      ?_PWM2_16BIT_Initialize 0501  
                                               ___rparam_used 000001  
                                              __pcstackCOMRAM 0501  
                                                __pidataBANK5 3132  
                                         ??_SYSTEM_Initialize 0507  
                                                   ?_TMR0_ISR 0501  
                                                   ?_TMR1_ISR 0501  
                                                   ?_TMR2_ISR 0501  
                             fp__TMR1_DefaultInterruptHandler 0000  
                               ?_TMR1_DefaultInterruptHandler 0501  
                                ??_CAN1_TransmitFIFOStatusGet 0505  
                                            ?_TMR2_Initialize 0501  
                                      __end_of_PMD_Initialize 30E4  
                                 __size_of_EXT_INT_Initialize 0014  
                                   _CAN1_BitRateConfiguration 31AA  
            __end_of_ADC_SetActiveClockTuningInterruptHandler 324A  
           __size_of_ADC_SetActiveClockTuningInterruptHandler 000A  
                  ??_ADC_SetActiveClockTuningInterruptHandler 0505  
                   ?_ADC_SetActiveClockTuningInterruptHandler 0503  
                    _ADC_SetActiveClockTuningInterruptHandler 3240  
                                ??_ADC_SetADIInterruptHandler 0505  
                                   __end_of_SYSTEM_Initialize 2F86  
                                ValidateTransmission@txCanMsg 0504  
                                       _INT0_InterruptHandler 054A  
                                                  ??_INT0_ISR 0501  
                                                  __pnvCOMRAM 0536  
                          __end_of_CAN1_TX_FIFO_Configuration 31AA  
                                  _CAN1_TX_FIFO_Configuration 3196  
                                           ??_GetTxFifoStatus 0503  
                         __size_of_CAN1_TransmitFIFOStatusGet 0028  
                                                     IVTBASEH 00045E  
                                                     IVTBASEL 00045D  
                                                     IVTBASEU 00045F  
                                             ??_CAN1_Transmit 051B  
                            __end_of_TMR0_SetInterruptHandler 31F0  
                                                  ??_TMR0_ISR 0501  
                                                  ??_TMR1_ISR 0503  
                                                  ??_TMR2_ISR 0501  
                                      CANWriteMessage@uiData1 052E  
                                      CANWriteMessage@uiData2 0530  
                                      CANWriteMessage@uiData3 0532  
                                      CANWriteMessage@uiData4 0534  
                                                     _ADCSEL1 0003FC  
                                                     _ADFLTRH 0003E2  
                                                     _ADFLTRL 0003E1  
                                                     ?_memcpy 0503  
                                     ??_PWM1_16BIT_Initialize 0505  
                         __size_of_ADC_SetADIInterruptHandler 000A  
                                                     _ADPREVH 0003E9  
                                                     _ADPREVL 0003E8  
                                                   _C1NBTCFGH 000105  
                                                   _C1NBTCFGL 000104  
                                                     _ADSTPTH 0003E0  
                                                     _ADSTPTL 0003DF  
                                                   _C1NBTCFGT 000107  
                                                   _C1NBTCFGU 000106  
                                             ?_PMD_Initialize 0501  
                                             _CANWriteMessage 2854  
                                     __size_of_ADC_Initialize 00AC  
                                                     _INT0PPS 00023E  
                                                     _OSCCON1 0000AD  
                                                     _OSCCON3 0000AF  
                                                   _C1TXQCONH 000151  
                                                     i2u25_40 3078  
                                                     i2u33_40 3020  
                                                     i2u25_41 3074  
                                                     i2u33_41 301C  
                                                   _C1TXQCONL 000150  
                                                   _C1TXQCONT 000153  
                                                   _C1TXQCONU 000152  
                                                     i2u26_48 307E  
                                                     i2u34_48 3026  
                                                     i2u35_40 2FF4  
                                                     i2u26_49 3090  
                                                     i2u34_49 3038  
                                                     i2u35_41 2FF0  
                                                     i2u37_40 304C  
                                                     i2u36_48 2FFA  
                                                     i2u37_41 3048  
                                                     i2u36_49 300C  
                                                     _OSCTUNE 0000B0  
                                                     _PWM1CLK 000461  
                                                     _PWM1GIE 000468  
                                                     i2u38_48 3052  
                                                     i2u39_40 30AE  
                                                     i2u38_49 3064  
                                                     i2u39_41 30AA  
                                                     _PWM2CLK 000470  
                                                     _PWM1CON 000469  
                                                     _PWM2GIE 000477  
                                                     _PWM1GIR 000467  
                                                     _PWM2CON 000478  
                                                     _PWM2GIR 000476  
                                                     _PWM1ERS 000460  
                                                     _PWM1LDS 000462  
                                                     _PWM2ERS 00046F  
                                                     _PWM2LDS 000471  
                                                     _PWM1PRH 000464  
                                                     _PWM1PRL 000463  
                                                     _PWM2PRH 000473  
                                                     _PWM2PRL 000472  
                                                     _SLRCONA 000403  
                                                     _SLRCONB 00040B  
                                                     _SLRCONC 000413  
                                            ?_TMR1_WriteTimer 0501  
                                  _ADC_ConversionComplete_ISR 0548  
                           __size_of_INT0_SetInterruptHandler 000A  
                                   ?_INT0_SetInterruptHandler 0503  
                                                     __Hparam 0000  
                                                     __Lparam 0000  
                                  ??_TMR2_SetInterruptHandler 0505  
                                                __psmallconst 2600  
                                     WriteMessageToFifo@msgId 0515  
                                                   _DLC_BYTES 2601  
                                                     __pcinit 2ED6  
                                             __size_of_memcpy 005A  
                                                     __ramtop 2600  
                                                     __ptext0 2DFC  
                                                     __ptext1 2F54  
                                                     __ptext2 2F86  
                                                     __ptext3 31D2  
                                                     __ptext4 2E90  
                                                     __ptext5 31DC  
                                                     __ptext6 310C  
                                                     __ptext7 31E6  
                                                     __ptext8 2C6E  
                                                     __ptext9 31F0  
                              ??_TMR1_DefaultInterruptHandler 0501  
        __end_of_PWM1_16BIT_Slice1Output1_SetInterruptHandler 3222  
       __size_of_PWM1_16BIT_Slice1Output1_SetInterruptHandler 000A  
        __end_of_PWM2_16BIT_Slice1Output1_SetInterruptHandler 3204  
       __size_of_PWM2_16BIT_Slice1Output1_SetInterruptHandler 000A  
              ??_PWM2_16BIT_Slice1Output1_SetInterruptHandler 0505  
              ??_PWM1_16BIT_Slice1Output1_SetInterruptHandler 0505  
               ?_PWM2_16BIT_Slice1Output1_SetInterruptHandler 0503  
               ?_PWM1_16BIT_Slice1Output1_SetInterruptHandler 0503  
                _PWM1_16BIT_Slice1Output1_SetInterruptHandler 3218  
                _PWM2_16BIT_Slice1Output1_SetInterruptHandler 31FA  
                                                   _T1CONbits 00031E  
                                       _OSCILLATOR_Initialize 3152  
                                                   _T2CONbits 000324  
                                 __size_of_WriteMessageToFifo 0246  
                           __size_of_TMR1_SetInterruptHandler 000A  
                                    ??_PIN_MANAGER_Initialize 0503  
                                   ?_TMR1_SetInterruptHandler 0503  
                                                   _T2HLTbits 000325  
                                   ValidateTransmission@field 050B  
                                  __size_of_SYSTEM_Initialize 0032  
                                        end_of_initialization 2F10  
            _PWM2_16BIT_Slice1Output2_DefaultInterruptHandler 000000  
            _PWM1_16BIT_Slice1Output2_DefaultInterruptHandler 000000  
                                                   _T2RSTbits 000327  
                                                     memcpy@d 0509  
                                                     memcpy@n 0507  
                                                     memcpy@s 050B  
                                                 _C1TRECUbits 000136  
                              __size_of_CAN1_OperationModeGet 000A  
                              __size_of_CAN1_OperationModeSet 0058  
                               __end_of_CAN1_OperationModeGet 325E  
                               __end_of_CAN1_OperationModeSet 2DFC  
                                     __end_of_CANWriteMessage 294E  
                                                     postdec1 0004E5  
                                                     postdec2 0004DD  
                                                   _PWM1S1CFG 00046A  
                                                   _PWM1S1P1H 00046C  
                                                   _PWM1S1P2H 00046E  
                                                   _PWM1S1P1L 00046B  
                                                   _PWM1S1P2L 00046D  
                                                   _PWM2S1CFG 000479  
                                                   _PWM2S1P1H 00047B  
                                                     postinc0 0004EE  
                                                   _PWM2S1P2H 00047D  
                                                     postinc2 0004DE  
                                                   _PWM2S1P1L 00047A  
                                                   _PWM2S1P2L 00047C  
                          __end_of_CAN1_TransmitFIFOStatusGet 310C  
                                  _CAN1_TransmitFIFOStatusGet 30E4  
                                                   _PWM1PIPOS 000466  
                                                   _PWM2PIPOS 000475  
                                    _TMR0_SetInterruptHandler 31E6  
                            CAN1_TransmitFIFOStatusGet@status 0505  
                          __end_of_ADC_SetADIInterruptHandler 3254  
                                  _ADC_SetADIInterruptHandler 324A  
                                             _CAN1_Initialize 2E48  
                                                   _TRISBbits 0004C7  
                                                 _ADCSEL1bits 0003FC  
                                     ??_PWM2_16BIT_Initialize 0505  
                            ValidateTransmission@validChannel 0509  
                                       CAN1_Transmit@txCanMsg 0519  
                                __end_of_ValidateTransmission 2A26  
                             ValidateTransmission@txMsgStatus 050A  
                                           __size_of_INT0_ISR 0008  
                                                 _CANDATAdata 0560  
                                __end_of_INTERRUPT_Initialize 3272  
                        __end_of_TMR2_DefaultInterruptHandler 3274  
                       __size_of_TMR2_DefaultInterruptHandler 0002  
                                _TMR2_DefaultInterruptHandler 3272  
                        __end_of_INT0_DefaultInterruptHandler 327A  
                       __size_of_INT0_DefaultInterruptHandler 0002  
                                _INT0_DefaultInterruptHandler 3278  
                                           __size_of_TMR0_ISR 0008  
                                           __size_of_TMR1_ISR 0014  
                                           __size_of_TMR2_ISR 002A  
                                              _ADC_Initialize 2A26  
                                              __end_of_memcpy 2DA4  
                                      ?_OSCILLATOR_Initialize 0501  
                                               ??_isTxChannel 0503  
                                       __end_of_INT0_CallBack 3092  
                                         start_initialization 2ED6  
                                    __size_of_TMR0_Initialize 0026  
                             __size_of_PIN_MANAGER_Initialize 0076  
                                             _GetTxFifoStatus 316A  
                       CAN1_TransmitFIFOStatusGet@fifoChannel 0506  
                                                  ivt0x8_base 0008  
                                 ?_CAN1_TX_FIFO_Configuration 0501  
                                    __size_of_TMR1_Initialize 0046  
                                            ??_PMD_Initialize 0503  
                                            ?_CANWriteMessage 051F  
            __end_of_ADC_SetContext1ThresholdInterruptHandler 3240  
           __size_of_ADC_SetContext1ThresholdInterruptHandler 000A  
                  ??_ADC_SetContext1ThresholdInterruptHandler 0505  
                   ?_ADC_SetContext1ThresholdInterruptHandler 0503  
                    _ADC_SetContext1ThresholdInterruptHandler 3236  
                                      __size_of_TMR0_CallBack 002C  
                                      __end_of_ADC_Initialize 2AD2  
                                                 __pdataBANK5 0560  
                                     __end_of_CAN1_Initialize 2E90  
                                                    ??_memcpy 0509  
                                  __end_of_EXT_INT_Initialize 3196  
                             fp__TMR2_DefaultInterruptHandler 0000  
                               ?_TMR2_DefaultInterruptHandler 0501  
                             fp__INT0_DefaultInterruptHandler 0000  
                               ?_INT0_DefaultInterruptHandler 0501  
                                      __size_of_TMR1_CallBack 002C  
                              __size_of_PWM1_16BIT_Initialize 006E  
                               __end_of_PWM1_16BIT_Initialize 2D4A  
                                      __size_of_TMR2_CallBack 002C  
                                                 __pbssCOMRAM 054C  
                            __end_of_INT0_SetInterruptHandler 3236  
                                    __size_of_TMR2_Initialize 002E  
                                         __end_of_isTxChannel 2F54  
                                       _TMR0_InterruptHandler 0536  
                                      _PIN_MANAGER_Initialize 2BF8  
                                                    _C1FIFOBA 00014C  
                            __end_of_TMR1_SetInterruptHandler 31E6  
                                       __end_of_CAN1_Transmit 2B66  
                                             ?_ADC_Initialize 0501  
                                ??_INTERRUPT_InterruptManager 0503  
                                                    _ADACTPPS 000269  
                                     __end_of_GetTxFifoStatus 3182  
                                                 __smallconst 2600  
                                                    _ADCPbits 0003D8  
                                                  _C1CONHbits 000101  
                                        _ValidateTransmission 294E  
                            CAN1_OperationModeSet@requestMode 0505  
                                                    _CANRXPPS 00023D  
                                                  _C1CONTbits 000103  
                                                  _C1CONUbits 000102  
                                               _TMR0_CallBack 303A  
                                                    _T2CLKCON 000326  
                                                  _C1INTHbits 00011D  
                                        _INTERRUPT_Initialize 326E  
                   _PWM2_16BIT_Period_DefaultInterruptHandler 000000  
                   _PWM1_16BIT_Period_DefaultInterruptHandler 000000  
                                                  _C1INTTbits 00011F  
                                               _TMR1_CallBack 300E  
                                           ??_TMR0_Initialize 0505  
                                                    _INT0_ISR 3266  
                                                    _LATBbits 0004BF  
                                               _TMR2_CallBack 2FE2  
                          _PWM2_16BIT_Period_InterruptHandler 053E  
                                                    _PIE1bits 00049F  
                                                    _PIE3bits 0004A1  
                                                    _PIE4bits 0004A2  
                                                    _PIE5bits 0004A3  
                                    __size_of_TMR1_WriteTimer 002E  
                                                    i2u112_40 2FC4  
                                                    i2u120_40 2BBC  
                                                    i2u112_41 2FC0  
                                                    i2u120_41 2BB8  
                                                    i2u121_40 2BCA  
                                                    i2u121_41 2BC6  
                                                    i2u122_40 2BE0  
                                                    i2u122_41 2BDC  
                                                    i2u123_40 2BEE  
                                                    i2u123_41 2BEA  
                                                    i2u116_40 2B74  
                                                    i2u116_41 2B70  
                                                    i2u117_40 2B82  
                                                    i2u117_41 2B7E  
                                                    i2u118_40 2B98  
                                                    i2u118_41 2B94  
                                                    i2u119_40 2BA6  
                                                    i2u119_41 2BA2  
                         __size_of_INTERRUPT_InterruptManager 0092  
                                  ??_TMR0_SetInterruptHandler 0505  
                                                    _PIR1bits 0004AF  
                                                    _PIR2bits 0004B0  
                                                    _PIR3bits 0004B1  
                                                    _PIR4bits 0004B2  
                                                    _PIR5bits 0004B3  
                                   _ADC_ActiveClockTuning_ISR 0544  
                                                    _PWM1CPRE 000465  
                                                    _PWM2CPRE 000474  
                            _ADC_DefaultActiveClockTuning_ISR 000000  
                                                    _TMR0_ISR 325E  
                                                    _TMR1_ISR 31BE  
                                                    _TMR2_ISR 3092  
                                 ?_CAN1_TransmitFIFOStatusGet 0501  
                                            ?_CAN1_Initialize 0501  
                                           ??_TMR1_Initialize 0505  
                                  __end_of_WriteMessageToFifo 2854  
                                                  _ADCON0bits 0003F3  
                                                  _ADCON1bits 0003F4  
                                                  _ADCON2bits 0003F5  
                                                  _ADCON3bits 0003F6  
                                                 _isTxChannel 2F16  
        __end_of_PWM1_16BIT_Slice1Output2_SetInterruptHandler 3218  
       __size_of_PWM1_16BIT_Slice1Output2_SetInterruptHandler 000A  
        __end_of_PWM2_16BIT_Slice1Output2_SetInterruptHandler 31FA  
       __size_of_PWM2_16BIT_Slice1Output2_SetInterruptHandler 000A  
              ??_PWM2_16BIT_Slice1Output2_SetInterruptHandler 0505  
              ??_PWM1_16BIT_Slice1Output2_SetInterruptHandler 0505  
               ?_PWM2_16BIT_Slice1Output2_SetInterruptHandler 0503  
               ?_PWM1_16BIT_Slice1Output2_SetInterruptHandler 0503  
                _PWM1_16BIT_Slice1Output2_SetInterruptHandler 320E  
                _PWM2_16BIT_Slice1Output2_SetInterruptHandler 31F0  
                                       ?_ValidateTransmission 0504  
                              ??_TMR2_DefaultInterruptHandler 0501  
                                 ?_ADC_SetADIInterruptHandler 0503  
                           __size_of_TMR2_SetInterruptHandler 000A  
                              ??_INT0_DefaultInterruptHandler 0501  
                                   ?_TMR2_SetInterruptHandler 0503  
                                              ?_TMR0_CallBack 0501  
                                                 _INTCON0bits 0004D6  
                   _PWM2_16BIT_Slice1Output1_InterruptHandler 0542  
                   _PWM1_16BIT_Slice1Output1_InterruptHandler 0552  
                                                   copy_data0 2EEA  
                                       ?_INTERRUPT_Initialize 0501  
                                    _INT0_SetInterruptHandler 322C  
                                              ?_TMR1_CallBack 0501  
                                           ??_TMR2_Initialize 0505  
                              __size_of_PWM2_16BIT_Initialize 006E  
                                              ?_TMR2_CallBack 0501  
                               __end_of_PWM2_16BIT_Initialize 2CDC  
                                                  _ADSTATbits 0003F7  
                                                    __Hrparam 0000  
                                                   memcpy@tmp 050D  
                                       _CAN1_OperationModeGet 3254  
                                                    __Lrparam 0000  
                                       _CAN1_OperationModeSet 2DA4  
                                 GetTxFifoStatus@validChannel 0503  
                                     ??_OSCILLATOR_Initialize 0503  
                                    _TMR1_SetInterruptHandler 31DC  
                                            ?_GetTxFifoStatus 0501  
                                       _TMR1_InterruptHandler 053A  
                                                  _T0CON0bits 00031A  
                                   _ADC_Context1Thereshld_ISR 0546  
                                    WriteMessageToFifo@status 0514  
                                                    __pivt0x8 0008  
                                                    __ptext10 31FA  
                                                    __ptext11 3204  
                                                    __ptext20 3182  
                                                    __ptext12 2CDC  
                                                    __ptext21 322C  
                                                    __ptext13 320E  
                                                  _T1GCONbits 00031F  
                                                    __ptext30 30E4  
                                                    __ptext22 2E48  
                                                    __ptext14 3218  
                                                    __ptext31 2AD2  
                                                    __ptext23 3196  
                                                    __ptext15 3222  
                                                    __ptext40 3092  
                                                    __ptext32 2F16  
                                                    __ptext24 31AA  
                                                    __ptext16 30BC  
                                                    __ptext41 2FE2  
                                                    __ptext33 260E  
                                                    __ptext25 2A26  
                                                    __ptext17 2BF8  
                                                    __ptext50 3266  
                                                    __ptext42 3272  
                                                    __ptext34 2D4A  
                                                    __ptext26 3236  
                                                    __ptext18 3152  
                                                    __ptext51 3066  
                                                    __ptext43 31BE  
                                                    __ptext35 294E  
                                                    __ptext27 3240  
                                                    __ptext19 326E  
                                                    __ptext52 3278  
                                                    __ptext44 2FB4  
                                                    __ptext36 316A  
                                                    __ptext28 324A  
                                                    __ptext53 0000  
                                                    __ptext45 300E  
                                                    __ptext37 2DA4  
                                                    __ptext29 2854  
                                                    __ptext46 3274  
                                                    __ptext38 3254  
                                                    __ptext47 325E  
                                                    __ptext39 2B66  
                                                    __ptext48 303A  
                                                    __ptext49 3276  
                                 CAN1_OperationModeSet@opMode 0503  
                                 CAN1_OperationModeSet@status 0504  
                                               __size_of_main 004C  
                        __end_of_TMR0_DefaultInterruptHandler 3278  
                       __size_of_TMR0_DefaultInterruptHandler 0002  
                                _TMR0_DefaultInterruptHandler 3276  
                                                    isa$xinst 000000  
                          _PWM1_16BIT_Period_InterruptHandler 054E  
                          __end_of_INTERRUPT_InterruptManager 2BF8  
                                  _INTERRUPT_InterruptManager 2B66  
                                           ??_TMR1_WriteTimer 0503  
                                      ??_ValidateTransmission 0506  
                                                 _PWM1GIEbits 000468  
                                             ??_TMR0_CallBack 0501  
                                                 _PWM1CONbits 000469  
                                                 _PWM2GIEbits 000477  
                                                    memcpy@d1 0503  
                                                    memcpy@s1 0505  
                                                 _PWM1GIRbits 000467  
                                                 _PWM2CONbits 000478  
                                                 _PWM2GIRbits 000476  
                                      ??_INTERRUPT_Initialize 0503  
                                             ??_TMR1_CallBack 0501  
                                          _EXT_INT_Initialize 3182  
                                                    intlevel2 0000  
                                             ??_TMR2_CallBack 0501  
                                     ?_PIN_MANAGER_Initialize 0501  
                                         ?_EXT_INT_Initialize 0501  
                          __size_of_CAN1_BitRateConfiguration 0014  
                                      ?_CAN1_OperationModeGet 0501  
                                  ?_CAN1_BitRateConfiguration 0501  
                                      ?_CAN1_OperationModeSet 0501  
                                            ??_ADC_Initialize 0505  
                                      __size_of_INT0_CallBack 002C  
                             fp__TMR0_DefaultInterruptHandler 0000  
                               ?_TMR0_DefaultInterruptHandler 0501  
                   _PWM2_16BIT_Slice1Output2_InterruptHandler 0540  
                   _PWM1_16BIT_Slice1Output2_InterruptHandler 0550  
                                        ??_EXT_INT_Initialize 0505  
                                    __size_of_CANWriteMessage 00FA  
                                    CAN1_Transmit@fifoChannel 051E  
                                       TMR2_ISR@CountCallBack 054C  
                                             _TMR0_Initialize 310C  
                                       _PWM1_16BIT_Initialize 2CDC  
                              __end_of_PIN_MANAGER_Initialize 2C6E  
                            _ADC_DefaultContext1Threshold_ISR 000000  
                                       _TMR2_InterruptHandler 0538  
                                             _TMR1_Initialize 2E90  
                           __end_of_CAN1_BitRateConfiguration 31BE  
