

Microchip MPLAB XC8 Assembler V2.31 build 20201012212115 
                                                                                               Sat Feb 12 21:24:23 2022

Microchip MPLAB XC8 C Compiler v2.31 (Free license) build 20201012212115 Og1 
     1                           	processor	18F26Q84
     2                           	fnconf	rparam,??,?,0
     3                           	pagewidth 120
     4                           	opt	flic
     5                           	psect	idataBANK5,global,class=CODE,delta=1,noexec
     6                           	psect	smallconst,global,reloc=2,class=SMALLCONST,delta=1,noexec
     7                           	psect	nvBANK5,global,class=BANK5,space=1,delta=1,lowdata,noexec
     8                           	psect	cinit,global,reloc=2,class=CODE,delta=1
     9                           	psect	bssCOMRAM,global,class=COMRAM,space=1,delta=1,lowdata,noexec
    10                           	psect	bssBANK5,global,class=BANK5,space=1,delta=1,lowdata,noexec
    11                           	psect	dataBANK5,global,class=BANK5,space=1,delta=1,lowdata,noexec
    12                           	psect	bssBANK6,global,class=BANK6,space=1,delta=1,lowdata,noexec
    13                           	psect	cstackBANK6,global,class=BANK6,space=1,delta=1,lowdata,noexec
    14                           	psect	cstackBANK5,global,class=BANK5,space=1,delta=1,lowdata,noexec
    15                           	psect	cstackCOMRAM,global,class=COMRAM,space=1,delta=1,lowdata,noexec
    16                           	psect	text0,global,reloc=2,class=CODE,delta=1
    17                           	psect	text1,global,reloc=2,class=CODE,delta=1
    18                           	psect	text2,global,reloc=2,class=CODE,delta=1
    19                           	psect	text3,global,reloc=2,class=CODE,delta=1
    20                           	psect	text4,global,reloc=2,class=CODE,delta=1
    21                           	psect	text5,global,reloc=2,class=CODE,delta=1
    22                           	psect	text6,global,reloc=2,class=CODE,delta=1
    23                           	psect	text7,global,reloc=2,class=CODE,delta=1
    24                           	psect	text8,global,reloc=2,class=CODE,delta=1
    25                           	psect	text9,global,reloc=2,class=CODE,delta=1
    26                           	psect	text10,global,reloc=2,class=CODE,delta=1
    27                           	psect	text11,global,reloc=2,class=CODE,delta=1
    28                           	psect	text12,global,reloc=2,class=CODE,delta=1
    29                           	psect	text13,global,reloc=2,class=CODE,delta=1
    30                           	psect	text14,global,reloc=2,class=CODE,delta=1
    31                           	psect	text15,global,reloc=2,class=CODE,delta=1
    32                           	psect	text16,global,reloc=2,class=CODE,delta=1
    33                           	psect	text17,global,reloc=2,class=CODE,delta=1
    34                           	psect	text18,global,reloc=2,class=CODE,delta=1
    35                           	psect	text19,global,reloc=2,class=CODE,delta=1
    36                           	psect	text20,global,reloc=2,class=CODE,delta=1
    37                           	psect	text21,global,reloc=2,class=CODE,delta=1
    38                           	psect	text22,global,reloc=2,class=CODE,delta=1
    39                           	psect	text23,global,reloc=2,class=CODE,delta=1
    40                           	psect	text24,global,reloc=2,class=CODE,delta=1
    41                           	psect	text25,global,reloc=2,class=CODE,delta=1
    42                           	psect	text26,global,reloc=2,class=CODE,delta=1
    43                           	psect	text27,global,reloc=2,class=CODE,delta=1
    44                           	psect	text28,global,reloc=2,class=CODE,delta=1
    45                           	psect	text29,global,reloc=2,class=CODE,delta=1
    46                           	psect	text30,global,reloc=2,class=CODE,delta=1
    47                           	psect	text31,global,reloc=2,class=CODE,delta=1
    48                           	psect	text32,global,reloc=2,class=CODE,delta=1
    49                           	psect	text33,global,reloc=2,class=CODE,delta=1
    50                           	psect	text34,global,reloc=2,class=CODE,delta=1
    51                           	psect	text35,global,reloc=2,class=CODE,delta=1
    52                           	psect	text36,global,reloc=2,class=CODE,delta=1
    53                           	psect	text37,global,reloc=2,class=CODE,delta=1
    54                           	psect	text38,global,reloc=2,class=CODE,delta=1
    55                           	psect	text39,global,reloc=2,class=CODE,delta=1
    56                           	psect	text40,global,reloc=2,class=CODE,delta=1
    57                           	psect	text41,global,reloc=2,class=CODE,delta=1
    58                           	psect	text42,global,reloc=2,class=CODE,delta=1
    59                           	psect	text43,global,reloc=2,class=CODE,delta=1
    60                           	psect	text44,global,reloc=2,class=CODE,delta=1
    61                           	psect	text45,global,reloc=2,class=CODE,delta=1
    62                           	psect	text46,global,reloc=2,class=CODE,delta=1
    63                           	psect	text47,global,reloc=2,class=CODE,delta=1
    64                           	psect	text48,global,reloc=2,class=CODE,delta=1
    65                           	psect	text49,global,reloc=2,class=CODE,delta=1
    66                           	psect	text50,global,reloc=2,class=CODE,delta=1
    67                           	psect	text51,global,reloc=2,class=CODE,delta=1
    68                           	psect	text52,global,reloc=2,class=CODE,delta=1
    69                           	psect	text53,global,reloc=2,class=CODE,delta=1
    70                           	psect	text54,global,reloc=2,class=CODE,delta=1
    71                           	psect	text55,global,reloc=2,class=CODE,delta=1
    72                           	psect	text56,global,reloc=2,class=CODE,delta=1
    73                           	psect	text57,global,reloc=2,class=CODE,delta=1
    74                           	psect	text58,global,reloc=2,class=CODE,delta=1
    75                           	psect	text59,global,reloc=2,class=CODE,delta=1
    76                           	psect	text60,global,reloc=2,class=CODE,delta=1
    77                           	psect	text61,global,reloc=2,class=CODE,delta=1
    78                           	psect	text62,global,reloc=2,class=CODE,delta=1
    79                           	psect	text63,global,reloc=2,class=CODE,delta=1
    80                           	psect	text64,global,reloc=2,class=CODE,delta=1
    81                           	psect	text65,global,reloc=2,class=CODE,delta=1
    82                           	psect	text66,global,reloc=2,class=CODE,delta=1
    83                           	psect	text67,global,reloc=2,class=CODE,delta=1
    84                           	psect	text68,global,reloc=2,class=CODE,delta=1
    85                           	psect	text69,global,reloc=2,class=CODE,delta=1
    86                           	psect	text70,global,reloc=2,class=CODE,delta=1
    87                           	psect	text71,global,reloc=2,class=CODE,delta=1,group=1
    88                           	psect	text72,global,reloc=2,class=CODE,delta=1,inline
    89                           	psect	text73,global,reloc=2,class=CODE,delta=1,inline
    90                           	psect	text74,global,reloc=2,class=CODE,delta=1
    91                           	psect	text75,global,reloc=2,class=CODE,delta=1,inline
    92                           	psect	text76,global,reloc=2,class=CODE,delta=1
    93                           	psect	text77,global,reloc=2,class=CODE,delta=1
    94                           	psect	text78,global,reloc=2,class=CODE,delta=1
    95                           	psect	text79,global,reloc=2,class=CODE,delta=1
    96                           	psect	text80,global,reloc=2,class=CODE,delta=1
    97                           	psect	text81,global,reloc=2,class=CODE,delta=1,group=1
    98                           	psect	text82,global,reloc=2,class=CODE,delta=1,group=1
    99                           	psect	text83,global,reloc=2,class=CODE,delta=1,group=1
   100                           	psect	text84,global,reloc=2,class=CODE,delta=1,group=1
   101                           	psect	text85,global,reloc=2,class=CODE,delta=1,group=1
   102                           	psect	text86,global,reloc=2,class=CODE,delta=1,group=1
   103                           	psect	text87,global,reloc=2,class=CODE,delta=1
   104                           	psect	text88,global,reloc=2,class=CODE,delta=1
   105                           	psect	text89,global,reloc=2,class=CODE,delta=1
   106                           	psect	text90,global,reloc=2,class=CODE,delta=1
   107                           	psect	text91,global,reloc=2,class=CODE,delta=1
   108                           	psect	text92,global,reloc=2,class=CODE,delta=1
   109                           	psect	text93,global,reloc=2,class=CODE,delta=1
   110                           	psect	text94,global,reloc=2,class=CODE,delta=1,group=2
   111                           	psect	text95,global,reloc=2,class=CODE,delta=1
   112                           	psect	text96,global,reloc=2,class=CODE,delta=1
   113                           	psect	text97,global,reloc=2,class=CODE,delta=1
   114                           	psect	text98,global,reloc=2,class=CODE,delta=1
   115                           	psect	text99,global,reloc=2,class=CODE,delta=1
   116                           	psect	text100,global,reloc=2,class=CODE,delta=1
   117                           	psect	text101,global,reloc=2,class=CODE,delta=1
   118                           	psect	text102,global,reloc=2,class=CODE,delta=1
   119                           	psect	text103,global,reloc=2,class=CODE,delta=1
   120                           	psect	text104,global,reloc=2,class=CODE,delta=1
   121                           	psect	ivt0x8,global,reloc=2,class=CODE,delta=1,noexec,keep,optim=
   122                           	psect	intsave_regs,global,class=BIGRAM,space=1,delta=1,noexec
   123                           	psect	text105,global,reloc=2,class=CODE,delta=1
   124                           	psect	rparam,global,class=COMRAM,space=1,delta=1,noexec
   125                           	psect	idloc,global,abs,ovrld,class=IDLOC,space=5,delta=1,noexec
   126                           	psect	config,global,abs,ovrld,class=CONFIG,space=4,delta=1,noexec
   127  0000                     
   128                           ; Version 2.32
   129                           ; Generated 10/02/2021 GMT
   130                           ; 
   131                           ; Copyright © 2021, Microchip Technology Inc. and its subsidiaries ("Microchip")
   132                           ; All rights reserved.
   133                           ; 
   134                           ; This software is developed by Microchip Technology Inc. and its subsidiaries ("Microch
      +                          ip").
   135                           ; 
   136                           ; Redistribution and use in source and binary forms, with or without modification, are
   137                           ; permitted provided that the following conditions are met:
   138                           ; 
   139                           ;     1. Redistributions of source code must retain the above copyright notice, this lis
      +                          t of
   140                           ;        conditions and the following disclaimer.
   141                           ; 
   142                           ;     2. Redistributions in binary form must reproduce the above copyright notice, this 
      +                          list
   143                           ;        of conditions and the following disclaimer in the documentation and/or other
   144                           ;        materials provided with the distribution. Publication is not required when
   145                           ;        this file is used in an embedded application.
   146                           ; 
   147                           ;     3. Microchip's name may not be used to endorse or promote products derived from th
      +                          is
   148                           ;        software without specific prior written permission.
   149                           ; 
   150                           ; THIS SOFTWARE IS PROVIDED BY MICROCHIP "AS IS" AND ANY EXPRESS OR IMPLIED WARRANTIES,
   151                           ; INCLUDING, BUT NOT LIMITED TO, THE IMPLIED WARRANTIES OF MERCHANTABILITY AND FITNESS F
      +                          OR
   152                           ; PURPOSE ARE DISCLAIMED.  IN NO EVENT SHALL MICROCHIP BE LIABLE FOR ANY DIRECT, INDIREC
      +                          T,
   153                           ; INCIDENTAL, SPECIAL, EXEMPLARY, OR CONSEQUENTIAL DAMAGES (INCLUDING BUT NOT LIMITED TO
   154                           ; PROCUREMENT OF SUBSTITUTE GOODS OR SERVICES; LOSS OF USE, DATA OR PROFITS; OR BUSINESS
   155                           ; INTERRUPTION) HOWSOEVER CAUSED AND ON ANY THEORY OF LIABILITY, WHETHER IN CONTRACT, ST
      +                          RICT
   156                           ; LIABILITY, OR TORT (INCLUDING NEGLIGENCE OR OTHERWISE) ARISING IN ANY WAY OUT OF THE U
      +                          SE OF
   157                           ; THIS SOFTWARE, EVEN IF ADVISED OF THE POSSIBILITY OF SUCH DAMAGE.
   158                           ; 
   159                           ; 
   160                           ; Code-generator required, PIC18F26Q84 Definitions
   161                           ; 
   162                           ; SFR Addresses
   163  0000                     
   164 ;; Function _PWM1_16BIT_Slice1Output1_DefaultInterruptHandler is unused but had its address taken
   165  0000                     
   166 ;; Function _PWM1_16BIT_Slice1Output2_DefaultInterruptHandler is unused but had its address taken
   167  0000                     
   168 ;; Function _PWM1_16BIT_Period_DefaultInterruptHandler is unused but had its address taken
   169  0000                     
   170 ;; Function _ADC_DefaultADI_ISR is unused but had its address taken
   171  0000                     
   172 ;; Function _ADC_DefaultContext1Threshold_ISR is unused but had its address taken
   173  0000                     
   174 ;; Function _ADC_DefaultContext2Threshold_ISR is unused but had its address taken
   175  0000                     
   176 ;; Function _ADC_DefaultContext3Threshold_ISR is unused but had its address taken
   177  0000                     
   178 ;; Function _ADC_DefaultContext4Threshold_ISR is unused but had its address taken
   179  0000                     
   180 ;; Function _ADC_DefaultActiveClockTuning_ISR is unused but had its address taken
   181  0000                     
   182 ;; Function _PWM2_16BIT_Slice1Output1_DefaultInterruptHandler is unused but had its address taken
   183  0000                     
   184 ;; Function _PWM2_16BIT_Slice1Output2_DefaultInterruptHandler is unused but had its address taken
   185  0000                     
   186 ;; Function _PWM2_16BIT_Period_DefaultInterruptHandler is unused but had its address taken
   187  0000                     
   188                           	psect	idataBANK5
   189  004C28                     __pidataBANK5:
   190                           	callstack 0
   191                           
   192                           ;initializer for _rxFifos
   193  004C28  01                 	db	1
   194  004C29  00                 	db	0
   195                           
   196                           	psect	smallconst
   197  002600                     __psmallconst:
   198                           	callstack 0
   199  002600  00                 	db	0
   200  002601                     _DLC_BYTES:
   201                           	callstack 0
   202  002601  00                 	db	0
   203  002602  01                 	db	1
   204  002603  02                 	db	2
   205  002604  03                 	db	3
   206  002605  04                 	db	4
   207  002606  05                 	db	5
   208  002607  06                 	db	6
   209  002608  07                 	db	7
   210  002609  08                 	db	8
   211  00260A                     __end_of_DLC_BYTES:
   212                           	callstack 0
   213  00260A  50                 	db	80
   214  00260B  01                 	db	1
   215  00260C                     __end_of_FIFO:
   216                           	callstack 0
   217  00260C  00                 	db	0	; dummy byte at the end
   218  0000                     
   219                           	psect	nvBANK5
   220  0005C9                     __pnvBANK5:
   221                           	callstack 0
   222  0005C9                     _TMR0_InterruptHandler:
   223                           	callstack 0
   224  0005C9                     	ds	2
   225  0005CB                     _TMR2_InterruptHandler:
   226                           	callstack 0
   227  0005CB                     	ds	2
   228  0005CD                     _TMR1_InterruptHandler:
   229                           	callstack 0
   230  0005CD                     	ds	2
   231  0005CF                     _timer1ReloadVal:
   232                           	callstack 0
   233  0005CF                     	ds	2
   234  0005D1                     _PWM2_16BIT_Period_InterruptHandler:
   235                           	callstack 0
   236  0005D1                     	ds	2
   237  0005D3                     _PWM2_16BIT_Slice1Output2_InterruptHandler:
   238                           	callstack 0
   239  0005D3                     	ds	2
   240  0005D5                     _PWM2_16BIT_Slice1Output1_InterruptHandler:
   241                           	callstack 0
   242  0005D5                     	ds	2
   243  0005D7                     _ADC_ActiveClockTuning_ISR:
   244                           	callstack 0
   245  0005D7                     	ds	2
   246  0005D9                     _ADC_Context4Thereshld_ISR:
   247                           	callstack 0
   248  0005D9                     	ds	2
   249  0005DB                     _ADC_Context3Thereshld_ISR:
   250                           	callstack 0
   251  0005DB                     	ds	2
   252  0005DD                     _ADC_Context2Thereshld_ISR:
   253                           	callstack 0
   254  0005DD                     	ds	2
   255  0005DF                     _ADC_Context1Thereshld_ISR:
   256                           	callstack 0
   257  0005DF                     	ds	2
   258  0005E1                     _ADC_ConversionComplete_ISR:
   259                           	callstack 0
   260  0005E1                     	ds	2
   261  0005E3                     _INT0_InterruptHandler:
   262                           	callstack 0
   263  0005E3                     	ds	2
   264  0000                     _PMD8	set	104
   265  0000                     _PMD7	set	103
   266  0000                     _PMD6	set	102
   267  0000                     _PMD5	set	101
   268  0000                     _PMD4	set	100
   269  0000                     _PMD3	set	99
   270  0000                     _PMD2	set	98
   271  0000                     _PMD1	set	97
   272  0000                     _PMD0	set	96
   273  0000                     _OSCTUNE	set	176
   274  0000                     _OSCFRQ	set	177
   275  0000                     _OSCEN	set	179
   276  0000                     _OSCCON3	set	175
   277  0000                     _OSCCON1	set	173
   278  0000                     _C1FIFOBA	set	332
   279  0000                     _C1FIFOSTA1Lbits	set	352
   280  0000                     _C1TXQSTALbits	set	340
   281  0000                     _C1INTLbits	set	284
   282  0000                     _C1INTTbits	set	287
   283  0000                     _C1TRECUbits	set	310
   284  0000                     _C1CONUbits	set	258
   285  0000                     _C1INTHbits	set	285
   286  0000                     _C1CONTbits	set	259
   287  0000                     _C1CONU	set	258
   288  0000                     _C1CONH	set	257
   289  0000                     _C1CONL	set	256
   290  0000                     _C1CONHbits	set	257
   291  0000                     _C1INTT	set	287
   292  0000                     _C1INTU	set	286
   293  0000                     _C1INTH	set	285
   294  0000                     _C1INTL	set	284
   295  0000                     _C1NBTCFGT	set	263
   296  0000                     _C1NBTCFGU	set	262
   297  0000                     _C1NBTCFGH	set	261
   298  0000                     _C1NBTCFGL	set	260
   299  0000                     _C1TXQCONT	set	339
   300  0000                     _C1TXQCONU	set	338
   301  0000                     _C1TXQCONH	set	337
   302  0000                     _C1FLTCON0H	set	385
   303  0000                     _C1MASK1T	set	411
   304  0000                     _C1MASK1U	set	410
   305  0000                     _C1MASK1H	set	409
   306  0000                     _C1MASK1L	set	408
   307  0000                     _C1FLTOBJ1T	set	407
   308  0000                     _C1FLTOBJ1U	set	406
   309  0000                     _C1FLTOBJ1H	set	405
   310  0000                     _C1FLTOBJ1L	set	404
   311  0000                     _C1INTUbits	set	286
   312  0000                     _C1FIFOCON1T	set	351
   313  0000                     _C1FIFOCON1U	set	350
   314  0000                     _C1FIFOCON1H	set	349
   315  0000                     _C1FIFOCON1L	set	348
   316  0000                     _C1TXQCONL	set	336
   317  0000                     _RB4PPS	set	525
   318  0000                     _CANRXPPS	set	573
   319  0000                     _RC1PPS	set	530
   320  0000                     _INT0PPS	set	574
   321  0000                     _ADACTPPS	set	617
   322  0000                     _RC0PPS	set	529
   323  0000                     _T0CON0bits	set	794
   324  0000                     _T0CON0	set	794
   325  0000                     _TMR0L	set	792
   326  0000                     _TMR0H	set	793
   327  0000                     _T0CON1	set	795
   328  0000                     _PR2	set	803
   329  0000                     _TMR2	set	802
   330  0000                     _T2CONbits	set	804
   331  0000                     _T2RSTbits	set	807
   332  0000                     _T2HLTbits	set	805
   333  0000                     _T2CON	set	804
   334  0000                     _T2TMR	set	802
   335  0000                     _T2PR	set	803
   336  0000                     _T2RST	set	807
   337  0000                     _T2HLT	set	805
   338  0000                     _T2CLKCON	set	806
   339  0000                     _T1GCONbits	set	799
   340  0000                     _T1CONbits	set	798
   341  0000                     _T1CON	set	798
   342  0000                     _TMR1L	set	796
   343  0000                     _TMR1H	set	797
   344  0000                     _T1CLK	set	801
   345  0000                     _T1GATE	set	800
   346  0000                     _T1GCON	set	799
   347  0000                     _ADCPbits	set	984
   348  0000                     _ADCON1bits	set	1012
   349  0000                     _ADERRL	set	989
   350  0000                     _ADERRH	set	990
   351  0000                     _ADPREVL	set	1000
   352  0000                     _ADPREVH	set	1001
   353  0000                     _ADFLTRL	set	993
   354  0000                     _ADFLTRH	set	994
   355  0000                     _ADSTATbits	set	1015
   356  0000                     _ADCON2bits	set	1013
   357  0000                     _ADCON3bits	set	1014
   358  0000                     _ADCSEL4bits	set	1023
   359  0000                     _ADCSEL3bits	set	1022
   360  0000                     _ADCSEL2bits	set	1021
   361  0000                     _ADCSEL1bits	set	1020
   362  0000                     _ADCON0bits	set	1011
   363  0000                     _ADCSEL4	set	1023
   364  0000                     _ADCSEL3	set	1022
   365  0000                     _ADCSEL2	set	1021
   366  0000                     _ADCSEL1	set	1020
   367  0000                     _ADREF	set	1016
   368  0000                     _ADSTAT	set	1015
   369  0000                     _ADCON3	set	1014
   370  0000                     _ADCON2	set	1013
   371  0000                     _ADCON1	set	1012
   372  0000                     _ADCON0	set	1011
   373  0000                     _ADPREH	set	1010
   374  0000                     _ADPREL	set	1009
   375  0000                     _ADCAP	set	1008
   376  0000                     _ADACQH	set	1007
   377  0000                     _ADACQL	set	1006
   378  0000                     _ADPCH	set	1004
   379  0000                     _ADRESH	set	1003
   380  0000                     _ADRESL	set	1002
   381  0000                     _ADRPT	set	999
   382  0000                     _ADCNT	set	998
   383  0000                     _ADACCU	set	997
   384  0000                     _ADACCH	set	996
   385  0000                     _ADACCL	set	995
   386  0000                     _ADSTPTH	set	992
   387  0000                     _ADSTPTL	set	991
   388  0000                     _ADUTHH	set	988
   389  0000                     _ADUTHL	set	987
   390  0000                     _ADLTHH	set	986
   391  0000                     _ADLTHL	set	985
   392  0000                     _ADCTX	set	1019
   393  0000                     _ADCP	set	984
   394  0000                     _ADCLK	set	1018
   395  0000                     _ADACT	set	1017
   396  0000                     _ANSELCbits	set	1040
   397  0000                     _ANSELAbits	set	1024
   398  0000                     _INLVLE	set	1060
   399  0000                     _INLVLC	set	1044
   400  0000                     _INLVLB	set	1036
   401  0000                     _INLVLA	set	1028
   402  0000                     _SLRCONC	set	1043
   403  0000                     _SLRCONB	set	1035
   404  0000                     _SLRCONA	set	1027
   405  0000                     _ODCONC	set	1042
   406  0000                     _ODCONB	set	1034
   407  0000                     _ODCONA	set	1026
   408  0000                     _WPUC	set	1041
   409  0000                     _WPUA	set	1025
   410  0000                     _WPUB	set	1033
   411  0000                     _WPUE	set	1057
   412  0000                     _ANSELA	set	1024
   413  0000                     _ANSELB	set	1032
   414  0000                     _ANSELC	set	1040
   415  0000                     _PORTCbits	set	1232
   416  0000                     _PORTAbits	set	1230
   417  0000                     _LATAbits	set	1214
   418  0000                     _TRISCbits	set	1224
   419  0000                     _TRISAbits	set	1222
   420  0000                     _PWM2GIEbits	set	1143
   421  0000                     _PWM2CONbits	set	1144
   422  0000                     _PWM2CON	set	1144
   423  0000                     _PIE5bits	set	1187
   424  0000                     _PWM2GIRbits	set	1142
   425  0000                     _PIR5bits	set	1203
   426  0000                     _PWM2S1P2H	set	1149
   427  0000                     _PWM2S1P2L	set	1148
   428  0000                     _PWM2S1P1H	set	1147
   429  0000                     _PWM2S1P1L	set	1146
   430  0000                     _PWM2S1CFG	set	1145
   431  0000                     _PWM2GIE	set	1143
   432  0000                     _PWM2GIR	set	1142
   433  0000                     _PWM2PIPOS	set	1141
   434  0000                     _PWM2CPRE	set	1140
   435  0000                     _PWM2PRH	set	1139
   436  0000                     _PWM2PRL	set	1138
   437  0000                     _PWM2LDS	set	1137
   438  0000                     _PWM2CLK	set	1136
   439  0000                     _PWM2ERS	set	1135
   440  0000                     _LATBbits	set	1215
   441  0000                     _TRISBbits	set	1223
   442  0000                     _PIR0bits	set	1198
   443  0000                     _PIE0bits	set	1182
   444  0000                     _PIR3bits	set	1201
   445  0000                     _PIE3bits	set	1185
   446  0000                     _PIR2bits	set	1200
   447  0000                     _PWM1GIEbits	set	1128
   448  0000                     _PWM1CONbits	set	1129
   449  0000                     _PWM1CON	set	1129
   450  0000                     _PIE4bits	set	1186
   451  0000                     _PWM1GIRbits	set	1127
   452  0000                     _PIR4bits	set	1202
   453  0000                     _PWM1S1P2H	set	1134
   454  0000                     _PWM1S1P2L	set	1133
   455  0000                     _PWM1S1P1H	set	1132
   456  0000                     _PWM1S1P1L	set	1131
   457  0000                     _PWM1S1CFG	set	1130
   458  0000                     _PWM1GIE	set	1128
   459  0000                     _PWM1GIR	set	1127
   460  0000                     _PWM1PIPOS	set	1126
   461  0000                     _PWM1CPRE	set	1125
   462  0000                     _PWM1PRH	set	1124
   463  0000                     _PWM1PRL	set	1123
   464  0000                     _PWM1LDS	set	1122
   465  0000                     _PWM1CLK	set	1121
   466  0000                     _PWM1ERS	set	1120
   467  0000                     _TRISC	set	1224
   468  0000                     _TRISB	set	1223
   469  0000                     _TRISA	set	1222
   470  0000                     _TRISE	set	1226
   471  0000                     _LATC	set	1216
   472  0000                     _LATB	set	1215
   473  0000                     _LATA	set	1214
   474  0000                     _PIE1bits	set	1183
   475  0000                     _INTCON0bits	set	1238
   476  0000                     _PIR1bits	set	1199
   477                           
   478                           ; #config settings
   479                           
   480                           	psect	cinit
   481  004622                     __pcinit:
   482                           	callstack 0
   483  004622                     start_initialization:
   484                           	callstack 0
   485  004622                     __initialization:
   486                           	callstack 0
   487                           
   488                           ; Initialize objects allocated to BANK5 (2 bytes)
   489                           ; load TBLPTR registers with __pidataBANK5
   490  004622  0E28               	movlw	low __pidataBANK5
   491  004624  6EF6               	movwf	tblptrl,c
   492  004626  0E4C               	movlw	high __pidataBANK5
   493  004628  6EF7               	movwf	tblptrh,c
   494  00462A  0E00               	movlw	low (__pidataBANK5 shr (0+16))
   495  00462C  6EF8               	movwf	tblptru,c
   496  00462E  0009               	tblrd		*+	;fetch initializer
   497  004630  0061 F3D4  F5F3    	movff	tablat,__pdataBANK5
   498  004636  0009               	tblrd		*+	;fetch initializer
   499  004638  0061 F3D4  F5F4    	movff	tablat,__pdataBANK5+1
   500                           
   501                           ; Clear objects allocated to BANK6 (8 bytes)
   502  00463E  EE01  F200         	lfsr	0,__pbssBANK6
   503  004642  0E08               	movlw	8
   504  004644                     clear_0:
   505  004644  6AEE               	clrf	postinc0,c
   506  004646  06E8               	decf	wreg,f,c
   507  004648  E1FD               	bnz	clear_0
   508                           
   509                           ; Clear objects allocated to BANK5 (105 bytes)
   510  00464A  EE01  F160         	lfsr	0,__pbssBANK5
   511  00464E  0E69               	movlw	105
   512  004650                     clear_1:
   513  004650  6AEE               	clrf	postinc0,c
   514  004652  06E8               	decf	wreg,f,c
   515  004654  E1FD               	bnz	clear_1
   516                           
   517                           ; Clear objects allocated to COMRAM (8 bytes)
   518  004656  EE01  F156         	lfsr	0,__pbssCOMRAM
   519  00465A  0E08               	movlw	8
   520  00465C                     clear_2:
   521  00465C  6AEE               	clrf	postinc0,c
   522  00465E  06E8               	decf	wreg,f,c
   523  004660  E1FD               	bnz	clear_2
   524                           
   525                           ;
   526                           ; Setup IVTBASE
   527                           ;
   528  004662  0104               	movlb	4
   529  004664  0E08               	movlw	(ivt0x8_base shr 0)& (0+255)
   530  004666  6F5D               	movwf	93,b
   531  004668  0E00               	movlw	(ivt0x8_base shr (0+8))& (0+255)
   532  00466A  6F5E               	movwf	94,b
   533  00466C  0E00               	movlw	(ivt0x8_base shr (0+16))& (0+255)
   534  00466E  6F5F               	movwf	95,b
   535  004670                     end_of_initialization:
   536                           	callstack 0
   537  004670                     __end_of__initialization:
   538                           	callstack 0
   539  004670  0100               	movlb	0
   540  004672  EF25  F025         	goto	_main	;jump to C main() function
   541                           
   542                           	psect	bssCOMRAM
   543  000556                     __pbssCOMRAM:
   544                           	callstack 0
   545  000556                     _uiDutyServomotor:
   546                           	callstack 0
   547  000556                     	ds	2
   548  000558                     _NPRES_min:
   549                           	callstack 0
   550  000558                     	ds	1
   551  000559                     _HDRPRES_max:
   552                           	callstack 0
   553  000559                     	ds	1
   554  00055A                     _HDRPRES_min:
   555                           	callstack 0
   556  00055A                     	ds	1
   557  00055B                     _ucLEDState:
   558                           	callstack 0
   559  00055B                     	ds	1
   560  00055C                     _ucCount1s:
   561                           	callstack 0
   562  00055C                     	ds	1
   563  00055D                     _ucCount500ms:
   564                           	callstack 0
   565  00055D                     	ds	1
   566                           
   567                           	psect	bssBANK5
   568  000560                     __pbssBANK5:
   569                           	callstack 0
   570  000560                     _ucAN2:
   571                           	callstack 0
   572  000560                     	ds	2
   573  000562                     _ucAN1:
   574                           	callstack 0
   575  000562                     	ds	2
   576  000564                     _ucPICNPRES4:
   577                           	callstack 0
   578  000564                     	ds	2
   579  000566                     _ucPICNPRES3:
   580                           	callstack 0
   581  000566                     	ds	2
   582  000568                     _ucPICNPRES2:
   583                           	callstack 0
   584  000568                     	ds	2
   585  00056A                     _ucPICNPRES1:
   586                           	callstack 0
   587  00056A                     	ds	2
   588  00056C                     _ucPICHDRPRES2:
   589                           	callstack 0
   590  00056C                     	ds	2
   591  00056E                     _ucPICHDRPRES1:
   592                           	callstack 0
   593  00056E                     	ds	2
   594  000570                     _uiYaw_rate:
   595                           	callstack 0
   596  000570                     	ds	2
   597  000572                     _uiAcc_lateral:
   598                           	callstack 0
   599  000572                     	ds	2
   600  000574                     _uiAcc_longitudinal:
   601                           	callstack 0
   602  000574                     	ds	2
   603  000576                     _uiCones_count_all:
   604                           	callstack 0
   605  000576                     	ds	2
   606  000578                     _uiIndex:
   607                           	callstack 0
   608  000578                     	ds	2
   609  00057A                     _uiCount1min:
   610                           	callstack 0
   611  00057A                     	ds	2
   612  00057C                     _uiCount30s:
   613                           	callstack 0
   614  00057C                     	ds	2
   615  00057E                     _CAN1_RxBufferOverflowHandler:
   616                           	callstack 0
   617  00057E                     	ds	2
   618  000580                     _CAN1_TxAttemptHandler:
   619                           	callstack 0
   620  000580                     	ds	2
   621  000582                     _CAN1_SystemErrorHandler:
   622                           	callstack 0
   623  000582                     	ds	2
   624  000584                     _CAN1_ModeChangeHandler:
   625                           	callstack 0
   626  000584                     	ds	2
   627  000586                     _CAN1_BusErrorHandler:
   628                           	callstack 0
   629  000586                     	ds	2
   630  000588                     _CAN1_BusWakeUpActivityHandler:
   631                           	callstack 0
   632  000588                     	ds	2
   633  00058A                     _CAN1_InvalidMessageHandler:
   634                           	callstack 0
   635  00058A                     	ds	2
   636  00058C                     _CAN1_FIFO1NotEmptyHandler:
   637                           	callstack 0
   638  00058C                     	ds	2
   639  00058E                     _PWM1_16BIT_Period_InterruptHandler:
   640                           	callstack 0
   641  00058E                     	ds	2
   642  000590                     _PWM1_16BIT_Slice1Output2_InterruptHandler:
   643                           	callstack 0
   644  000590                     	ds	2
   645  000592                     _PWM1_16BIT_Slice1Output1_InterruptHandler:
   646                           	callstack 0
   647  000592                     	ds	2
   648  000594                     _NPRES_max:
   649                           	callstack 0
   650  000594                     	ds	1
   651  000595                     _ucServoLDif:
   652                           	callstack 0
   653  000595                     	ds	1
   654  000596                     _ucServoLmax:
   655                           	callstack 0
   656  000596                     	ds	1
   657  000597                     _ucPICHDRPRES2min:
   658                           	callstack 0
   659  000597                     	ds	1
   660  000598                     _ucPICHDRPRES1min:
   661                           	callstack 0
   662  000598                     	ds	1
   663  000599                     _ucPedalPos:
   664                           	callstack 0
   665  000599                     	ds	1
   666  00059A                     _ucServoLmin:
   667                           	callstack 0
   668  00059A                     	ds	1
   669  00059B                     _ucASMode:
   670                           	callstack 0
   671  00059B                     	ds	1
   672  00059C                     _ucASRequesState:
   673                           	callstack 0
   674  00059C                     	ds	1
   675  00059D                     _ucASBState:
   676                           	callstack 0
   677  00059D                     	ds	1
   678  00059E                     _ucMotor_moment_target:
   679                           	callstack 0
   680  00059E                     	ds	1
   681  00059F                     _ucMotor_moment_actual:
   682                           	callstack 0
   683  00059F                     	ds	1
   684  0005A0                     _ucBrake_hydr_target:
   685                           	callstack 0
   686  0005A0                     	ds	1
   687  0005A1                     _ucBrake_hydr_actual:
   688                           	callstack 0
   689  0005A1                     	ds	1
   690  0005A2                     _ucSteering_angle_target:
   691                           	callstack 0
   692  0005A2                     	ds	1
   693  0005A3                     _ucSteering_angle_actual:
   694                           	callstack 0
   695  0005A3                     	ds	1
   696  0005A4                     _ucSpeed_target:
   697                           	callstack 0
   698  0005A4                     	ds	1
   699  0005A5                     _ucSpeed_actual:
   700                           	callstack 0
   701  0005A5                     	ds	1
   702  0005A6                     _ucCones_count_actual:
   703                           	callstack 0
   704  0005A6                     	ds	1
   705  0005A7                     _ucLap_counter:
   706                           	callstack 0
   707  0005A7                     	ds	1
   708  0005A8                     _ucService_brake:
   709                           	callstack 0
   710  0005A8                     	ds	1
   711  0005A9                     _ucSteering_state:
   712                           	callstack 0
   713  0005A9                     	ds	1
   714  0005AA                     _ucAMI_state:
   715                           	callstack 0
   716  0005AA                     	ds	1
   717  0005AB                     _ucEBS_state:
   718                           	callstack 0
   719  0005AB                     	ds	1
   720  0005AC                     _ucAS_state:
   721                           	callstack 0
   722  0005AC                     	ds	1
   723  0005AD                     _ucTargetGear:
   724                           	callstack 0
   725  0005AD                     	ds	1
   726  0005AE                     _ucTargetDirection:
   727                           	callstack 0
   728  0005AE                     	ds	1
   729  0005AF                     _ucTargetBrake:
   730                           	callstack 0
   731  0005AF                     	ds	1
   732  0005B0                     _ucTargetClutch:
   733                           	callstack 0
   734  0005B0                     	ds	1
   735  0005B1                     _ucTargetAccelerator:
   736                           	callstack 0
   737  0005B1                     	ds	1
   738  0005B2                     _ucCount10s:
   739                           	callstack 0
   740  0005B2                     	ds	1
   741  0005B3                     _CANDATAdata:
   742                           	callstack 0
   743  0005B3                     	ds	8
   744  0005BB                     _msgReceipt:
   745                           	callstack 0
   746  0005BB                     	ds	7
   747  0005C2                     _msgTransmit:
   748                           	callstack 0
   749  0005C2                     	ds	7
   750                           
   751                           	psect	dataBANK5
   752  0005F3                     __pdataBANK5:
   753                           	callstack 0
   754  0005F3                     _rxFifos:
   755                           	callstack 0
   756  0005F3                     	ds	2
   757                           
   758                           	psect	bssBANK6
   759  000600                     __pbssBANK6:
   760                           	callstack 0
   761  000600                     _rxMsgData:
   762                           	callstack 0
   763  000600                     	ds	8
   764                           
   765                           	psect	cstackBANK6
   766  000608                     __pcstackBANK6:
   767                           	callstack 0
   768  000608                     CAN1_RX_FIFO_ResetInfo@index:
   769                           	callstack 0
   770  000608                     CAN1_OperationModeSet@opMode:
   771                           	callstack 0
   772  000608                     INT0_SetInterruptHandler@InterruptHandler:
   773                           	callstack 0
   774  000608                     PWM1_16BIT_Slice1Output1_SetInterruptHandler@InterruptHandler:
   775                           	callstack 0
   776  000608                     PWM1_16BIT_Slice1Output2_SetInterruptHandler@InterruptHandler:
   777                           	callstack 0
   778  000608                     PWM1_16BIT_Period_SetInterruptHandler@InterruptHandler:
   779                           	callstack 0
   780  000608                     ADC_SetADIInterruptHandler@InterruptHandler:
   781                           	callstack 0
   782  000608                     ADC_SetContext1ThresholdInterruptHandler@InterruptHandler:
   783                           	callstack 0
   784  000608                     ADC_SetContext2ThresholdInterruptHandler@InterruptHandler:
   785                           	callstack 0
   786  000608                     ADC_SetContext3ThresholdInterruptHandler@InterruptHandler:
   787                           	callstack 0
   788  000608                     ADC_SetContext4ThresholdInterruptHandler@InterruptHandler:
   789                           	callstack 0
   790  000608                     ADC_SetActiveClockTuningInterruptHandler@InterruptHandler:
   791                           	callstack 0
   792  000608                     CAN1_SetInvalidMessageInterruptHandler@handler:
   793                           	callstack 0
   794  000608                     CAN1_SetBusWakeUpActivityInterruptHandler@handler:
   795                           	callstack 0
   796  000608                     CAN1_SetBusErrorInterruptHandler@handler:
   797                           	callstack 0
   798  000608                     CAN1_SetModeChangeInterruptHandler@handler:
   799                           	callstack 0
   800  000608                     CAN1_SetSystemErrorInterruptHandler@handler:
   801                           	callstack 0
   802  000608                     CAN1_SetTxAttemptInterruptHandler@handler:
   803                           	callstack 0
   804  000608                     CAN1_SetRxBufferOverFlowInterruptHandler@handler:
   805                           	callstack 0
   806  000608                     CAN1_SetFIFO1NotEmptyHandler@handler:
   807                           	callstack 0
   808  000608                     PWM2_16BIT_Slice1Output1_SetInterruptHandler@InterruptHandler:
   809                           	callstack 0
   810  000608                     PWM2_16BIT_Slice1Output2_SetInterruptHandler@InterruptHandler:
   811                           	callstack 0
   812  000608                     PWM2_16BIT_Period_SetInterruptHandler@InterruptHandler:
   813                           	callstack 0
   814  000608                     TMR1_SetInterruptHandler@InterruptHandler:
   815                           	callstack 0
   816  000608                     TMR2_SetInterruptHandler@InterruptHandler:
   817                           	callstack 0
   818  000608                     TMR0_SetInterruptHandler@InterruptHandler:
   819                           	callstack 0
   820                           
   821                           ; 2 bytes @ 0x0
   822  000608                     	ds	1
   823  000609                     CAN1_OperationModeSet@status:
   824                           	callstack 0
   825                           
   826                           ; 1 bytes @ 0x1
   827  000609                     	ds	1
   828  00060A                     ??_TMR1_Initialize:
   829  00060A                     CAN1_OperationModeSet@requestMode:
   830                           	callstack 0
   831                           
   832                           ; 1 bytes @ 0x2
   833  00060A                     	ds	1
   834  00060B                     
   835                           ; 1 bytes @ 0x3
   836  00060B                     	ds	1
   837  00060C                     
   838                           ; 1 bytes @ 0x4
   839                           
   840                           	psect	cstackBANK5
   841  0005E5                     __pcstackBANK5:
   842                           	callstack 0
   843  0005E5                     	ds	2
   844  0005E7                     CANReadMessage@id:
   845                           	callstack 0
   846                           
   847                           ; 4 bytes @ 0x2
   848  0005E7                     	ds	4
   849  0005EB                     CANReadMessage@data7:
   850                           	callstack 0
   851                           
   852                           ; 1 bytes @ 0x6
   853  0005EB                     	ds	1
   854  0005EC                     CANReadMessage@data8:
   855                           	callstack 0
   856                           
   857                           ; 1 bytes @ 0x7
   858  0005EC                     	ds	1
   859  0005ED                     CANReadMessage@data6:
   860                           	callstack 0
   861                           
   862                           ; 1 bytes @ 0x8
   863  0005ED                     	ds	1
   864  0005EE                     CANReadMessage@data4:
   865                           	callstack 0
   866                           
   867                           ; 1 bytes @ 0x9
   868  0005EE                     	ds	1
   869  0005EF                     CANReadMessage@data5:
   870                           	callstack 0
   871                           
   872                           ; 1 bytes @ 0xA
   873  0005EF                     	ds	1
   874  0005F0                     CANReadMessage@data3:
   875                           	callstack 0
   876                           
   877                           ; 1 bytes @ 0xB
   878  0005F0                     	ds	1
   879  0005F1                     CANReadMessage@data2:
   880                           	callstack 0
   881                           
   882                           ; 1 bytes @ 0xC
   883  0005F1                     	ds	1
   884  0005F2                     CANReadMessage@data1:
   885                           	callstack 0
   886                           
   887                           ; 1 bytes @ 0xD
   888  0005F2                     	ds	1
   889                           
   890                           	psect	cstackCOMRAM
   891  000501                     __pcstackCOMRAM:
   892                           	callstack 0
   893  000501                     ??_TEMPORIZATION_1s:
   894  000501                     ??_GetRxFifoDepth:
   895  000501                     ?_ADC_GetSingleConversion:
   896                           	callstack 0
   897  000501                     ?___wmul:
   898                           	callstack 0
   899  000501                     ?___lwdiv:
   900                           	callstack 0
   901  000501                     ?___aldiv:
   902                           	callstack 0
   903  000501                     ?___xxtofl:
   904                           	callstack 0
   905  000501                     ADC_SelectContext@context:
   906                           	callstack 0
   907  000501                     GetRxFifoStatus@validChannel:
   908                           	callstack 0
   909  000501                     PWM1_16BIT_WritePeriodRegister@periodCount:
   910                           	callstack 0
   911  000501                     PWM1_16BIT_SetSlice1Output1DutyCycleRegister@registerValue:
   912                           	callstack 0
   913  000501                     TMR1_WriteTimer@timerVal:
   914                           	callstack 0
   915  000501                     ___wmul@multiplier:
   916                           	callstack 0
   917  000501                     ___lwdiv@dividend:
   918                           	callstack 0
   919  000501                     memcpy@d1:
   920                           	callstack 0
   921  000501                     ___aldiv@dividend:
   922                           	callstack 0
   923  000501                     ___xxtofl@val:
   924                           	callstack 0
   925                           
   926                           ; 4 bytes @ 0x0
   927  000501                     	ds	1
   928  000502                     GetRxFifoDepth@validChannel:
   929                           	callstack 0
   930                           
   931                           ; 1 bytes @ 0x1
   932  000502                     	ds	1
   933  000503                     ??_ADC_GetSingleConversion:
   934  000503                     CAN1_ReceivedMessageCountGet@totalMsgObj:
   935                           	callstack 0
   936  000503                     ___wmul@multiplicand:
   937                           	callstack 0
   938  000503                     ___lwdiv@divisor:
   939                           	callstack 0
   940  000503                     memcpy@s1:
   941                           	callstack 0
   942                           
   943                           ; 2 bytes @ 0x2
   944  000503                     	ds	1
   945  000504                     CAN1_ReceivedMessageCountGet@numOfMsg:
   946                           	callstack 0
   947                           
   948                           ; 1 bytes @ 0x3
   949  000504                     	ds	1
   950  000505                     ??___xxtofl:
   951  000505                     ADC_GetSingleConversion@channel:
   952                           	callstack 0
   953  000505                     CAN1_ReceivedMessageCountGet@rxMsgStatus:
   954                           	callstack 0
   955  000505                     ___wmul@product:
   956                           	callstack 0
   957  000505                     ___lwdiv@quotient:
   958                           	callstack 0
   959  000505                     memcpy@n:
   960                           	callstack 0
   961  000505                     ___aldiv@divisor:
   962                           	callstack 0
   963                           
   964                           ; 4 bytes @ 0x4
   965  000505                     	ds	1
   966  000506                     CAN1_ReceivedMessageCountGet@channel:
   967                           	callstack 0
   968                           
   969                           ; 1 bytes @ 0x5
   970  000506                     	ds	1
   971  000507                     CAN1_ReceivedMessageCountGet@fifoDepth:
   972                           	callstack 0
   973  000507                     ___lwdiv@counter:
   974                           	callstack 0
   975  000507                     memcpy@d:
   976                           	callstack 0
   977                           
   978                           ; 2 bytes @ 0x6
   979  000507                     	ds	1
   980  000508                     CAN1_ReceivedMessageCountGet@fifoTail:
   981                           	callstack 0
   982                           
   983                           ; 1 bytes @ 0x7
   984  000508                     	ds	1
   985  000509                     CAN1_ReceivedMessageCountGet@fifoHead:
   986                           	callstack 0
   987  000509                     ___aldiv@counter:
   988                           	callstack 0
   989  000509                     ___xxtofl@sign:
   990                           	callstack 0
   991  000509                     memcpy@s:
   992                           	callstack 0
   993                           
   994                           ; 2 bytes @ 0x8
   995  000509                     	ds	1
   996  00050A                     CAN1_ReceivedMessageCountGet@index:
   997                           	callstack 0
   998  00050A                     ___aldiv@sign:
   999                           	callstack 0
  1000  00050A                     ___xxtofl@exp:
  1001                           	callstack 0
  1002                           
  1003                           ; 1 bytes @ 0x9
  1004  00050A                     	ds	1
  1005  00050B                     memcpy@tmp:
  1006                           	callstack 0
  1007  00050B                     ___aldiv@quotient:
  1008                           	callstack 0
  1009  00050B                     ___xxtofl@arg:
  1010                           	callstack 0
  1011                           
  1012                           ; 4 bytes @ 0xA
  1013  00050B                     	ds	1
  1014  00050C                     ReadMessageFromFifo@rxFifoObj:
  1015                           	callstack 0
  1016                           
  1017                           ; 2 bytes @ 0xB
  1018  00050C                     	ds	2
  1019  00050E                     ReadMessageFromFifo@rxCanMsg:
  1020                           	callstack 0
  1021                           
  1022                           ; 2 bytes @ 0xD
  1023  00050E                     	ds	1
  1024  00050F                     ?___flmul:
  1025                           	callstack 0
  1026  00050F                     ___flmul@b:
  1027                           	callstack 0
  1028                           
  1029                           ; 4 bytes @ 0xE
  1030  00050F                     	ds	1
  1031  000510                     ??_ReadMessageFromFifo:
  1032                           
  1033                           ; 1 bytes @ 0xF
  1034  000510                     	ds	3
  1035  000513                     ReadMessageFromFifo@msgId:
  1036                           	callstack 0
  1037  000513                     ___flmul@a:
  1038                           	callstack 0
  1039                           
  1040                           ; 4 bytes @ 0x12
  1041  000513                     	ds	4
  1042  000517                     ??___flmul:
  1043  000517                     ReadMessageFromFifo@status:
  1044                           	callstack 0
  1045                           
  1046                           ; 1 bytes @ 0x16
  1047  000517                     	ds	1
  1048  000518                     Receive@channel:
  1049                           	callstack 0
  1050                           
  1051                           ; 1 bytes @ 0x17
  1052  000518                     	ds	1
  1053  000519                     Receive@rxCanMsg:
  1054                           	callstack 0
  1055                           
  1056                           ; 2 bytes @ 0x18
  1057  000519                     	ds	2
  1058  00051B                     ??_Receive:
  1059  00051B                     ___flmul@sign:
  1060                           	callstack 0
  1061                           
  1062                           ; 1 bytes @ 0x1A
  1063  00051B                     	ds	1
  1064  00051C                     ___flmul@grs:
  1065                           	callstack 0
  1066                           
  1067                           ; 4 bytes @ 0x1B
  1068  00051C                     	ds	1
  1069  00051D                     Receive@status:
  1070                           	callstack 0
  1071                           
  1072                           ; 1 bytes @ 0x1C
  1073  00051D                     	ds	1
  1074  00051E                     Receive@rxFifoObj:
  1075                           	callstack 0
  1076                           
  1077                           ; 2 bytes @ 0x1D
  1078  00051E                     	ds	2
  1079  000520                     Receive@rxMsgStatus:
  1080                           	callstack 0
  1081  000520                     ___flmul@aexp:
  1082                           	callstack 0
  1083                           
  1084                           ; 1 bytes @ 0x1F
  1085  000520                     	ds	1
  1086  000521                     Receive@index:
  1087                           	callstack 0
  1088  000521                     ___flmul@bexp:
  1089                           	callstack 0
  1090                           
  1091                           ; 1 bytes @ 0x20
  1092  000521                     	ds	1
  1093  000522                     CAN1_Receive@rxCanMsg:
  1094                           	callstack 0
  1095  000522                     ___flmul@prod:
  1096                           	callstack 0
  1097                           
  1098                           ; 4 bytes @ 0x21
  1099  000522                     	ds	2
  1100  000524                     CAN1_Receive@status:
  1101                           	callstack 0
  1102                           
  1103                           ; 1 bytes @ 0x23
  1104  000524                     	ds	1
  1105  000525                     CAN1_Receive@index:
  1106                           	callstack 0
  1107                           
  1108                           ; 1 bytes @ 0x24
  1109  000525                     	ds	1
  1110  000526                     ___flmul@temp:
  1111                           	callstack 0
  1112                           
  1113                           ; 2 bytes @ 0x25
  1114  000526                     	ds	2
  1115  000528                     ?___fladd:
  1116                           	callstack 0
  1117  000528                     ___fladd@b:
  1118                           	callstack 0
  1119                           
  1120                           ; 4 bytes @ 0x27
  1121  000528                     	ds	4
  1122  00052C                     ___fladd@a:
  1123                           	callstack 0
  1124                           
  1125                           ; 4 bytes @ 0x2B
  1126  00052C                     	ds	4
  1127  000530                     ??___fladd:
  1128                           
  1129                           ; 1 bytes @ 0x2F
  1130  000530                     	ds	4
  1131  000534                     ___fladd@signs:
  1132                           	callstack 0
  1133                           
  1134                           ; 1 bytes @ 0x33
  1135  000534                     	ds	1
  1136  000535                     ___fladd@aexp:
  1137                           	callstack 0
  1138                           
  1139                           ; 1 bytes @ 0x34
  1140  000535                     	ds	1
  1141  000536                     ___fladd@bexp:
  1142                           	callstack 0
  1143                           
  1144                           ; 1 bytes @ 0x35
  1145  000536                     	ds	1
  1146  000537                     ___fladd@grs:
  1147                           	callstack 0
  1148                           
  1149                           ; 1 bytes @ 0x36
  1150  000537                     	ds	1
  1151  000538                     ?___fltol:
  1152                           	callstack 0
  1153  000538                     ___fltol@f1:
  1154                           	callstack 0
  1155                           
  1156                           ; 4 bytes @ 0x37
  1157  000538                     	ds	4
  1158  00053C                     ??___fltol:
  1159                           
  1160                           ; 1 bytes @ 0x3B
  1161  00053C                     	ds	4
  1162  000540                     ___fltol@sign1:
  1163                           	callstack 0
  1164                           
  1165                           ; 1 bytes @ 0x3F
  1166  000540                     	ds	1
  1167  000541                     ___fltol@exp1:
  1168                           	callstack 0
  1169                           
  1170                           ; 1 bytes @ 0x40
  1171  000541                     	ds	1
  1172  000542                     ??_ANALOG_GetVoltage:
  1173  000542                     GPIO_PWM1_Control@uiDutyCycle:
  1174                           	callstack 0
  1175                           
  1176                           ; 2 bytes @ 0x41
  1177  000542                     	ds	2
  1178  000544                     ANALOG_GetVoltage@ucEntradaAnalogica:
  1179                           	callstack 0
  1180  000544                     GPIO_PWM1_Control@uiFreq:
  1181                           	callstack 0
  1182                           
  1183                           ; 2 bytes @ 0x43
  1184  000544                     	ds	1
  1185  000545                     ANALOG_GetVoltage@ucValor:
  1186                           	callstack 0
  1187                           
  1188                           ; 1 bytes @ 0x44
  1189  000545                     	ds	1
  1190  000546                     ??_GPIO_PWM1_Control:
  1191  000546                     ANALOG_GetVoltage@ucFlag:
  1192                           	callstack 0
  1193                           
  1194                           ; 1 bytes @ 0x45
  1195  000546                     	ds	1
  1196  000547                     ANALOG_GetVoltage@uiValorAnalog:
  1197                           	callstack 0
  1198                           
  1199                           ; 2 bytes @ 0x46
  1200  000547                     	ds	1
  1201  000548                     GPIO_PWM1_Control@uiConvertedPeriod:
  1202                           	callstack 0
  1203                           
  1204                           ; 2 bytes @ 0x47
  1205  000548                     	ds	1
  1206  000549                     ANALOG_GetVoltage@uiValorCalculado:
  1207                           	callstack 0
  1208                           
  1209                           ; 2 bytes @ 0x48
  1210  000549                     	ds	1
  1211  00054A                     GPIO_PWM1_Control@uiConvertedDC:
  1212                           	callstack 0
  1213                           
  1214                           ; 2 bytes @ 0x49
  1215  00054A                     	ds	1
  1216  00054B                     ANALOG_GetVoltage@uiValorVoltage:
  1217                           	callstack 0
  1218                           
  1219                           ; 2 bytes @ 0x4A
  1220  00054B                     	ds	1
  1221  00054C                     SERVICEBRAKE_Move@ucTargetMove:
  1222                           	callstack 0
  1223                           
  1224                           ; 1 bytes @ 0x4B
  1225  00054C                     	ds	1
  1226  00054D                     ??_CANReadMessage:
  1227  00054D                     
  1228                           ; 1 bytes @ 0x4C
  1229  00054D                     	ds	5
  1230  000552                     ??_INTERRUPT_InterruptManager:
  1231  000552                     
  1232                           ; 1 bytes @ 0x51
  1233  000552                     	ds	4
  1234                           
  1235 ;;
  1236 ;;Main: autosize = 0, tempsize = 0, incstack = 0, save=0
  1237 ;;
  1238 ;; *************** function _main *****************
  1239 ;; Defined at:
  1240 ;;		line 58 in file "main.c"
  1241 ;; Parameters:    Size  Location     Type
  1242 ;;		None
  1243 ;; Auto vars:     Size  Location     Type
  1244 ;;		None
  1245 ;; Return value:  Size  Location     Type
  1246 ;;                  1    wreg      void 
  1247 ;; Registers used:
  1248 ;;		wreg, fsr2l, fsr2h, status,2, status,0, prodl, prodh, cstack
  1249 ;; Tracked objects:
  1250 ;;		On entry : 0/0
  1251 ;;		On exit  : 0/0
  1252 ;;		Unchanged: 0/0
  1253 ;; Data sizes:     COMRAM   BANK5   BANK6   BANK7   BANK8   BANK9  BANK10  BANK11  BANK12  BANK13  BANK14  BANK15  BANK1
      +6  BANK17  BANK18  BANK19  BANK20  BANK21  BANK22  BANK23  BANK24  BANK25  BANK26  BANK27  BANK28  BANK29  BANK30  BANK3
      +1  BANK32  BANK33  BANK34  BANK35  BANK36  BANK37
  1254 ;;      Params:         0       0       0       0       0       0       0       0       0       0       0       0       
      +0       0       0       0       0       0       0       0       0       0       0       0       0       0       0       
      +0       0       0       0       0       0       0
  1255 ;;      Locals:         0       0       0       0       0       0       0       0       0       0       0       0       
      +0       0       0       0       0       0       0       0       0       0       0       0       0       0       0       
      +0       0       0       0       0       0       0
  1256 ;;      Temps:          0       0       0       0       0       0       0       0       0       0       0       0       
      +0       0       0       0       0       0       0       0       0       0       0       0       0       0       0       
      +0       0       0       0       0       0       0
  1257 ;;      Totals:         0       0       0       0       0       0       0       0       0       0       0       0       
      +0       0       0       0       0       0       0       0       0       0       0       0       0       0       0       
      +0       0       0       0       0       0       0
  1258 ;;Total ram usage:        0 bytes
  1259 ;; Hardware stack levels required when called:   12
  1260 ;; This function calls:
  1261 ;;		_GPIO_Init
  1262 ;;		_SYSTEM_Initialize
  1263 ;;		_TMR0_StopTimer
  1264 ;; This function is called by:
  1265 ;;		Startup code after reset
  1266 ;; This function uses a non-reentrant model
  1267 ;;
  1268                           
  1269                           	psect	text0
  1270  004A4A                     __ptext0:
  1271                           	callstack 0
  1272  004A4A                     _main:
  1273                           	callstack 116
  1274  004A4A                     
  1275                           ;main.c: 61:     SYSTEM_Initialize();
  1276  004A4A  ECA6  F023         	call	_SYSTEM_Initialize	;wreg free
  1277  004A4E                     
  1278                           ;main.c: 68:     (INTCON0bits.GIE = 1);
  1279  004A4E  8ED6               	bsf	214,7,c	;volatile
  1280  004A50                     
  1281                           ;main.c: 74:     GPIO_Init();
  1282  004A50  EC07  F025         	call	_GPIO_Init	;wreg free
  1283  004A54                     
  1284                           ;main.c: 77:     TMR0_StopTimer();
  1285  004A54  EC04  F026         	call	_TMR0_StopTimer	;wreg free
  1286  004A58                     l6906:
  1287                           
  1288                           ;main.c: 92:     {;main.c: 99:         __nop();
  1289  004A58  F000               	nop	
  1290  004A5A  EF2C  F025         	goto	l6906
  1291  004A5E  EF0D  F000         	goto	start
  1292  004A62                     __end_of_main:
  1293                           	callstack 0
  1294                           
  1295 ;; *************** function _TMR0_StopTimer *****************
  1296 ;; Defined at:
  1297 ;;		line 93 in file "mcc_generated_files/tmr0.c"
  1298 ;; Parameters:    Size  Location     Type
  1299 ;;		None
  1300 ;; Auto vars:     Size  Location     Type
  1301 ;;		None
  1302 ;; Return value:  Size  Location     Type
  1303 ;;                  1    wreg      void 
  1304 ;; Registers used:
  1305 ;;		None
  1306 ;; Tracked objects:
  1307 ;;		On entry : 0/0
  1308 ;;		On exit  : 0/0
  1309 ;;		Unchanged: 0/0
  1310 ;; Data sizes:     COMRAM   BANK5   BANK6   BANK7   BANK8   BANK9  BANK10  BANK11  BANK12  BANK13  BANK14  BANK15  BANK1
      +6  BANK17  BANK18  BANK19  BANK20  BANK21  BANK22  BANK23  BANK24  BANK25  BANK26  BANK27  BANK28  BANK29  BANK30  BANK3
      +1  BANK32  BANK33  BANK34  BANK35  BANK36  BANK37
  1311 ;;      Params:         0       0       0       0       0       0       0       0       0       0       0       0       
      +0       0       0       0       0       0       0       0       0       0       0       0       0       0       0       
      +0       0       0       0       0       0       0
  1312 ;;      Locals:         0       0       0       0       0       0       0       0       0       0       0       0       
      +0       0       0       0       0       0       0       0       0       0       0       0       0       0       0       
      +0       0       0       0       0       0       0
  1313 ;;      Temps:          0       0       0       0       0       0       0       0       0       0       0       0       
      +0       0       0       0       0       0       0       0       0       0       0       0       0       0       0       
      +0       0       0       0       0       0       0
  1314 ;;      Totals:         0       0       0       0       0       0       0       0       0       0       0       0       
      +0       0       0       0       0       0       0       0       0       0       0       0       0       0       0       
      +0       0       0       0       0       0       0
  1315 ;;Total ram usage:        0 bytes
  1316 ;; Hardware stack levels used:    1
  1317 ;; Hardware stack levels required when called:    8
  1318 ;; This function calls:
  1319 ;;		Nothing
  1320 ;; This function is called by:
  1321 ;;		_main
  1322 ;; This function uses a non-reentrant model
  1323 ;;
  1324                           
  1325                           	psect	text1
  1326  004C08                     __ptext1:
  1327                           	callstack 0
  1328  004C08                     _TMR0_StopTimer:
  1329                           	callstack 119
  1330  004C08                     
  1331                           ;mcc_generated_files/tmr0.c: 96:     T0CON0bits.T0EN = 0;
  1332  004C08  0103               	movlb	3	; () banked
  1333  004C0A  9F1A               	bcf	26,7,b	;volatile
  1334  004C0C                     
  1335                           ; BSR set to: 3
  1336  004C0C  0012               	return		;funcret
  1337  004C0E                     __end_of_TMR0_StopTimer:
  1338                           	callstack 0
  1339                           
  1340 ;; *************** function _SYSTEM_Initialize *****************
  1341 ;; Defined at:
  1342 ;;		line 50 in file "mcc_generated_files/mcc.c"
  1343 ;; Parameters:    Size  Location     Type
  1344 ;;		None
  1345 ;; Auto vars:     Size  Location     Type
  1346 ;;		None
  1347 ;; Return value:  Size  Location     Type
  1348 ;;                  1    wreg      void 
  1349 ;; Registers used:
  1350 ;;		wreg, fsr2l, fsr2h, status,2, status,0, prodl, prodh, cstack
  1351 ;; Tracked objects:
  1352 ;;		On entry : 0/0
  1353 ;;		On exit  : 0/0
  1354 ;;		Unchanged: 0/0
  1355 ;; Data sizes:     COMRAM   BANK5   BANK6   BANK7   BANK8   BANK9  BANK10  BANK11  BANK12  BANK13  BANK14  BANK15  BANK1
      +6  BANK17  BANK18  BANK19  BANK20  BANK21  BANK22  BANK23  BANK24  BANK25  BANK26  BANK27  BANK28  BANK29  BANK30  BANK3
      +1  BANK32  BANK33  BANK34  BANK35  BANK36  BANK37
  1356 ;;      Params:         0       0       0       0       0       0       0       0       0       0       0       0       
      +0       0       0       0       0       0       0       0       0       0       0       0       0       0       0       
      +0       0       0       0       0       0       0
  1357 ;;      Locals:         0       0       0       0       0       0       0       0       0       0       0       0       
      +0       0       0       0       0       0       0       0       0       0       0       0       0       0       0       
      +0       0       0       0       0       0       0
  1358 ;;      Temps:          0       0       0       0       0       0       0       0       0       0       0       0       
      +0       0       0       0       0       0       0       0       0       0       0       0       0       0       0       
      +0       0       0       0       0       0       0
  1359 ;;      Totals:         0       0       0       0       0       0       0       0       0       0       0       0       
      +0       0       0       0       0       0       0       0       0       0       0       0       0       0       0       
      +0       0       0       0       0       0       0
  1360 ;;Total ram usage:        0 bytes
  1361 ;; Hardware stack levels used:    1
  1362 ;; Hardware stack levels required when called:   11
  1363 ;; This function calls:
  1364 ;;		_ADC_Initialize
  1365 ;;		_CAN1_Initialize
  1366 ;;		_EXT_INT_Initialize
  1367 ;;		_INTERRUPT_Initialize
  1368 ;;		_OSCILLATOR_Initialize
  1369 ;;		_PIN_MANAGER_Initialize
  1370 ;;		_PMD_Initialize
  1371 ;;		_PWM1_16BIT_Initialize
  1372 ;;		_PWM2_16BIT_Initialize
  1373 ;;		_TMR0_Initialize
  1374 ;;		_TMR1_Initialize
  1375 ;;		_TMR2_Initialize
  1376 ;; This function is called by:
  1377 ;;		_main
  1378 ;; This function uses a non-reentrant model
  1379 ;;
  1380                           
  1381                           	psect	text2
  1382  00474C                     __ptext2:
  1383                           	callstack 0
  1384  00474C                     _SYSTEM_Initialize:
  1385                           	callstack 116
  1386  00474C                     
  1387                           ;mcc_generated_files/mcc.c: 52:     INTERRUPT_Initialize();
  1388  00474C  EC10  F026         	call	_INTERRUPT_Initialize	;wreg free
  1389  004750                     
  1390                           ;mcc_generated_files/mcc.c: 53:     PMD_Initialize();
  1391  004750  ECD0  F024         	call	_PMD_Initialize	;wreg free
  1392  004754                     
  1393                           ;mcc_generated_files/mcc.c: 54:     ADC_Initialize();
  1394  004754  EC41  F01B         	call	_ADC_Initialize	;wreg free
  1395  004758                     
  1396                           ;mcc_generated_files/mcc.c: 55:     PIN_MANAGER_Initialize();
  1397  004758  EC4F  F022         	call	_PIN_MANAGER_Initialize	;wreg free
  1398  00475C                     
  1399                           ;mcc_generated_files/mcc.c: 56:     OSCILLATOR_Initialize();
  1400  00475C  EC31  F025         	call	_OSCILLATOR_Initialize	;wreg free
  1401  004760                     
  1402                           ;mcc_generated_files/mcc.c: 57:     TMR2_Initialize();
  1403  004760  ECF1  F023         	call	_TMR2_Initialize	;wreg free
  1404  004764                     
  1405                           ;mcc_generated_files/mcc.c: 58:     TMR1_Initialize();
  1406  004764  EC64  F023         	call	_TMR1_Initialize	;wreg free
  1407  004768                     
  1408                           ;mcc_generated_files/mcc.c: 59:     EXT_INT_Initialize();
  1409  004768  EC49  F025         	call	_EXT_INT_Initialize	;wreg free
  1410  00476C                     
  1411                           ;mcc_generated_files/mcc.c: 60:     TMR0_Initialize();
  1412  00476C  ECBC  F024         	call	_TMR0_Initialize	;wreg free
  1413  004770                     
  1414                           ;mcc_generated_files/mcc.c: 61:     PWM2_16BIT_Initialize();
  1415  004770  ECA1  F021         	call	_PWM2_16BIT_Initialize	;wreg free
  1416  004774                     
  1417                           ;mcc_generated_files/mcc.c: 62:     CAN1_Initialize();
  1418  004774  EC88  F022         	call	_CAN1_Initialize	;wreg free
  1419  004778                     
  1420                           ;mcc_generated_files/mcc.c: 63:     PWM1_16BIT_Initialize();
  1421  004778  ECDB  F021         	call	_PWM1_16BIT_Initialize	;wreg free
  1422  00477C  0012               	return		;funcret
  1423  00477E                     __end_of_SYSTEM_Initialize:
  1424                           	callstack 0
  1425                           
  1426 ;; *************** function _TMR2_Initialize *****************
  1427 ;; Defined at:
  1428 ;;		line 65 in file "mcc_generated_files/tmr2.c"
  1429 ;; Parameters:    Size  Location     Type
  1430 ;;		None
  1431 ;; Auto vars:     Size  Location     Type
  1432 ;;		None
  1433 ;; Return value:  Size  Location     Type
  1434 ;;                  1    wreg      void 
  1435 ;; Registers used:
  1436 ;;		wreg, status,2, status,0, cstack
  1437 ;; Tracked objects:
  1438 ;;		On entry : 0/0
  1439 ;;		On exit  : 0/0
  1440 ;;		Unchanged: 0/0
  1441 ;; Data sizes:     COMRAM   BANK5   BANK6   BANK7   BANK8   BANK9  BANK10  BANK11  BANK12  BANK13  BANK14  BANK15  BANK1
      +6  BANK17  BANK18  BANK19  BANK20  BANK21  BANK22  BANK23  BANK24  BANK25  BANK26  BANK27  BANK28  BANK29  BANK30  BANK3
      +1  BANK32  BANK33  BANK34  BANK35  BANK36  BANK37
  1442 ;;      Params:         0       0       0       0       0       0       0       0       0       0       0       0       
      +0       0       0       0       0       0       0       0       0       0       0       0       0       0       0       
      +0       0       0       0       0       0       0
  1443 ;;      Locals:         0       0       0       0       0       0       0       0       0       0       0       0       
      +0       0       0       0       0       0       0       0       0       0       0       0       0       0       0       
      +0       0       0       0       0       0       0
  1444 ;;      Temps:          0       0       0       0       0       0       0       0       0       0       0       0       
      +0       0       0       0       0       0       0       0       0       0       0       0       0       0       0       
      +0       0       0       0       0       0       0
  1445 ;;      Totals:         0       0       0       0       0       0       0       0       0       0       0       0       
      +0       0       0       0       0       0       0       0       0       0       0       0       0       0       0       
      +0       0       0       0       0       0       0
  1446 ;;Total ram usage:        0 bytes
  1447 ;; Hardware stack levels used:    1
  1448 ;; Hardware stack levels required when called:    9
  1449 ;; This function calls:
  1450 ;;		_TMR2_SetInterruptHandler
  1451 ;; This function is called by:
  1452 ;;		_SYSTEM_Initialize
  1453 ;; This function uses a non-reentrant model
  1454 ;;
  1455                           
  1456                           	psect	text3
  1457  0047E2                     __ptext3:
  1458                           	callstack 0
  1459  0047E2                     _TMR2_Initialize:
  1460                           	callstack 117
  1461  0047E2                     
  1462                           ;mcc_generated_files/tmr2.c: 70:     T2CLKCON = 0x01;
  1463  0047E2  0E01               	movlw	1
  1464  0047E4  0103               	movlb	3	; () banked
  1465  0047E6  6F26               	movwf	38,b	;volatile
  1466                           
  1467                           ;mcc_generated_files/tmr2.c: 73:     T2HLT = 0x00;
  1468  0047E8  0E00               	movlw	0
  1469  0047EA  6F25               	movwf	37,b	;volatile
  1470                           
  1471                           ;mcc_generated_files/tmr2.c: 76:     T2RST = 0x00;
  1472  0047EC  0E00               	movlw	0
  1473  0047EE  6F27               	movwf	39,b	;volatile
  1474                           
  1475                           ;mcc_generated_files/tmr2.c: 79:     T2PR = 0xC2;
  1476  0047F0  0EC2               	movlw	194
  1477  0047F2  6F23               	movwf	35,b	;volatile
  1478                           
  1479                           ;mcc_generated_files/tmr2.c: 82:     T2TMR = 0x00;
  1480  0047F4  0E00               	movlw	0
  1481  0047F6  6F22               	movwf	34,b	;volatile
  1482  0047F8                     
  1483                           ; BSR set to: 3
  1484                           ;mcc_generated_files/tmr2.c: 85:     PIR3bits.TMR2IF = 0;
  1485  0047F8  96B1               	bcf	177,3,c	;volatile
  1486  0047FA                     
  1487                           ; BSR set to: 3
  1488                           ;mcc_generated_files/tmr2.c: 88:     PIE3bits.TMR2IE = 1;
  1489  0047FA  86A1               	bsf	161,3,c	;volatile
  1490  0047FC                     
  1491                           ; BSR set to: 3
  1492                           ;mcc_generated_files/tmr2.c: 91:     TMR2_SetInterruptHandler(TMR2_DefaultInterruptHandl
      +                          er);
  1493  0047FC  0E2A               	movlw	low _TMR2_DefaultInterruptHandler
  1494  0047FE  0106               	movlb	6	; () banked
  1495  004800  6F08               	movwf	TMR2_SetInterruptHandler@InterruptHandler& (0+255),b
  1496  004802  0E4C               	movlw	high _TMR2_DefaultInterruptHandler
  1497  004804  6F09               	movwf	(TMR2_SetInterruptHandler@InterruptHandler+1)& (0+255),b
  1498  004806  EC7A  F025         	call	_TMR2_SetInterruptHandler	;wreg free
  1499  00480A                     
  1500                           ;mcc_generated_files/tmr2.c: 94:     T2CON = 0xF0;
  1501  00480A  0EF0               	movlw	240
  1502  00480C  0103               	movlb	3	; () banked
  1503  00480E  6F24               	movwf	36,b	;volatile
  1504  004810                     
  1505                           ; BSR set to: 3
  1506  004810  0012               	return		;funcret
  1507  004812                     __end_of_TMR2_Initialize:
  1508                           	callstack 0
  1509                           
  1510 ;; *************** function _TMR2_SetInterruptHandler *****************
  1511 ;; Defined at:
  1512 ;;		line 189 in file "mcc_generated_files/tmr2.c"
  1513 ;; Parameters:    Size  Location     Type
  1514 ;;  InterruptHan    2    0[BANK6 ] PTR FTN()void 
  1515 ;;		 -> TMR2_DefaultInterruptHandler(1), 
  1516 ;; Auto vars:     Size  Location     Type
  1517 ;;		None
  1518 ;; Return value:  Size  Location     Type
  1519 ;;                  1    wreg      void 
  1520 ;; Registers used:
  1521 ;;		wreg, status,2, status,0
  1522 ;; Tracked objects:
  1523 ;;		On entry : 0/0
  1524 ;;		On exit  : 0/0
  1525 ;;		Unchanged: 0/0
  1526 ;; Data sizes:     COMRAM   BANK5   BANK6   BANK7   BANK8   BANK9  BANK10  BANK11  BANK12  BANK13  BANK14  BANK15  BANK1
      +6  BANK17  BANK18  BANK19  BANK20  BANK21  BANK22  BANK23  BANK24  BANK25  BANK26  BANK27  BANK28  BANK29  BANK30  BANK3
      +1  BANK32  BANK33  BANK34  BANK35  BANK36  BANK37
  1527 ;;      Params:         0       0       2       0       0       0       0       0       0       0       0       0       
      +0       0       0       0       0       0       0       0       0       0       0       0       0       0       0       
      +0       0       0       0       0       0       0
  1528 ;;      Locals:         0       0       0       0       0       0       0       0       0       0       0       0       
      +0       0       0       0       0       0       0       0       0       0       0       0       0       0       0       
      +0       0       0       0       0       0       0
  1529 ;;      Temps:          0       0       0       0       0       0       0       0       0       0       0       0       
      +0       0       0       0       0       0       0       0       0       0       0       0       0       0       0       
      +0       0       0       0       0       0       0
  1530 ;;      Totals:         0       0       2       0       0       0       0       0       0       0       0       0       
      +0       0       0       0       0       0       0       0       0       0       0       0       0       0       0       
      +0       0       0       0       0       0       0
  1531 ;;Total ram usage:        2 bytes
  1532 ;; Hardware stack levels used:    1
  1533 ;; Hardware stack levels required when called:    8
  1534 ;; This function calls:
  1535 ;;		Nothing
  1536 ;; This function is called by:
  1537 ;;		_TMR2_Initialize
  1538 ;; This function uses a non-reentrant model
  1539 ;;
  1540                           
  1541                           	psect	text4
  1542  004AF4                     __ptext4:
  1543                           	callstack 0
  1544  004AF4                     _TMR2_SetInterruptHandler:
  1545                           	callstack 117
  1546  004AF4                     
  1547                           ;mcc_generated_files/tmr2.c: 190:     TMR2_InterruptHandler = InterruptHandler;
  1548  004AF4  C608  F5CB         	movff	TMR2_SetInterruptHandler@InterruptHandler,_TMR2_InterruptHandler
  1549  004AF8  C609  F5CC         	movff	TMR2_SetInterruptHandler@InterruptHandler+1,_TMR2_InterruptHandler+1
  1550  004AFC  0012               	return		;funcret
  1551  004AFE                     __end_of_TMR2_SetInterruptHandler:
  1552                           	callstack 0
  1553                           
  1554 ;; *************** function _TMR1_Initialize *****************
  1555 ;; Defined at:
  1556 ;;		line 65 in file "mcc_generated_files/tmr1.c"
  1557 ;; Parameters:    Size  Location     Type
  1558 ;;		None
  1559 ;; Auto vars:     Size  Location     Type
  1560 ;;		None
  1561 ;; Return value:  Size  Location     Type
  1562 ;;                  1    wreg      void 
  1563 ;; Registers used:
  1564 ;;		wreg, status,2, status,0, cstack
  1565 ;; Tracked objects:
  1566 ;;		On entry : 0/0
  1567 ;;		On exit  : 0/0
  1568 ;;		Unchanged: 0/0
  1569 ;; Data sizes:     COMRAM   BANK5   BANK6   BANK7   BANK8   BANK9  BANK10  BANK11  BANK12  BANK13  BANK14  BANK15  BANK1
      +6  BANK17  BANK18  BANK19  BANK20  BANK21  BANK22  BANK23  BANK24  BANK25  BANK26  BANK27  BANK28  BANK29  BANK30  BANK3
      +1  BANK32  BANK33  BANK34  BANK35  BANK36  BANK37
  1570 ;;      Params:         0       0       0       0       0       0       0       0       0       0       0       0       
      +0       0       0       0       0       0       0       0       0       0       0       0       0       0       0       
      +0       0       0       0       0       0       0
  1571 ;;      Locals:         0       0       0       0       0       0       0       0       0       0       0       0       
      +0       0       0       0       0       0       0       0       0       0       0       0       0       0       0       
      +0       0       0       0       0       0       0
  1572 ;;      Temps:          0       0       2       0       0       0       0       0       0       0       0       0       
      +0       0       0       0       0       0       0       0       0       0       0       0       0       0       0       
      +0       0       0       0       0       0       0
  1573 ;;      Totals:         0       0       2       0       0       0       0       0       0       0       0       0       
      +0       0       0       0       0       0       0       0       0       0       0       0       0       0       0       
      +0       0       0       0       0       0       0
  1574 ;;Total ram usage:        2 bytes
  1575 ;; Hardware stack levels used:    1
  1576 ;; Hardware stack levels required when called:    9
  1577 ;; This function calls:
  1578 ;;		_TMR1_SetInterruptHandler
  1579 ;; This function is called by:
  1580 ;;		_SYSTEM_Initialize
  1581 ;; This function uses a non-reentrant model
  1582 ;;
  1583                           
  1584                           	psect	text5
  1585  0046C8                     __ptext5:
  1586                           	callstack 0
  1587  0046C8                     _TMR1_Initialize:
  1588                           	callstack 117
  1589  0046C8                     
  1590                           ;mcc_generated_files/tmr1.c: 70:     T1GCON = 0x00;
  1591  0046C8  0E00               	movlw	0
  1592  0046CA  0103               	movlb	3	; () banked
  1593  0046CC  6F1F               	movwf	31,b	;volatile
  1594                           
  1595                           ;mcc_generated_files/tmr1.c: 73:     T1GATE = 0x00;
  1596  0046CE  0E00               	movlw	0
  1597  0046D0  6F20               	movwf	32,b	;volatile
  1598                           
  1599                           ;mcc_generated_files/tmr1.c: 76:     T1CLK = 0x01;
  1600  0046D2  0E01               	movlw	1
  1601  0046D4  6F21               	movwf	33,b	;volatile
  1602                           
  1603                           ;mcc_generated_files/tmr1.c: 79:     TMR1H = 0x85;
  1604  0046D6  0E85               	movlw	133
  1605  0046D8  6F1D               	movwf	29,b	;volatile
  1606                           
  1607                           ;mcc_generated_files/tmr1.c: 82:     TMR1L = 0xEE;
  1608  0046DA  0EEE               	movlw	238
  1609  0046DC  6F1C               	movwf	28,b	;volatile
  1610  0046DE                     
  1611                           ; BSR set to: 3
  1612                           ;mcc_generated_files/tmr1.c: 85:     PIR3bits.TMR1IF = 0;
  1613  0046DE  98B1               	bcf	177,4,c	;volatile
  1614  0046E0                     
  1615                           ; BSR set to: 3
  1616                           ;mcc_generated_files/tmr1.c: 88:     timer1ReloadVal=(uint16_t)((TMR1H << 8) | TMR1L);
  1617  0046E0  511C               	movf	28,w,b	;volatile
  1618  0046E2  0060 FC74  F60A    	movff	797,??_TMR1_Initialize	;volatile
  1619  0046E8  0106               	movlb	6	; () banked
  1620  0046EA  6B0B               	clrf	(??_TMR1_Initialize+1)& (0+255),b
  1621  0046EC  C60A  F60B         	movff	??_TMR1_Initialize,??_TMR1_Initialize+1
  1622  0046F0  6B0A               	clrf	??_TMR1_Initialize& (0+255),b
  1623  0046F2  110A               	iorwf	??_TMR1_Initialize& (0+255),w,b
  1624  0046F4  0105               	movlb	5	; () banked
  1625  0046F6  6FCF               	movwf	_timer1ReloadVal& (0+255),b	;volatile
  1626  0046F8  0106               	movlb	6	; () banked
  1627  0046FA  510B               	movf	(??_TMR1_Initialize+1)& (0+255),w,b
  1628  0046FC  0105               	movlb	5	; () banked
  1629  0046FE  6FD0               	movwf	(_timer1ReloadVal+1)& (0+255),b	;volatile
  1630  004700                     
  1631                           ; BSR set to: 5
  1632                           ;mcc_generated_files/tmr1.c: 91:     PIE3bits.TMR1IE = 1;
  1633  004700  88A1               	bsf	161,4,c	;volatile
  1634  004702                     
  1635                           ; BSR set to: 5
  1636                           ;mcc_generated_files/tmr1.c: 94:     TMR1_SetInterruptHandler(TMR1_DefaultInterruptHandl
      +                          er);
  1637  004702  0E2E               	movlw	low _TMR1_DefaultInterruptHandler
  1638  004704  0106               	movlb	6	; () banked
  1639  004706  6F08               	movwf	TMR1_SetInterruptHandler@InterruptHandler& (0+255),b
  1640  004708  0E4C               	movlw	high _TMR1_DefaultInterruptHandler
  1641  00470A  6F09               	movwf	(TMR1_SetInterruptHandler@InterruptHandler+1)& (0+255),b
  1642  00470C  EC7F  F025         	call	_TMR1_SetInterruptHandler	;wreg free
  1643  004710                     
  1644                           ;mcc_generated_files/tmr1.c: 97:     T1CON = 0x31;
  1645  004710  0E31               	movlw	49
  1646  004712  0103               	movlb	3	; () banked
  1647  004714  6F1E               	movwf	30,b	;volatile
  1648  004716                     
  1649                           ; BSR set to: 3
  1650  004716  0012               	return		;funcret
  1651  004718                     __end_of_TMR1_Initialize:
  1652                           	callstack 0
  1653                           
  1654 ;; *************** function _TMR1_SetInterruptHandler *****************
  1655 ;; Defined at:
  1656 ;;		line 213 in file "mcc_generated_files/tmr1.c"
  1657 ;; Parameters:    Size  Location     Type
  1658 ;;  InterruptHan    2    0[BANK6 ] PTR FTN()void 
  1659 ;;		 -> TMR1_DefaultInterruptHandler(1), 
  1660 ;; Auto vars:     Size  Location     Type
  1661 ;;		None
  1662 ;; Return value:  Size  Location     Type
  1663 ;;                  1    wreg      void 
  1664 ;; Registers used:
  1665 ;;		wreg, status,2, status,0
  1666 ;; Tracked objects:
  1667 ;;		On entry : 0/0
  1668 ;;		On exit  : 0/0
  1669 ;;		Unchanged: 0/0
  1670 ;; Data sizes:     COMRAM   BANK5   BANK6   BANK7   BANK8   BANK9  BANK10  BANK11  BANK12  BANK13  BANK14  BANK15  BANK1
      +6  BANK17  BANK18  BANK19  BANK20  BANK21  BANK22  BANK23  BANK24  BANK25  BANK26  BANK27  BANK28  BANK29  BANK30  BANK3
      +1  BANK32  BANK33  BANK34  BANK35  BANK36  BANK37
  1671 ;;      Params:         0       0       2       0       0       0       0       0       0       0       0       0       
      +0       0       0       0       0       0       0       0       0       0       0       0       0       0       0       
      +0       0       0       0       0       0       0
  1672 ;;      Locals:         0       0       0       0       0       0       0       0       0       0       0       0       
      +0       0       0       0       0       0       0       0       0       0       0       0       0       0       0       
      +0       0       0       0       0       0       0
  1673 ;;      Temps:          0       0       0       0       0       0       0       0       0       0       0       0       
      +0       0       0       0       0       0       0       0       0       0       0       0       0       0       0       
      +0       0       0       0       0       0       0
  1674 ;;      Totals:         0       0       2       0       0       0       0       0       0       0       0       0       
      +0       0       0       0       0       0       0       0       0       0       0       0       0       0       0       
      +0       0       0       0       0       0       0
  1675 ;;Total ram usage:        2 bytes
  1676 ;; Hardware stack levels used:    1
  1677 ;; Hardware stack levels required when called:    8
  1678 ;; This function calls:
  1679 ;;		Nothing
  1680 ;; This function is called by:
  1681 ;;		_TMR1_Initialize
  1682 ;; This function uses a non-reentrant model
  1683 ;;
  1684                           
  1685                           	psect	text6
  1686  004AFE                     __ptext6:
  1687                           	callstack 0
  1688  004AFE                     _TMR1_SetInterruptHandler:
  1689                           	callstack 117
  1690  004AFE                     
  1691                           ;mcc_generated_files/tmr1.c: 214:     TMR1_InterruptHandler = InterruptHandler;
  1692  004AFE  C608  F5CD         	movff	TMR1_SetInterruptHandler@InterruptHandler,_TMR1_InterruptHandler
  1693  004B02  C609  F5CE         	movff	TMR1_SetInterruptHandler@InterruptHandler+1,_TMR1_InterruptHandler+1
  1694  004B06  0012               	return		;funcret
  1695  004B08                     __end_of_TMR1_SetInterruptHandler:
  1696                           	callstack 0
  1697                           
  1698 ;; *************** function _TMR0_Initialize *****************
  1699 ;; Defined at:
  1700 ;;		line 61 in file "mcc_generated_files/tmr0.c"
  1701 ;; Parameters:    Size  Location     Type
  1702 ;;		None
  1703 ;; Auto vars:     Size  Location     Type
  1704 ;;		None
  1705 ;; Return value:  Size  Location     Type
  1706 ;;                  1    wreg      void 
  1707 ;; Registers used:
  1708 ;;		wreg, status,2, status,0, cstack
  1709 ;; Tracked objects:
  1710 ;;		On entry : 0/0
  1711 ;;		On exit  : 0/0
  1712 ;;		Unchanged: 0/0
  1713 ;; Data sizes:     COMRAM   BANK5   BANK6   BANK7   BANK8   BANK9  BANK10  BANK11  BANK12  BANK13  BANK14  BANK15  BANK1
      +6  BANK17  BANK18  BANK19  BANK20  BANK21  BANK22  BANK23  BANK24  BANK25  BANK26  BANK27  BANK28  BANK29  BANK30  BANK3
      +1  BANK32  BANK33  BANK34  BANK35  BANK36  BANK37
  1714 ;;      Params:         0       0       0       0       0       0       0       0       0       0       0       0       
      +0       0       0       0       0       0       0       0       0       0       0       0       0       0       0       
      +0       0       0       0       0       0       0
  1715 ;;      Locals:         0       0       0       0       0       0       0       0       0       0       0       0       
      +0       0       0       0       0       0       0       0       0       0       0       0       0       0       0       
      +0       0       0       0       0       0       0
  1716 ;;      Temps:          0       0       0       0       0       0       0       0       0       0       0       0       
      +0       0       0       0       0       0       0       0       0       0       0       0       0       0       0       
      +0       0       0       0       0       0       0
  1717 ;;      Totals:         0       0       0       0       0       0       0       0       0       0       0       0       
      +0       0       0       0       0       0       0       0       0       0       0       0       0       0       0       
      +0       0       0       0       0       0       0
  1718 ;;Total ram usage:        0 bytes
  1719 ;; Hardware stack levels used:    1
  1720 ;; Hardware stack levels required when called:    9
  1721 ;; This function calls:
  1722 ;;		_TMR0_SetInterruptHandler
  1723 ;; This function is called by:
  1724 ;;		_SYSTEM_Initialize
  1725 ;; This function uses a non-reentrant model
  1726 ;;
  1727                           
  1728                           	psect	text7
  1729  004978                     __ptext7:
  1730                           	callstack 0
  1731  004978                     _TMR0_Initialize:
  1732                           	callstack 117
  1733  004978                     
  1734                           ;mcc_generated_files/tmr0.c: 66:     T0CON1 = 0x44;
  1735  004978  0E44               	movlw	68
  1736  00497A  0103               	movlb	3	; () banked
  1737  00497C  6F1B               	movwf	27,b	;volatile
  1738                           
  1739                           ;mcc_generated_files/tmr0.c: 69:     TMR0H = 0x9B;
  1740  00497E  0E9B               	movlw	155
  1741  004980  6F19               	movwf	25,b	;volatile
  1742                           
  1743                           ;mcc_generated_files/tmr0.c: 72:     TMR0L = 0x00;
  1744  004982  0E00               	movlw	0
  1745  004984  6F18               	movwf	24,b	;volatile
  1746  004986                     
  1747                           ; BSR set to: 3
  1748                           ;mcc_generated_files/tmr0.c: 75:     PIR3bits.TMR0IF = 0;
  1749  004986  9EB1               	bcf	177,7,c	;volatile
  1750  004988                     
  1751                           ; BSR set to: 3
  1752                           ;mcc_generated_files/tmr0.c: 78:     PIE3bits.TMR0IE = 1;
  1753  004988  8EA1               	bsf	161,7,c	;volatile
  1754  00498A                     
  1755                           ; BSR set to: 3
  1756                           ;mcc_generated_files/tmr0.c: 81:     TMR0_SetInterruptHandler(TMR0_DefaultInterruptHandl
      +                          er);
  1757  00498A  0E3A               	movlw	low _TMR0_DefaultInterruptHandler
  1758  00498C  0106               	movlb	6	; () banked
  1759  00498E  6F08               	movwf	TMR0_SetInterruptHandler@InterruptHandler& (0+255),b
  1760  004990  0E4C               	movlw	high _TMR0_DefaultInterruptHandler
  1761  004992  6F09               	movwf	(TMR0_SetInterruptHandler@InterruptHandler+1)& (0+255),b
  1762  004994  EC84  F025         	call	_TMR0_SetInterruptHandler	;wreg free
  1763  004998                     
  1764                           ;mcc_generated_files/tmr0.c: 84:     T0CON0 = 0x80;
  1765  004998  0E80               	movlw	128
  1766  00499A  0103               	movlb	3	; () banked
  1767  00499C  6F1A               	movwf	26,b	;volatile
  1768  00499E                     
  1769                           ; BSR set to: 3
  1770  00499E  0012               	return		;funcret
  1771  0049A0                     __end_of_TMR0_Initialize:
  1772                           	callstack 0
  1773                           
  1774 ;; *************** function _TMR0_SetInterruptHandler *****************
  1775 ;; Defined at:
  1776 ;;		line 142 in file "mcc_generated_files/tmr0.c"
  1777 ;; Parameters:    Size  Location     Type
  1778 ;;  InterruptHan    2    0[BANK6 ] PTR FTN()void 
  1779 ;;		 -> TMR0_DefaultInterruptHandler(1), 
  1780 ;; Auto vars:     Size  Location     Type
  1781 ;;		None
  1782 ;; Return value:  Size  Location     Type
  1783 ;;                  1    wreg      void 
  1784 ;; Registers used:
  1785 ;;		wreg, status,2, status,0
  1786 ;; Tracked objects:
  1787 ;;		On entry : 0/0
  1788 ;;		On exit  : 0/0
  1789 ;;		Unchanged: 0/0
  1790 ;; Data sizes:     COMRAM   BANK5   BANK6   BANK7   BANK8   BANK9  BANK10  BANK11  BANK12  BANK13  BANK14  BANK15  BANK1
      +6  BANK17  BANK18  BANK19  BANK20  BANK21  BANK22  BANK23  BANK24  BANK25  BANK26  BANK27  BANK28  BANK29  BANK30  BANK3
      +1  BANK32  BANK33  BANK34  BANK35  BANK36  BANK37
  1791 ;;      Params:         0       0       2       0       0       0       0       0       0       0       0       0       
      +0       0       0       0       0       0       0       0       0       0       0       0       0       0       0       
      +0       0       0       0       0       0       0
  1792 ;;      Locals:         0       0       0       0       0       0       0       0       0       0       0       0       
      +0       0       0       0       0       0       0       0       0       0       0       0       0       0       0       
      +0       0       0       0       0       0       0
  1793 ;;      Temps:          0       0       0       0       0       0       0       0       0       0       0       0       
      +0       0       0       0       0       0       0       0       0       0       0       0       0       0       0       
      +0       0       0       0       0       0       0
  1794 ;;      Totals:         0       0       2       0       0       0       0       0       0       0       0       0       
      +0       0       0       0       0       0       0       0       0       0       0       0       0       0       0       
      +0       0       0       0       0       0       0
  1795 ;;Total ram usage:        2 bytes
  1796 ;; Hardware stack levels used:    1
  1797 ;; Hardware stack levels required when called:    8
  1798 ;; This function calls:
  1799 ;;		Nothing
  1800 ;; This function is called by:
  1801 ;;		_TMR0_Initialize
  1802 ;; This function uses a non-reentrant model
  1803 ;;
  1804                           
  1805                           	psect	text8
  1806  004B08                     __ptext8:
  1807                           	callstack 0
  1808  004B08                     _TMR0_SetInterruptHandler:
  1809                           	callstack 117
  1810  004B08                     
  1811                           ;mcc_generated_files/tmr0.c: 143:     TMR0_InterruptHandler = InterruptHandler;
  1812  004B08  C608  F5C9         	movff	TMR0_SetInterruptHandler@InterruptHandler,_TMR0_InterruptHandler
  1813  004B0C  C609  F5CA         	movff	TMR0_SetInterruptHandler@InterruptHandler+1,_TMR0_InterruptHandler+1
  1814  004B10  0012               	return		;funcret
  1815  004B12                     __end_of_TMR0_SetInterruptHandler:
  1816                           	callstack 0
  1817                           
  1818 ;; *************** function _PWM2_16BIT_Initialize *****************
  1819 ;; Defined at:
  1820 ;;		line 63 in file "mcc_generated_files/pwm2_16bit.c"
  1821 ;; Parameters:    Size  Location     Type
  1822 ;;		None
  1823 ;; Auto vars:     Size  Location     Type
  1824 ;;		None
  1825 ;; Return value:  Size  Location     Type
  1826 ;;                  1    wreg      void 
  1827 ;; Registers used:
  1828 ;;		wreg, status,2, status,0, cstack
  1829 ;; Tracked objects:
  1830 ;;		On entry : 0/0
  1831 ;;		On exit  : 0/0
  1832 ;;		Unchanged: 0/0
  1833 ;; Data sizes:     COMRAM   BANK5   BANK6   BANK7   BANK8   BANK9  BANK10  BANK11  BANK12  BANK13  BANK14  BANK15  BANK1
      +6  BANK17  BANK18  BANK19  BANK20  BANK21  BANK22  BANK23  BANK24  BANK25  BANK26  BANK27  BANK28  BANK29  BANK30  BANK3
      +1  BANK32  BANK33  BANK34  BANK35  BANK36  BANK37
  1834 ;;      Params:         0       0       0       0       0       0       0       0       0       0       0       0       
      +0       0       0       0       0       0       0       0       0       0       0       0       0       0       0       
      +0       0       0       0       0       0       0
  1835 ;;      Locals:         0       0       0       0       0       0       0       0       0       0       0       0       
      +0       0       0       0       0       0       0       0       0       0       0       0       0       0       0       
      +0       0       0       0       0       0       0
  1836 ;;      Temps:          0       0       0       0       0       0       0       0       0       0       0       0       
      +0       0       0       0       0       0       0       0       0       0       0       0       0       0       0       
      +0       0       0       0       0       0       0
  1837 ;;      Totals:         0       0       0       0       0       0       0       0       0       0       0       0       
      +0       0       0       0       0       0       0       0       0       0       0       0       0       0       0       
      +0       0       0       0       0       0       0
  1838 ;;Total ram usage:        0 bytes
  1839 ;; Hardware stack levels used:    1
  1840 ;; Hardware stack levels required when called:    9
  1841 ;; This function calls:
  1842 ;;		_PWM2_16BIT_Period_SetInterruptHandler
  1843 ;;		_PWM2_16BIT_Slice1Output1_SetInterruptHandler
  1844 ;;		_PWM2_16BIT_Slice1Output2_SetInterruptHandler
  1845 ;; This function is called by:
  1846 ;;		_SYSTEM_Initialize
  1847 ;; This function uses a non-reentrant model
  1848 ;;
  1849                           
  1850                           	psect	text9
  1851  004342                     __ptext9:
  1852                           	callstack 0
  1853  004342                     _PWM2_16BIT_Initialize:
  1854                           	callstack 117
  1855  004342                     
  1856                           ;mcc_generated_files/pwm2_16bit.c: 66:     PWM2ERS = 0x00;
  1857  004342  0E00               	movlw	0
  1858  004344  6E6F               	movwf	111,c	;volatile
  1859                           
  1860                           ;mcc_generated_files/pwm2_16bit.c: 69:     PWM2CLK = 0x02;
  1861  004346  0E02               	movlw	2
  1862  004348  6E70               	movwf	112,c	;volatile
  1863                           
  1864                           ;mcc_generated_files/pwm2_16bit.c: 72:     PWM2LDS = 0x00;
  1865  00434A  0E00               	movlw	0
  1866  00434C  6E71               	movwf	113,c	;volatile
  1867                           
  1868                           ;mcc_generated_files/pwm2_16bit.c: 75:     PWM2PRL = 0x50;
  1869  00434E  0E50               	movlw	80
  1870  004350  6E72               	movwf	114,c	;volatile
  1871                           
  1872                           ;mcc_generated_files/pwm2_16bit.c: 78:     PWM2PRH = 0x0F;
  1873  004352  0E0F               	movlw	15
  1874  004354  6E73               	movwf	115,c	;volatile
  1875                           
  1876                           ;mcc_generated_files/pwm2_16bit.c: 81:     PWM2CPRE = 0xFE;
  1877  004356  0EFE               	movlw	254
  1878  004358  6E74               	movwf	116,c	;volatile
  1879                           
  1880                           ;mcc_generated_files/pwm2_16bit.c: 84:     PWM2PIPOS = 0x00;
  1881  00435A  0E00               	movlw	0
  1882  00435C  6E75               	movwf	117,c	;volatile
  1883                           
  1884                           ;mcc_generated_files/pwm2_16bit.c: 87:     PWM2GIR = 0x00;
  1885  00435E  0E00               	movlw	0
  1886  004360  6E76               	movwf	118,c	;volatile
  1887                           
  1888                           ;mcc_generated_files/pwm2_16bit.c: 90:     PWM2GIE = 0x00;
  1889  004362  0E00               	movlw	0
  1890  004364  6E77               	movwf	119,c	;volatile
  1891                           
  1892                           ;mcc_generated_files/pwm2_16bit.c: 93:     PWM2S1CFG = 0x00;
  1893  004366  0E00               	movlw	0
  1894  004368  6E79               	movwf	121,c	;volatile
  1895                           
  1896                           ;mcc_generated_files/pwm2_16bit.c: 96:     PWM2S1P1L = 0x0D;
  1897  00436A  0E0D               	movlw	13
  1898  00436C  6E7A               	movwf	122,c	;volatile
  1899                           
  1900                           ;mcc_generated_files/pwm2_16bit.c: 99:     PWM2S1P1H = 0x05;
  1901  00436E  0E05               	movlw	5
  1902  004370  6E7B               	movwf	123,c	;volatile
  1903                           
  1904                           ;mcc_generated_files/pwm2_16bit.c: 102:     PWM2S1P2L = 0xA8;
  1905  004372  0EA8               	movlw	168
  1906  004374  6E7C               	movwf	124,c	;volatile
  1907                           
  1908                           ;mcc_generated_files/pwm2_16bit.c: 105:     PWM2S1P2H = 0x07;
  1909  004376  0E07               	movlw	7
  1910  004378  6E7D               	movwf	125,c	;volatile
  1911  00437A                     
  1912                           ;mcc_generated_files/pwm2_16bit.c: 108:     PIR5bits.PWM2PIF = 0;
  1913  00437A  9CB3               	bcf	179,6,c	;volatile
  1914  00437C                     
  1915                           ;mcc_generated_files/pwm2_16bit.c: 111:     PIR5bits.PWM2IF = 0;
  1916  00437C  9EB3               	bcf	179,7,c	;volatile
  1917  00437E                     
  1918                           ;mcc_generated_files/pwm2_16bit.c: 114:     PWM2GIRbits.S1P1IF = 0;
  1919  00437E  9076               	bcf	118,0,c	;volatile
  1920  004380                     
  1921                           ;mcc_generated_files/pwm2_16bit.c: 117:     PWM2GIRbits.S1P2IF = 0;
  1922  004380  9276               	bcf	118,1,c	;volatile
  1923  004382                     
  1924                           ;mcc_generated_files/pwm2_16bit.c: 120:     PIE5bits.PWM2IE = 0;
  1925  004382  9EA3               	bcf	163,7,c	;volatile
  1926  004384                     
  1927                           ;mcc_generated_files/pwm2_16bit.c: 123:     PIE5bits.PWM2PIE = 0;
  1928  004384  9CA3               	bcf	163,6,c	;volatile
  1929  004386                     
  1930                           ;mcc_generated_files/pwm2_16bit.c: 126:     PWM2_16BIT_Slice1Output1_SetInterruptHandler
      +                          (PWM2_16BIT_Slice1Output1_DefaultInterruptHandler);
  1931  004386  0E00               	movlw	0
  1932  004388  0106               	movlb	6	; () banked
  1933  00438A  6F08               	movwf	PWM2_16BIT_Slice1Output1_SetInterruptHandler@InterruptHandler& (0+255),b
  1934  00438C  0E00               	movlw	0
  1935  00438E  6F09               	movwf	(PWM2_16BIT_Slice1Output1_SetInterruptHandler@InterruptHandler+1)& (0+255),b
  1936  004390  EC8E  F025         	call	_PWM2_16BIT_Slice1Output1_SetInterruptHandler	;wreg free
  1937  004394                     
  1938                           ;mcc_generated_files/pwm2_16bit.c: 127:     PWM2_16BIT_Slice1Output2_SetInterruptHandler
      +                          (PWM2_16BIT_Slice1Output2_DefaultInterruptHandler);
  1939  004394  0E00               	movlw	0
  1940  004396  0106               	movlb	6	; () banked
  1941  004398  6F08               	movwf	PWM2_16BIT_Slice1Output2_SetInterruptHandler@InterruptHandler& (0+255),b
  1942  00439A  0E00               	movlw	0
  1943  00439C  6F09               	movwf	(PWM2_16BIT_Slice1Output2_SetInterruptHandler@InterruptHandler+1)& (0+255),b
  1944  00439E  EC89  F025         	call	_PWM2_16BIT_Slice1Output2_SetInterruptHandler	;wreg free
  1945  0043A2                     
  1946                           ;mcc_generated_files/pwm2_16bit.c: 128:     PWM2_16BIT_Period_SetInterruptHandler(PWM2_1
      +                          6BIT_Period_DefaultInterruptHandler);
  1947  0043A2  0E00               	movlw	0
  1948  0043A4  0106               	movlb	6	; () banked
  1949  0043A6  6F08               	movwf	PWM2_16BIT_Period_SetInterruptHandler@InterruptHandler& (0+255),b
  1950  0043A8  0E00               	movlw	0
  1951  0043AA  6F09               	movwf	(PWM2_16BIT_Period_SetInterruptHandler@InterruptHandler+1)& (0+255),b
  1952  0043AC  EC93  F025         	call	_PWM2_16BIT_Period_SetInterruptHandler	;wreg free
  1953  0043B0                     
  1954                           ;mcc_generated_files/pwm2_16bit.c: 131:     PWM2CON = 0x80;
  1955  0043B0  0E80               	movlw	128
  1956  0043B2  6E78               	movwf	120,c	;volatile
  1957  0043B4  0012               	return		;funcret
  1958  0043B6                     __end_of_PWM2_16BIT_Initialize:
  1959                           	callstack 0
  1960                           
  1961 ;; *************** function _PWM2_16BIT_Slice1Output2_SetInterruptHandler *****************
  1962 ;; Defined at:
  1963 ;;		line 197 in file "mcc_generated_files/pwm2_16bit.c"
  1964 ;; Parameters:    Size  Location     Type
  1965 ;;  InterruptHan    2    0[BANK6 ] PTR FTN()void 
  1966 ;;		 -> PWM2_16BIT_Slice1Output2_DefaultInterruptHandler(1), 
  1967 ;; Auto vars:     Size  Location     Type
  1968 ;;		None
  1969 ;; Return value:  Size  Location     Type
  1970 ;;                  1    wreg      void 
  1971 ;; Registers used:
  1972 ;;		wreg, status,2, status,0
  1973 ;; Tracked objects:
  1974 ;;		On entry : 0/0
  1975 ;;		On exit  : 0/0
  1976 ;;		Unchanged: 0/0
  1977 ;; Data sizes:     COMRAM   BANK5   BANK6   BANK7   BANK8   BANK9  BANK10  BANK11  BANK12  BANK13  BANK14  BANK15  BANK1
      +6  BANK17  BANK18  BANK19  BANK20  BANK21  BANK22  BANK23  BANK24  BANK25  BANK26  BANK27  BANK28  BANK29  BANK30  BANK3
      +1  BANK32  BANK33  BANK34  BANK35  BANK36  BANK37
  1978 ;;      Params:         0       0       2       0       0       0       0       0       0       0       0       0       
      +0       0       0       0       0       0       0       0       0       0       0       0       0       0       0       
      +0       0       0       0       0       0       0
  1979 ;;      Locals:         0       0       0       0       0       0       0       0       0       0       0       0       
      +0       0       0       0       0       0       0       0       0       0       0       0       0       0       0       
      +0       0       0       0       0       0       0
  1980 ;;      Temps:          0       0       0       0       0       0       0       0       0       0       0       0       
      +0       0       0       0       0       0       0       0       0       0       0       0       0       0       0       
      +0       0       0       0       0       0       0
  1981 ;;      Totals:         0       0       2       0       0       0       0       0       0       0       0       0       
      +0       0       0       0       0       0       0       0       0       0       0       0       0       0       0       
      +0       0       0       0       0       0       0
  1982 ;;Total ram usage:        2 bytes
  1983 ;; Hardware stack levels used:    1
  1984 ;; Hardware stack levels required when called:    8
  1985 ;; This function calls:
  1986 ;;		Nothing
  1987 ;; This function is called by:
  1988 ;;		_PWM2_16BIT_Initialize
  1989 ;; This function uses a non-reentrant model
  1990 ;;
  1991                           
  1992                           	psect	text10
  1993  004B12                     __ptext10:
  1994                           	callstack 0
  1995  004B12                     _PWM2_16BIT_Slice1Output2_SetInterruptHandler:
  1996                           	callstack 117
  1997  004B12                     
  1998                           ;mcc_generated_files/pwm2_16bit.c: 197: void PWM2_16BIT_Slice1Output2_SetInterruptHandle
      +                          r(void (* InterruptHandler)(void));mcc_generated_files/pwm2_16bit.c: 198: {;mcc_generate
      +                          d_files/pwm2_16bit.c: 199:     PWM2_16BIT_Slice1Output2_InterruptHandler = InterruptHand
      +                          ler;
  1999  004B12  C608  F5D3         	movff	PWM2_16BIT_Slice1Output2_SetInterruptHandler@InterruptHandler,_PWM2_16BIT_Slice1O
      +                          utput2_InterruptHandler
  2000  004B16  C609  F5D4         	movff	PWM2_16BIT_Slice1Output2_SetInterruptHandler@InterruptHandler+1,_PWM2_16BIT_Slice
      +                          1Output2_InterruptHandler+1
  2001  004B1A  0012               	return		;funcret
  2002  004B1C                     __end_of_PWM2_16BIT_Slice1Output2_SetInterruptHandler:
  2003                           	callstack 0
  2004                           
  2005 ;; *************** function _PWM2_16BIT_Slice1Output1_SetInterruptHandler *****************
  2006 ;; Defined at:
  2007 ;;		line 192 in file "mcc_generated_files/pwm2_16bit.c"
  2008 ;; Parameters:    Size  Location     Type
  2009 ;;  InterruptHan    2    0[BANK6 ] PTR FTN()void 
  2010 ;;		 -> PWM2_16BIT_Slice1Output1_DefaultInterruptHandler(1), 
  2011 ;; Auto vars:     Size  Location     Type
  2012 ;;		None
  2013 ;; Return value:  Size  Location     Type
  2014 ;;                  1    wreg      void 
  2015 ;; Registers used:
  2016 ;;		wreg, status,2, status,0
  2017 ;; Tracked objects:
  2018 ;;		On entry : 0/0
  2019 ;;		On exit  : 0/0
  2020 ;;		Unchanged: 0/0
  2021 ;; Data sizes:     COMRAM   BANK5   BANK6   BANK7   BANK8   BANK9  BANK10  BANK11  BANK12  BANK13  BANK14  BANK15  BANK1
      +6  BANK17  BANK18  BANK19  BANK20  BANK21  BANK22  BANK23  BANK24  BANK25  BANK26  BANK27  BANK28  BANK29  BANK30  BANK3
      +1  BANK32  BANK33  BANK34  BANK35  BANK36  BANK37
  2022 ;;      Params:         0       0       2       0       0       0       0       0       0       0       0       0       
      +0       0       0       0       0       0       0       0       0       0       0       0       0       0       0       
      +0       0       0       0       0       0       0
  2023 ;;      Locals:         0       0       0       0       0       0       0       0       0       0       0       0       
      +0       0       0       0       0       0       0       0       0       0       0       0       0       0       0       
      +0       0       0       0       0       0       0
  2024 ;;      Temps:          0       0       0       0       0       0       0       0       0       0       0       0       
      +0       0       0       0       0       0       0       0       0       0       0       0       0       0       0       
      +0       0       0       0       0       0       0
  2025 ;;      Totals:         0       0       2       0       0       0       0       0       0       0       0       0       
      +0       0       0       0       0       0       0       0       0       0       0       0       0       0       0       
      +0       0       0       0       0       0       0
  2026 ;;Total ram usage:        2 bytes
  2027 ;; Hardware stack levels used:    1
  2028 ;; Hardware stack levels required when called:    8
  2029 ;; This function calls:
  2030 ;;		Nothing
  2031 ;; This function is called by:
  2032 ;;		_PWM2_16BIT_Initialize
  2033 ;; This function uses a non-reentrant model
  2034 ;;
  2035                           
  2036                           	psect	text11
  2037  004B1C                     __ptext11:
  2038                           	callstack 0
  2039  004B1C                     _PWM2_16BIT_Slice1Output1_SetInterruptHandler:
  2040                           	callstack 117
  2041  004B1C                     
  2042                           ;mcc_generated_files/pwm2_16bit.c: 192: void PWM2_16BIT_Slice1Output1_SetInterruptHandle
      +                          r(void (* InterruptHandler)(void));mcc_generated_files/pwm2_16bit.c: 193: {;mcc_generate
      +                          d_files/pwm2_16bit.c: 194:     PWM2_16BIT_Slice1Output1_InterruptHandler = InterruptHand
      +                          ler;
  2043  004B1C  C608  F5D5         	movff	PWM2_16BIT_Slice1Output1_SetInterruptHandler@InterruptHandler,_PWM2_16BIT_Slice1O
      +                          utput1_InterruptHandler
  2044  004B20  C609  F5D6         	movff	PWM2_16BIT_Slice1Output1_SetInterruptHandler@InterruptHandler+1,_PWM2_16BIT_Slice
      +                          1Output1_InterruptHandler+1
  2045  004B24  0012               	return		;funcret
  2046  004B26                     __end_of_PWM2_16BIT_Slice1Output1_SetInterruptHandler:
  2047                           	callstack 0
  2048                           
  2049 ;; *************** function _PWM2_16BIT_Period_SetInterruptHandler *****************
  2050 ;; Defined at:
  2051 ;;		line 202 in file "mcc_generated_files/pwm2_16bit.c"
  2052 ;; Parameters:    Size  Location     Type
  2053 ;;  InterruptHan    2    0[BANK6 ] PTR FTN()void 
  2054 ;;		 -> PWM2_16BIT_Period_DefaultInterruptHandler(1), 
  2055 ;; Auto vars:     Size  Location     Type
  2056 ;;		None
  2057 ;; Return value:  Size  Location     Type
  2058 ;;                  1    wreg      void 
  2059 ;; Registers used:
  2060 ;;		wreg, status,2, status,0
  2061 ;; Tracked objects:
  2062 ;;		On entry : 0/0
  2063 ;;		On exit  : 0/0
  2064 ;;		Unchanged: 0/0
  2065 ;; Data sizes:     COMRAM   BANK5   BANK6   BANK7   BANK8   BANK9  BANK10  BANK11  BANK12  BANK13  BANK14  BANK15  BANK1
      +6  BANK17  BANK18  BANK19  BANK20  BANK21  BANK22  BANK23  BANK24  BANK25  BANK26  BANK27  BANK28  BANK29  BANK30  BANK3
      +1  BANK32  BANK33  BANK34  BANK35  BANK36  BANK37
  2066 ;;      Params:         0       0       2       0       0       0       0       0       0       0       0       0       
      +0       0       0       0       0       0       0       0       0       0       0       0       0       0       0       
      +0       0       0       0       0       0       0
  2067 ;;      Locals:         0       0       0       0       0       0       0       0       0       0       0       0       
      +0       0       0       0       0       0       0       0       0       0       0       0       0       0       0       
      +0       0       0       0       0       0       0
  2068 ;;      Temps:          0       0       0       0       0       0       0       0       0       0       0       0       
      +0       0       0       0       0       0       0       0       0       0       0       0       0       0       0       
      +0       0       0       0       0       0       0
  2069 ;;      Totals:         0       0       2       0       0       0       0       0       0       0       0       0       
      +0       0       0       0       0       0       0       0       0       0       0       0       0       0       0       
      +0       0       0       0       0       0       0
  2070 ;;Total ram usage:        2 bytes
  2071 ;; Hardware stack levels used:    1
  2072 ;; Hardware stack levels required when called:    8
  2073 ;; This function calls:
  2074 ;;		Nothing
  2075 ;; This function is called by:
  2076 ;;		_PWM2_16BIT_Initialize
  2077 ;; This function uses a non-reentrant model
  2078 ;;
  2079                           
  2080                           	psect	text12
  2081  004B26                     __ptext12:
  2082                           	callstack 0
  2083  004B26                     _PWM2_16BIT_Period_SetInterruptHandler:
  2084                           	callstack 117
  2085  004B26                     
  2086                           ;mcc_generated_files/pwm2_16bit.c: 202: void PWM2_16BIT_Period_SetInterruptHandler(void 
      +                          (* InterruptHandler)(void));mcc_generated_files/pwm2_16bit.c: 203: {;mcc_generated_files
      +                          /pwm2_16bit.c: 204:     PWM2_16BIT_Period_InterruptHandler = InterruptHandler;
  2087  004B26  C608  F5D1         	movff	PWM2_16BIT_Period_SetInterruptHandler@InterruptHandler,_PWM2_16BIT_Period_Interru
      +                          ptHandler
  2088  004B2A  C609  F5D2         	movff	PWM2_16BIT_Period_SetInterruptHandler@InterruptHandler+1,_PWM2_16BIT_Period_Inter
      +                          ruptHandler+1
  2089  004B2E  0012               	return		;funcret
  2090  004B30                     __end_of_PWM2_16BIT_Period_SetInterruptHandler:
  2091                           	callstack 0
  2092                           
  2093 ;; *************** function _PWM1_16BIT_Initialize *****************
  2094 ;; Defined at:
  2095 ;;		line 63 in file "mcc_generated_files/pwm1_16bit.c"
  2096 ;; Parameters:    Size  Location     Type
  2097 ;;		None
  2098 ;; Auto vars:     Size  Location     Type
  2099 ;;		None
  2100 ;; Return value:  Size  Location     Type
  2101 ;;                  1    wreg      void 
  2102 ;; Registers used:
  2103 ;;		wreg, status,2, status,0, cstack
  2104 ;; Tracked objects:
  2105 ;;		On entry : 0/0
  2106 ;;		On exit  : 0/0
  2107 ;;		Unchanged: 0/0
  2108 ;; Data sizes:     COMRAM   BANK5   BANK6   BANK7   BANK8   BANK9  BANK10  BANK11  BANK12  BANK13  BANK14  BANK15  BANK1
      +6  BANK17  BANK18  BANK19  BANK20  BANK21  BANK22  BANK23  BANK24  BANK25  BANK26  BANK27  BANK28  BANK29  BANK30  BANK3
      +1  BANK32  BANK33  BANK34  BANK35  BANK36  BANK37
  2109 ;;      Params:         0       0       0       0       0       0       0       0       0       0       0       0       
      +0       0       0       0       0       0       0       0       0       0       0       0       0       0       0       
      +0       0       0       0       0       0       0
  2110 ;;      Locals:         0       0       0       0       0       0       0       0       0       0       0       0       
      +0       0       0       0       0       0       0       0       0       0       0       0       0       0       0       
      +0       0       0       0       0       0       0
  2111 ;;      Temps:          0       0       0       0       0       0       0       0       0       0       0       0       
      +0       0       0       0       0       0       0       0       0       0       0       0       0       0       0       
      +0       0       0       0       0       0       0
  2112 ;;      Totals:         0       0       0       0       0       0       0       0       0       0       0       0       
      +0       0       0       0       0       0       0       0       0       0       0       0       0       0       0       
      +0       0       0       0       0       0       0
  2113 ;;Total ram usage:        0 bytes
  2114 ;; Hardware stack levels used:    1
  2115 ;; Hardware stack levels required when called:    9
  2116 ;; This function calls:
  2117 ;;		_PWM1_16BIT_Period_SetInterruptHandler
  2118 ;;		_PWM1_16BIT_Slice1Output1_SetInterruptHandler
  2119 ;;		_PWM1_16BIT_Slice1Output2_SetInterruptHandler
  2120 ;; This function is called by:
  2121 ;;		_SYSTEM_Initialize
  2122 ;; This function uses a non-reentrant model
  2123 ;;
  2124                           
  2125                           	psect	text13
  2126  0043B6                     __ptext13:
  2127                           	callstack 0
  2128  0043B6                     _PWM1_16BIT_Initialize:
  2129                           	callstack 117
  2130  0043B6                     
  2131                           ;mcc_generated_files/pwm1_16bit.c: 66:     PWM1ERS = 0x00;
  2132  0043B6  0E00               	movlw	0
  2133  0043B8  6E60               	movwf	96,c	;volatile
  2134                           
  2135                           ;mcc_generated_files/pwm1_16bit.c: 69:     PWM1CLK = 0x02;
  2136  0043BA  0E02               	movlw	2
  2137  0043BC  6E61               	movwf	97,c	;volatile
  2138                           
  2139                           ;mcc_generated_files/pwm1_16bit.c: 72:     PWM1LDS = 0x00;
  2140  0043BE  0E00               	movlw	0
  2141  0043C0  6E62               	movwf	98,c	;volatile
  2142                           
  2143                           ;mcc_generated_files/pwm1_16bit.c: 75:     PWM1PRL = 0x3D;
  2144  0043C2  0E3D               	movlw	61
  2145  0043C4  6E63               	movwf	99,c	;volatile
  2146                           
  2147                           ;mcc_generated_files/pwm1_16bit.c: 78:     PWM1PRH = 0x00;
  2148  0043C6  0E00               	movlw	0
  2149  0043C8  6E64               	movwf	100,c	;volatile
  2150                           
  2151                           ;mcc_generated_files/pwm1_16bit.c: 81:     PWM1CPRE = 0xFE;
  2152  0043CA  0EFE               	movlw	254
  2153  0043CC  6E65               	movwf	101,c	;volatile
  2154                           
  2155                           ;mcc_generated_files/pwm1_16bit.c: 84:     PWM1PIPOS = 0x00;
  2156  0043CE  0E00               	movlw	0
  2157  0043D0  6E66               	movwf	102,c	;volatile
  2158                           
  2159                           ;mcc_generated_files/pwm1_16bit.c: 87:     PWM1GIR = 0x00;
  2160  0043D2  0E00               	movlw	0
  2161  0043D4  6E67               	movwf	103,c	;volatile
  2162                           
  2163                           ;mcc_generated_files/pwm1_16bit.c: 90:     PWM1GIE = 0x00;
  2164  0043D6  0E00               	movlw	0
  2165  0043D8  6E68               	movwf	104,c	;volatile
  2166                           
  2167                           ;mcc_generated_files/pwm1_16bit.c: 93:     PWM1S1CFG = 0x00;
  2168  0043DA  0E00               	movlw	0
  2169  0043DC  6E6A               	movwf	106,c	;volatile
  2170                           
  2171                           ;mcc_generated_files/pwm1_16bit.c: 96:     PWM1S1P1L = 0x1F;
  2172  0043DE  0E1F               	movlw	31
  2173  0043E0  6E6B               	movwf	107,c	;volatile
  2174                           
  2175                           ;mcc_generated_files/pwm1_16bit.c: 99:     PWM1S1P1H = 0x00;
  2176  0043E2  0E00               	movlw	0
  2177  0043E4  6E6C               	movwf	108,c	;volatile
  2178                           
  2179                           ;mcc_generated_files/pwm1_16bit.c: 102:     PWM1S1P2L = 0x1F;
  2180  0043E6  0E1F               	movlw	31
  2181  0043E8  6E6D               	movwf	109,c	;volatile
  2182                           
  2183                           ;mcc_generated_files/pwm1_16bit.c: 105:     PWM1S1P2H = 0x00;
  2184  0043EA  0E00               	movlw	0
  2185  0043EC  6E6E               	movwf	110,c	;volatile
  2186  0043EE                     
  2187                           ;mcc_generated_files/pwm1_16bit.c: 108:     PIR4bits.PWM1PIF = 0;
  2188  0043EE  9CB2               	bcf	178,6,c	;volatile
  2189  0043F0                     
  2190                           ;mcc_generated_files/pwm1_16bit.c: 111:     PIR4bits.PWM1IF = 0;
  2191  0043F0  9EB2               	bcf	178,7,c	;volatile
  2192  0043F2                     
  2193                           ;mcc_generated_files/pwm1_16bit.c: 114:     PWM1GIRbits.S1P1IF = 0;
  2194  0043F2  9067               	bcf	103,0,c	;volatile
  2195  0043F4                     
  2196                           ;mcc_generated_files/pwm1_16bit.c: 117:     PWM1GIRbits.S1P2IF = 0;
  2197  0043F4  9267               	bcf	103,1,c	;volatile
  2198  0043F6                     
  2199                           ;mcc_generated_files/pwm1_16bit.c: 120:     PIE4bits.PWM1IE = 0;
  2200  0043F6  9EA2               	bcf	162,7,c	;volatile
  2201  0043F8                     
  2202                           ;mcc_generated_files/pwm1_16bit.c: 123:     PIE4bits.PWM1PIE = 0;
  2203  0043F8  9CA2               	bcf	162,6,c	;volatile
  2204  0043FA                     
  2205                           ;mcc_generated_files/pwm1_16bit.c: 126:     PWM1_16BIT_Slice1Output1_SetInterruptHandler
      +                          (PWM1_16BIT_Slice1Output1_DefaultInterruptHandler);
  2206  0043FA  0E00               	movlw	0
  2207  0043FC  0106               	movlb	6	; () banked
  2208  0043FE  6F08               	movwf	PWM1_16BIT_Slice1Output1_SetInterruptHandler@InterruptHandler& (0+255),b
  2209  004400  0E00               	movlw	0
  2210  004402  6F09               	movwf	(PWM1_16BIT_Slice1Output1_SetInterruptHandler@InterruptHandler+1)& (0+255),b
  2211  004404  EC9D  F025         	call	_PWM1_16BIT_Slice1Output1_SetInterruptHandler	;wreg free
  2212  004408                     
  2213                           ;mcc_generated_files/pwm1_16bit.c: 127:     PWM1_16BIT_Slice1Output2_SetInterruptHandler
      +                          (PWM1_16BIT_Slice1Output2_DefaultInterruptHandler);
  2214  004408  0E00               	movlw	0
  2215  00440A  0106               	movlb	6	; () banked
  2216  00440C  6F08               	movwf	PWM1_16BIT_Slice1Output2_SetInterruptHandler@InterruptHandler& (0+255),b
  2217  00440E  0E00               	movlw	0
  2218  004410  6F09               	movwf	(PWM1_16BIT_Slice1Output2_SetInterruptHandler@InterruptHandler+1)& (0+255),b
  2219  004412  EC98  F025         	call	_PWM1_16BIT_Slice1Output2_SetInterruptHandler	;wreg free
  2220  004416                     
  2221                           ;mcc_generated_files/pwm1_16bit.c: 128:     PWM1_16BIT_Period_SetInterruptHandler(PWM1_1
      +                          6BIT_Period_DefaultInterruptHandler);
  2222  004416  0E00               	movlw	0
  2223  004418  0106               	movlb	6	; () banked
  2224  00441A  6F08               	movwf	PWM1_16BIT_Period_SetInterruptHandler@InterruptHandler& (0+255),b
  2225  00441C  0E00               	movlw	0
  2226  00441E  6F09               	movwf	(PWM1_16BIT_Period_SetInterruptHandler@InterruptHandler+1)& (0+255),b
  2227  004420  ECA2  F025         	call	_PWM1_16BIT_Period_SetInterruptHandler	;wreg free
  2228  004424                     
  2229                           ;mcc_generated_files/pwm1_16bit.c: 131:     PWM1CON = 0x80;
  2230  004424  0E80               	movlw	128
  2231  004426  6E69               	movwf	105,c	;volatile
  2232  004428  0012               	return		;funcret
  2233  00442A                     __end_of_PWM1_16BIT_Initialize:
  2234                           	callstack 0
  2235                           
  2236 ;; *************** function _PWM1_16BIT_Slice1Output2_SetInterruptHandler *****************
  2237 ;; Defined at:
  2238 ;;		line 197 in file "mcc_generated_files/pwm1_16bit.c"
  2239 ;; Parameters:    Size  Location     Type
  2240 ;;  InterruptHan    2    0[BANK6 ] PTR FTN()void 
  2241 ;;		 -> PWM1_16BIT_Slice1Output2_DefaultInterruptHandler(1), 
  2242 ;; Auto vars:     Size  Location     Type
  2243 ;;		None
  2244 ;; Return value:  Size  Location     Type
  2245 ;;                  1    wreg      void 
  2246 ;; Registers used:
  2247 ;;		wreg, status,2, status,0
  2248 ;; Tracked objects:
  2249 ;;		On entry : 0/0
  2250 ;;		On exit  : 0/0
  2251 ;;		Unchanged: 0/0
  2252 ;; Data sizes:     COMRAM   BANK5   BANK6   BANK7   BANK8   BANK9  BANK10  BANK11  BANK12  BANK13  BANK14  BANK15  BANK1
      +6  BANK17  BANK18  BANK19  BANK20  BANK21  BANK22  BANK23  BANK24  BANK25  BANK26  BANK27  BANK28  BANK29  BANK30  BANK3
      +1  BANK32  BANK33  BANK34  BANK35  BANK36  BANK37
  2253 ;;      Params:         0       0       2       0       0       0       0       0       0       0       0       0       
      +0       0       0       0       0       0       0       0       0       0       0       0       0       0       0       
      +0       0       0       0       0       0       0
  2254 ;;      Locals:         0       0       0       0       0       0       0       0       0       0       0       0       
      +0       0       0       0       0       0       0       0       0       0       0       0       0       0       0       
      +0       0       0       0       0       0       0
  2255 ;;      Temps:          0       0       0       0       0       0       0       0       0       0       0       0       
      +0       0       0       0       0       0       0       0       0       0       0       0       0       0       0       
      +0       0       0       0       0       0       0
  2256 ;;      Totals:         0       0       2       0       0       0       0       0       0       0       0       0       
      +0       0       0       0       0       0       0       0       0       0       0       0       0       0       0       
      +0       0       0       0       0       0       0
  2257 ;;Total ram usage:        2 bytes
  2258 ;; Hardware stack levels used:    1
  2259 ;; Hardware stack levels required when called:    8
  2260 ;; This function calls:
  2261 ;;		Nothing
  2262 ;; This function is called by:
  2263 ;;		_PWM1_16BIT_Initialize
  2264 ;; This function uses a non-reentrant model
  2265 ;;
  2266                           
  2267                           	psect	text14
  2268  004B30                     __ptext14:
  2269                           	callstack 0
  2270  004B30                     _PWM1_16BIT_Slice1Output2_SetInterruptHandler:
  2271                           	callstack 117
  2272  004B30                     
  2273                           ;mcc_generated_files/pwm1_16bit.c: 197: void PWM1_16BIT_Slice1Output2_SetInterruptHandle
      +                          r(void (* InterruptHandler)(void));mcc_generated_files/pwm1_16bit.c: 198: {;mcc_generate
      +                          d_files/pwm1_16bit.c: 199:     PWM1_16BIT_Slice1Output2_InterruptHandler = InterruptHand
      +                          ler;
  2274  004B30  C608  F590         	movff	PWM1_16BIT_Slice1Output2_SetInterruptHandler@InterruptHandler,_PWM1_16BIT_Slice1O
      +                          utput2_InterruptHandler
  2275  004B34  C609  F591         	movff	PWM1_16BIT_Slice1Output2_SetInterruptHandler@InterruptHandler+1,_PWM1_16BIT_Slice
      +                          1Output2_InterruptHandler+1
  2276  004B38  0012               	return		;funcret
  2277  004B3A                     __end_of_PWM1_16BIT_Slice1Output2_SetInterruptHandler:
  2278                           	callstack 0
  2279                           
  2280 ;; *************** function _PWM1_16BIT_Slice1Output1_SetInterruptHandler *****************
  2281 ;; Defined at:
  2282 ;;		line 192 in file "mcc_generated_files/pwm1_16bit.c"
  2283 ;; Parameters:    Size  Location     Type
  2284 ;;  InterruptHan    2    0[BANK6 ] PTR FTN()void 
  2285 ;;		 -> PWM1_16BIT_Slice1Output1_DefaultInterruptHandler(1), 
  2286 ;; Auto vars:     Size  Location     Type
  2287 ;;		None
  2288 ;; Return value:  Size  Location     Type
  2289 ;;                  1    wreg      void 
  2290 ;; Registers used:
  2291 ;;		wreg, status,2, status,0
  2292 ;; Tracked objects:
  2293 ;;		On entry : 0/0
  2294 ;;		On exit  : 0/0
  2295 ;;		Unchanged: 0/0
  2296 ;; Data sizes:     COMRAM   BANK5   BANK6   BANK7   BANK8   BANK9  BANK10  BANK11  BANK12  BANK13  BANK14  BANK15  BANK1
      +6  BANK17  BANK18  BANK19  BANK20  BANK21  BANK22  BANK23  BANK24  BANK25  BANK26  BANK27  BANK28  BANK29  BANK30  BANK3
      +1  BANK32  BANK33  BANK34  BANK35  BANK36  BANK37
  2297 ;;      Params:         0       0       2       0       0       0       0       0       0       0       0       0       
      +0       0       0       0       0       0       0       0       0       0       0       0       0       0       0       
      +0       0       0       0       0       0       0
  2298 ;;      Locals:         0       0       0       0       0       0       0       0       0       0       0       0       
      +0       0       0       0       0       0       0       0       0       0       0       0       0       0       0       
      +0       0       0       0       0       0       0
  2299 ;;      Temps:          0       0       0       0       0       0       0       0       0       0       0       0       
      +0       0       0       0       0       0       0       0       0       0       0       0       0       0       0       
      +0       0       0       0       0       0       0
  2300 ;;      Totals:         0       0       2       0       0       0       0       0       0       0       0       0       
      +0       0       0       0       0       0       0       0       0       0       0       0       0       0       0       
      +0       0       0       0       0       0       0
  2301 ;;Total ram usage:        2 bytes
  2302 ;; Hardware stack levels used:    1
  2303 ;; Hardware stack levels required when called:    8
  2304 ;; This function calls:
  2305 ;;		Nothing
  2306 ;; This function is called by:
  2307 ;;		_PWM1_16BIT_Initialize
  2308 ;; This function uses a non-reentrant model
  2309 ;;
  2310                           
  2311                           	psect	text15
  2312  004B3A                     __ptext15:
  2313                           	callstack 0
  2314  004B3A                     _PWM1_16BIT_Slice1Output1_SetInterruptHandler:
  2315                           	callstack 117
  2316  004B3A                     
  2317                           ;mcc_generated_files/pwm1_16bit.c: 192: void PWM1_16BIT_Slice1Output1_SetInterruptHandle
      +                          r(void (* InterruptHandler)(void));mcc_generated_files/pwm1_16bit.c: 193: {;mcc_generate
      +                          d_files/pwm1_16bit.c: 194:     PWM1_16BIT_Slice1Output1_InterruptHandler = InterruptHand
      +                          ler;
  2318  004B3A  C608  F592         	movff	PWM1_16BIT_Slice1Output1_SetInterruptHandler@InterruptHandler,_PWM1_16BIT_Slice1O
      +                          utput1_InterruptHandler
  2319  004B3E  C609  F593         	movff	PWM1_16BIT_Slice1Output1_SetInterruptHandler@InterruptHandler+1,_PWM1_16BIT_Slice
      +                          1Output1_InterruptHandler+1
  2320  004B42  0012               	return		;funcret
  2321  004B44                     __end_of_PWM1_16BIT_Slice1Output1_SetInterruptHandler:
  2322                           	callstack 0
  2323                           
  2324 ;; *************** function _PWM1_16BIT_Period_SetInterruptHandler *****************
  2325 ;; Defined at:
  2326 ;;		line 202 in file "mcc_generated_files/pwm1_16bit.c"
  2327 ;; Parameters:    Size  Location     Type
  2328 ;;  InterruptHan    2    0[BANK6 ] PTR FTN()void 
  2329 ;;		 -> PWM1_16BIT_Period_DefaultInterruptHandler(1), 
  2330 ;; Auto vars:     Size  Location     Type
  2331 ;;		None
  2332 ;; Return value:  Size  Location     Type
  2333 ;;                  1    wreg      void 
  2334 ;; Registers used:
  2335 ;;		wreg, status,2, status,0
  2336 ;; Tracked objects:
  2337 ;;		On entry : 0/0
  2338 ;;		On exit  : 0/0
  2339 ;;		Unchanged: 0/0
  2340 ;; Data sizes:     COMRAM   BANK5   BANK6   BANK7   BANK8   BANK9  BANK10  BANK11  BANK12  BANK13  BANK14  BANK15  BANK1
      +6  BANK17  BANK18  BANK19  BANK20  BANK21  BANK22  BANK23  BANK24  BANK25  BANK26  BANK27  BANK28  BANK29  BANK30  BANK3
      +1  BANK32  BANK33  BANK34  BANK35  BANK36  BANK37
  2341 ;;      Params:         0       0       2       0       0       0       0       0       0       0       0       0       
      +0       0       0       0       0       0       0       0       0       0       0       0       0       0       0       
      +0       0       0       0       0       0       0
  2342 ;;      Locals:         0       0       0       0       0       0       0       0       0       0       0       0       
      +0       0       0       0       0       0       0       0       0       0       0       0       0       0       0       
      +0       0       0       0       0       0       0
  2343 ;;      Temps:          0       0       0       0       0       0       0       0       0       0       0       0       
      +0       0       0       0       0       0       0       0       0       0       0       0       0       0       0       
      +0       0       0       0       0       0       0
  2344 ;;      Totals:         0       0       2       0       0       0       0       0       0       0       0       0       
      +0       0       0       0       0       0       0       0       0       0       0       0       0       0       0       
      +0       0       0       0       0       0       0
  2345 ;;Total ram usage:        2 bytes
  2346 ;; Hardware stack levels used:    1
  2347 ;; Hardware stack levels required when called:    8
  2348 ;; This function calls:
  2349 ;;		Nothing
  2350 ;; This function is called by:
  2351 ;;		_PWM1_16BIT_Initialize
  2352 ;; This function uses a non-reentrant model
  2353 ;;
  2354                           
  2355                           	psect	text16
  2356  004B44                     __ptext16:
  2357                           	callstack 0
  2358  004B44                     _PWM1_16BIT_Period_SetInterruptHandler:
  2359                           	callstack 117
  2360  004B44                     
  2361                           ;mcc_generated_files/pwm1_16bit.c: 202: void PWM1_16BIT_Period_SetInterruptHandler(void 
      +                          (* InterruptHandler)(void));mcc_generated_files/pwm1_16bit.c: 203: {;mcc_generated_files
      +                          /pwm1_16bit.c: 204:     PWM1_16BIT_Period_InterruptHandler = InterruptHandler;
  2362  004B44  C608  F58E         	movff	PWM1_16BIT_Period_SetInterruptHandler@InterruptHandler,_PWM1_16BIT_Period_Interru
      +                          ptHandler
  2363  004B48  C609  F58F         	movff	PWM1_16BIT_Period_SetInterruptHandler@InterruptHandler+1,_PWM1_16BIT_Period_Inter
      +                          ruptHandler+1
  2364  004B4C  0012               	return		;funcret
  2365  004B4E                     __end_of_PWM1_16BIT_Period_SetInterruptHandler:
  2366                           	callstack 0
  2367                           
  2368 ;; *************** function _PMD_Initialize *****************
  2369 ;; Defined at:
  2370 ;;		line 80 in file "mcc_generated_files/mcc.c"
  2371 ;; Parameters:    Size  Location     Type
  2372 ;;		None
  2373 ;; Auto vars:     Size  Location     Type
  2374 ;;		None
  2375 ;; Return value:  Size  Location     Type
  2376 ;;                  1    wreg      void 
  2377 ;; Registers used:
  2378 ;;		wreg, status,2
  2379 ;; Tracked objects:
  2380 ;;		On entry : 0/0
  2381 ;;		On exit  : 0/0
  2382 ;;		Unchanged: 0/0
  2383 ;; Data sizes:     COMRAM   BANK5   BANK6   BANK7   BANK8   BANK9  BANK10  BANK11  BANK12  BANK13  BANK14  BANK15  BANK1
      +6  BANK17  BANK18  BANK19  BANK20  BANK21  BANK22  BANK23  BANK24  BANK25  BANK26  BANK27  BANK28  BANK29  BANK30  BANK3
      +1  BANK32  BANK33  BANK34  BANK35  BANK36  BANK37
  2384 ;;      Params:         0       0       0       0       0       0       0       0       0       0       0       0       
      +0       0       0       0       0       0       0       0       0       0       0       0       0       0       0       
      +0       0       0       0       0       0       0
  2385 ;;      Locals:         0       0       0       0       0       0       0       0       0       0       0       0       
      +0       0       0       0       0       0       0       0       0       0       0       0       0       0       0       
      +0       0       0       0       0       0       0
  2386 ;;      Temps:          0       0       0       0       0       0       0       0       0       0       0       0       
      +0       0       0       0       0       0       0       0       0       0       0       0       0       0       0       
      +0       0       0       0       0       0       0
  2387 ;;      Totals:         0       0       0       0       0       0       0       0       0       0       0       0       
      +0       0       0       0       0       0       0       0       0       0       0       0       0       0       0       
      +0       0       0       0       0       0       0
  2388 ;;Total ram usage:        0 bytes
  2389 ;; Hardware stack levels used:    1
  2390 ;; Hardware stack levels required when called:    8
  2391 ;; This function calls:
  2392 ;;		Nothing
  2393 ;; This function is called by:
  2394 ;;		_SYSTEM_Initialize
  2395 ;; This function uses a non-reentrant model
  2396 ;;
  2397                           
  2398                           	psect	text17
  2399  0049A0                     __ptext17:
  2400                           	callstack 0
  2401  0049A0                     _PMD_Initialize:
  2402                           	callstack 118
  2403  0049A0                     
  2404                           ;mcc_generated_files/mcc.c: 83:     PMD0 = 0x00;
  2405  0049A0  0E00               	movlw	0
  2406  0049A2  0100               	movlb	0	; () banked
  2407  0049A4  6F60               	movwf	96,b	;volatile
  2408                           
  2409                           ;mcc_generated_files/mcc.c: 85:     PMD1 = 0x00;
  2410  0049A6  0E00               	movlw	0
  2411  0049A8  6F61               	movwf	97,b	;volatile
  2412                           
  2413                           ;mcc_generated_files/mcc.c: 87:     PMD2 = 0x00;
  2414  0049AA  0E00               	movlw	0
  2415  0049AC  6F62               	movwf	98,b	;volatile
  2416                           
  2417                           ;mcc_generated_files/mcc.c: 89:     PMD3 = 0x00;
  2418  0049AE  0E00               	movlw	0
  2419  0049B0  6F63               	movwf	99,b	;volatile
  2420                           
  2421                           ;mcc_generated_files/mcc.c: 91:     PMD4 = 0x00;
  2422  0049B2  0E00               	movlw	0
  2423  0049B4  6F64               	movwf	100,b	;volatile
  2424                           
  2425                           ;mcc_generated_files/mcc.c: 93:     PMD5 = 0x00;
  2426  0049B6  0E00               	movlw	0
  2427  0049B8  6F65               	movwf	101,b	;volatile
  2428                           
  2429                           ;mcc_generated_files/mcc.c: 95:     PMD6 = 0x00;
  2430  0049BA  0E00               	movlw	0
  2431  0049BC  6F66               	movwf	102,b	;volatile
  2432                           
  2433                           ;mcc_generated_files/mcc.c: 97:     PMD7 = 0x00;
  2434  0049BE  0E00               	movlw	0
  2435  0049C0  6F67               	movwf	103,b	;volatile
  2436                           
  2437                           ;mcc_generated_files/mcc.c: 99:     PMD8 = 0x00;
  2438  0049C2  0E00               	movlw	0
  2439  0049C4  6F68               	movwf	104,b	;volatile
  2440  0049C6                     
  2441                           ; BSR set to: 0
  2442  0049C6  0012               	return		;funcret
  2443  0049C8                     __end_of_PMD_Initialize:
  2444                           	callstack 0
  2445                           
  2446 ;; *************** function _PIN_MANAGER_Initialize *****************
  2447 ;; Defined at:
  2448 ;;		line 55 in file "mcc_generated_files/pin_manager.c"
  2449 ;; Parameters:    Size  Location     Type
  2450 ;;		None
  2451 ;; Auto vars:     Size  Location     Type
  2452 ;;		None
  2453 ;; Return value:  Size  Location     Type
  2454 ;;                  1    wreg      void 
  2455 ;; Registers used:
  2456 ;;		wreg, status,2
  2457 ;; Tracked objects:
  2458 ;;		On entry : 0/0
  2459 ;;		On exit  : 0/0
  2460 ;;		Unchanged: 0/0
  2461 ;; Data sizes:     COMRAM   BANK5   BANK6   BANK7   BANK8   BANK9  BANK10  BANK11  BANK12  BANK13  BANK14  BANK15  BANK1
      +6  BANK17  BANK18  BANK19  BANK20  BANK21  BANK22  BANK23  BANK24  BANK25  BANK26  BANK27  BANK28  BANK29  BANK30  BANK3
      +1  BANK32  BANK33  BANK34  BANK35  BANK36  BANK37
  2462 ;;      Params:         0       0       0       0       0       0       0       0       0       0       0       0       
      +0       0       0       0       0       0       0       0       0       0       0       0       0       0       0       
      +0       0       0       0       0       0       0
  2463 ;;      Locals:         0       0       0       0       0       0       0       0       0       0       0       0       
      +0       0       0       0       0       0       0       0       0       0       0       0       0       0       0       
      +0       0       0       0       0       0       0
  2464 ;;      Temps:          0       0       0       0       0       0       0       0       0       0       0       0       
      +0       0       0       0       0       0       0       0       0       0       0       0       0       0       0       
      +0       0       0       0       0       0       0
  2465 ;;      Totals:         0       0       0       0       0       0       0       0       0       0       0       0       
      +0       0       0       0       0       0       0       0       0       0       0       0       0       0       0       
      +0       0       0       0       0       0       0
  2466 ;;Total ram usage:        0 bytes
  2467 ;; Hardware stack levels used:    1
  2468 ;; Hardware stack levels required when called:    8
  2469 ;; This function calls:
  2470 ;;		Nothing
  2471 ;; This function is called by:
  2472 ;;		_SYSTEM_Initialize
  2473 ;; This function uses a non-reentrant model
  2474 ;;
  2475                           
  2476                           	psect	text18
  2477  00449E                     __ptext18:
  2478                           	callstack 0
  2479  00449E                     _PIN_MANAGER_Initialize:
  2480                           	callstack 118
  2481  00449E                     
  2482                           ;mcc_generated_files/pin_manager.c: 60:     LATA = 0x00;
  2483  00449E  0E00               	movlw	0
  2484  0044A0  6EBE               	movwf	190,c	;volatile
  2485                           
  2486                           ;mcc_generated_files/pin_manager.c: 61:     LATB = 0x00;
  2487  0044A2  0E00               	movlw	0
  2488  0044A4  6EBF               	movwf	191,c	;volatile
  2489                           
  2490                           ;mcc_generated_files/pin_manager.c: 62:     LATC = 0x00;
  2491  0044A6  0E00               	movlw	0
  2492  0044A8  6EC0               	movwf	192,c	;volatile
  2493                           
  2494                           ;mcc_generated_files/pin_manager.c: 67:     TRISE = 0x08;
  2495  0044AA  0E08               	movlw	8
  2496  0044AC  6ECA               	movwf	202,c	;volatile
  2497                           
  2498                           ;mcc_generated_files/pin_manager.c: 68:     TRISA = 0xEF;
  2499  0044AE  0EEF               	movlw	239
  2500  0044B0  6EC6               	movwf	198,c	;volatile
  2501                           
  2502                           ;mcc_generated_files/pin_manager.c: 69:     TRISB = 0xC8;
  2503  0044B2  0EC8               	movlw	200
  2504  0044B4  6EC7               	movwf	199,c	;volatile
  2505                           
  2506                           ;mcc_generated_files/pin_manager.c: 70:     TRISC = 0xDC;
  2507  0044B6  0EDC               	movlw	220
  2508  0044B8  6EC8               	movwf	200,c	;volatile
  2509                           
  2510                           ;mcc_generated_files/pin_manager.c: 75:     ANSELC = 0xD8;
  2511  0044BA  0ED8               	movlw	216
  2512  0044BC  0104               	movlb	4	; () banked
  2513  0044BE  6F10               	movwf	16,b	;volatile
  2514                           
  2515                           ;mcc_generated_files/pin_manager.c: 76:     ANSELB = 0x40;
  2516  0044C0  0E40               	movlw	64
  2517  0044C2  6F08               	movwf	8,b	;volatile
  2518                           
  2519                           ;mcc_generated_files/pin_manager.c: 77:     ANSELA = 0xCF;
  2520  0044C4  0ECF               	movlw	207
  2521  0044C6  6F00               	movwf	0,b	;volatile
  2522                           
  2523                           ;mcc_generated_files/pin_manager.c: 82:     WPUE = 0x00;
  2524  0044C8  0E00               	movlw	0
  2525  0044CA  6F21               	movwf	33,b	;volatile
  2526                           
  2527                           ;mcc_generated_files/pin_manager.c: 83:     WPUB = 0x00;
  2528  0044CC  0E00               	movlw	0
  2529  0044CE  6F09               	movwf	9,b	;volatile
  2530                           
  2531                           ;mcc_generated_files/pin_manager.c: 84:     WPUA = 0x00;
  2532  0044D0  0E00               	movlw	0
  2533  0044D2  6F01               	movwf	1,b	;volatile
  2534                           
  2535                           ;mcc_generated_files/pin_manager.c: 85:     WPUC = 0x00;
  2536  0044D4  0E00               	movlw	0
  2537  0044D6  6F11               	movwf	17,b	;volatile
  2538                           
  2539                           ;mcc_generated_files/pin_manager.c: 90:     ODCONA = 0x00;
  2540  0044D8  0E00               	movlw	0
  2541  0044DA  6F02               	movwf	2,b	;volatile
  2542                           
  2543                           ;mcc_generated_files/pin_manager.c: 91:     ODCONB = 0x00;
  2544  0044DC  0E00               	movlw	0
  2545  0044DE  6F0A               	movwf	10,b	;volatile
  2546                           
  2547                           ;mcc_generated_files/pin_manager.c: 92:     ODCONC = 0x00;
  2548  0044E0  0E00               	movlw	0
  2549  0044E2  6F12               	movwf	18,b	;volatile
  2550  0044E4                     
  2551                           ; BSR set to: 4
  2552                           ;mcc_generated_files/pin_manager.c: 97:     SLRCONA = 0xFF;
  2553  0044E4  6903               	setf	3,b	;volatile
  2554  0044E6                     
  2555                           ; BSR set to: 4
  2556                           ;mcc_generated_files/pin_manager.c: 98:     SLRCONB = 0xFF;
  2557  0044E6  690B               	setf	11,b	;volatile
  2558  0044E8                     
  2559                           ; BSR set to: 4
  2560                           ;mcc_generated_files/pin_manager.c: 99:     SLRCONC = 0xFF;
  2561  0044E8  6913               	setf	19,b	;volatile
  2562  0044EA                     
  2563                           ; BSR set to: 4
  2564                           ;mcc_generated_files/pin_manager.c: 104:     INLVLA = 0xFF;
  2565  0044EA  6904               	setf	4,b	;volatile
  2566  0044EC                     
  2567                           ; BSR set to: 4
  2568                           ;mcc_generated_files/pin_manager.c: 105:     INLVLB = 0xFF;
  2569  0044EC  690C               	setf	12,b	;volatile
  2570  0044EE                     
  2571                           ; BSR set to: 4
  2572                           ;mcc_generated_files/pin_manager.c: 106:     INLVLC = 0xFF;
  2573  0044EE  6914               	setf	20,b	;volatile
  2574                           
  2575                           ;mcc_generated_files/pin_manager.c: 107:     INLVLE = 0x08;
  2576  0044F0  0E08               	movlw	8
  2577  0044F2  6F24               	movwf	36,b	;volatile
  2578                           
  2579                           ;mcc_generated_files/pin_manager.c: 116:     RC0PPS = 0x18;
  2580  0044F4  0E18               	movlw	24
  2581  0044F6  0102               	movlb	2	; () banked
  2582  0044F8  6F11               	movwf	17,b	;volatile
  2583                           
  2584                           ;mcc_generated_files/pin_manager.c: 117:     ADACTPPS = 0x0F;
  2585  0044FA  0E0F               	movlw	15
  2586  0044FC  6F69               	movwf	105,b	;volatile
  2587                           
  2588                           ;mcc_generated_files/pin_manager.c: 118:     INT0PPS = 0x05;
  2589  0044FE  0E05               	movlw	5
  2590  004500  6F3E               	movwf	62,b	;volatile
  2591                           
  2592                           ;mcc_generated_files/pin_manager.c: 119:     RC1PPS = 0x1A;
  2593  004502  0E1A               	movlw	26
  2594  004504  6F12               	movwf	18,b	;volatile
  2595                           
  2596                           ;mcc_generated_files/pin_manager.c: 120:     CANRXPPS = 0x0B;
  2597  004506  0E0B               	movlw	11
  2598  004508  6F3D               	movwf	61,b	;volatile
  2599                           
  2600                           ;mcc_generated_files/pin_manager.c: 121:     RB4PPS = 0x46;
  2601  00450A  0E46               	movlw	70
  2602  00450C  6F0D               	movwf	13,b	;volatile
  2603  00450E                     
  2604                           ; BSR set to: 2
  2605  00450E  0012               	return		;funcret
  2606  004510                     __end_of_PIN_MANAGER_Initialize:
  2607                           	callstack 0
  2608                           
  2609 ;; *************** function _OSCILLATOR_Initialize *****************
  2610 ;; Defined at:
  2611 ;;		line 66 in file "mcc_generated_files/mcc.c"
  2612 ;; Parameters:    Size  Location     Type
  2613 ;;		None
  2614 ;; Auto vars:     Size  Location     Type
  2615 ;;		None
  2616 ;; Return value:  Size  Location     Type
  2617 ;;                  1    wreg      void 
  2618 ;; Registers used:
  2619 ;;		wreg, status,2
  2620 ;; Tracked objects:
  2621 ;;		On entry : 0/0
  2622 ;;		On exit  : 0/0
  2623 ;;		Unchanged: 0/0
  2624 ;; Data sizes:     COMRAM   BANK5   BANK6   BANK7   BANK8   BANK9  BANK10  BANK11  BANK12  BANK13  BANK14  BANK15  BANK1
      +6  BANK17  BANK18  BANK19  BANK20  BANK21  BANK22  BANK23  BANK24  BANK25  BANK26  BANK27  BANK28  BANK29  BANK30  BANK3
      +1  BANK32  BANK33  BANK34  BANK35  BANK36  BANK37
  2625 ;;      Params:         0       0       0       0       0       0       0       0       0       0       0       0       
      +0       0       0       0       0       0       0       0       0       0       0       0       0       0       0       
      +0       0       0       0       0       0       0
  2626 ;;      Locals:         0       0       0       0       0       0       0       0       0       0       0       0       
      +0       0       0       0       0       0       0       0       0       0       0       0       0       0       0       
      +0       0       0       0       0       0       0
  2627 ;;      Temps:          0       0       0       0       0       0       0       0       0       0       0       0       
      +0       0       0       0       0       0       0       0       0       0       0       0       0       0       0       
      +0       0       0       0       0       0       0
  2628 ;;      Totals:         0       0       0       0       0       0       0       0       0       0       0       0       
      +0       0       0       0       0       0       0       0       0       0       0       0       0       0       0       
      +0       0       0       0       0       0       0
  2629 ;;Total ram usage:        0 bytes
  2630 ;; Hardware stack levels used:    1
  2631 ;; Hardware stack levels required when called:    8
  2632 ;; This function calls:
  2633 ;;		Nothing
  2634 ;; This function is called by:
  2635 ;;		_SYSTEM_Initialize
  2636 ;; This function uses a non-reentrant model
  2637 ;;
  2638                           
  2639                           	psect	text19
  2640  004A62                     __ptext19:
  2641                           	callstack 0
  2642  004A62                     _OSCILLATOR_Initialize:
  2643                           	callstack 118
  2644  004A62                     
  2645                           ;mcc_generated_files/mcc.c: 69:     OSCCON1 = 0x70;
  2646  004A62  0E70               	movlw	112
  2647  004A64  0100               	movlb	0	; () banked
  2648  004A66  6FAD               	movwf	173,b	;volatile
  2649                           
  2650                           ;mcc_generated_files/mcc.c: 71:     OSCCON3 = 0x00;
  2651  004A68  0E00               	movlw	0
  2652  004A6A  6FAF               	movwf	175,b	;volatile
  2653                           
  2654                           ;mcc_generated_files/mcc.c: 73:     OSCEN = 0x00;
  2655  004A6C  0E00               	movlw	0
  2656  004A6E  6FB3               	movwf	179,b	;volatile
  2657                           
  2658                           ;mcc_generated_files/mcc.c: 75:     OSCFRQ = 0x02;
  2659  004A70  0E02               	movlw	2
  2660  004A72  6FB1               	movwf	177,b	;volatile
  2661                           
  2662                           ;mcc_generated_files/mcc.c: 77:     OSCTUNE = 0x00;
  2663  004A74  0E00               	movlw	0
  2664  004A76  6FB0               	movwf	176,b	;volatile
  2665  004A78                     
  2666                           ; BSR set to: 0
  2667  004A78  0012               	return		;funcret
  2668  004A7A                     __end_of_OSCILLATOR_Initialize:
  2669                           	callstack 0
  2670                           
  2671 ;; *************** function _INTERRUPT_Initialize *****************
  2672 ;; Defined at:
  2673 ;;		line 52 in file "mcc_generated_files/interrupt_manager.c"
  2674 ;; Parameters:    Size  Location     Type
  2675 ;;		None
  2676 ;; Auto vars:     Size  Location     Type
  2677 ;;		None
  2678 ;; Return value:  Size  Location     Type
  2679 ;;                  1    wreg      void 
  2680 ;; Registers used:
  2681 ;;		None
  2682 ;; Tracked objects:
  2683 ;;		On entry : 0/0
  2684 ;;		On exit  : 0/0
  2685 ;;		Unchanged: 0/0
  2686 ;; Data sizes:     COMRAM   BANK5   BANK6   BANK7   BANK8   BANK9  BANK10  BANK11  BANK12  BANK13  BANK14  BANK15  BANK1
      +6  BANK17  BANK18  BANK19  BANK20  BANK21  BANK22  BANK23  BANK24  BANK25  BANK26  BANK27  BANK28  BANK29  BANK30  BANK3
      +1  BANK32  BANK33  BANK34  BANK35  BANK36  BANK37
  2687 ;;      Params:         0       0       0       0       0       0       0       0       0       0       0       0       
      +0       0       0       0       0       0       0       0       0       0       0       0       0       0       0       
      +0       0       0       0       0       0       0
  2688 ;;      Locals:         0       0       0       0       0       0       0       0       0       0       0       0       
      +0       0       0       0       0       0       0       0       0       0       0       0       0       0       0       
      +0       0       0       0       0       0       0
  2689 ;;      Temps:          0       0       0       0       0       0       0       0       0       0       0       0       
      +0       0       0       0       0       0       0       0       0       0       0       0       0       0       0       
      +0       0       0       0       0       0       0
  2690 ;;      Totals:         0       0       0       0       0       0       0       0       0       0       0       0       
      +0       0       0       0       0       0       0       0       0       0       0       0       0       0       0       
      +0       0       0       0       0       0       0
  2691 ;;Total ram usage:        0 bytes
  2692 ;; Hardware stack levels used:    1
  2693 ;; Hardware stack levels required when called:    8
  2694 ;; This function calls:
  2695 ;;		Nothing
  2696 ;; This function is called by:
  2697 ;;		_SYSTEM_Initialize
  2698 ;; This function uses a non-reentrant model
  2699 ;;
  2700                           
  2701                           	psect	text20
  2702  004C20                     __ptext20:
  2703                           	callstack 0
  2704  004C20                     _INTERRUPT_Initialize:
  2705                           	callstack 118
  2706  004C20                     
  2707                           ;mcc_generated_files/interrupt_manager.c: 55:     INTCON0bits.IPEN = 0;
  2708  004C20  9AD6               	bcf	214,5,c	;volatile
  2709  004C22  0012               	return		;funcret
  2710  004C24                     __end_of_INTERRUPT_Initialize:
  2711                           	callstack 0
  2712                           
  2713 ;; *************** function _EXT_INT_Initialize *****************
  2714 ;; Defined at:
  2715 ;;		line 62 in file "mcc_generated_files/ext_int.c"
  2716 ;; Parameters:    Size  Location     Type
  2717 ;;		None
  2718 ;; Auto vars:     Size  Location     Type
  2719 ;;		None
  2720 ;; Return value:  Size  Location     Type
  2721 ;;                  1    wreg      void 
  2722 ;; Registers used:
  2723 ;;		wreg, status,2, status,0, cstack
  2724 ;; Tracked objects:
  2725 ;;		On entry : 0/0
  2726 ;;		On exit  : 0/0
  2727 ;;		Unchanged: 0/0
  2728 ;; Data sizes:     COMRAM   BANK5   BANK6   BANK7   BANK8   BANK9  BANK10  BANK11  BANK12  BANK13  BANK14  BANK15  BANK1
      +6  BANK17  BANK18  BANK19  BANK20  BANK21  BANK22  BANK23  BANK24  BANK25  BANK26  BANK27  BANK28  BANK29  BANK30  BANK3
      +1  BANK32  BANK33  BANK34  BANK35  BANK36  BANK37
  2729 ;;      Params:         0       0       0       0       0       0       0       0       0       0       0       0       
      +0       0       0       0       0       0       0       0       0       0       0       0       0       0       0       
      +0       0       0       0       0       0       0
  2730 ;;      Locals:         0       0       0       0       0       0       0       0       0       0       0       0       
      +0       0       0       0       0       0       0       0       0       0       0       0       0       0       0       
      +0       0       0       0       0       0       0
  2731 ;;      Temps:          0       0       0       0       0       0       0       0       0       0       0       0       
      +0       0       0       0       0       0       0       0       0       0       0       0       0       0       0       
      +0       0       0       0       0       0       0
  2732 ;;      Totals:         0       0       0       0       0       0       0       0       0       0       0       0       
      +0       0       0       0       0       0       0       0       0       0       0       0       0       0       0       
      +0       0       0       0       0       0       0
  2733 ;;Total ram usage:        0 bytes
  2734 ;; Hardware stack levels used:    1
  2735 ;; Hardware stack levels required when called:    9
  2736 ;; This function calls:
  2737 ;;		_INT0_SetInterruptHandler
  2738 ;; This function is called by:
  2739 ;;		_SYSTEM_Initialize
  2740 ;; This function uses a non-reentrant model
  2741 ;;
  2742                           
  2743                           	psect	text21
  2744  004A92                     __ptext21:
  2745                           	callstack 0
  2746  004A92                     _EXT_INT_Initialize:
  2747                           	callstack 117
  2748  004A92                     
  2749                           ;mcc_generated_files/ext_int.c: 67:     (PIR1bits.INT0IF = 0);
  2750  004A92  90AF               	bcf	175,0,c	;volatile
  2751                           
  2752                           ;mcc_generated_files/ext_int.c: 68:     (INTCON0bits.INT0EDG = 1);
  2753  004A94  80D6               	bsf	214,0,c	;volatile
  2754  004A96                     
  2755                           ;mcc_generated_files/ext_int.c: 70:     INT0_SetInterruptHandler(INT0_DefaultInterruptHa
      +                          ndler);
  2756  004A96  0E3C               	movlw	low _INT0_DefaultInterruptHandler
  2757  004A98  0106               	movlb	6	; () banked
  2758  004A9A  6F08               	movwf	INT0_SetInterruptHandler@InterruptHandler& (0+255),b
  2759  004A9C  0E4C               	movlw	high _INT0_DefaultInterruptHandler
  2760  004A9E  6F09               	movwf	(INT0_SetInterruptHandler@InterruptHandler+1)& (0+255),b
  2761  004AA0  ECA7  F025         	call	_INT0_SetInterruptHandler	;wreg free
  2762  004AA4                     
  2763                           ;mcc_generated_files/ext_int.c: 71:     (PIE1bits.INT0IE = 1);
  2764  004AA4  809F               	bsf	159,0,c	;volatile
  2765  004AA6  0012               	return		;funcret
  2766  004AA8                     __end_of_EXT_INT_Initialize:
  2767                           	callstack 0
  2768                           
  2769 ;; *************** function _INT0_SetInterruptHandler *****************
  2770 ;; Defined at:
  2771 ;;		line 53 in file "mcc_generated_files/ext_int.c"
  2772 ;; Parameters:    Size  Location     Type
  2773 ;;  InterruptHan    2    0[BANK6 ] PTR FTN()void 
  2774 ;;		 -> INT0_DefaultInterruptHandler(1), 
  2775 ;; Auto vars:     Size  Location     Type
  2776 ;;		None
  2777 ;; Return value:  Size  Location     Type
  2778 ;;                  1    wreg      void 
  2779 ;; Registers used:
  2780 ;;		wreg, status,2, status,0
  2781 ;; Tracked objects:
  2782 ;;		On entry : 0/0
  2783 ;;		On exit  : 0/0
  2784 ;;		Unchanged: 0/0
  2785 ;; Data sizes:     COMRAM   BANK5   BANK6   BANK7   BANK8   BANK9  BANK10  BANK11  BANK12  BANK13  BANK14  BANK15  BANK1
      +6  BANK17  BANK18  BANK19  BANK20  BANK21  BANK22  BANK23  BANK24  BANK25  BANK26  BANK27  BANK28  BANK29  BANK30  BANK3
      +1  BANK32  BANK33  BANK34  BANK35  BANK36  BANK37
  2786 ;;      Params:         0       0       2       0       0       0       0       0       0       0       0       0       
      +0       0       0       0       0       0       0       0       0       0       0       0       0       0       0       
      +0       0       0       0       0       0       0
  2787 ;;      Locals:         0       0       0       0       0       0       0       0       0       0       0       0       
      +0       0       0       0       0       0       0       0       0       0       0       0       0       0       0       
      +0       0       0       0       0       0       0
  2788 ;;      Temps:          0       0       0       0       0       0       0       0       0       0       0       0       
      +0       0       0       0       0       0       0       0       0       0       0       0       0       0       0       
      +0       0       0       0       0       0       0
  2789 ;;      Totals:         0       0       2       0       0       0       0       0       0       0       0       0       
      +0       0       0       0       0       0       0       0       0       0       0       0       0       0       0       
      +0       0       0       0       0       0       0
  2790 ;;Total ram usage:        2 bytes
  2791 ;; Hardware stack levels used:    1
  2792 ;; Hardware stack levels required when called:    8
  2793 ;; This function calls:
  2794 ;;		Nothing
  2795 ;; This function is called by:
  2796 ;;		_EXT_INT_Initialize
  2797 ;; This function uses a non-reentrant model
  2798 ;;
  2799                           
  2800                           	psect	text22
  2801  004B4E                     __ptext22:
  2802                           	callstack 0
  2803  004B4E                     _INT0_SetInterruptHandler:
  2804                           	callstack 117
  2805  004B4E                     
  2806                           ;mcc_generated_files/ext_int.c: 54:     INT0_InterruptHandler = InterruptHandler;
  2807  004B4E  C608  F5E3         	movff	INT0_SetInterruptHandler@InterruptHandler,_INT0_InterruptHandler
  2808  004B52  C609  F5E4         	movff	INT0_SetInterruptHandler@InterruptHandler+1,_INT0_InterruptHandler+1
  2809  004B56  0012               	return		;funcret
  2810  004B58                     __end_of_INT0_SetInterruptHandler:
  2811                           	callstack 0
  2812                           
  2813 ;; *************** function _CAN1_Initialize *****************
  2814 ;; Defined at:
  2815 ;;		line 269 in file "mcc_generated_files/can1.c"
  2816 ;; Parameters:    Size  Location     Type
  2817 ;;		None
  2818 ;; Auto vars:     Size  Location     Type
  2819 ;;		None
  2820 ;; Return value:  Size  Location     Type
  2821 ;;                  1    wreg      void 
  2822 ;; Registers used:
  2823 ;;		wreg, fsr2l, fsr2h, status,2, status,0, prodl, prodh, cstack
  2824 ;; Tracked objects:
  2825 ;;		On entry : 0/0
  2826 ;;		On exit  : 0/0
  2827 ;;		Unchanged: 0/0
  2828 ;; Data sizes:     COMRAM   BANK5   BANK6   BANK7   BANK8   BANK9  BANK10  BANK11  BANK12  BANK13  BANK14  BANK15  BANK1
      +6  BANK17  BANK18  BANK19  BANK20  BANK21  BANK22  BANK23  BANK24  BANK25  BANK26  BANK27  BANK28  BANK29  BANK30  BANK3
      +1  BANK32  BANK33  BANK34  BANK35  BANK36  BANK37
  2829 ;;      Params:         0       0       0       0       0       0       0       0       0       0       0       0       
      +0       0       0       0       0       0       0       0       0       0       0       0       0       0       0       
      +0       0       0       0       0       0       0
  2830 ;;      Locals:         0       0       0       0       0       0       0       0       0       0       0       0       
      +0       0       0       0       0       0       0       0       0       0       0       0       0       0       0       
      +0       0       0       0       0       0       0
  2831 ;;      Temps:          0       0       0       0       0       0       0       0       0       0       0       0       
      +0       0       0       0       0       0       0       0       0       0       0       0       0       0       0       
      +0       0       0       0       0       0       0
  2832 ;;      Totals:         0       0       0       0       0       0       0       0       0       0       0       0       
      +0       0       0       0       0       0       0       0       0       0       0       0       0       0       0       
      +0       0       0       0       0       0       0
  2833 ;;Total ram usage:        0 bytes
  2834 ;; Hardware stack levels used:    1
  2835 ;; Hardware stack levels required when called:   10
  2836 ;; This function calls:
  2837 ;;		_CAN1_BitRateConfiguration
  2838 ;;		_CAN1_ErrorNotificationInterruptEnable
  2839 ;;		_CAN1_OperationModeSet
  2840 ;;		_CAN1_RX_FIFO_Configuration
  2841 ;;		_CAN1_RX_FIFO_FilterMaskConfiguration
  2842 ;;		_CAN1_RX_FIFO_ResetInfo
  2843 ;;		_CAN1_TX_FIFO_Configuration
  2844 ;; This function is called by:
  2845 ;;		_SYSTEM_Initialize
  2846 ;; This function uses a non-reentrant model
  2847 ;;
  2848                           
  2849                           	psect	text23
  2850  004510                     __ptext23:
  2851                           	callstack 0
  2852  004510                     _CAN1_Initialize:
  2853                           	callstack 116
  2854  004510                     
  2855                           ;mcc_generated_files/can1.c: 272:     C1CONHbits.ON = 1;
  2856  004510  0101               	movlb	1	; () banked
  2857  004512  8F01               	bsf	1,7,b	;volatile
  2858  004514                     
  2859                           ; BSR set to: 1
  2860                           ;mcc_generated_files/can1.c: 274:     if (CAN_OP_MODE_REQUEST_SUCCESS == CAN1_OperationM
      +                          odeSet(CAN_CONFIGURATION_MODE))
  2861  004514  0E04               	movlw	4
  2862  004516  EC18  F021         	call	_CAN1_OperationModeSet
  2863  00451A  0900               	iorlw	0
  2864  00451C  A4D8               	btfss	status,2,c
  2865  00451E  EF93  F022         	goto	u5751
  2866  004522  EF95  F022         	goto	u5750
  2867  004526                     u5751:
  2868  004526  EFB5  F022         	goto	l845
  2869  00452A                     u5750:
  2870  00452A                     
  2871                           ;mcc_generated_files/can1.c: 275:     {;mcc_generated_files/can1.c: 277:         C1FIFOB
      +                          A = 0x2600;
  2872  00452A  0E00               	movlw	0
  2873  00452C  0101               	movlb	1	; () banked
  2874  00452E  6F4C               	movwf	76,b	;volatile
  2875  004530  0E26               	movlw	38
  2876  004532  6F4D               	movwf	77,b	;volatile
  2877  004534  0E00               	movlw	0
  2878  004536  6F4E               	movwf	78,b	;volatile
  2879  004538  0E00               	movlw	0
  2880  00453A  6F4F               	movwf	79,b	;volatile
  2881                           
  2882                           ;mcc_generated_files/can1.c: 280:         C1CONL = 0x60;
  2883  00453C  0E60               	movlw	96
  2884  00453E  6F00               	movwf	0,b	;volatile
  2885                           
  2886                           ;mcc_generated_files/can1.c: 283:         C1CONH = 0x97;
  2887  004540  0E97               	movlw	151
  2888  004542  6F01               	movwf	1,b	;volatile
  2889                           
  2890                           ;mcc_generated_files/can1.c: 286:         C1CONU = 0x10;
  2891  004544  0E10               	movlw	16
  2892  004546  6F02               	movwf	2,b	;volatile
  2893  004548                     
  2894                           ; BSR set to: 1
  2895                           ;mcc_generated_files/can1.c: 288:         CAN1_BitRateConfiguration();
  2896  004548  EC5E  F025         	call	_CAN1_BitRateConfiguration	;wreg free
  2897  00454C                     
  2898                           ;mcc_generated_files/can1.c: 289:         CAN1_TX_FIFO_Configuration();
  2899  00454C  EC54  F025         	call	_CAN1_TX_FIFO_Configuration	;wreg free
  2900  004550                     
  2901                           ;mcc_generated_files/can1.c: 290:         CAN1_RX_FIFO_Configuration();
  2902  004550  EC92  F024         	call	_CAN1_RX_FIFO_Configuration	;wreg free
  2903  004554                     
  2904                           ;mcc_generated_files/can1.c: 291:         CAN1_RX_FIFO_FilterMaskConfiguration();
  2905  004554  ECF6  F024         	call	_CAN1_RX_FIFO_FilterMaskConfiguration	;wreg free
  2906  004558                     
  2907                           ;mcc_generated_files/can1.c: 292:         CAN1_RX_FIFO_ResetInfo();
  2908  004558  EC09  F024         	call	_CAN1_RX_FIFO_ResetInfo	;wreg free
  2909  00455C                     
  2910                           ;mcc_generated_files/can1.c: 293:         CAN1_ErrorNotificationInterruptEnable();
  2911  00455C  EC64  F021         	call	_CAN1_ErrorNotificationInterruptEnable	;wreg free
  2912  004560                     
  2913                           ;mcc_generated_files/can1.c: 294:         CAN1_OperationModeSet(CAN_NORMAL_2_0_MODE);
  2914  004560  0E06               	movlw	6
  2915  004562  EC18  F021         	call	_CAN1_OperationModeSet
  2916  004566  9AC7               	bcf	199,5,c	;volatile
  2917  004568  9ABF               	bcf	191,5,c	;volatile
  2918  00456A                     l845:
  2919  00456A  0012               	return		;funcret
  2920  00456C                     __end_of_CAN1_Initialize:
  2921                           	callstack 0
  2922                           
  2923 ;; *************** function _CAN1_TX_FIFO_Configuration *****************
  2924 ;; Defined at:
  2925 ;;		line 211 in file "mcc_generated_files/can1.c"
  2926 ;; Parameters:    Size  Location     Type
  2927 ;;		None
  2928 ;; Auto vars:     Size  Location     Type
  2929 ;;		None
  2930 ;; Return value:  Size  Location     Type
  2931 ;;                  1    wreg      void 
  2932 ;; Registers used:
  2933 ;;		wreg, status,2
  2934 ;; Tracked objects:
  2935 ;;		On entry : 0/0
  2936 ;;		On exit  : 0/0
  2937 ;;		Unchanged: 0/0
  2938 ;; Data sizes:     COMRAM   BANK5   BANK6   BANK7   BANK8   BANK9  BANK10  BANK11  BANK12  BANK13  BANK14  BANK15  BANK1
      +6  BANK17  BANK18  BANK19  BANK20  BANK21  BANK22  BANK23  BANK24  BANK25  BANK26  BANK27  BANK28  BANK29  BANK30  BANK3
      +1  BANK32  BANK33  BANK34  BANK35  BANK36  BANK37
  2939 ;;      Params:         0       0       0       0       0       0       0       0       0       0       0       0       
      +0       0       0       0       0       0       0       0       0       0       0       0       0       0       0       
      +0       0       0       0       0       0       0
  2940 ;;      Locals:         0       0       0       0       0       0       0       0       0       0       0       0       
      +0       0       0       0       0       0       0       0       0       0       0       0       0       0       0       
      +0       0       0       0       0       0       0
  2941 ;;      Temps:          0       0       0       0       0       0       0       0       0       0       0       0       
      +0       0       0       0       0       0       0       0       0       0       0       0       0       0       0       
      +0       0       0       0       0       0       0
  2942 ;;      Totals:         0       0       0       0       0       0       0       0       0       0       0       0       
      +0       0       0       0       0       0       0       0       0       0       0       0       0       0       0       
      +0       0       0       0       0       0       0
  2943 ;;Total ram usage:        0 bytes
  2944 ;; Hardware stack levels used:    1
  2945 ;; Hardware stack levels required when called:    8
  2946 ;; This function calls:
  2947 ;;		Nothing
  2948 ;; This function is called by:
  2949 ;;		_CAN1_Initialize
  2950 ;; This function uses a non-reentrant model
  2951 ;;
  2952                           
  2953                           	psect	text24
  2954  004AA8                     __ptext24:
  2955                           	callstack 0
  2956  004AA8                     _CAN1_TX_FIFO_Configuration:
  2957                           	callstack 117
  2958  004AA8                     
  2959                           ;mcc_generated_files/can1.c: 214:     C1TXQCONL = 0x10;
  2960  004AA8  0E10               	movlw	16
  2961  004AAA  0101               	movlb	1	; () banked
  2962  004AAC  6F50               	movwf	80,b	;volatile
  2963                           
  2964                           ;mcc_generated_files/can1.c: 217:     C1TXQCONH = 0x04;
  2965  004AAE  0E04               	movlw	4
  2966  004AB0  6F51               	movwf	81,b	;volatile
  2967                           
  2968                           ;mcc_generated_files/can1.c: 220:     C1TXQCONU = 0x61;
  2969  004AB2  0E61               	movlw	97
  2970  004AB4  6F52               	movwf	82,b	;volatile
  2971                           
  2972                           ;mcc_generated_files/can1.c: 223:     C1TXQCONT = 0x05;
  2973  004AB6  0E05               	movlw	5
  2974  004AB8  6F53               	movwf	83,b	;volatile
  2975  004ABA                     
  2976                           ; BSR set to: 1
  2977  004ABA  0012               	return		;funcret
  2978  004ABC                     __end_of_CAN1_TX_FIFO_Configuration:
  2979                           	callstack 0
  2980                           
  2981 ;; *************** function _CAN1_RX_FIFO_ResetInfo *****************
  2982 ;; Defined at:
  2983 ;;		line 153 in file "mcc_generated_files/can1.c"
  2984 ;; Parameters:    Size  Location     Type
  2985 ;;		None
  2986 ;; Auto vars:     Size  Location     Type
  2987 ;;  index           1    0[BANK6 ] unsigned char 
  2988 ;; Return value:  Size  Location     Type
  2989 ;;                  1    wreg      void 
  2990 ;; Registers used:
  2991 ;;		wreg, fsr2l, fsr2h, status,2, status,0, prodl, prodh
  2992 ;; Tracked objects:
  2993 ;;		On entry : 0/0
  2994 ;;		On exit  : 0/0
  2995 ;;		Unchanged: 0/0
  2996 ;; Data sizes:     COMRAM   BANK5   BANK6   BANK7   BANK8   BANK9  BANK10  BANK11  BANK12  BANK13  BANK14  BANK15  BANK1
      +6  BANK17  BANK18  BANK19  BANK20  BANK21  BANK22  BANK23  BANK24  BANK25  BANK26  BANK27  BANK28  BANK29  BANK30  BANK3
      +1  BANK32  BANK33  BANK34  BANK35  BANK36  BANK37
  2997 ;;      Params:         0       0       0       0       0       0       0       0       0       0       0       0       
      +0       0       0       0       0       0       0       0       0       0       0       0       0       0       0       
      +0       0       0       0       0       0       0
  2998 ;;      Locals:         0       0       1       0       0       0       0       0       0       0       0       0       
      +0       0       0       0       0       0       0       0       0       0       0       0       0       0       0       
      +0       0       0       0       0       0       0
  2999 ;;      Temps:          0       0       0       0       0       0       0       0       0       0       0       0       
      +0       0       0       0       0       0       0       0       0       0       0       0       0       0       0       
      +0       0       0       0       0       0       0
  3000 ;;      Totals:         0       0       1       0       0       0       0       0       0       0       0       0       
      +0       0       0       0       0       0       0       0       0       0       0       0       0       0       0       
      +0       0       0       0       0       0       0
  3001 ;;Total ram usage:        1 bytes
  3002 ;; Hardware stack levels used:    1
  3003 ;; Hardware stack levels required when called:    8
  3004 ;; This function calls:
  3005 ;;		Nothing
  3006 ;; This function is called by:
  3007 ;;		_CAN1_Initialize
  3008 ;; This function uses a non-reentrant model
  3009 ;;
  3010                           
  3011                           	psect	text25
  3012  004812                     __ptext25:
  3013                           	callstack 0
  3014  004812                     _CAN1_RX_FIFO_ResetInfo:
  3015                           	callstack 117
  3016  004812                     
  3017                           ;mcc_generated_files/can1.c: 155:     uint8_t index;;mcc_generated_files/can1.c: 157:   
      +                            for (index = 0; index < (1U); index++)
  3018  004812  0E00               	movlw	0
  3019  004814  0106               	movlb	6	; () banked
  3020  004816  6F08               	movwf	CAN1_RX_FIFO_ResetInfo@index& (0+255),b
  3021  004818                     l6558:
  3022                           
  3023                           ; BSR set to: 6
  3024                           ;mcc_generated_files/can1.c: 158:     {;mcc_generated_files/can1.c: 159:         rxFifos
      +                          [index].fifoHead = 0;
  3025  004818  5108               	movf	CAN1_RX_FIFO_ResetInfo@index& (0+255),w,b
  3026  00481A  0D02               	mullw	2
  3027  00481C  0EF4               	movlw	low (_rxFifos+1)
  3028  00481E  24F3               	addwf	243,w,c
  3029  004820  6ED9               	movwf	fsr2l,c
  3030  004822  0E05               	movlw	high (_rxFifos+1)
  3031  004824  20F4               	addwfc	prodh,w,c
  3032  004826  6EDA               	movwf	fsr2h,c
  3033  004828  0E00               	movlw	0
  3034  00482A  6EDF               	movwf	indf2,c
  3035  00482C                     
  3036                           ; BSR set to: 6
  3037                           ;mcc_generated_files/can1.c: 160:     }
  3038  00482C  2B08               	incf	CAN1_RX_FIFO_ResetInfo@index& (0+255),f,b
  3039  00482E                     
  3040                           ; BSR set to: 6
  3041  00482E  5108               	movf	CAN1_RX_FIFO_ResetInfo@index& (0+255),w,b
  3042  004830  B4D8               	btfsc	status,2,c
  3043  004832  EF1D  F024         	goto	u5621
  3044  004836  EF1F  F024         	goto	u5620
  3045  00483A                     u5621:
  3046  00483A  EF0C  F024         	goto	l6558
  3047  00483E                     u5620:
  3048  00483E                     
  3049                           ; BSR set to: 6
  3050  00483E  0012               	return		;funcret
  3051  004840                     __end_of_CAN1_RX_FIFO_ResetInfo:
  3052                           	callstack 0
  3053                           
  3054 ;; *************** function _CAN1_RX_FIFO_FilterMaskConfiguration *****************
  3055 ;; Defined at:
  3056 ;;		line 185 in file "mcc_generated_files/can1.c"
  3057 ;; Parameters:    Size  Location     Type
  3058 ;;		None
  3059 ;; Auto vars:     Size  Location     Type
  3060 ;;		None
  3061 ;; Return value:  Size  Location     Type
  3062 ;;                  1    wreg      void 
  3063 ;; Registers used:
  3064 ;;		wreg, status,2
  3065 ;; Tracked objects:
  3066 ;;		On entry : 0/0
  3067 ;;		On exit  : 0/0
  3068 ;;		Unchanged: 0/0
  3069 ;; Data sizes:     COMRAM   BANK5   BANK6   BANK7   BANK8   BANK9  BANK10  BANK11  BANK12  BANK13  BANK14  BANK15  BANK1
      +6  BANK17  BANK18  BANK19  BANK20  BANK21  BANK22  BANK23  BANK24  BANK25  BANK26  BANK27  BANK28  BANK29  BANK30  BANK3
      +1  BANK32  BANK33  BANK34  BANK35  BANK36  BANK37
  3070 ;;      Params:         0       0       0       0       0       0       0       0       0       0       0       0       
      +0       0       0       0       0       0       0       0       0       0       0       0       0       0       0       
      +0       0       0       0       0       0       0
  3071 ;;      Locals:         0       0       0       0       0       0       0       0       0       0       0       0       
      +0       0       0       0       0       0       0       0       0       0       0       0       0       0       0       
      +0       0       0       0       0       0       0
  3072 ;;      Temps:          0       0       0       0       0       0       0       0       0       0       0       0       
      +0       0       0       0       0       0       0       0       0       0       0       0       0       0       0       
      +0       0       0       0       0       0       0
  3073 ;;      Totals:         0       0       0       0       0       0       0       0       0       0       0       0       
      +0       0       0       0       0       0       0       0       0       0       0       0       0       0       0       
      +0       0       0       0       0       0       0
  3074 ;;Total ram usage:        0 bytes
  3075 ;; Hardware stack levels used:    1
  3076 ;; Hardware stack levels required when called:    8
  3077 ;; This function calls:
  3078 ;;		Nothing
  3079 ;; This function is called by:
  3080 ;;		_CAN1_Initialize
  3081 ;; This function uses a non-reentrant model
  3082 ;;
  3083                           
  3084                           	psect	text26
  3085  0049EC                     __ptext26:
  3086                           	callstack 0
  3087  0049EC                     _CAN1_RX_FIFO_FilterMaskConfiguration:
  3088                           	callstack 117
  3089  0049EC                     
  3090                           ;mcc_generated_files/can1.c: 199:     C1FLTOBJ1L = 0x5F;
  3091  0049EC  0E5F               	movlw	95
  3092  0049EE  0101               	movlb	1	; () banked
  3093  0049F0  6F94               	movwf	148,b	;volatile
  3094  0049F2                     
  3095                           ; BSR set to: 1
  3096                           ;mcc_generated_files/can1.c: 200:     C1FLTOBJ1H = 0xFF;
  3097  0049F2  6995               	setf	149,b	;volatile
  3098  0049F4                     
  3099                           ; BSR set to: 1
  3100                           ;mcc_generated_files/can1.c: 201:     C1FLTOBJ1U = 0xFF;
  3101  0049F4  6996               	setf	150,b	;volatile
  3102  0049F6                     
  3103                           ; BSR set to: 1
  3104                           ;mcc_generated_files/can1.c: 202:     C1FLTOBJ1T = 0xFF;
  3105  0049F6  6997               	setf	151,b	;volatile
  3106                           
  3107                           ;mcc_generated_files/can1.c: 204:     C1MASK1L = 0x00;
  3108  0049F8  0E00               	movlw	0
  3109  0049FA  6F98               	movwf	152,b	;volatile
  3110                           
  3111                           ;mcc_generated_files/can1.c: 205:     C1MASK1H = 0x00;
  3112  0049FC  0E00               	movlw	0
  3113  0049FE  6F99               	movwf	153,b	;volatile
  3114                           
  3115                           ;mcc_generated_files/can1.c: 206:     C1MASK1U = 0x00;
  3116  004A00  0E00               	movlw	0
  3117  004A02  6F9A               	movwf	154,b	;volatile
  3118                           
  3119                           ;mcc_generated_files/can1.c: 207:     C1MASK1T = 0x00;
  3120  004A04  0E00               	movlw	0
  3121  004A06  6F9B               	movwf	155,b	;volatile
  3122                           
  3123                           ;mcc_generated_files/can1.c: 208:     C1FLTCON0H = 0x81;
  3124  004A08  0E81               	movlw	129
  3125  004A0A  6F81               	movwf	129,b	;volatile
  3126  004A0C                     
  3127                           ; BSR set to: 1
  3128  004A0C  0012               	return		;funcret
  3129  004A0E                     __end_of_CAN1_RX_FIFO_FilterMaskConfiguration:
  3130                           	callstack 0
  3131                           
  3132 ;; *************** function _CAN1_RX_FIFO_Configuration *****************
  3133 ;; Defined at:
  3134 ;;		line 163 in file "mcc_generated_files/can1.c"
  3135 ;; Parameters:    Size  Location     Type
  3136 ;;		None
  3137 ;; Auto vars:     Size  Location     Type
  3138 ;;		None
  3139 ;; Return value:  Size  Location     Type
  3140 ;;                  1    wreg      void 
  3141 ;; Registers used:
  3142 ;;		wreg, status,2, status,0, cstack
  3143 ;; Tracked objects:
  3144 ;;		On entry : 0/0
  3145 ;;		On exit  : 0/0
  3146 ;;		Unchanged: 0/0
  3147 ;; Data sizes:     COMRAM   BANK5   BANK6   BANK7   BANK8   BANK9  BANK10  BANK11  BANK12  BANK13  BANK14  BANK15  BANK1
      +6  BANK17  BANK18  BANK19  BANK20  BANK21  BANK22  BANK23  BANK24  BANK25  BANK26  BANK27  BANK28  BANK29  BANK30  BANK3
      +1  BANK32  BANK33  BANK34  BANK35  BANK36  BANK37
  3148 ;;      Params:         0       0       0       0       0       0       0       0       0       0       0       0       
      +0       0       0       0       0       0       0       0       0       0       0       0       0       0       0       
      +0       0       0       0       0       0       0
  3149 ;;      Locals:         0       0       0       0       0       0       0       0       0       0       0       0       
      +0       0       0       0       0       0       0       0       0       0       0       0       0       0       0       
      +0       0       0       0       0       0       0
  3150 ;;      Temps:          0       0       0       0       0       0       0       0       0       0       0       0       
      +0       0       0       0       0       0       0       0       0       0       0       0       0       0       0       
      +0       0       0       0       0       0       0
  3151 ;;      Totals:         0       0       0       0       0       0       0       0       0       0       0       0       
      +0       0       0       0       0       0       0       0       0       0       0       0       0       0       0       
      +0       0       0       0       0       0       0
  3152 ;;Total ram usage:        0 bytes
  3153 ;; Hardware stack levels used:    1
  3154 ;; Hardware stack levels required when called:    9
  3155 ;; This function calls:
  3156 ;;		_CAN1_SetFIFO1NotEmptyHandler
  3157 ;; This function is called by:
  3158 ;;		_CAN1_Initialize
  3159 ;; This function uses a non-reentrant model
  3160 ;;
  3161                           
  3162                           	psect	text27
  3163  004924                     __ptext27:
  3164                           	callstack 0
  3165  004924                     _CAN1_RX_FIFO_Configuration:
  3166                           	callstack 116
  3167  004924                     
  3168                           ;mcc_generated_files/can1.c: 166:     C1FIFOCON1L = 0x19;
  3169  004924  0E19               	movlw	25
  3170  004926  0101               	movlb	1	; () banked
  3171  004928  6F5C               	movwf	92,b	;volatile
  3172                           
  3173                           ;mcc_generated_files/can1.c: 169:     C1FIFOCON1H = 0x04;
  3174  00492A  0E04               	movlw	4
  3175  00492C  6F5D               	movwf	93,b	;volatile
  3176                           
  3177                           ;mcc_generated_files/can1.c: 172:     C1FIFOCON1U = 0x60;
  3178  00492E  0E60               	movlw	96
  3179  004930  6F5E               	movwf	94,b	;volatile
  3180                           
  3181                           ;mcc_generated_files/can1.c: 175:     C1FIFOCON1T = 0x05;
  3182  004932  0E05               	movlw	5
  3183  004934  6F5F               	movwf	95,b	;volatile
  3184  004936                     
  3185                           ; BSR set to: 1
  3186                           ;mcc_generated_files/can1.c: 177:     CAN1_SetFIFO1NotEmptyHandler(DefaultFIFO1NotEmptyH
      +                          andler);
  3187  004936  0E1A               	movlw	low _DefaultFIFO1NotEmptyHandler
  3188  004938  0106               	movlb	6	; () banked
  3189  00493A  6F08               	movwf	CAN1_SetFIFO1NotEmptyHandler@handler& (0+255),b
  3190  00493C  0E4C               	movlw	high _DefaultFIFO1NotEmptyHandler
  3191  00493E  6F09               	movwf	(CAN1_SetFIFO1NotEmptyHandler@handler+1)& (0+255),b
  3192  004940  ECAC  F025         	call	_CAN1_SetFIFO1NotEmptyHandler	;wreg free
  3193  004944                     
  3194                           ;mcc_generated_files/can1.c: 179:     C1INTUbits.RXIE = 1;
  3195  004944  0101               	movlb	1	; () banked
  3196  004946  831E               	bsf	30,1,b	;volatile
  3197  004948                     
  3198                           ; BSR set to: 1
  3199                           ;mcc_generated_files/can1.c: 181:     PIR4bits.CANRXIF = 0;
  3200  004948  98B2               	bcf	178,4,c	;volatile
  3201  00494A                     
  3202                           ; BSR set to: 1
  3203                           ;mcc_generated_files/can1.c: 182:     PIE4bits.CANRXIE = 1;
  3204  00494A  88A2               	bsf	162,4,c	;volatile
  3205  00494C                     
  3206                           ; BSR set to: 1
  3207  00494C  0012               	return		;funcret
  3208  00494E                     __end_of_CAN1_RX_FIFO_Configuration:
  3209                           	callstack 0
  3210                           
  3211 ;; *************** function _CAN1_SetFIFO1NotEmptyHandler *****************
  3212 ;; Defined at:
  3213 ;;		line 735 in file "mcc_generated_files/can1.c"
  3214 ;; Parameters:    Size  Location     Type
  3215 ;;  handler         2    0[BANK6 ] PTR FTN()void 
  3216 ;;		 -> DefaultFIFO1NotEmptyHandler(1), 
  3217 ;; Auto vars:     Size  Location     Type
  3218 ;;		None
  3219 ;; Return value:  Size  Location     Type
  3220 ;;                  1    wreg      void 
  3221 ;; Registers used:
  3222 ;;		wreg, status,2, status,0
  3223 ;; Tracked objects:
  3224 ;;		On entry : 0/0
  3225 ;;		On exit  : 0/0
  3226 ;;		Unchanged: 0/0
  3227 ;; Data sizes:     COMRAM   BANK5   BANK6   BANK7   BANK8   BANK9  BANK10  BANK11  BANK12  BANK13  BANK14  BANK15  BANK1
      +6  BANK17  BANK18  BANK19  BANK20  BANK21  BANK22  BANK23  BANK24  BANK25  BANK26  BANK27  BANK28  BANK29  BANK30  BANK3
      +1  BANK32  BANK33  BANK34  BANK35  BANK36  BANK37
  3228 ;;      Params:         0       0       2       0       0       0       0       0       0       0       0       0       
      +0       0       0       0       0       0       0       0       0       0       0       0       0       0       0       
      +0       0       0       0       0       0       0
  3229 ;;      Locals:         0       0       0       0       0       0       0       0       0       0       0       0       
      +0       0       0       0       0       0       0       0       0       0       0       0       0       0       0       
      +0       0       0       0       0       0       0
  3230 ;;      Temps:          0       0       0       0       0       0       0       0       0       0       0       0       
      +0       0       0       0       0       0       0       0       0       0       0       0       0       0       0       
      +0       0       0       0       0       0       0
  3231 ;;      Totals:         0       0       2       0       0       0       0       0       0       0       0       0       
      +0       0       0       0       0       0       0       0       0       0       0       0       0       0       0       
      +0       0       0       0       0       0       0
  3232 ;;Total ram usage:        2 bytes
  3233 ;; Hardware stack levels used:    1
  3234 ;; Hardware stack levels required when called:    8
  3235 ;; This function calls:
  3236 ;;		Nothing
  3237 ;; This function is called by:
  3238 ;;		_CAN1_RX_FIFO_Configuration
  3239 ;; This function uses a non-reentrant model
  3240 ;;
  3241                           
  3242                           	psect	text28
  3243  004B58                     __ptext28:
  3244                           	callstack 0
  3245  004B58                     _CAN1_SetFIFO1NotEmptyHandler:
  3246                           	callstack 116
  3247  004B58                     
  3248                           ;mcc_generated_files/can1.c: 735: void CAN1_SetFIFO1NotEmptyHandler(void (*handler)(void
      +                          ));mcc_generated_files/can1.c: 736: {;mcc_generated_files/can1.c: 737:     CAN1_FIFO1Not
      +                          EmptyHandler = handler;
  3249  004B58  C608  F58C         	movff	CAN1_SetFIFO1NotEmptyHandler@handler,_CAN1_FIFO1NotEmptyHandler
  3250  004B5C  C609  F58D         	movff	CAN1_SetFIFO1NotEmptyHandler@handler+1,_CAN1_FIFO1NotEmptyHandler+1
  3251  004B60  0012               	return		;funcret
  3252  004B62                     __end_of_CAN1_SetFIFO1NotEmptyHandler:
  3253                           	callstack 0
  3254                           
  3255 ;; *************** function _CAN1_OperationModeSet *****************
  3256 ;; Defined at:
  3257 ;;		line 302 in file "mcc_generated_files/can1.c"
  3258 ;; Parameters:    Size  Location     Type
  3259 ;;  requestMode     1    wreg     const enum E22346
  3260 ;; Auto vars:     Size  Location     Type
  3261 ;;  requestMode     1    2[BANK6 ] const enum E22346
  3262 ;;  status          1    1[BANK6 ] enum E22356
  3263 ;;  opMode          1    0[BANK6 ] enum E22346
  3264 ;; Return value:  Size  Location     Type
  3265 ;;                  1    wreg      enum E22356
  3266 ;; Registers used:
  3267 ;;		wreg, status,2, status,0, cstack
  3268 ;; Tracked objects:
  3269 ;;		On entry : 0/0
  3270 ;;		On exit  : 0/0
  3271 ;;		Unchanged: 0/0
  3272 ;; Data sizes:     COMRAM   BANK5   BANK6   BANK7   BANK8   BANK9  BANK10  BANK11  BANK12  BANK13  BANK14  BANK15  BANK1
      +6  BANK17  BANK18  BANK19  BANK20  BANK21  BANK22  BANK23  BANK24  BANK25  BANK26  BANK27  BANK28  BANK29  BANK30  BANK3
      +1  BANK32  BANK33  BANK34  BANK35  BANK36  BANK37
  3273 ;;      Params:         0       0       0       0       0       0       0       0       0       0       0       0       
      +0       0       0       0       0       0       0       0       0       0       0       0       0       0       0       
      +0       0       0       0       0       0       0
  3274 ;;      Locals:         0       0       3       0       0       0       0       0       0       0       0       0       
      +0       0       0       0       0       0       0       0       0       0       0       0       0       0       0       
      +0       0       0       0       0       0       0
  3275 ;;      Temps:          0       0       0       0       0       0       0       0       0       0       0       0       
      +0       0       0       0       0       0       0       0       0       0       0       0       0       0       0       
      +0       0       0       0       0       0       0
  3276 ;;      Totals:         0       0       3       0       0       0       0       0       0       0       0       0       
      +0       0       0       0       0       0       0       0       0       0       0       0       0       0       0       
      +0       0       0       0       0       0       0
  3277 ;;Total ram usage:        3 bytes
  3278 ;; Hardware stack levels used:    1
  3279 ;; Hardware stack levels required when called:    9
  3280 ;; This function calls:
  3281 ;;		_CAN1_OperationModeGet
  3282 ;; This function is called by:
  3283 ;;		_CAN1_Initialize
  3284 ;;		_CAN1_Sleep
  3285 ;; This function uses a non-reentrant model
  3286 ;;
  3287                           
  3288                           	psect	text29
  3289  004230                     __ptext29:
  3290                           	callstack 0
  3291  004230                     _CAN1_OperationModeSet:
  3292                           	callstack 116
  3293                           
  3294                           ;incstack = 0
  3295                           ;CAN1_OperationModeSet@requestMode stored from wreg
  3296  004230  0106               	movlb	6	; () banked
  3297  004232  6F0A               	movwf	CAN1_OperationModeSet@requestMode& (0+255),b
  3298  004234                     
  3299                           ;mcc_generated_files/can1.c: 302: CAN_OP_MODE_STATUS CAN1_OperationModeSet(const CAN_OP_
      +                          MODES requestMode);mcc_generated_files/can1.c: 303: {;mcc_generated_files/can1.c: 304:  
      +                             CAN_OP_MODE_STATUS status = CAN_OP_MODE_REQUEST_SUCCESS;
  3300  004234  0E00               	movlw	0
  3301  004236  0106               	movlb	6	; () banked
  3302  004238  6F09               	movwf	CAN1_OperationModeSet@status& (0+255),b
  3303  00423A                     
  3304                           ; BSR set to: 6
  3305                           ;mcc_generated_files/can1.c: 305:     CAN_OP_MODES opMode = CAN1_OperationModeGet();
  3306  00423A  ECB1  F025         	call	_CAN1_OperationModeGet	;wreg free
  3307  00423E  0106               	movlb	6	; () banked
  3308  004240  6F08               	movwf	CAN1_OperationModeSet@opMode& (0+255),b
  3309  004242                     
  3310                           ; BSR set to: 6
  3311                           ;mcc_generated_files/can1.c: 307:     if (CAN_CONFIGURATION_MODE == opMode
  3312  004242  0E04               	movlw	4
  3313  004244  1908               	xorwf	CAN1_OperationModeSet@opMode& (0+255),w,b
  3314  004246  B4D8               	btfsc	status,2,c
  3315  004248  EF28  F021         	goto	u5631
  3316  00424C  EF2A  F021         	goto	u5630
  3317  004250                     u5631:
  3318  004250  EF3B  F021         	goto	l6610
  3319  004254                     u5630:
  3320  004254                     
  3321                           ; BSR set to: 6
  3322  004254  050A               	decf	CAN1_OperationModeSet@requestMode& (0+255),w,b
  3323  004256  B4D8               	btfsc	status,2,c
  3324  004258  EF30  F021         	goto	u5641
  3325  00425C  EF32  F021         	goto	u5640
  3326  004260                     u5641:
  3327  004260  EF3B  F021         	goto	l6610
  3328  004264                     u5640:
  3329  004264                     
  3330                           ; BSR set to: 6
  3331  004264  0E04               	movlw	4
  3332  004266  190A               	xorwf	CAN1_OperationModeSet@requestMode& (0+255),w,b
  3333  004268  A4D8               	btfss	status,2,c
  3334  00426A  EF39  F021         	goto	u5651
  3335  00426E  EF3B  F021         	goto	u5650
  3336  004272                     u5651:
  3337  004272  EF60  F021         	goto	l6616
  3338  004276                     u5650:
  3339  004276                     l6610:
  3340                           
  3341                           ; BSR set to: 6
  3342                           ;mcc_generated_files/can1.c: 310:     {;mcc_generated_files/can1.c: 311:         C1CONTb
      +                          its.REQOP = requestMode;
  3343  004276  0101               	movlb	1	; () banked
  3344  004278  5103               	movf	3,w,b	;volatile
  3345  00427A  0106               	movlb	6	; () banked
  3346  00427C  190A               	xorwf	CAN1_OperationModeSet@requestMode& (0+255),w,b
  3347  00427E  0BF8               	andlw	-8
  3348  004280  190A               	xorwf	CAN1_OperationModeSet@requestMode& (0+255),w,b
  3349  004282  0101               	movlb	1	; () banked
  3350  004284  6F03               	movwf	3,b	;volatile
  3351                           
  3352                           ;mcc_generated_files/can1.c: 313:         while (C1CONUbits.OPMOD != requestMode)
  3353  004286  EF52  F021         	goto	l6614
  3354  00428A                     l852:
  3355                           
  3356                           ; BSR set to: 6
  3357                           ;mcc_generated_files/can1.c: 314:         {;mcc_generated_files/can1.c: 316:            
      +                           if (1 == C1INTHbits.SERRIF)
  3358  00428A  0101               	movlb	1	; () banked
  3359  00428C  A91D               	btfss	29,4,b	;volatile
  3360  00428E  EF4B  F021         	goto	u5661
  3361  004292  EF4D  F021         	goto	u5660
  3362  004296                     u5661:
  3363  004296  EF52  F021         	goto	l6614
  3364  00429A                     u5660:
  3365  00429A                     
  3366                           ; BSR set to: 1
  3367                           ;mcc_generated_files/can1.c: 317:             {;mcc_generated_files/can1.c: 318:        
      +                                   status = CAN_OP_MODE_SYS_ERROR_OCCURED;
  3368  00429A  0E02               	movlw	2
  3369  00429C  0106               	movlb	6	; () banked
  3370  00429E  6F09               	movwf	CAN1_OperationModeSet@status& (0+255),b
  3371                           
  3372                           ;mcc_generated_files/can1.c: 319:                 break;
  3373  0042A0  EF62  F021         	goto	l855
  3374  0042A4                     l6614:
  3375                           
  3376                           ; BSR set to: 1
  3377                           ;mcc_generated_files/can1.c: 313:         while (C1CONUbits.OPMOD != requestMode)
  3378  0042A4  3902               	swapf	2,w,b	;volatile
  3379  0042A6  32E8               	rrcf	wreg,f,c
  3380  0042A8  0B07               	andlw	7
  3381  0042AA  0106               	movlb	6	; () banked
  3382  0042AC  190A               	xorwf	CAN1_OperationModeSet@requestMode& (0+255),w,b
  3383  0042AE  A4D8               	btfss	status,2,c
  3384  0042B0  EF5C  F021         	goto	u5671
  3385  0042B4  EF5E  F021         	goto	u5670
  3386  0042B8                     u5671:
  3387  0042B8  EF45  F021         	goto	l852
  3388  0042BC                     u5670:
  3389  0042BC  EF62  F021         	goto	l855
  3390  0042C0                     l6616:
  3391                           
  3392                           ; BSR set to: 6
  3393                           ;mcc_generated_files/can1.c: 324:     {;mcc_generated_files/can1.c: 325:         status 
      +                          = CAN_OP_MODE_REQUEST_FAIL;
  3394  0042C0  0E01               	movlw	1
  3395  0042C2  6F09               	movwf	CAN1_OperationModeSet@status& (0+255),b
  3396  0042C4                     l855:
  3397                           
  3398                           ; BSR set to: 6
  3399                           ;mcc_generated_files/can1.c: 328:     return status;
  3400  0042C4  5109               	movf	CAN1_OperationModeSet@status& (0+255),w,b
  3401  0042C6                     
  3402                           ; BSR set to: 6
  3403  0042C6  0012               	return		;funcret
  3404  0042C8                     __end_of_CAN1_OperationModeSet:
  3405                           	callstack 0
  3406                           
  3407 ;; *************** function _CAN1_OperationModeGet *****************
  3408 ;; Defined at:
  3409 ;;		line 331 in file "mcc_generated_files/can1.c"
  3410 ;; Parameters:    Size  Location     Type
  3411 ;;		None
  3412 ;; Auto vars:     Size  Location     Type
  3413 ;;		None
  3414 ;; Return value:  Size  Location     Type
  3415 ;;                  1    wreg      enum E22346
  3416 ;; Registers used:
  3417 ;;		wreg, status,2, status,0
  3418 ;; Tracked objects:
  3419 ;;		On entry : 0/0
  3420 ;;		On exit  : 0/0
  3421 ;;		Unchanged: 0/0
  3422 ;; Data sizes:     COMRAM   BANK5   BANK6   BANK7   BANK8   BANK9  BANK10  BANK11  BANK12  BANK13  BANK14  BANK15  BANK1
      +6  BANK17  BANK18  BANK19  BANK20  BANK21  BANK22  BANK23  BANK24  BANK25  BANK26  BANK27  BANK28  BANK29  BANK30  BANK3
      +1  BANK32  BANK33  BANK34  BANK35  BANK36  BANK37
  3423 ;;      Params:         0       0       0       0       0       0       0       0       0       0       0       0       
      +0       0       0       0       0       0       0       0       0       0       0       0       0       0       0       
      +0       0       0       0       0       0       0
  3424 ;;      Locals:         0       0       0       0       0       0       0       0       0       0       0       0       
      +0       0       0       0       0       0       0       0       0       0       0       0       0       0       0       
      +0       0       0       0       0       0       0
  3425 ;;      Temps:          0       0       0       0       0       0       0       0       0       0       0       0       
      +0       0       0       0       0       0       0       0       0       0       0       0       0       0       0       
      +0       0       0       0       0       0       0
  3426 ;;      Totals:         0       0       0       0       0       0       0       0       0       0       0       0       
      +0       0       0       0       0       0       0       0       0       0       0       0       0       0       0       
      +0       0       0       0       0       0       0
  3427 ;;Total ram usage:        0 bytes
  3428 ;; Hardware stack levels used:    1
  3429 ;; Hardware stack levels required when called:    8
  3430 ;; This function calls:
  3431 ;;		Nothing
  3432 ;; This function is called by:
  3433 ;;		_CAN1_OperationModeSet
  3434 ;;		_ValidateTransmission
  3435 ;; This function uses a non-reentrant model
  3436 ;;
  3437                           
  3438                           	psect	text30
  3439  004B62                     __ptext30:
  3440                           	callstack 0
  3441  004B62                     _CAN1_OperationModeGet:
  3442                           	callstack 116
  3443  004B62                     
  3444                           ;mcc_generated_files/can1.c: 333:     return C1CONUbits.OPMOD;
  3445  004B62  0101               	movlb	1	; () banked
  3446  004B64  3902               	swapf	2,w,b	;volatile
  3447  004B66  32E8               	rrcf	wreg,f,c
  3448  004B68  0B07               	andlw	7
  3449  004B6A                     
  3450                           ; BSR set to: 1
  3451  004B6A  0012               	return		;funcret
  3452  004B6C                     __end_of_CAN1_OperationModeGet:
  3453                           	callstack 0
  3454                           
  3455 ;; *************** function _CAN1_ErrorNotificationInterruptEnable *****************
  3456 ;; Defined at:
  3457 ;;		line 243 in file "mcc_generated_files/can1.c"
  3458 ;; Parameters:    Size  Location     Type
  3459 ;;		None
  3460 ;; Auto vars:     Size  Location     Type
  3461 ;;		None
  3462 ;; Return value:  Size  Location     Type
  3463 ;;                  1    wreg      void 
  3464 ;; Registers used:
  3465 ;;		wreg, status,2, status,0, cstack
  3466 ;; Tracked objects:
  3467 ;;		On entry : 0/0
  3468 ;;		On exit  : 0/0
  3469 ;;		Unchanged: 0/0
  3470 ;; Data sizes:     COMRAM   BANK5   BANK6   BANK7   BANK8   BANK9  BANK10  BANK11  BANK12  BANK13  BANK14  BANK15  BANK1
      +6  BANK17  BANK18  BANK19  BANK20  BANK21  BANK22  BANK23  BANK24  BANK25  BANK26  BANK27  BANK28  BANK29  BANK30  BANK3
      +1  BANK32  BANK33  BANK34  BANK35  BANK36  BANK37
  3471 ;;      Params:         0       0       0       0       0       0       0       0       0       0       0       0       
      +0       0       0       0       0       0       0       0       0       0       0       0       0       0       0       
      +0       0       0       0       0       0       0
  3472 ;;      Locals:         0       0       0       0       0       0       0       0       0       0       0       0       
      +0       0       0       0       0       0       0       0       0       0       0       0       0       0       0       
      +0       0       0       0       0       0       0
  3473 ;;      Temps:          0       0       0       0       0       0       0       0       0       0       0       0       
      +0       0       0       0       0       0       0       0       0       0       0       0       0       0       0       
      +0       0       0       0       0       0       0
  3474 ;;      Totals:         0       0       0       0       0       0       0       0       0       0       0       0       
      +0       0       0       0       0       0       0       0       0       0       0       0       0       0       0       
      +0       0       0       0       0       0       0
  3475 ;;Total ram usage:        0 bytes
  3476 ;; Hardware stack levels used:    1
  3477 ;; Hardware stack levels required when called:    9
  3478 ;; This function calls:
  3479 ;;		_CAN1_SetBusErrorInterruptHandler
  3480 ;;		_CAN1_SetBusWakeUpActivityInterruptHandler
  3481 ;;		_CAN1_SetInvalidMessageInterruptHandler
  3482 ;;		_CAN1_SetModeChangeInterruptHandler
  3483 ;;		_CAN1_SetRxBufferOverFlowInterruptHandler
  3484 ;;		_CAN1_SetSystemErrorInterruptHandler
  3485 ;;		_CAN1_SetTxAttemptInterruptHandler
  3486 ;; This function is called by:
  3487 ;;		_CAN1_Initialize
  3488 ;; This function uses a non-reentrant model
  3489 ;;
  3490                           
  3491                           	psect	text31
  3492  0042C8                     __ptext31:
  3493                           	callstack 0
  3494  0042C8                     _CAN1_ErrorNotificationInterruptEnable:
  3495                           	callstack 116
  3496  0042C8                     
  3497                           ;mcc_generated_files/can1.c: 245:     CAN1_SetInvalidMessageInterruptHandler(DefaultInva
      +                          lidMessageHandler);
  3498  0042C8  0E46               	movlw	low _DefaultInvalidMessageHandler
  3499  0042CA  0106               	movlb	6	; () banked
  3500  0042CC  6F08               	movwf	CAN1_SetInvalidMessageInterruptHandler@handler& (0+255),b
  3501  0042CE  0E4C               	movlw	high _DefaultInvalidMessageHandler
  3502  0042D0  6F09               	movwf	(CAN1_SetInvalidMessageInterruptHandler@handler+1)& (0+255),b
  3503  0042D2  ECCA  F025         	call	_CAN1_SetInvalidMessageInterruptHandler	;wreg free
  3504                           
  3505                           ;mcc_generated_files/can1.c: 246:     CAN1_SetBusWakeUpActivityInterruptHandler(DefaultB
      +                          usWakeUpActivityHandler);
  3506  0042D6  0E48               	movlw	low _DefaultBusWakeUpActivityHandler
  3507  0042D8  0106               	movlb	6	; () banked
  3508  0042DA  6F08               	movwf	CAN1_SetBusWakeUpActivityInterruptHandler@handler& (0+255),b
  3509  0042DC  0E4C               	movlw	high _DefaultBusWakeUpActivityHandler
  3510  0042DE  6F09               	movwf	(CAN1_SetBusWakeUpActivityInterruptHandler@handler+1)& (0+255),b
  3511  0042E0  ECCF  F025         	call	_CAN1_SetBusWakeUpActivityInterruptHandler	;wreg free
  3512                           
  3513                           ;mcc_generated_files/can1.c: 247:     CAN1_SetBusErrorInterruptHandler(DefaultBusErrorHa
      +                          ndler);
  3514  0042E4  0E4A               	movlw	low _DefaultBusErrorHandler
  3515  0042E6  0106               	movlb	6	; () banked
  3516  0042E8  6F08               	movwf	CAN1_SetBusErrorInterruptHandler@handler& (0+255),b
  3517  0042EA  0E4C               	movlw	high _DefaultBusErrorHandler
  3518  0042EC  6F09               	movwf	(CAN1_SetBusErrorInterruptHandler@handler+1)& (0+255),b
  3519  0042EE  ECD4  F025         	call	_CAN1_SetBusErrorInterruptHandler	;wreg free
  3520                           
  3521                           ;mcc_generated_files/can1.c: 248:     CAN1_SetModeChangeInterruptHandler(DefaultModeChan
      +                          geHandler);
  3522  0042F2  0E44               	movlw	low _DefaultModeChangeHandler
  3523  0042F4  0106               	movlb	6	; () banked
  3524  0042F6  6F08               	movwf	CAN1_SetModeChangeInterruptHandler@handler& (0+255),b
  3525  0042F8  0E4C               	movlw	high _DefaultModeChangeHandler
  3526  0042FA  6F09               	movwf	(CAN1_SetModeChangeInterruptHandler@handler+1)& (0+255),b
  3527  0042FC  ECC5  F025         	call	_CAN1_SetModeChangeInterruptHandler	;wreg free
  3528                           
  3529                           ;mcc_generated_files/can1.c: 249:     CAN1_SetSystemErrorInterruptHandler(DefaultSystemE
      +                          rrorHandler);
  3530  004300  0E40               	movlw	low _DefaultSystemErrorHandler
  3531  004302  0106               	movlb	6	; () banked
  3532  004304  6F08               	movwf	CAN1_SetSystemErrorInterruptHandler@handler& (0+255),b
  3533  004306  0E4C               	movlw	high _DefaultSystemErrorHandler
  3534  004308  6F09               	movwf	(CAN1_SetSystemErrorInterruptHandler@handler+1)& (0+255),b
  3535  00430A  ECBB  F025         	call	_CAN1_SetSystemErrorInterruptHandler	;wreg free
  3536                           
  3537                           ;mcc_generated_files/can1.c: 250:     CAN1_SetTxAttemptInterruptHandler(DefaultTxAttempt
      +                          Handler);
  3538  00430E  0E3E               	movlw	low _DefaultTxAttemptHandler
  3539  004310  0106               	movlb	6	; () banked
  3540  004312  6F08               	movwf	CAN1_SetTxAttemptInterruptHandler@handler& (0+255),b
  3541  004314  0E4C               	movlw	high _DefaultTxAttemptHandler
  3542  004316  6F09               	movwf	(CAN1_SetTxAttemptInterruptHandler@handler+1)& (0+255),b
  3543  004318  ECB6  F025         	call	_CAN1_SetTxAttemptInterruptHandler	;wreg free
  3544                           
  3545                           ;mcc_generated_files/can1.c: 251:     CAN1_SetRxBufferOverFlowInterruptHandler(DefaultRx
      +                          BufferOverflowHandler);
  3546  00431C  0E42               	movlw	low _DefaultRxBufferOverflowHandler
  3547  00431E  0106               	movlb	6	; () banked
  3548  004320  6F08               	movwf	CAN1_SetRxBufferOverFlowInterruptHandler@handler& (0+255),b
  3549  004322  0E4C               	movlw	high _DefaultRxBufferOverflowHandler
  3550  004324  6F09               	movwf	(CAN1_SetRxBufferOverFlowInterruptHandler@handler+1)& (0+255),b
  3551  004326  ECC0  F025         	call	_CAN1_SetRxBufferOverFlowInterruptHandler	;wreg free
  3552  00432A                     
  3553                           ;mcc_generated_files/can1.c: 252:     PIR0bits.CANIF = 0;
  3554  00432A  9CAE               	bcf	174,6,c	;volatile
  3555  00432C                     
  3556                           ;mcc_generated_files/can1.c: 255:     C1INTL = 0x00;
  3557  00432C  0E00               	movlw	0
  3558  00432E  0101               	movlb	1	; () banked
  3559  004330  6F1C               	movwf	28,b	;volatile
  3560  004332                     
  3561                           ; BSR set to: 1
  3562                           ;mcc_generated_files/can1.c: 258:     C1INTH = 0x00;
  3563  004332  0E00               	movlw	0
  3564  004334  6F1D               	movwf	29,b	;volatile
  3565  004336                     
  3566                           ; BSR set to: 1
  3567                           ;mcc_generated_files/can1.c: 261:     C1INTU = 0x0A;
  3568  004336  0E0A               	movlw	10
  3569  004338  6F1E               	movwf	30,b	;volatile
  3570  00433A                     
  3571                           ; BSR set to: 1
  3572                           ;mcc_generated_files/can1.c: 264:     C1INTT = 0xFC;
  3573  00433A  0EFC               	movlw	252
  3574  00433C  6F1F               	movwf	31,b	;volatile
  3575  00433E                     
  3576                           ; BSR set to: 1
  3577                           ;mcc_generated_files/can1.c: 266:     PIE0bits.CANIE = 1;
  3578  00433E  8C9E               	bsf	158,6,c	;volatile
  3579  004340                     
  3580                           ; BSR set to: 1
  3581  004340  0012               	return		;funcret
  3582  004342                     __end_of_CAN1_ErrorNotificationInterruptEnable:
  3583                           	callstack 0
  3584                           
  3585 ;; *************** function _CAN1_SetTxAttemptInterruptHandler *****************
  3586 ;; Defined at:
  3587 ;;		line 672 in file "mcc_generated_files/can1.c"
  3588 ;; Parameters:    Size  Location     Type
  3589 ;;  handler         2    0[BANK6 ] PTR FTN()void 
  3590 ;;		 -> DefaultTxAttemptHandler(1), 
  3591 ;; Auto vars:     Size  Location     Type
  3592 ;;		None
  3593 ;; Return value:  Size  Location     Type
  3594 ;;                  1    wreg      void 
  3595 ;; Registers used:
  3596 ;;		wreg, status,2, status,0
  3597 ;; Tracked objects:
  3598 ;;		On entry : 0/0
  3599 ;;		On exit  : 0/0
  3600 ;;		Unchanged: 0/0
  3601 ;; Data sizes:     COMRAM   BANK5   BANK6   BANK7   BANK8   BANK9  BANK10  BANK11  BANK12  BANK13  BANK14  BANK15  BANK1
      +6  BANK17  BANK18  BANK19  BANK20  BANK21  BANK22  BANK23  BANK24  BANK25  BANK26  BANK27  BANK28  BANK29  BANK30  BANK3
      +1  BANK32  BANK33  BANK34  BANK35  BANK36  BANK37
  3602 ;;      Params:         0       0       2       0       0       0       0       0       0       0       0       0       
      +0       0       0       0       0       0       0       0       0       0       0       0       0       0       0       
      +0       0       0       0       0       0       0
  3603 ;;      Locals:         0       0       0       0       0       0       0       0       0       0       0       0       
      +0       0       0       0       0       0       0       0       0       0       0       0       0       0       0       
      +0       0       0       0       0       0       0
  3604 ;;      Temps:          0       0       0       0       0       0       0       0       0       0       0       0       
      +0       0       0       0       0       0       0       0       0       0       0       0       0       0       0       
      +0       0       0       0       0       0       0
  3605 ;;      Totals:         0       0       2       0       0       0       0       0       0       0       0       0       
      +0       0       0       0       0       0       0       0       0       0       0       0       0       0       0       
      +0       0       0       0       0       0       0
  3606 ;;Total ram usage:        2 bytes
  3607 ;; Hardware stack levels used:    1
  3608 ;; Hardware stack levels required when called:    8
  3609 ;; This function calls:
  3610 ;;		Nothing
  3611 ;; This function is called by:
  3612 ;;		_CAN1_ErrorNotificationInterruptEnable
  3613 ;; This function uses a non-reentrant model
  3614 ;;
  3615                           
  3616                           	psect	text32
  3617  004B6C                     __ptext32:
  3618                           	callstack 0
  3619  004B6C                     _CAN1_SetTxAttemptInterruptHandler:
  3620                           	callstack 116
  3621  004B6C                     
  3622                           ;mcc_generated_files/can1.c: 672: void CAN1_SetTxAttemptInterruptHandler(void (*handler)
      +                          (void));mcc_generated_files/can1.c: 673: {;mcc_generated_files/can1.c: 674:     CAN1_TxA
      +                          ttemptHandler = handler;
  3623  004B6C  C608  F580         	movff	CAN1_SetTxAttemptInterruptHandler@handler,_CAN1_TxAttemptHandler
  3624  004B70  C609  F581         	movff	CAN1_SetTxAttemptInterruptHandler@handler+1,_CAN1_TxAttemptHandler+1
  3625  004B74  0012               	return		;funcret
  3626  004B76                     __end_of_CAN1_SetTxAttemptInterruptHandler:
  3627                           	callstack 0
  3628                           
  3629 ;; *************** function _CAN1_SetSystemErrorInterruptHandler *****************
  3630 ;; Defined at:
  3631 ;;		line 667 in file "mcc_generated_files/can1.c"
  3632 ;; Parameters:    Size  Location     Type
  3633 ;;  handler         2    0[BANK6 ] PTR FTN()void 
  3634 ;;		 -> DefaultSystemErrorHandler(1), 
  3635 ;; Auto vars:     Size  Location     Type
  3636 ;;		None
  3637 ;; Return value:  Size  Location     Type
  3638 ;;                  1    wreg      void 
  3639 ;; Registers used:
  3640 ;;		wreg, status,2, status,0
  3641 ;; Tracked objects:
  3642 ;;		On entry : 0/0
  3643 ;;		On exit  : 0/0
  3644 ;;		Unchanged: 0/0
  3645 ;; Data sizes:     COMRAM   BANK5   BANK6   BANK7   BANK8   BANK9  BANK10  BANK11  BANK12  BANK13  BANK14  BANK15  BANK1
      +6  BANK17  BANK18  BANK19  BANK20  BANK21  BANK22  BANK23  BANK24  BANK25  BANK26  BANK27  BANK28  BANK29  BANK30  BANK3
      +1  BANK32  BANK33  BANK34  BANK35  BANK36  BANK37
  3646 ;;      Params:         0       0       2       0       0       0       0       0       0       0       0       0       
      +0       0       0       0       0       0       0       0       0       0       0       0       0       0       0       
      +0       0       0       0       0       0       0
  3647 ;;      Locals:         0       0       0       0       0       0       0       0       0       0       0       0       
      +0       0       0       0       0       0       0       0       0       0       0       0       0       0       0       
      +0       0       0       0       0       0       0
  3648 ;;      Temps:          0       0       0       0       0       0       0       0       0       0       0       0       
      +0       0       0       0       0       0       0       0       0       0       0       0       0       0       0       
      +0       0       0       0       0       0       0
  3649 ;;      Totals:         0       0       2       0       0       0       0       0       0       0       0       0       
      +0       0       0       0       0       0       0       0       0       0       0       0       0       0       0       
      +0       0       0       0       0       0       0
  3650 ;;Total ram usage:        2 bytes
  3651 ;; Hardware stack levels used:    1
  3652 ;; Hardware stack levels required when called:    8
  3653 ;; This function calls:
  3654 ;;		Nothing
  3655 ;; This function is called by:
  3656 ;;		_CAN1_ErrorNotificationInterruptEnable
  3657 ;; This function uses a non-reentrant model
  3658 ;;
  3659                           
  3660                           	psect	text33
  3661  004B76                     __ptext33:
  3662                           	callstack 0
  3663  004B76                     _CAN1_SetSystemErrorInterruptHandler:
  3664                           	callstack 116
  3665  004B76                     
  3666                           ;mcc_generated_files/can1.c: 667: void CAN1_SetSystemErrorInterruptHandler(void (*handle
      +                          r)(void));mcc_generated_files/can1.c: 668: {;mcc_generated_files/can1.c: 669:     CAN1_S
      +                          ystemErrorHandler = handler;
  3667  004B76  C608  F582         	movff	CAN1_SetSystemErrorInterruptHandler@handler,_CAN1_SystemErrorHandler
  3668  004B7A  C609  F583         	movff	CAN1_SetSystemErrorInterruptHandler@handler+1,_CAN1_SystemErrorHandler+1
  3669  004B7E  0012               	return		;funcret
  3670  004B80                     __end_of_CAN1_SetSystemErrorInterruptHandler:
  3671                           	callstack 0
  3672                           
  3673 ;; *************** function _CAN1_SetRxBufferOverFlowInterruptHandler *****************
  3674 ;; Defined at:
  3675 ;;		line 677 in file "mcc_generated_files/can1.c"
  3676 ;; Parameters:    Size  Location     Type
  3677 ;;  handler         2    0[BANK6 ] PTR FTN()void 
  3678 ;;		 -> DefaultRxBufferOverflowHandler(1), 
  3679 ;; Auto vars:     Size  Location     Type
  3680 ;;		None
  3681 ;; Return value:  Size  Location     Type
  3682 ;;                  1    wreg      void 
  3683 ;; Registers used:
  3684 ;;		wreg, status,2, status,0
  3685 ;; Tracked objects:
  3686 ;;		On entry : 0/0
  3687 ;;		On exit  : 0/0
  3688 ;;		Unchanged: 0/0
  3689 ;; Data sizes:     COMRAM   BANK5   BANK6   BANK7   BANK8   BANK9  BANK10  BANK11  BANK12  BANK13  BANK14  BANK15  BANK1
      +6  BANK17  BANK18  BANK19  BANK20  BANK21  BANK22  BANK23  BANK24  BANK25  BANK26  BANK27  BANK28  BANK29  BANK30  BANK3
      +1  BANK32  BANK33  BANK34  BANK35  BANK36  BANK37
  3690 ;;      Params:         0       0       2       0       0       0       0       0       0       0       0       0       
      +0       0       0       0       0       0       0       0       0       0       0       0       0       0       0       
      +0       0       0       0       0       0       0
  3691 ;;      Locals:         0       0       0       0       0       0       0       0       0       0       0       0       
      +0       0       0       0       0       0       0       0       0       0       0       0       0       0       0       
      +0       0       0       0       0       0       0
  3692 ;;      Temps:          0       0       0       0       0       0       0       0       0       0       0       0       
      +0       0       0       0       0       0       0       0       0       0       0       0       0       0       0       
      +0       0       0       0       0       0       0
  3693 ;;      Totals:         0       0       2       0       0       0       0       0       0       0       0       0       
      +0       0       0       0       0       0       0       0       0       0       0       0       0       0       0       
      +0       0       0       0       0       0       0
  3694 ;;Total ram usage:        2 bytes
  3695 ;; Hardware stack levels used:    1
  3696 ;; Hardware stack levels required when called:    8
  3697 ;; This function calls:
  3698 ;;		Nothing
  3699 ;; This function is called by:
  3700 ;;		_CAN1_ErrorNotificationInterruptEnable
  3701 ;; This function uses a non-reentrant model
  3702 ;;
  3703                           
  3704                           	psect	text34
  3705  004B80                     __ptext34:
  3706                           	callstack 0
  3707  004B80                     _CAN1_SetRxBufferOverFlowInterruptHandler:
  3708                           	callstack 116
  3709  004B80                     
  3710                           ;mcc_generated_files/can1.c: 677: void CAN1_SetRxBufferOverFlowInterruptHandler(void (*h
      +                          andler)(void));mcc_generated_files/can1.c: 678: {;mcc_generated_files/can1.c: 679:     C
      +                          AN1_RxBufferOverflowHandler = handler;
  3711  004B80  C608  F57E         	movff	CAN1_SetRxBufferOverFlowInterruptHandler@handler,_CAN1_RxBufferOverflowHandler
  3712  004B84  C609  F57F         	movff	CAN1_SetRxBufferOverFlowInterruptHandler@handler+1,_CAN1_RxBufferOverflowHandler+
      +                          1
  3713  004B88  0012               	return		;funcret
  3714  004B8A                     __end_of_CAN1_SetRxBufferOverFlowInterruptHandler:
  3715                           	callstack 0
  3716                           
  3717 ;; *************** function _CAN1_SetModeChangeInterruptHandler *****************
  3718 ;; Defined at:
  3719 ;;		line 662 in file "mcc_generated_files/can1.c"
  3720 ;; Parameters:    Size  Location     Type
  3721 ;;  handler         2    0[BANK6 ] PTR FTN()void 
  3722 ;;		 -> DefaultModeChangeHandler(1), 
  3723 ;; Auto vars:     Size  Location     Type
  3724 ;;		None
  3725 ;; Return value:  Size  Location     Type
  3726 ;;                  1    wreg      void 
  3727 ;; Registers used:
  3728 ;;		wreg, status,2, status,0
  3729 ;; Tracked objects:
  3730 ;;		On entry : 0/0
  3731 ;;		On exit  : 0/0
  3732 ;;		Unchanged: 0/0
  3733 ;; Data sizes:     COMRAM   BANK5   BANK6   BANK7   BANK8   BANK9  BANK10  BANK11  BANK12  BANK13  BANK14  BANK15  BANK1
      +6  BANK17  BANK18  BANK19  BANK20  BANK21  BANK22  BANK23  BANK24  BANK25  BANK26  BANK27  BANK28  BANK29  BANK30  BANK3
      +1  BANK32  BANK33  BANK34  BANK35  BANK36  BANK37
  3734 ;;      Params:         0       0       2       0       0       0       0       0       0       0       0       0       
      +0       0       0       0       0       0       0       0       0       0       0       0       0       0       0       
      +0       0       0       0       0       0       0
  3735 ;;      Locals:         0       0       0       0       0       0       0       0       0       0       0       0       
      +0       0       0       0       0       0       0       0       0       0       0       0       0       0       0       
      +0       0       0       0       0       0       0
  3736 ;;      Temps:          0       0       0       0       0       0       0       0       0       0       0       0       
      +0       0       0       0       0       0       0       0       0       0       0       0       0       0       0       
      +0       0       0       0       0       0       0
  3737 ;;      Totals:         0       0       2       0       0       0       0       0       0       0       0       0       
      +0       0       0       0       0       0       0       0       0       0       0       0       0       0       0       
      +0       0       0       0       0       0       0
  3738 ;;Total ram usage:        2 bytes
  3739 ;; Hardware stack levels used:    1
  3740 ;; Hardware stack levels required when called:    8
  3741 ;; This function calls:
  3742 ;;		Nothing
  3743 ;; This function is called by:
  3744 ;;		_CAN1_ErrorNotificationInterruptEnable
  3745 ;; This function uses a non-reentrant model
  3746 ;;
  3747                           
  3748                           	psect	text35
  3749  004B8A                     __ptext35:
  3750                           	callstack 0
  3751  004B8A                     _CAN1_SetModeChangeInterruptHandler:
  3752                           	callstack 116
  3753  004B8A                     
  3754                           ;mcc_generated_files/can1.c: 662: void CAN1_SetModeChangeInterruptHandler(void (*handler
      +                          )(void));mcc_generated_files/can1.c: 663: {;mcc_generated_files/can1.c: 664:     CAN1_Mo
      +                          deChangeHandler = handler;
  3755  004B8A  C608  F584         	movff	CAN1_SetModeChangeInterruptHandler@handler,_CAN1_ModeChangeHandler
  3756  004B8E  C609  F585         	movff	CAN1_SetModeChangeInterruptHandler@handler+1,_CAN1_ModeChangeHandler+1
  3757  004B92  0012               	return		;funcret
  3758  004B94                     __end_of_CAN1_SetModeChangeInterruptHandler:
  3759                           	callstack 0
  3760                           
  3761 ;; *************** function _CAN1_SetInvalidMessageInterruptHandler *****************
  3762 ;; Defined at:
  3763 ;;		line 647 in file "mcc_generated_files/can1.c"
  3764 ;; Parameters:    Size  Location     Type
  3765 ;;  handler         2    0[BANK6 ] PTR FTN()void 
  3766 ;;		 -> DefaultInvalidMessageHandler(1), 
  3767 ;; Auto vars:     Size  Location     Type
  3768 ;;		None
  3769 ;; Return value:  Size  Location     Type
  3770 ;;                  1    wreg      void 
  3771 ;; Registers used:
  3772 ;;		wreg, status,2, status,0
  3773 ;; Tracked objects:
  3774 ;;		On entry : 0/0
  3775 ;;		On exit  : 0/0
  3776 ;;		Unchanged: 0/0
  3777 ;; Data sizes:     COMRAM   BANK5   BANK6   BANK7   BANK8   BANK9  BANK10  BANK11  BANK12  BANK13  BANK14  BANK15  BANK1
      +6  BANK17  BANK18  BANK19  BANK20  BANK21  BANK22  BANK23  BANK24  BANK25  BANK26  BANK27  BANK28  BANK29  BANK30  BANK3
      +1  BANK32  BANK33  BANK34  BANK35  BANK36  BANK37
  3778 ;;      Params:         0       0       2       0       0       0       0       0       0       0       0       0       
      +0       0       0       0       0       0       0       0       0       0       0       0       0       0       0       
      +0       0       0       0       0       0       0
  3779 ;;      Locals:         0       0       0       0       0       0       0       0       0       0       0       0       
      +0       0       0       0       0       0       0       0       0       0       0       0       0       0       0       
      +0       0       0       0       0       0       0
  3780 ;;      Temps:          0       0       0       0       0       0       0       0       0       0       0       0       
      +0       0       0       0       0       0       0       0       0       0       0       0       0       0       0       
      +0       0       0       0       0       0       0
  3781 ;;      Totals:         0       0       2       0       0       0       0       0       0       0       0       0       
      +0       0       0       0       0       0       0       0       0       0       0       0       0       0       0       
      +0       0       0       0       0       0       0
  3782 ;;Total ram usage:        2 bytes
  3783 ;; Hardware stack levels used:    1
  3784 ;; Hardware stack levels required when called:    8
  3785 ;; This function calls:
  3786 ;;		Nothing
  3787 ;; This function is called by:
  3788 ;;		_CAN1_ErrorNotificationInterruptEnable
  3789 ;; This function uses a non-reentrant model
  3790 ;;
  3791                           
  3792                           	psect	text36
  3793  004B94                     __ptext36:
  3794                           	callstack 0
  3795  004B94                     _CAN1_SetInvalidMessageInterruptHandler:
  3796                           	callstack 116
  3797  004B94                     
  3798                           ;mcc_generated_files/can1.c: 647: void CAN1_SetInvalidMessageInterruptHandler(void (*han
      +                          dler)(void));mcc_generated_files/can1.c: 648: {;mcc_generated_files/can1.c: 649:     CAN
      +                          1_InvalidMessageHandler = handler;
  3799  004B94  C608  F58A         	movff	CAN1_SetInvalidMessageInterruptHandler@handler,_CAN1_InvalidMessageHandler
  3800  004B98  C609  F58B         	movff	CAN1_SetInvalidMessageInterruptHandler@handler+1,_CAN1_InvalidMessageHandler+1
  3801  004B9C  0012               	return		;funcret
  3802  004B9E                     __end_of_CAN1_SetInvalidMessageInterruptHandler:
  3803                           	callstack 0
  3804                           
  3805 ;; *************** function _CAN1_SetBusWakeUpActivityInterruptHandler *****************
  3806 ;; Defined at:
  3807 ;;		line 652 in file "mcc_generated_files/can1.c"
  3808 ;; Parameters:    Size  Location     Type
  3809 ;;  handler         2    0[BANK6 ] PTR FTN()void 
  3810 ;;		 -> DefaultBusWakeUpActivityHandler(1), 
  3811 ;; Auto vars:     Size  Location     Type
  3812 ;;		None
  3813 ;; Return value:  Size  Location     Type
  3814 ;;                  1    wreg      void 
  3815 ;; Registers used:
  3816 ;;		wreg, status,2, status,0
  3817 ;; Tracked objects:
  3818 ;;		On entry : 0/0
  3819 ;;		On exit  : 0/0
  3820 ;;		Unchanged: 0/0
  3821 ;; Data sizes:     COMRAM   BANK5   BANK6   BANK7   BANK8   BANK9  BANK10  BANK11  BANK12  BANK13  BANK14  BANK15  BANK1
      +6  BANK17  BANK18  BANK19  BANK20  BANK21  BANK22  BANK23  BANK24  BANK25  BANK26  BANK27  BANK28  BANK29  BANK30  BANK3
      +1  BANK32  BANK33  BANK34  BANK35  BANK36  BANK37
  3822 ;;      Params:         0       0       2       0       0       0       0       0       0       0       0       0       
      +0       0       0       0       0       0       0       0       0       0       0       0       0       0       0       
      +0       0       0       0       0       0       0
  3823 ;;      Locals:         0       0       0       0       0       0       0       0       0       0       0       0       
      +0       0       0       0       0       0       0       0       0       0       0       0       0       0       0       
      +0       0       0       0       0       0       0
  3824 ;;      Temps:          0       0       0       0       0       0       0       0       0       0       0       0       
      +0       0       0       0       0       0       0       0       0       0       0       0       0       0       0       
      +0       0       0       0       0       0       0
  3825 ;;      Totals:         0       0       2       0       0       0       0       0       0       0       0       0       
      +0       0       0       0       0       0       0       0       0       0       0       0       0       0       0       
      +0       0       0       0       0       0       0
  3826 ;;Total ram usage:        2 bytes
  3827 ;; Hardware stack levels used:    1
  3828 ;; Hardware stack levels required when called:    8
  3829 ;; This function calls:
  3830 ;;		Nothing
  3831 ;; This function is called by:
  3832 ;;		_CAN1_ErrorNotificationInterruptEnable
  3833 ;; This function uses a non-reentrant model
  3834 ;;
  3835                           
  3836                           	psect	text37
  3837  004B9E                     __ptext37:
  3838                           	callstack 0
  3839  004B9E                     _CAN1_SetBusWakeUpActivityInterruptHandler:
  3840                           	callstack 116
  3841  004B9E                     
  3842                           ;mcc_generated_files/can1.c: 652: void CAN1_SetBusWakeUpActivityInterruptHandler(void (*
      +                          handler)(void));mcc_generated_files/can1.c: 653: {;mcc_generated_files/can1.c: 654:     
      +                          CAN1_BusWakeUpActivityHandler = handler;
  3843  004B9E  C608  F588         	movff	CAN1_SetBusWakeUpActivityInterruptHandler@handler,_CAN1_BusWakeUpActivityHandler
  3844  004BA2  C609  F589         	movff	CAN1_SetBusWakeUpActivityInterruptHandler@handler+1,_CAN1_BusWakeUpActivityHandle
      +                          r+1
  3845  004BA6  0012               	return		;funcret
  3846  004BA8                     __end_of_CAN1_SetBusWakeUpActivityInterruptHandler:
  3847                           	callstack 0
  3848                           
  3849 ;; *************** function _CAN1_SetBusErrorInterruptHandler *****************
  3850 ;; Defined at:
  3851 ;;		line 657 in file "mcc_generated_files/can1.c"
  3852 ;; Parameters:    Size  Location     Type
  3853 ;;  handler         2    0[BANK6 ] PTR FTN()void 
  3854 ;;		 -> DefaultBusErrorHandler(1), 
  3855 ;; Auto vars:     Size  Location     Type
  3856 ;;		None
  3857 ;; Return value:  Size  Location     Type
  3858 ;;                  1    wreg      void 
  3859 ;; Registers used:
  3860 ;;		wreg, status,2, status,0
  3861 ;; Tracked objects:
  3862 ;;		On entry : 0/0
  3863 ;;		On exit  : 0/0
  3864 ;;		Unchanged: 0/0
  3865 ;; Data sizes:     COMRAM   BANK5   BANK6   BANK7   BANK8   BANK9  BANK10  BANK11  BANK12  BANK13  BANK14  BANK15  BANK1
      +6  BANK17  BANK18  BANK19  BANK20  BANK21  BANK22  BANK23  BANK24  BANK25  BANK26  BANK27  BANK28  BANK29  BANK30  BANK3
      +1  BANK32  BANK33  BANK34  BANK35  BANK36  BANK37
  3866 ;;      Params:         0       0       2       0       0       0       0       0       0       0       0       0       
      +0       0       0       0       0       0       0       0       0       0       0       0       0       0       0       
      +0       0       0       0       0       0       0
  3867 ;;      Locals:         0       0       0       0       0       0       0       0       0       0       0       0       
      +0       0       0       0       0       0       0       0       0       0       0       0       0       0       0       
      +0       0       0       0       0       0       0
  3868 ;;      Temps:          0       0       0       0       0       0       0       0       0       0       0       0       
      +0       0       0       0       0       0       0       0       0       0       0       0       0       0       0       
      +0       0       0       0       0       0       0
  3869 ;;      Totals:         0       0       2       0       0       0       0       0       0       0       0       0       
      +0       0       0       0       0       0       0       0       0       0       0       0       0       0       0       
      +0       0       0       0       0       0       0
  3870 ;;Total ram usage:        2 bytes
  3871 ;; Hardware stack levels used:    1
  3872 ;; Hardware stack levels required when called:    8
  3873 ;; This function calls:
  3874 ;;		Nothing
  3875 ;; This function is called by:
  3876 ;;		_CAN1_ErrorNotificationInterruptEnable
  3877 ;; This function uses a non-reentrant model
  3878 ;;
  3879                           
  3880                           	psect	text38
  3881  004BA8                     __ptext38:
  3882                           	callstack 0
  3883  004BA8                     _CAN1_SetBusErrorInterruptHandler:
  3884                           	callstack 116
  3885  004BA8                     
  3886                           ;mcc_generated_files/can1.c: 657: void CAN1_SetBusErrorInterruptHandler(void (*handler)(
      +                          void));mcc_generated_files/can1.c: 658: {;mcc_generated_files/can1.c: 659:     CAN1_BusE
      +                          rrorHandler = handler;
  3887  004BA8  C608  F586         	movff	CAN1_SetBusErrorInterruptHandler@handler,_CAN1_BusErrorHandler
  3888  004BAC  C609  F587         	movff	CAN1_SetBusErrorInterruptHandler@handler+1,_CAN1_BusErrorHandler+1
  3889  004BB0  0012               	return		;funcret
  3890  004BB2                     __end_of_CAN1_SetBusErrorInterruptHandler:
  3891                           	callstack 0
  3892                           
  3893 ;; *************** function _CAN1_BitRateConfiguration *****************
  3894 ;; Defined at:
  3895 ;;		line 227 in file "mcc_generated_files/can1.c"
  3896 ;; Parameters:    Size  Location     Type
  3897 ;;		None
  3898 ;; Auto vars:     Size  Location     Type
  3899 ;;		None
  3900 ;; Return value:  Size  Location     Type
  3901 ;;                  1    wreg      void 
  3902 ;; Registers used:
  3903 ;;		wreg, status,2
  3904 ;; Tracked objects:
  3905 ;;		On entry : 0/0
  3906 ;;		On exit  : 0/0
  3907 ;;		Unchanged: 0/0
  3908 ;; Data sizes:     COMRAM   BANK5   BANK6   BANK7   BANK8   BANK9  BANK10  BANK11  BANK12  BANK13  BANK14  BANK15  BANK1
      +6  BANK17  BANK18  BANK19  BANK20  BANK21  BANK22  BANK23  BANK24  BANK25  BANK26  BANK27  BANK28  BANK29  BANK30  BANK3
      +1  BANK32  BANK33  BANK34  BANK35  BANK36  BANK37
  3909 ;;      Params:         0       0       0       0       0       0       0       0       0       0       0       0       
      +0       0       0       0       0       0       0       0       0       0       0       0       0       0       0       
      +0       0       0       0       0       0       0
  3910 ;;      Locals:         0       0       0       0       0       0       0       0       0       0       0       0       
      +0       0       0       0       0       0       0       0       0       0       0       0       0       0       0       
      +0       0       0       0       0       0       0
  3911 ;;      Temps:          0       0       0       0       0       0       0       0       0       0       0       0       
      +0       0       0       0       0       0       0       0       0       0       0       0       0       0       0       
      +0       0       0       0       0       0       0
  3912 ;;      Totals:         0       0       0       0       0       0       0       0       0       0       0       0       
      +0       0       0       0       0       0       0       0       0       0       0       0       0       0       0       
      +0       0       0       0       0       0       0
  3913 ;;Total ram usage:        0 bytes
  3914 ;; Hardware stack levels used:    1
  3915 ;; Hardware stack levels required when called:    8
  3916 ;; This function calls:
  3917 ;;		Nothing
  3918 ;; This function is called by:
  3919 ;;		_CAN1_Initialize
  3920 ;; This function uses a non-reentrant model
  3921 ;;
  3922                           
  3923                           	psect	text39
  3924  004ABC                     __ptext39:
  3925                           	callstack 0
  3926  004ABC                     _CAN1_BitRateConfiguration:
  3927                           	callstack 117
  3928  004ABC                     
  3929                           ;mcc_generated_files/can1.c: 230:     C1NBTCFGL = 0x01;
  3930  004ABC  0E01               	movlw	1
  3931  004ABE  0101               	movlb	1	; () banked
  3932  004AC0  6F04               	movwf	4,b	;volatile
  3933                           
  3934                           ;mcc_generated_files/can1.c: 233:     C1NBTCFGH = 0x01;
  3935  004AC2  0E01               	movlw	1
  3936  004AC4  6F05               	movwf	5,b	;volatile
  3937                           
  3938                           ;mcc_generated_files/can1.c: 236:     C1NBTCFGU = 0x06;
  3939  004AC6  0E06               	movlw	6
  3940  004AC8  6F06               	movwf	6,b	;volatile
  3941                           
  3942                           ;mcc_generated_files/can1.c: 239:     C1NBTCFGT = 0x00;
  3943  004ACA  0E00               	movlw	0
  3944  004ACC  6F07               	movwf	7,b	;volatile
  3945  004ACE                     
  3946                           ; BSR set to: 1
  3947  004ACE  0012               	return		;funcret
  3948  004AD0                     __end_of_CAN1_BitRateConfiguration:
  3949                           	callstack 0
  3950                           
  3951 ;; *************** function _ADC_Initialize *****************
  3952 ;; Defined at:
  3953 ;;		line 71 in file "mcc_generated_files/adc.c"
  3954 ;; Parameters:    Size  Location     Type
  3955 ;;		None
  3956 ;; Auto vars:     Size  Location     Type
  3957 ;;		None
  3958 ;; Return value:  Size  Location     Type
  3959 ;;                  1    wreg      void 
  3960 ;; Registers used:
  3961 ;;		wreg, status,2, status,0, cstack
  3962 ;; Tracked objects:
  3963 ;;		On entry : 0/0
  3964 ;;		On exit  : 0/0
  3965 ;;		Unchanged: 0/0
  3966 ;; Data sizes:     COMRAM   BANK5   BANK6   BANK7   BANK8   BANK9  BANK10  BANK11  BANK12  BANK13  BANK14  BANK15  BANK1
      +6  BANK17  BANK18  BANK19  BANK20  BANK21  BANK22  BANK23  BANK24  BANK25  BANK26  BANK27  BANK28  BANK29  BANK30  BANK3
      +1  BANK32  BANK33  BANK34  BANK35  BANK36  BANK37
  3967 ;;      Params:         0       0       0       0       0       0       0       0       0       0       0       0       
      +0       0       0       0       0       0       0       0       0       0       0       0       0       0       0       
      +0       0       0       0       0       0       0
  3968 ;;      Locals:         0       0       0       0       0       0       0       0       0       0       0       0       
      +0       0       0       0       0       0       0       0       0       0       0       0       0       0       0       
      +0       0       0       0       0       0       0
  3969 ;;      Temps:          0       0       0       0       0       0       0       0       0       0       0       0       
      +0       0       0       0       0       0       0       0       0       0       0       0       0       0       0       
      +0       0       0       0       0       0       0
  3970 ;;      Totals:         0       0       0       0       0       0       0       0       0       0       0       0       
      +0       0       0       0       0       0       0       0       0       0       0       0       0       0       0       
      +0       0       0       0       0       0       0
  3971 ;;Total ram usage:        0 bytes
  3972 ;; Hardware stack levels used:    1
  3973 ;; Hardware stack levels required when called:    9
  3974 ;; This function calls:
  3975 ;;		_ADC_SetADIInterruptHandler
  3976 ;;		_ADC_SetActiveClockTuningInterruptHandler
  3977 ;;		_ADC_SetContext1ThresholdInterruptHandler
  3978 ;;		_ADC_SetContext2ThresholdInterruptHandler
  3979 ;;		_ADC_SetContext3ThresholdInterruptHandler
  3980 ;;		_ADC_SetContext4ThresholdInterruptHandler
  3981 ;; This function is called by:
  3982 ;;		_SYSTEM_Initialize
  3983 ;; This function uses a non-reentrant model
  3984 ;;
  3985                           
  3986                           	psect	text40
  3987  003682                     __ptext40:
  3988                           	callstack 0
  3989  003682                     _ADC_Initialize:
  3990                           	callstack 117
  3991  003682                     
  3992                           ;mcc_generated_files/adc.c: 74:     ADACT = 0x00;
  3993  003682  0E00               	movlw	0
  3994  003684  0103               	movlb	3	; () banked
  3995  003686  6FF9               	movwf	249,b	;volatile
  3996                           
  3997                           ;mcc_generated_files/adc.c: 77:     ADCLK = 0x3F;
  3998  003688  0E3F               	movlw	63
  3999  00368A  6FFA               	movwf	250,b	;volatile
  4000                           
  4001                           ;mcc_generated_files/adc.c: 80:     ADCP = 0x00;
  4002  00368C  0E00               	movlw	0
  4003  00368E  6FD8               	movwf	216,b	;volatile
  4004                           
  4005                           ;mcc_generated_files/adc.c: 86:     ADCTX = 0x0;
  4006  003690  0E00               	movlw	0
  4007  003692  6FFB               	movwf	251,b	;volatile
  4008                           
  4009                           ;mcc_generated_files/adc.c: 89:     ADLTHL = 0x00;
  4010  003694  0E00               	movlw	0
  4011  003696  6FD9               	movwf	217,b	;volatile
  4012                           
  4013                           ;mcc_generated_files/adc.c: 92:     ADLTHH = 0x00;
  4014  003698  0E00               	movlw	0
  4015  00369A  6FDA               	movwf	218,b	;volatile
  4016                           
  4017                           ;mcc_generated_files/adc.c: 95:     ADUTHL = 0x00;
  4018  00369C  0E00               	movlw	0
  4019  00369E  6FDB               	movwf	219,b	;volatile
  4020                           
  4021                           ;mcc_generated_files/adc.c: 98:     ADUTHH = 0x00;
  4022  0036A0  0E00               	movlw	0
  4023  0036A2  6FDC               	movwf	220,b	;volatile
  4024                           
  4025                           ;mcc_generated_files/adc.c: 101:     ADSTPTL = 0x00;
  4026  0036A4  0E00               	movlw	0
  4027  0036A6  6FDF               	movwf	223,b	;volatile
  4028                           
  4029                           ;mcc_generated_files/adc.c: 104:     ADSTPTH = 0x00;
  4030  0036A8  0E00               	movlw	0
  4031  0036AA  6FE0               	movwf	224,b	;volatile
  4032                           
  4033                           ;mcc_generated_files/adc.c: 107:     ADACCL = 0x00;
  4034  0036AC  0E00               	movlw	0
  4035  0036AE  6FE3               	movwf	227,b	;volatile
  4036                           
  4037                           ;mcc_generated_files/adc.c: 110:     ADACCH = 0x00;
  4038  0036B0  0E00               	movlw	0
  4039  0036B2  6FE4               	movwf	228,b	;volatile
  4040                           
  4041                           ;mcc_generated_files/adc.c: 113:     ADACCU = 0x00;
  4042  0036B4  0E00               	movlw	0
  4043  0036B6  6FE5               	movwf	229,b	;volatile
  4044                           
  4045                           ;mcc_generated_files/adc.c: 116:     ADCNT = 0x00;
  4046  0036B8  0E00               	movlw	0
  4047  0036BA  6FE6               	movwf	230,b	;volatile
  4048                           
  4049                           ;mcc_generated_files/adc.c: 119:     ADRPT = 0x00;
  4050  0036BC  0E00               	movlw	0
  4051  0036BE  6FE7               	movwf	231,b	;volatile
  4052                           
  4053                           ;mcc_generated_files/adc.c: 122:     ADRESL = 0x00;
  4054  0036C0  0E00               	movlw	0
  4055  0036C2  6FEA               	movwf	234,b	;volatile
  4056                           
  4057                           ;mcc_generated_files/adc.c: 125:     ADRESH = 0x00;
  4058  0036C4  0E00               	movlw	0
  4059  0036C6  6FEB               	movwf	235,b	;volatile
  4060                           
  4061                           ;mcc_generated_files/adc.c: 128:     ADPCH = 0x00;
  4062  0036C8  0E00               	movlw	0
  4063  0036CA  6FEC               	movwf	236,b	;volatile
  4064                           
  4065                           ;mcc_generated_files/adc.c: 131:     ADACQL = 0xE8;
  4066  0036CC  0EE8               	movlw	232
  4067  0036CE  6FEE               	movwf	238,b	;volatile
  4068                           
  4069                           ;mcc_generated_files/adc.c: 134:     ADACQH = 0x03;
  4070  0036D0  0E03               	movlw	3
  4071  0036D2  6FEF               	movwf	239,b	;volatile
  4072                           
  4073                           ;mcc_generated_files/adc.c: 137:     ADCAP = 0x00;
  4074  0036D4  0E00               	movlw	0
  4075  0036D6  6FF0               	movwf	240,b	;volatile
  4076                           
  4077                           ;mcc_generated_files/adc.c: 140:     ADPREL = 0x00;
  4078  0036D8  0E00               	movlw	0
  4079  0036DA  6FF1               	movwf	241,b	;volatile
  4080                           
  4081                           ;mcc_generated_files/adc.c: 143:     ADPREH = 0x00;
  4082  0036DC  0E00               	movlw	0
  4083  0036DE  6FF2               	movwf	242,b	;volatile
  4084                           
  4085                           ;mcc_generated_files/adc.c: 146:     ADCON0 = 0x00;
  4086  0036E0  0E00               	movlw	0
  4087  0036E2  6FF3               	movwf	243,b	;volatile
  4088                           
  4089                           ;mcc_generated_files/adc.c: 149:     ADCON1 = 0x00;
  4090  0036E4  0E00               	movlw	0
  4091  0036E6  6FF4               	movwf	244,b	;volatile
  4092                           
  4093                           ;mcc_generated_files/adc.c: 152:     ADCON2 = 0x10;
  4094  0036E8  0E10               	movlw	16
  4095  0036EA  6FF5               	movwf	245,b	;volatile
  4096                           
  4097                           ;mcc_generated_files/adc.c: 155:     ADCON3 = 0x00;
  4098  0036EC  0E00               	movlw	0
  4099  0036EE  6FF6               	movwf	246,b	;volatile
  4100                           
  4101                           ;mcc_generated_files/adc.c: 158:     ADSTAT = 0x00;
  4102  0036F0  0E00               	movlw	0
  4103  0036F2  6FF7               	movwf	247,b	;volatile
  4104                           
  4105                           ;mcc_generated_files/adc.c: 161:     ADREF = 0x00;
  4106  0036F4  0E00               	movlw	0
  4107  0036F6  6FF8               	movwf	248,b	;volatile
  4108                           
  4109                           ;mcc_generated_files/adc.c: 164:     ADCSEL1 = 0x00;
  4110  0036F8  0E00               	movlw	0
  4111  0036FA  6FFC               	movwf	252,b	;volatile
  4112                           
  4113                           ;mcc_generated_files/adc.c: 169:     ADCTX = 0x1;
  4114  0036FC  0E01               	movlw	1
  4115  0036FE  6FFB               	movwf	251,b	;volatile
  4116                           
  4117                           ;mcc_generated_files/adc.c: 172:     ADLTHL = 0x00;
  4118  003700  0E00               	movlw	0
  4119  003702  6FD9               	movwf	217,b	;volatile
  4120                           
  4121                           ;mcc_generated_files/adc.c: 175:     ADLTHH = 0x00;
  4122  003704  0E00               	movlw	0
  4123  003706  6FDA               	movwf	218,b	;volatile
  4124                           
  4125                           ;mcc_generated_files/adc.c: 178:     ADUTHL = 0x00;
  4126  003708  0E00               	movlw	0
  4127  00370A  6FDB               	movwf	219,b	;volatile
  4128                           
  4129                           ;mcc_generated_files/adc.c: 181:     ADUTHH = 0x00;
  4130  00370C  0E00               	movlw	0
  4131  00370E  6FDC               	movwf	220,b	;volatile
  4132                           
  4133                           ;mcc_generated_files/adc.c: 184:     ADSTPTL = 0x00;
  4134  003710  0E00               	movlw	0
  4135  003712  6FDF               	movwf	223,b	;volatile
  4136                           
  4137                           ;mcc_generated_files/adc.c: 187:     ADSTPTH = 0x00;
  4138  003714  0E00               	movlw	0
  4139  003716  6FE0               	movwf	224,b	;volatile
  4140                           
  4141                           ;mcc_generated_files/adc.c: 190:     ADACCL = 0x00;
  4142  003718  0E00               	movlw	0
  4143  00371A  6FE3               	movwf	227,b	;volatile
  4144                           
  4145                           ;mcc_generated_files/adc.c: 193:     ADACCH = 0x00;
  4146  00371C  0E00               	movlw	0
  4147  00371E  6FE4               	movwf	228,b	;volatile
  4148                           
  4149                           ;mcc_generated_files/adc.c: 196:     ADACCU = 0x00;
  4150  003720  0E00               	movlw	0
  4151  003722  6FE5               	movwf	229,b	;volatile
  4152                           
  4153                           ;mcc_generated_files/adc.c: 199:     ADCNT = 0x00;
  4154  003724  0E00               	movlw	0
  4155  003726  6FE6               	movwf	230,b	;volatile
  4156                           
  4157                           ;mcc_generated_files/adc.c: 202:     ADRPT = 0x00;
  4158  003728  0E00               	movlw	0
  4159  00372A  6FE7               	movwf	231,b	;volatile
  4160                           
  4161                           ;mcc_generated_files/adc.c: 205:     ADRESL = 0x00;
  4162  00372C  0E00               	movlw	0
  4163  00372E  6FEA               	movwf	234,b	;volatile
  4164                           
  4165                           ;mcc_generated_files/adc.c: 208:     ADRESH = 0x00;
  4166  003730  0E00               	movlw	0
  4167  003732  6FEB               	movwf	235,b	;volatile
  4168                           
  4169                           ;mcc_generated_files/adc.c: 211:     ADPCH = 0x01;
  4170  003734  0E01               	movlw	1
  4171  003736  6FEC               	movwf	236,b	;volatile
  4172                           
  4173                           ;mcc_generated_files/adc.c: 214:     ADACQL = 0xE8;
  4174  003738  0EE8               	movlw	232
  4175  00373A  6FEE               	movwf	238,b	;volatile
  4176                           
  4177                           ;mcc_generated_files/adc.c: 217:     ADACQH = 0x03;
  4178  00373C  0E03               	movlw	3
  4179  00373E  6FEF               	movwf	239,b	;volatile
  4180                           
  4181                           ;mcc_generated_files/adc.c: 220:     ADCAP = 0x00;
  4182  003740  0E00               	movlw	0
  4183  003742  6FF0               	movwf	240,b	;volatile
  4184                           
  4185                           ;mcc_generated_files/adc.c: 223:     ADPREL = 0x00;
  4186  003744  0E00               	movlw	0
  4187  003746  6FF1               	movwf	241,b	;volatile
  4188                           
  4189                           ;mcc_generated_files/adc.c: 226:     ADPREH = 0x00;
  4190  003748  0E00               	movlw	0
  4191  00374A  6FF2               	movwf	242,b	;volatile
  4192                           
  4193                           ;mcc_generated_files/adc.c: 229:     ADCON0 = 0x00;
  4194  00374C  0E00               	movlw	0
  4195  00374E  6FF3               	movwf	243,b	;volatile
  4196                           
  4197                           ;mcc_generated_files/adc.c: 232:     ADCON1 = 0x00;
  4198  003750  0E00               	movlw	0
  4199  003752  6FF4               	movwf	244,b	;volatile
  4200                           
  4201                           ;mcc_generated_files/adc.c: 235:     ADCON2 = 0x10;
  4202  003754  0E10               	movlw	16
  4203  003756  6FF5               	movwf	245,b	;volatile
  4204                           
  4205                           ;mcc_generated_files/adc.c: 238:     ADCON3 = 0x00;
  4206  003758  0E00               	movlw	0
  4207  00375A  6FF6               	movwf	246,b	;volatile
  4208                           
  4209                           ;mcc_generated_files/adc.c: 241:     ADSTAT = 0x00;
  4210  00375C  0E00               	movlw	0
  4211  00375E  6FF7               	movwf	247,b	;volatile
  4212                           
  4213                           ;mcc_generated_files/adc.c: 244:     ADREF = 0x00;
  4214  003760  0E00               	movlw	0
  4215  003762  6FF8               	movwf	248,b	;volatile
  4216                           
  4217                           ;mcc_generated_files/adc.c: 247:     ADCSEL2 = 0x00;
  4218  003764  0E00               	movlw	0
  4219  003766  6FFD               	movwf	253,b	;volatile
  4220                           
  4221                           ;mcc_generated_files/adc.c: 252:     ADCTX = 0x2;
  4222  003768  0E02               	movlw	2
  4223  00376A  6FFB               	movwf	251,b	;volatile
  4224                           
  4225                           ;mcc_generated_files/adc.c: 255:     ADLTHL = 0x00;
  4226  00376C  0E00               	movlw	0
  4227  00376E  6FD9               	movwf	217,b	;volatile
  4228                           
  4229                           ;mcc_generated_files/adc.c: 258:     ADLTHH = 0x00;
  4230  003770  0E00               	movlw	0
  4231  003772  6FDA               	movwf	218,b	;volatile
  4232                           
  4233                           ;mcc_generated_files/adc.c: 261:     ADUTHL = 0x00;
  4234  003774  0E00               	movlw	0
  4235  003776  6FDB               	movwf	219,b	;volatile
  4236                           
  4237                           ;mcc_generated_files/adc.c: 264:     ADUTHH = 0x00;
  4238  003778  0E00               	movlw	0
  4239  00377A  6FDC               	movwf	220,b	;volatile
  4240                           
  4241                           ;mcc_generated_files/adc.c: 267:     ADSTPTL = 0x00;
  4242  00377C  0E00               	movlw	0
  4243  00377E  6FDF               	movwf	223,b	;volatile
  4244                           
  4245                           ;mcc_generated_files/adc.c: 270:     ADSTPTH = 0x00;
  4246  003780  0E00               	movlw	0
  4247  003782  6FE0               	movwf	224,b	;volatile
  4248                           
  4249                           ;mcc_generated_files/adc.c: 273:     ADACCL = 0x00;
  4250  003784  0E00               	movlw	0
  4251  003786  6FE3               	movwf	227,b	;volatile
  4252                           
  4253                           ;mcc_generated_files/adc.c: 276:     ADACCH = 0x00;
  4254  003788  0E00               	movlw	0
  4255  00378A  6FE4               	movwf	228,b	;volatile
  4256                           
  4257                           ;mcc_generated_files/adc.c: 279:     ADACCU = 0x00;
  4258  00378C  0E00               	movlw	0
  4259  00378E  6FE5               	movwf	229,b	;volatile
  4260                           
  4261                           ;mcc_generated_files/adc.c: 282:     ADCNT = 0x00;
  4262  003790  0E00               	movlw	0
  4263  003792  6FE6               	movwf	230,b	;volatile
  4264                           
  4265                           ;mcc_generated_files/adc.c: 285:     ADRPT = 0x00;
  4266  003794  0E00               	movlw	0
  4267  003796  6FE7               	movwf	231,b	;volatile
  4268                           
  4269                           ;mcc_generated_files/adc.c: 288:     ADRESL = 0x00;
  4270  003798  0E00               	movlw	0
  4271  00379A  6FEA               	movwf	234,b	;volatile
  4272                           
  4273                           ;mcc_generated_files/adc.c: 291:     ADRESH = 0x00;
  4274  00379C  0E00               	movlw	0
  4275  00379E  6FEB               	movwf	235,b	;volatile
  4276                           
  4277                           ;mcc_generated_files/adc.c: 294:     ADPCH = 0x17;
  4278  0037A0  0E17               	movlw	23
  4279  0037A2  6FEC               	movwf	236,b	;volatile
  4280                           
  4281                           ;mcc_generated_files/adc.c: 297:     ADACQL = 0xE8;
  4282  0037A4  0EE8               	movlw	232
  4283  0037A6  6FEE               	movwf	238,b	;volatile
  4284                           
  4285                           ;mcc_generated_files/adc.c: 300:     ADACQH = 0x03;
  4286  0037A8  0E03               	movlw	3
  4287  0037AA  6FEF               	movwf	239,b	;volatile
  4288                           
  4289                           ;mcc_generated_files/adc.c: 303:     ADCAP = 0x00;
  4290  0037AC  0E00               	movlw	0
  4291  0037AE  6FF0               	movwf	240,b	;volatile
  4292                           
  4293                           ;mcc_generated_files/adc.c: 306:     ADPREL = 0x00;
  4294  0037B0  0E00               	movlw	0
  4295  0037B2  6FF1               	movwf	241,b	;volatile
  4296                           
  4297                           ;mcc_generated_files/adc.c: 309:     ADPREH = 0x00;
  4298  0037B4  0E00               	movlw	0
  4299  0037B6  6FF2               	movwf	242,b	;volatile
  4300                           
  4301                           ;mcc_generated_files/adc.c: 312:     ADCON0 = 0x00;
  4302  0037B8  0E00               	movlw	0
  4303  0037BA  6FF3               	movwf	243,b	;volatile
  4304                           
  4305                           ;mcc_generated_files/adc.c: 315:     ADCON1 = 0x00;
  4306  0037BC  0E00               	movlw	0
  4307  0037BE  6FF4               	movwf	244,b	;volatile
  4308                           
  4309                           ;mcc_generated_files/adc.c: 318:     ADCON2 = 0x10;
  4310  0037C0  0E10               	movlw	16
  4311  0037C2  6FF5               	movwf	245,b	;volatile
  4312                           
  4313                           ;mcc_generated_files/adc.c: 321:     ADCON3 = 0x00;
  4314  0037C4  0E00               	movlw	0
  4315  0037C6  6FF6               	movwf	246,b	;volatile
  4316                           
  4317                           ;mcc_generated_files/adc.c: 324:     ADSTAT = 0x00;
  4318  0037C8  0E00               	movlw	0
  4319  0037CA  6FF7               	movwf	247,b	;volatile
  4320                           
  4321                           ;mcc_generated_files/adc.c: 327:     ADREF = 0x00;
  4322  0037CC  0E00               	movlw	0
  4323  0037CE  6FF8               	movwf	248,b	;volatile
  4324                           
  4325                           ;mcc_generated_files/adc.c: 330:     ADCSEL3 = 0x00;
  4326  0037D0  0E00               	movlw	0
  4327  0037D2  6FFE               	movwf	254,b	;volatile
  4328                           
  4329                           ;mcc_generated_files/adc.c: 335:     ADCTX = 0x3;
  4330  0037D4  0E03               	movlw	3
  4331  0037D6  6FFB               	movwf	251,b	;volatile
  4332                           
  4333                           ;mcc_generated_files/adc.c: 338:     ADLTHL = 0x00;
  4334  0037D8  0E00               	movlw	0
  4335  0037DA  6FD9               	movwf	217,b	;volatile
  4336                           
  4337                           ;mcc_generated_files/adc.c: 341:     ADLTHH = 0x00;
  4338  0037DC  0E00               	movlw	0
  4339  0037DE  6FDA               	movwf	218,b	;volatile
  4340                           
  4341                           ;mcc_generated_files/adc.c: 344:     ADUTHL = 0x00;
  4342  0037E0  0E00               	movlw	0
  4343  0037E2  6FDB               	movwf	219,b	;volatile
  4344                           
  4345                           ;mcc_generated_files/adc.c: 347:     ADUTHH = 0x00;
  4346  0037E4  0E00               	movlw	0
  4347  0037E6  6FDC               	movwf	220,b	;volatile
  4348                           
  4349                           ;mcc_generated_files/adc.c: 350:     ADSTPTL = 0x00;
  4350  0037E8  0E00               	movlw	0
  4351  0037EA  6FDF               	movwf	223,b	;volatile
  4352                           
  4353                           ;mcc_generated_files/adc.c: 353:     ADSTPTH = 0x00;
  4354  0037EC  0E00               	movlw	0
  4355  0037EE  6FE0               	movwf	224,b	;volatile
  4356                           
  4357                           ;mcc_generated_files/adc.c: 356:     ADACCL = 0x00;
  4358  0037F0  0E00               	movlw	0
  4359  0037F2  6FE3               	movwf	227,b	;volatile
  4360                           
  4361                           ;mcc_generated_files/adc.c: 359:     ADACCH = 0x00;
  4362  0037F4  0E00               	movlw	0
  4363  0037F6  6FE4               	movwf	228,b	;volatile
  4364                           
  4365                           ;mcc_generated_files/adc.c: 362:     ADACCU = 0x00;
  4366  0037F8  0E00               	movlw	0
  4367  0037FA  6FE5               	movwf	229,b	;volatile
  4368                           
  4369                           ;mcc_generated_files/adc.c: 365:     ADCNT = 0x00;
  4370  0037FC  0E00               	movlw	0
  4371  0037FE  6FE6               	movwf	230,b	;volatile
  4372                           
  4373                           ;mcc_generated_files/adc.c: 368:     ADRPT = 0x00;
  4374  003800  0E00               	movlw	0
  4375  003802  6FE7               	movwf	231,b	;volatile
  4376                           
  4377                           ;mcc_generated_files/adc.c: 371:     ADRESL = 0x00;
  4378  003804  0E00               	movlw	0
  4379  003806  6FEA               	movwf	234,b	;volatile
  4380                           
  4381                           ;mcc_generated_files/adc.c: 374:     ADRESH = 0x00;
  4382  003808  0E00               	movlw	0
  4383  00380A  6FEB               	movwf	235,b	;volatile
  4384                           
  4385                           ;mcc_generated_files/adc.c: 377:     ADPCH = 0x16;
  4386  00380C  0E16               	movlw	22
  4387  00380E  6FEC               	movwf	236,b	;volatile
  4388                           
  4389                           ;mcc_generated_files/adc.c: 380:     ADACQL = 0xE8;
  4390  003810  0EE8               	movlw	232
  4391  003812  6FEE               	movwf	238,b	;volatile
  4392                           
  4393                           ;mcc_generated_files/adc.c: 383:     ADACQH = 0x03;
  4394  003814  0E03               	movlw	3
  4395  003816  6FEF               	movwf	239,b	;volatile
  4396                           
  4397                           ;mcc_generated_files/adc.c: 386:     ADCAP = 0x00;
  4398  003818  0E00               	movlw	0
  4399  00381A  6FF0               	movwf	240,b	;volatile
  4400                           
  4401                           ;mcc_generated_files/adc.c: 389:     ADPREL = 0x00;
  4402  00381C  0E00               	movlw	0
  4403  00381E  6FF1               	movwf	241,b	;volatile
  4404                           
  4405                           ;mcc_generated_files/adc.c: 392:     ADPREH = 0x00;
  4406  003820  0E00               	movlw	0
  4407  003822  6FF2               	movwf	242,b	;volatile
  4408                           
  4409                           ;mcc_generated_files/adc.c: 395:     ADCON0 = 0x00;
  4410  003824  0E00               	movlw	0
  4411  003826  6FF3               	movwf	243,b	;volatile
  4412                           
  4413                           ;mcc_generated_files/adc.c: 398:     ADCON1 = 0x00;
  4414  003828  0E00               	movlw	0
  4415  00382A  6FF4               	movwf	244,b	;volatile
  4416                           
  4417                           ;mcc_generated_files/adc.c: 401:     ADCON2 = 0x10;
  4418  00382C  0E10               	movlw	16
  4419  00382E  6FF5               	movwf	245,b	;volatile
  4420                           
  4421                           ;mcc_generated_files/adc.c: 404:     ADCON3 = 0x00;
  4422  003830  0E00               	movlw	0
  4423  003832  6FF6               	movwf	246,b	;volatile
  4424                           
  4425                           ;mcc_generated_files/adc.c: 407:     ADSTAT = 0x00;
  4426  003834  0E00               	movlw	0
  4427  003836  6FF7               	movwf	247,b	;volatile
  4428                           
  4429                           ;mcc_generated_files/adc.c: 410:     ADREF = 0x00;
  4430  003838  0E00               	movlw	0
  4431  00383A  6FF8               	movwf	248,b	;volatile
  4432                           
  4433                           ;mcc_generated_files/adc.c: 413:     ADCSEL4 = 0x00;
  4434  00383C  0E00               	movlw	0
  4435  00383E  6FFF               	movwf	255,b	;volatile
  4436  003840                     
  4437                           ; BSR set to: 3
  4438                           ;mcc_generated_files/adc.c: 416:     PIR1bits.ADIF = 0;
  4439  003840  94AF               	bcf	175,2,c	;volatile
  4440  003842                     
  4441                           ; BSR set to: 3
  4442                           ;mcc_generated_files/adc.c: 419:     PIR1bits.ACTIF = 0;
  4443  003842  96AF               	bcf	175,3,c	;volatile
  4444  003844                     
  4445                           ; BSR set to: 3
  4446                           ;mcc_generated_files/adc.c: 422:     PIR2bits.ADCH1IF = 0;
  4447  003844  90B0               	bcf	176,0,c	;volatile
  4448  003846                     
  4449                           ; BSR set to: 3
  4450                           ;mcc_generated_files/adc.c: 423:     PIR2bits.ADCH2IF = 0;
  4451  003846  92B0               	bcf	176,1,c	;volatile
  4452  003848                     
  4453                           ; BSR set to: 3
  4454                           ;mcc_generated_files/adc.c: 424:     PIR2bits.ADCH3IF = 0;
  4455  003848  94B0               	bcf	176,2,c	;volatile
  4456  00384A                     
  4457                           ; BSR set to: 3
  4458                           ;mcc_generated_files/adc.c: 425:     PIR2bits.ADCH4IF = 0;
  4459  00384A  96B0               	bcf	176,3,c	;volatile
  4460  00384C                     
  4461                           ; BSR set to: 3
  4462                           ;mcc_generated_files/adc.c: 429:     ADC_SetADIInterruptHandler(ADC_DefaultADI_ISR);
  4463  00384C  0E00               	movlw	0
  4464  00384E  0106               	movlb	6	; () banked
  4465  003850  6F08               	movwf	ADC_SetADIInterruptHandler@InterruptHandler& (0+255),b
  4466  003852  0E00               	movlw	0
  4467  003854  6F09               	movwf	(ADC_SetADIInterruptHandler@InterruptHandler+1)& (0+255),b
  4468  003856  ECF2  F025         	call	_ADC_SetADIInterruptHandler	;wreg free
  4469  00385A                     
  4470                           ;mcc_generated_files/adc.c: 430:     ADC_SetContext1ThresholdInterruptHandler(ADC_Defaul
      +                          tContext1Threshold_ISR);
  4471  00385A  0E00               	movlw	0
  4472  00385C  0106               	movlb	6	; () banked
  4473  00385E  6F08               	movwf	ADC_SetContext1ThresholdInterruptHandler@InterruptHandler& (0+255),b
  4474  003860  0E00               	movlw	0
  4475  003862  6F09               	movwf	(ADC_SetContext1ThresholdInterruptHandler@InterruptHandler+1)& (0+255),b
  4476  003864  ECE8  F025         	call	_ADC_SetContext1ThresholdInterruptHandler	;wreg free
  4477  003868                     
  4478                           ;mcc_generated_files/adc.c: 431:     ADC_SetContext2ThresholdInterruptHandler(ADC_Defaul
      +                          tContext2Threshold_ISR);
  4479  003868  0E00               	movlw	0
  4480  00386A  0106               	movlb	6	; () banked
  4481  00386C  6F08               	movwf	ADC_SetContext2ThresholdInterruptHandler@InterruptHandler& (0+255),b
  4482  00386E  0E00               	movlw	0
  4483  003870  6F09               	movwf	(ADC_SetContext2ThresholdInterruptHandler@InterruptHandler+1)& (0+255),b
  4484  003872  ECE3  F025         	call	_ADC_SetContext2ThresholdInterruptHandler	;wreg free
  4485  003876                     
  4486                           ;mcc_generated_files/adc.c: 432:     ADC_SetContext3ThresholdInterruptHandler(ADC_Defaul
      +                          tContext3Threshold_ISR);
  4487  003876  0E00               	movlw	0
  4488  003878  0106               	movlb	6	; () banked
  4489  00387A  6F08               	movwf	ADC_SetContext3ThresholdInterruptHandler@InterruptHandler& (0+255),b
  4490  00387C  0E00               	movlw	0
  4491  00387E  6F09               	movwf	(ADC_SetContext3ThresholdInterruptHandler@InterruptHandler+1)& (0+255),b
  4492  003880  ECDE  F025         	call	_ADC_SetContext3ThresholdInterruptHandler	;wreg free
  4493  003884                     
  4494                           ;mcc_generated_files/adc.c: 433:     ADC_SetContext4ThresholdInterruptHandler(ADC_Defaul
      +                          tContext4Threshold_ISR);
  4495  003884  0E00               	movlw	0
  4496  003886  0106               	movlb	6	; () banked
  4497  003888  6F08               	movwf	ADC_SetContext4ThresholdInterruptHandler@InterruptHandler& (0+255),b
  4498  00388A  0E00               	movlw	0
  4499  00388C  6F09               	movwf	(ADC_SetContext4ThresholdInterruptHandler@InterruptHandler+1)& (0+255),b
  4500  00388E  ECD9  F025         	call	_ADC_SetContext4ThresholdInterruptHandler	;wreg free
  4501  003892                     
  4502                           ;mcc_generated_files/adc.c: 434:     ADC_SetActiveClockTuningInterruptHandler(ADC_Defaul
      +                          tActiveClockTuning_ISR);
  4503  003892  0E00               	movlw	0
  4504  003894  0106               	movlb	6	; () banked
  4505  003896  6F08               	movwf	ADC_SetActiveClockTuningInterruptHandler@InterruptHandler& (0+255),b
  4506  003898  0E00               	movlw	0
  4507  00389A  6F09               	movwf	(ADC_SetActiveClockTuningInterruptHandler@InterruptHandler+1)& (0+255),b
  4508  00389C  ECED  F025         	call	_ADC_SetActiveClockTuningInterruptHandler	;wreg free
  4509                           
  4510                           ;mcc_generated_files/adc.c: 437:     ADCON0 = 0x84;
  4511  0038A0  0E84               	movlw	132
  4512  0038A2  0103               	movlb	3	; () banked
  4513  0038A4  6FF3               	movwf	243,b	;volatile
  4514  0038A6                     
  4515                           ; BSR set to: 3
  4516  0038A6  0012               	return		;funcret
  4517  0038A8                     __end_of_ADC_Initialize:
  4518                           	callstack 0
  4519                           
  4520 ;; *************** function _ADC_SetContext4ThresholdInterruptHandler *****************
  4521 ;; Defined at:
  4522 ;;		line 738 in file "mcc_generated_files/adc.c"
  4523 ;; Parameters:    Size  Location     Type
  4524 ;;  InterruptHan    2    0[BANK6 ] PTR FTN()void 
  4525 ;;		 -> ADC_DefaultContext4Threshold_ISR(1), 
  4526 ;; Auto vars:     Size  Location     Type
  4527 ;;		None
  4528 ;; Return value:  Size  Location     Type
  4529 ;;                  1    wreg      void 
  4530 ;; Registers used:
  4531 ;;		wreg, status,2, status,0
  4532 ;; Tracked objects:
  4533 ;;		On entry : 0/0
  4534 ;;		On exit  : 0/0
  4535 ;;		Unchanged: 0/0
  4536 ;; Data sizes:     COMRAM   BANK5   BANK6   BANK7   BANK8   BANK9  BANK10  BANK11  BANK12  BANK13  BANK14  BANK15  BANK1
      +6  BANK17  BANK18  BANK19  BANK20  BANK21  BANK22  BANK23  BANK24  BANK25  BANK26  BANK27  BANK28  BANK29  BANK30  BANK3
      +1  BANK32  BANK33  BANK34  BANK35  BANK36  BANK37
  4537 ;;      Params:         0       0       2       0       0       0       0       0       0       0       0       0       
      +0       0       0       0       0       0       0       0       0       0       0       0       0       0       0       
      +0       0       0       0       0       0       0
  4538 ;;      Locals:         0       0       0       0       0       0       0       0       0       0       0       0       
      +0       0       0       0       0       0       0       0       0       0       0       0       0       0       0       
      +0       0       0       0       0       0       0
  4539 ;;      Temps:          0       0       0       0       0       0       0       0       0       0       0       0       
      +0       0       0       0       0       0       0       0       0       0       0       0       0       0       0       
      +0       0       0       0       0       0       0
  4540 ;;      Totals:         0       0       2       0       0       0       0       0       0       0       0       0       
      +0       0       0       0       0       0       0       0       0       0       0       0       0       0       0       
      +0       0       0       0       0       0       0
  4541 ;;Total ram usage:        2 bytes
  4542 ;; Hardware stack levels used:    1
  4543 ;; Hardware stack levels required when called:    8
  4544 ;; This function calls:
  4545 ;;		Nothing
  4546 ;; This function is called by:
  4547 ;;		_ADC_Initialize
  4548 ;; This function uses a non-reentrant model
  4549 ;;
  4550                           
  4551                           	psect	text41
  4552  004BB2                     __ptext41:
  4553                           	callstack 0
  4554  004BB2                     _ADC_SetContext4ThresholdInterruptHandler:
  4555                           	callstack 117
  4556  004BB2                     
  4557                           ;mcc_generated_files/adc.c: 738: void ADC_SetContext4ThresholdInterruptHandler(void (* I
      +                          nterruptHandler)(void));mcc_generated_files/adc.c: 739: {;mcc_generated_files/adc.c: 740
      +                          :     ADC_Context4Thereshld_ISR = InterruptHandler;
  4558  004BB2  C608  F5D9         	movff	ADC_SetContext4ThresholdInterruptHandler@InterruptHandler,_ADC_Context4Thereshld_
      +                          ISR
  4559  004BB6  C609  F5DA         	movff	ADC_SetContext4ThresholdInterruptHandler@InterruptHandler+1,_ADC_Context4Thereshl
      +                          d_ISR+1
  4560  004BBA  0012               	return		;funcret
  4561  004BBC                     __end_of_ADC_SetContext4ThresholdInterruptHandler:
  4562                           	callstack 0
  4563                           
  4564 ;; *************** function _ADC_SetContext3ThresholdInterruptHandler *****************
  4565 ;; Defined at:
  4566 ;;		line 733 in file "mcc_generated_files/adc.c"
  4567 ;; Parameters:    Size  Location     Type
  4568 ;;  InterruptHan    2    0[BANK6 ] PTR FTN()void 
  4569 ;;		 -> ADC_DefaultContext3Threshold_ISR(1), 
  4570 ;; Auto vars:     Size  Location     Type
  4571 ;;		None
  4572 ;; Return value:  Size  Location     Type
  4573 ;;                  1    wreg      void 
  4574 ;; Registers used:
  4575 ;;		wreg, status,2, status,0
  4576 ;; Tracked objects:
  4577 ;;		On entry : 0/0
  4578 ;;		On exit  : 0/0
  4579 ;;		Unchanged: 0/0
  4580 ;; Data sizes:     COMRAM   BANK5   BANK6   BANK7   BANK8   BANK9  BANK10  BANK11  BANK12  BANK13  BANK14  BANK15  BANK1
      +6  BANK17  BANK18  BANK19  BANK20  BANK21  BANK22  BANK23  BANK24  BANK25  BANK26  BANK27  BANK28  BANK29  BANK30  BANK3
      +1  BANK32  BANK33  BANK34  BANK35  BANK36  BANK37
  4581 ;;      Params:         0       0       2       0       0       0       0       0       0       0       0       0       
      +0       0       0       0       0       0       0       0       0       0       0       0       0       0       0       
      +0       0       0       0       0       0       0
  4582 ;;      Locals:         0       0       0       0       0       0       0       0       0       0       0       0       
      +0       0       0       0       0       0       0       0       0       0       0       0       0       0       0       
      +0       0       0       0       0       0       0
  4583 ;;      Temps:          0       0       0       0       0       0       0       0       0       0       0       0       
      +0       0       0       0       0       0       0       0       0       0       0       0       0       0       0       
      +0       0       0       0       0       0       0
  4584 ;;      Totals:         0       0       2       0       0       0       0       0       0       0       0       0       
      +0       0       0       0       0       0       0       0       0       0       0       0       0       0       0       
      +0       0       0       0       0       0       0
  4585 ;;Total ram usage:        2 bytes
  4586 ;; Hardware stack levels used:    1
  4587 ;; Hardware stack levels required when called:    8
  4588 ;; This function calls:
  4589 ;;		Nothing
  4590 ;; This function is called by:
  4591 ;;		_ADC_Initialize
  4592 ;; This function uses a non-reentrant model
  4593 ;;
  4594                           
  4595                           	psect	text42
  4596  004BBC                     __ptext42:
  4597                           	callstack 0
  4598  004BBC                     _ADC_SetContext3ThresholdInterruptHandler:
  4599                           	callstack 117
  4600  004BBC                     
  4601                           ;mcc_generated_files/adc.c: 733: void ADC_SetContext3ThresholdInterruptHandler(void (* I
      +                          nterruptHandler)(void));mcc_generated_files/adc.c: 734: {;mcc_generated_files/adc.c: 735
      +                          :     ADC_Context3Thereshld_ISR = InterruptHandler;
  4602  004BBC  C608  F5DB         	movff	ADC_SetContext3ThresholdInterruptHandler@InterruptHandler,_ADC_Context3Thereshld_
      +                          ISR
  4603  004BC0  C609  F5DC         	movff	ADC_SetContext3ThresholdInterruptHandler@InterruptHandler+1,_ADC_Context3Thereshl
      +                          d_ISR+1
  4604  004BC4  0012               	return		;funcret
  4605  004BC6                     __end_of_ADC_SetContext3ThresholdInterruptHandler:
  4606                           	callstack 0
  4607                           
  4608 ;; *************** function _ADC_SetContext2ThresholdInterruptHandler *****************
  4609 ;; Defined at:
  4610 ;;		line 728 in file "mcc_generated_files/adc.c"
  4611 ;; Parameters:    Size  Location     Type
  4612 ;;  InterruptHan    2    0[BANK6 ] PTR FTN()void 
  4613 ;;		 -> ADC_DefaultContext2Threshold_ISR(1), 
  4614 ;; Auto vars:     Size  Location     Type
  4615 ;;		None
  4616 ;; Return value:  Size  Location     Type
  4617 ;;                  1    wreg      void 
  4618 ;; Registers used:
  4619 ;;		wreg, status,2, status,0
  4620 ;; Tracked objects:
  4621 ;;		On entry : 0/0
  4622 ;;		On exit  : 0/0
  4623 ;;		Unchanged: 0/0
  4624 ;; Data sizes:     COMRAM   BANK5   BANK6   BANK7   BANK8   BANK9  BANK10  BANK11  BANK12  BANK13  BANK14  BANK15  BANK1
      +6  BANK17  BANK18  BANK19  BANK20  BANK21  BANK22  BANK23  BANK24  BANK25  BANK26  BANK27  BANK28  BANK29  BANK30  BANK3
      +1  BANK32  BANK33  BANK34  BANK35  BANK36  BANK37
  4625 ;;      Params:         0       0       2       0       0       0       0       0       0       0       0       0       
      +0       0       0       0       0       0       0       0       0       0       0       0       0       0       0       
      +0       0       0       0       0       0       0
  4626 ;;      Locals:         0       0       0       0       0       0       0       0       0       0       0       0       
      +0       0       0       0       0       0       0       0       0       0       0       0       0       0       0       
      +0       0       0       0       0       0       0
  4627 ;;      Temps:          0       0       0       0       0       0       0       0       0       0       0       0       
      +0       0       0       0       0       0       0       0       0       0       0       0       0       0       0       
      +0       0       0       0       0       0       0
  4628 ;;      Totals:         0       0       2       0       0       0       0       0       0       0       0       0       
      +0       0       0       0       0       0       0       0       0       0       0       0       0       0       0       
      +0       0       0       0       0       0       0
  4629 ;;Total ram usage:        2 bytes
  4630 ;; Hardware stack levels used:    1
  4631 ;; Hardware stack levels required when called:    8
  4632 ;; This function calls:
  4633 ;;		Nothing
  4634 ;; This function is called by:
  4635 ;;		_ADC_Initialize
  4636 ;; This function uses a non-reentrant model
  4637 ;;
  4638                           
  4639                           	psect	text43
  4640  004BC6                     __ptext43:
  4641                           	callstack 0
  4642  004BC6                     _ADC_SetContext2ThresholdInterruptHandler:
  4643                           	callstack 117
  4644  004BC6                     
  4645                           ;mcc_generated_files/adc.c: 728: void ADC_SetContext2ThresholdInterruptHandler(void (* I
      +                          nterruptHandler)(void));mcc_generated_files/adc.c: 729: {;mcc_generated_files/adc.c: 730
      +                          :     ADC_Context2Thereshld_ISR = InterruptHandler;
  4646  004BC6  C608  F5DD         	movff	ADC_SetContext2ThresholdInterruptHandler@InterruptHandler,_ADC_Context2Thereshld_
      +                          ISR
  4647  004BCA  C609  F5DE         	movff	ADC_SetContext2ThresholdInterruptHandler@InterruptHandler+1,_ADC_Context2Thereshl
      +                          d_ISR+1
  4648  004BCE  0012               	return		;funcret
  4649  004BD0                     __end_of_ADC_SetContext2ThresholdInterruptHandler:
  4650                           	callstack 0
  4651                           
  4652 ;; *************** function _ADC_SetContext1ThresholdInterruptHandler *****************
  4653 ;; Defined at:
  4654 ;;		line 723 in file "mcc_generated_files/adc.c"
  4655 ;; Parameters:    Size  Location     Type
  4656 ;;  InterruptHan    2    0[BANK6 ] PTR FTN()void 
  4657 ;;		 -> ADC_DefaultContext1Threshold_ISR(1), 
  4658 ;; Auto vars:     Size  Location     Type
  4659 ;;		None
  4660 ;; Return value:  Size  Location     Type
  4661 ;;                  1    wreg      void 
  4662 ;; Registers used:
  4663 ;;		wreg, status,2, status,0
  4664 ;; Tracked objects:
  4665 ;;		On entry : 0/0
  4666 ;;		On exit  : 0/0
  4667 ;;		Unchanged: 0/0
  4668 ;; Data sizes:     COMRAM   BANK5   BANK6   BANK7   BANK8   BANK9  BANK10  BANK11  BANK12  BANK13  BANK14  BANK15  BANK1
      +6  BANK17  BANK18  BANK19  BANK20  BANK21  BANK22  BANK23  BANK24  BANK25  BANK26  BANK27  BANK28  BANK29  BANK30  BANK3
      +1  BANK32  BANK33  BANK34  BANK35  BANK36  BANK37
  4669 ;;      Params:         0       0       2       0       0       0       0       0       0       0       0       0       
      +0       0       0       0       0       0       0       0       0       0       0       0       0       0       0       
      +0       0       0       0       0       0       0
  4670 ;;      Locals:         0       0       0       0       0       0       0       0       0       0       0       0       
      +0       0       0       0       0       0       0       0       0       0       0       0       0       0       0       
      +0       0       0       0       0       0       0
  4671 ;;      Temps:          0       0       0       0       0       0       0       0       0       0       0       0       
      +0       0       0       0       0       0       0       0       0       0       0       0       0       0       0       
      +0       0       0       0       0       0       0
  4672 ;;      Totals:         0       0       2       0       0       0       0       0       0       0       0       0       
      +0       0       0       0       0       0       0       0       0       0       0       0       0       0       0       
      +0       0       0       0       0       0       0
  4673 ;;Total ram usage:        2 bytes
  4674 ;; Hardware stack levels used:    1
  4675 ;; Hardware stack levels required when called:    8
  4676 ;; This function calls:
  4677 ;;		Nothing
  4678 ;; This function is called by:
  4679 ;;		_ADC_Initialize
  4680 ;; This function uses a non-reentrant model
  4681 ;;
  4682                           
  4683                           	psect	text44
  4684  004BD0                     __ptext44:
  4685                           	callstack 0
  4686  004BD0                     _ADC_SetContext1ThresholdInterruptHandler:
  4687                           	callstack 117
  4688  004BD0                     
  4689                           ;mcc_generated_files/adc.c: 723: void ADC_SetContext1ThresholdInterruptHandler(void (* I
      +                          nterruptHandler)(void));mcc_generated_files/adc.c: 724: {;mcc_generated_files/adc.c: 725
      +                          :     ADC_Context1Thereshld_ISR = InterruptHandler;
  4690  004BD0  C608  F5DF         	movff	ADC_SetContext1ThresholdInterruptHandler@InterruptHandler,_ADC_Context1Thereshld_
      +                          ISR
  4691  004BD4  C609  F5E0         	movff	ADC_SetContext1ThresholdInterruptHandler@InterruptHandler+1,_ADC_Context1Thereshl
      +                          d_ISR+1
  4692  004BD8  0012               	return		;funcret
  4693  004BDA                     __end_of_ADC_SetContext1ThresholdInterruptHandler:
  4694                           	callstack 0
  4695                           
  4696 ;; *************** function _ADC_SetActiveClockTuningInterruptHandler *****************
  4697 ;; Defined at:
  4698 ;;		line 743 in file "mcc_generated_files/adc.c"
  4699 ;; Parameters:    Size  Location     Type
  4700 ;;  InterruptHan    2    0[BANK6 ] PTR FTN()void 
  4701 ;;		 -> ADC_DefaultActiveClockTuning_ISR(1), 
  4702 ;; Auto vars:     Size  Location     Type
  4703 ;;		None
  4704 ;; Return value:  Size  Location     Type
  4705 ;;                  1    wreg      void 
  4706 ;; Registers used:
  4707 ;;		wreg, status,2, status,0
  4708 ;; Tracked objects:
  4709 ;;		On entry : 0/0
  4710 ;;		On exit  : 0/0
  4711 ;;		Unchanged: 0/0
  4712 ;; Data sizes:     COMRAM   BANK5   BANK6   BANK7   BANK8   BANK9  BANK10  BANK11  BANK12  BANK13  BANK14  BANK15  BANK1
      +6  BANK17  BANK18  BANK19  BANK20  BANK21  BANK22  BANK23  BANK24  BANK25  BANK26  BANK27  BANK28  BANK29  BANK30  BANK3
      +1  BANK32  BANK33  BANK34  BANK35  BANK36  BANK37
  4713 ;;      Params:         0       0       2       0       0       0       0       0       0       0       0       0       
      +0       0       0       0       0       0       0       0       0       0       0       0       0       0       0       
      +0       0       0       0       0       0       0
  4714 ;;      Locals:         0       0       0       0       0       0       0       0       0       0       0       0       
      +0       0       0       0       0       0       0       0       0       0       0       0       0       0       0       
      +0       0       0       0       0       0       0
  4715 ;;      Temps:          0       0       0       0       0       0       0       0       0       0       0       0       
      +0       0       0       0       0       0       0       0       0       0       0       0       0       0       0       
      +0       0       0       0       0       0       0
  4716 ;;      Totals:         0       0       2       0       0       0       0       0       0       0       0       0       
      +0       0       0       0       0       0       0       0       0       0       0       0       0       0       0       
      +0       0       0       0       0       0       0
  4717 ;;Total ram usage:        2 bytes
  4718 ;; Hardware stack levels used:    1
  4719 ;; Hardware stack levels required when called:    8
  4720 ;; This function calls:
  4721 ;;		Nothing
  4722 ;; This function is called by:
  4723 ;;		_ADC_Initialize
  4724 ;; This function uses a non-reentrant model
  4725 ;;
  4726                           
  4727                           	psect	text45
  4728  004BDA                     __ptext45:
  4729                           	callstack 0
  4730  004BDA                     _ADC_SetActiveClockTuningInterruptHandler:
  4731                           	callstack 117
  4732  004BDA                     
  4733                           ;mcc_generated_files/adc.c: 743: void ADC_SetActiveClockTuningInterruptHandler(void (* I
      +                          nterruptHandler)(void));mcc_generated_files/adc.c: 744: {;mcc_generated_files/adc.c: 745
      +                          :     ADC_ActiveClockTuning_ISR = InterruptHandler;
  4734  004BDA  C608  F5D7         	movff	ADC_SetActiveClockTuningInterruptHandler@InterruptHandler,_ADC_ActiveClockTuning_
      +                          ISR
  4735  004BDE  C609  F5D8         	movff	ADC_SetActiveClockTuningInterruptHandler@InterruptHandler+1,_ADC_ActiveClockTunin
      +                          g_ISR+1
  4736  004BE2  0012               	return		;funcret
  4737  004BE4                     __end_of_ADC_SetActiveClockTuningInterruptHandler:
  4738                           	callstack 0
  4739                           
  4740 ;; *************** function _ADC_SetADIInterruptHandler *****************
  4741 ;; Defined at:
  4742 ;;		line 718 in file "mcc_generated_files/adc.c"
  4743 ;; Parameters:    Size  Location     Type
  4744 ;;  InterruptHan    2    0[BANK6 ] PTR FTN()void 
  4745 ;;		 -> ADC_DefaultADI_ISR(1), 
  4746 ;; Auto vars:     Size  Location     Type
  4747 ;;		None
  4748 ;; Return value:  Size  Location     Type
  4749 ;;                  1    wreg      void 
  4750 ;; Registers used:
  4751 ;;		wreg, status,2, status,0
  4752 ;; Tracked objects:
  4753 ;;		On entry : 0/0
  4754 ;;		On exit  : 0/0
  4755 ;;		Unchanged: 0/0
  4756 ;; Data sizes:     COMRAM   BANK5   BANK6   BANK7   BANK8   BANK9  BANK10  BANK11  BANK12  BANK13  BANK14  BANK15  BANK1
      +6  BANK17  BANK18  BANK19  BANK20  BANK21  BANK22  BANK23  BANK24  BANK25  BANK26  BANK27  BANK28  BANK29  BANK30  BANK3
      +1  BANK32  BANK33  BANK34  BANK35  BANK36  BANK37
  4757 ;;      Params:         0       0       2       0       0       0       0       0       0       0       0       0       
      +0       0       0       0       0       0       0       0       0       0       0       0       0       0       0       
      +0       0       0       0       0       0       0
  4758 ;;      Locals:         0       0       0       0       0       0       0       0       0       0       0       0       
      +0       0       0       0       0       0       0       0       0       0       0       0       0       0       0       
      +0       0       0       0       0       0       0
  4759 ;;      Temps:          0       0       0       0       0       0       0       0       0       0       0       0       
      +0       0       0       0       0       0       0       0       0       0       0       0       0       0       0       
      +0       0       0       0       0       0       0
  4760 ;;      Totals:         0       0       2       0       0       0       0       0       0       0       0       0       
      +0       0       0       0       0       0       0       0       0       0       0       0       0       0       0       
      +0       0       0       0       0       0       0
  4761 ;;Total ram usage:        2 bytes
  4762 ;; Hardware stack levels used:    1
  4763 ;; Hardware stack levels required when called:    8
  4764 ;; This function calls:
  4765 ;;		Nothing
  4766 ;; This function is called by:
  4767 ;;		_ADC_Initialize
  4768 ;; This function uses a non-reentrant model
  4769 ;;
  4770                           
  4771                           	psect	text46
  4772  004BE4                     __ptext46:
  4773                           	callstack 0
  4774  004BE4                     _ADC_SetADIInterruptHandler:
  4775                           	callstack 117
  4776  004BE4                     
  4777                           ;mcc_generated_files/adc.c: 718: void ADC_SetADIInterruptHandler(void (* InterruptHandle
      +                          r)(void));mcc_generated_files/adc.c: 719: {;mcc_generated_files/adc.c: 720:     ADC_Conv
      +                          ersionComplete_ISR = InterruptHandler;
  4778  004BE4  C608  F5E1         	movff	ADC_SetADIInterruptHandler@InterruptHandler,_ADC_ConversionComplete_ISR
  4779  004BE8  C609  F5E2         	movff	ADC_SetADIInterruptHandler@InterruptHandler+1,_ADC_ConversionComplete_ISR+1
  4780  004BEC  0012               	return		;funcret
  4781  004BEE                     __end_of_ADC_SetADIInterruptHandler:
  4782                           	callstack 0
  4783                           
  4784 ;; *************** function _GPIO_Init *****************
  4785 ;; Defined at:
  4786 ;;		line 24 in file "GPIO.c"
  4787 ;; Parameters:    Size  Location     Type
  4788 ;;		None
  4789 ;; Auto vars:     Size  Location     Type
  4790 ;;		None
  4791 ;; Return value:  Size  Location     Type
  4792 ;;                  1    wreg      void 
  4793 ;; Registers used:
  4794 ;;		None
  4795 ;; Tracked objects:
  4796 ;;		On entry : 0/0
  4797 ;;		On exit  : 0/0
  4798 ;;		Unchanged: 0/0
  4799 ;; Data sizes:     COMRAM   BANK5   BANK6   BANK7   BANK8   BANK9  BANK10  BANK11  BANK12  BANK13  BANK14  BANK15  BANK1
      +6  BANK17  BANK18  BANK19  BANK20  BANK21  BANK22  BANK23  BANK24  BANK25  BANK26  BANK27  BANK28  BANK29  BANK30  BANK3
      +1  BANK32  BANK33  BANK34  BANK35  BANK36  BANK37
  4800 ;;      Params:         0       0       0       0       0       0       0       0       0       0       0       0       
      +0       0       0       0       0       0       0       0       0       0       0       0       0       0       0       
      +0       0       0       0       0       0       0
  4801 ;;      Locals:         0       0       0       0       0       0       0       0       0       0       0       0       
      +0       0       0       0       0       0       0       0       0       0       0       0       0       0       0       
      +0       0       0       0       0       0       0
  4802 ;;      Temps:          0       0       0       0       0       0       0       0       0       0       0       0       
      +0       0       0       0       0       0       0       0       0       0       0       0       0       0       0       
      +0       0       0       0       0       0       0
  4803 ;;      Totals:         0       0       0       0       0       0       0       0       0       0       0       0       
      +0       0       0       0       0       0       0       0       0       0       0       0       0       0       0       
      +0       0       0       0       0       0       0
  4804 ;;Total ram usage:        0 bytes
  4805 ;; Hardware stack levels used:    1
  4806 ;; Hardware stack levels required when called:    8
  4807 ;; This function calls:
  4808 ;;		Nothing
  4809 ;; This function is called by:
  4810 ;;		_main
  4811 ;; This function uses a non-reentrant model
  4812 ;;
  4813                           
  4814                           	psect	text47
  4815  004A0E                     __ptext47:
  4816                           	callstack 0
  4817  004A0E                     _GPIO_Init:
  4818                           	callstack 119
  4819  004A0E  0104               	movlb	4	; () banked
  4820  004A10  8100               	bsf	0,0,b	;volatile
  4821  004A12                     
  4822                           ; BSR set to: 4
  4823  004A12  8300               	bsf	0,1,b	;volatile
  4824  004A14                     
  4825                           ; BSR set to: 4
  4826  004A14  8F10               	bsf	16,7,b	;volatile
  4827  004A16                     
  4828                           ; BSR set to: 4
  4829  004A16  8D10               	bsf	16,6,b	;volatile
  4830  004A18                     
  4831                           ; BSR set to: 4
  4832  004A18  8910               	bsf	16,4,b	;volatile
  4833  004A1A                     
  4834                           ; BSR set to: 4
  4835  004A1A  8710               	bsf	16,3,b	;volatile
  4836  004A1C                     
  4837                           ; BSR set to: 4
  4838  004A1C  98C6               	bcf	198,4,c	;volatile
  4839  004A1E                     
  4840                           ; BSR set to: 4
  4841  004A1E  90C7               	bcf	199,0,c	;volatile
  4842  004A20                     
  4843                           ; BSR set to: 4
  4844  004A20  94C7               	bcf	199,2,c	;volatile
  4845  004A22                     
  4846                           ; BSR set to: 4
  4847  004A22  92C7               	bcf	199,1,c	;volatile
  4848  004A24                     
  4849                           ; BSR set to: 4
  4850  004A24  9AC7               	bcf	199,5,c	;volatile
  4851  004A26                     
  4852                           ; BSR set to: 4
  4853  004A26  84C8               	bsf	200,2,c	;volatile
  4854  004A28                     
  4855                           ; BSR set to: 4
  4856  004A28  9AC8               	bcf	200,5,c	;volatile
  4857  004A2A                     
  4858                           ; BSR set to: 4
  4859  004A2A  0012               	return		;funcret
  4860  004A2C                     __end_of_GPIO_Init:
  4861                           	callstack 0
  4862                           
  4863 ;; *************** function _INTERRUPT_InterruptManager *****************
  4864 ;; Defined at:
  4865 ;;		line 58 in file "mcc_generated_files/interrupt_manager.c"
  4866 ;; Parameters:    Size  Location     Type
  4867 ;;		None
  4868 ;; Auto vars:     Size  Location     Type
  4869 ;;		None
  4870 ;; Return value:  Size  Location     Type
  4871 ;;                  1    wreg      void 
  4872 ;; Registers used:
  4873 ;;		wreg, fsr2l, fsr2h, status,2, status,0, pclath, tosl, tblptrl, tblptrh, tblptru, prodl, prodh, cstack
  4874 ;; Tracked objects:
  4875 ;;		On entry : 0/0
  4876 ;;		On exit  : 0/0
  4877 ;;		Unchanged: 0/0
  4878 ;; Data sizes:     COMRAM   BANK5   BANK6   BANK7   BANK8   BANK9  BANK10  BANK11  BANK12  BANK13  BANK14  BANK15  BANK1
      +6  BANK17  BANK18  BANK19  BANK20  BANK21  BANK22  BANK23  BANK24  BANK25  BANK26  BANK27  BANK28  BANK29  BANK30  BANK3
      +1  BANK32  BANK33  BANK34  BANK35  BANK36  BANK37
  4879 ;;      Params:         0       0       0       0       0       0       0       0       0       0       0       0       
      +0       0       0       0       0       0       0       0       0       0       0       0       0       0       0       
      +0       0       0       0       0       0       0
  4880 ;;      Locals:         0       0       0       0       0       0       0       0       0       0       0       0       
      +0       0       0       0       0       0       0       0       0       0       0       0       0       0       0       
      +0       0       0       0       0       0       0
  4881 ;;      Temps:          4       0       0       0       0       0       0       0       0       0       0       0       
      +0       0       0       0       0       0       0       0       0       0       0       0       0       0       0       
      +0       0       0       0       0       0       0
  4882 ;;      Totals:         4       0       0       0       0       0       0       0       0       0       0       0       
      +0       0       0       0       0       0       0       0       0       0       0       0       0       0       0       
      +0       0       0       0       0       0       0
  4883 ;;Total ram usage:        4 bytes
  4884 ;; Hardware stack levels used:    1
  4885 ;; Hardware stack levels required when called:    7
  4886 ;; This function calls:
  4887 ;;		_CAN1_ISR
  4888 ;;		_CAN1_RXI_ISR
  4889 ;;		_INT0_ISR
  4890 ;;		_TMR0_ISR
  4891 ;;		_TMR1_ISR
  4892 ;;		_TMR2_ISR
  4893 ;; This function is called by:
  4894 ;;		Interrupt level 2
  4895 ;; This function uses a non-reentrant model
  4896 ;;
  4897                           
  4898                           	psect	text48
  4899  003CBE                     __ptext48:
  4900                           	callstack 0
  4901  003CBE                     _INTERRUPT_InterruptManager:
  4902                           	callstack 116
  4903                           
  4904                           ; BSR set to: 4
  4905                           ;incstack = 0
  4906  003CBE  0061 F3D8  F552    	movff	tblptrl,??_INTERRUPT_InterruptManager
  4907  003CC4  0061 F3DC  F553    	movff	tblptrh,??_INTERRUPT_InterruptManager+1
  4908  003CCA  0061 F3E0  F554    	movff	tblptru,??_INTERRUPT_InterruptManager+2
  4909  003CD0  0061 F3D4  F555    	movff	tablat,??_INTERRUPT_InterruptManager+3
  4910  003CD6                     
  4911                           ;mcc_generated_files/interrupt_manager.c: 61:     if(PIE3bits.TMR0IE == 1 && PIR3bits.TM
      +                          R0IF == 1)
  4912  003CD6  AEA1               	btfss	161,7,c	;volatile
  4913  003CD8  EF70  F01E         	goto	i2u501_41
  4914  003CDC  EF72  F01E         	goto	i2u501_40
  4915  003CE0                     i2u501_41:
  4916  003CE0  EF7D  F01E         	goto	i2l639
  4917  003CE4                     i2u501_40:
  4918  003CE4  AEB1               	btfss	177,7,c	;volatile
  4919  003CE6  EF77  F01E         	goto	i2u502_41
  4920  003CEA  EF79  F01E         	goto	i2u502_40
  4921  003CEE                     i2u502_41:
  4922  003CEE  EF7D  F01E         	goto	i2l639
  4923  003CF2                     i2u502_40:
  4924  003CF2                     
  4925                           ;mcc_generated_files/interrupt_manager.c: 62:     {;mcc_generated_files/interrupt_manage
      +                          r.c: 63:         TMR0_ISR();
  4926  003CF2  ECFC  F025         	call	_TMR0_ISR	;wreg free
  4927                           
  4928                           ;mcc_generated_files/interrupt_manager.c: 64:     }
  4929  003CF6  EFD7  F01E         	goto	i2l651
  4930  003CFA                     i2l639:
  4931  003CFA  A09F               	btfss	159,0,c	;volatile
  4932  003CFC  EF82  F01E         	goto	i2u503_41
  4933  003D00  EF84  F01E         	goto	i2u503_40
  4934  003D04                     i2u503_41:
  4935  003D04  EF8F  F01E         	goto	i2l641
  4936  003D08                     i2u503_40:
  4937  003D08  A0AF               	btfss	175,0,c	;volatile
  4938  003D0A  EF89  F01E         	goto	i2u504_41
  4939  003D0E  EF8B  F01E         	goto	i2u504_40
  4940  003D12                     i2u504_41:
  4941  003D12  EF8F  F01E         	goto	i2l641
  4942  003D16                     i2u504_40:
  4943  003D16                     
  4944                           ;mcc_generated_files/interrupt_manager.c: 66:     {;mcc_generated_files/interrupt_manage
      +                          r.c: 67:         INT0_ISR();
  4945  003D16  EC00  F026         	call	_INT0_ISR	;wreg free
  4946                           
  4947                           ;mcc_generated_files/interrupt_manager.c: 68:     }
  4948  003D1A  EFD7  F01E         	goto	i2l651
  4949  003D1E                     i2l641:
  4950  003D1E  A6A1               	btfss	161,3,c	;volatile
  4951  003D20  EF94  F01E         	goto	i2u505_41
  4952  003D24  EF96  F01E         	goto	i2u505_40
  4953  003D28                     i2u505_41:
  4954  003D28  EFA1  F01E         	goto	i2l643
  4955  003D2C                     i2u505_40:
  4956  003D2C  A6B1               	btfss	177,3,c	;volatile
  4957  003D2E  EF9B  F01E         	goto	i2u506_41
  4958  003D32  EF9D  F01E         	goto	i2u506_40
  4959  003D36                     i2u506_41:
  4960  003D36  EFA1  F01E         	goto	i2l643
  4961  003D3A                     i2u506_40:
  4962  003D3A                     
  4963                           ;mcc_generated_files/interrupt_manager.c: 70:     {;mcc_generated_files/interrupt_manage
      +                          r.c: 71:         TMR2_ISR();
  4964  003D3A  EC68  F025         	call	_TMR2_ISR	;wreg free
  4965                           
  4966                           ;mcc_generated_files/interrupt_manager.c: 72:     }
  4967  003D3E  EFD7  F01E         	goto	i2l651
  4968  003D42                     i2l643:
  4969  003D42  AC9E               	btfss	158,6,c	;volatile
  4970  003D44  EFA6  F01E         	goto	i2u507_41
  4971  003D48  EFA8  F01E         	goto	i2u507_40
  4972  003D4C                     i2u507_41:
  4973  003D4C  EFB3  F01E         	goto	i2l645
  4974  003D50                     i2u507_40:
  4975  003D50  ACAE               	btfss	174,6,c	;volatile
  4976  003D52  EFAD  F01E         	goto	i2u508_41
  4977  003D56  EFAF  F01E         	goto	i2u508_40
  4978  003D5A                     i2u508_41:
  4979  003D5A  EFB3  F01E         	goto	i2l645
  4980  003D5E                     i2u508_40:
  4981  003D5E                     
  4982                           ;mcc_generated_files/interrupt_manager.c: 74:     {;mcc_generated_files/interrupt_manage
      +                          r.c: 75:         CAN1_ISR();
  4983  003D5E  EC2E  F01D         	call	_CAN1_ISR	;wreg free
  4984                           
  4985                           ;mcc_generated_files/interrupt_manager.c: 76:     }
  4986  003D62  EFD7  F01E         	goto	i2l651
  4987  003D66                     i2l645:
  4988  003D66  A8A2               	btfss	162,4,c	;volatile
  4989  003D68  EFB8  F01E         	goto	i2u509_41
  4990  003D6C  EFBA  F01E         	goto	i2u509_40
  4991  003D70                     i2u509_41:
  4992  003D70  EFC5  F01E         	goto	i2l647
  4993  003D74                     i2u509_40:
  4994  003D74  A8B2               	btfss	178,4,c	;volatile
  4995  003D76  EFBF  F01E         	goto	i2u510_41
  4996  003D7A  EFC1  F01E         	goto	i2u510_40
  4997  003D7E                     i2u510_41:
  4998  003D7E  EFC5  F01E         	goto	i2l647
  4999  003D82                     i2u510_40:
  5000  003D82                     
  5001                           ;mcc_generated_files/interrupt_manager.c: 78:     {;mcc_generated_files/interrupt_manage
      +                          r.c: 79:         CAN1_RXI_ISR();
  5002  003D82  EC7C  F024         	call	_CAN1_RXI_ISR	;wreg free
  5003                           
  5004                           ;mcc_generated_files/interrupt_manager.c: 80:     }
  5005  003D86  EFD7  F01E         	goto	i2l651
  5006  003D8A                     i2l647:
  5007  003D8A  A8A1               	btfss	161,4,c	;volatile
  5008  003D8C  EFCA  F01E         	goto	i2u511_41
  5009  003D90  EFCC  F01E         	goto	i2u511_40
  5010  003D94                     i2u511_41:
  5011  003D94  EFD7  F01E         	goto	i2l646
  5012  003D98                     i2u511_40:
  5013  003D98  A8B1               	btfss	177,4,c	;volatile
  5014  003D9A  EFD1  F01E         	goto	i2u512_41
  5015  003D9E  EFD3  F01E         	goto	i2u512_40
  5016  003DA2                     i2u512_41:
  5017  003DA2  EFD7  F01E         	goto	i2l646
  5018  003DA6                     i2u512_40:
  5019  003DA6                     
  5020                           ;mcc_generated_files/interrupt_manager.c: 82:     {;mcc_generated_files/interrupt_manage
      +                          r.c: 83:         TMR1_ISR();
  5021  003DA6  ECB8  F020         	call	_TMR1_ISR	;wreg free
  5022                           
  5023                           ;mcc_generated_files/interrupt_manager.c: 84:     }
  5024  003DAA  EFD7  F01E         	goto	i2l651
  5025  003DAE                     i2l646:
  5026  003DAE                     i2l651:
  5027  003DAE  0061  F554  F4F5   	movff	??_INTERRUPT_InterruptManager+3,tablat
  5028  003DB4  0061  F550  F4F8   	movff	??_INTERRUPT_InterruptManager+2,tblptru
  5029  003DBA  0061  F54C  F4F7   	movff	??_INTERRUPT_InterruptManager+1,tblptrh
  5030  003DC0  0061  F548  F4F6   	movff	??_INTERRUPT_InterruptManager,tblptrl
  5031  003DC6  0011               	retfie		f
  5032  003DC8                     __end_of_INTERRUPT_InterruptManager:
  5033                           	callstack 0
  5034                           
  5035 ;; *************** function _TMR2_ISR *****************
  5036 ;; Defined at:
  5037 ;;		line 166 in file "mcc_generated_files/tmr2.c"
  5038 ;; Parameters:    Size  Location     Type
  5039 ;;		None
  5040 ;; Auto vars:     Size  Location     Type
  5041 ;;		None
  5042 ;; Return value:  Size  Location     Type
  5043 ;;                  1    wreg      void 
  5044 ;; Registers used:
  5045 ;;		wreg, status,2, status,0, pclath, tosl, cstack
  5046 ;; Tracked objects:
  5047 ;;		On entry : 0/0
  5048 ;;		On exit  : 0/0
  5049 ;;		Unchanged: 0/0
  5050 ;; Data sizes:     COMRAM   BANK5   BANK6   BANK7   BANK8   BANK9  BANK10  BANK11  BANK12  BANK13  BANK14  BANK15  BANK1
      +6  BANK17  BANK18  BANK19  BANK20  BANK21  BANK22  BANK23  BANK24  BANK25  BANK26  BANK27  BANK28  BANK29  BANK30  BANK3
      +1  BANK32  BANK33  BANK34  BANK35  BANK36  BANK37
  5051 ;;      Params:         0       0       0       0       0       0       0       0       0       0       0       0       
      +0       0       0       0       0       0       0       0       0       0       0       0       0       0       0       
      +0       0       0       0       0       0       0
  5052 ;;      Locals:         0       0       0       0       0       0       0       0       0       0       0       0       
      +0       0       0       0       0       0       0       0       0       0       0       0       0       0       0       
      +0       0       0       0       0       0       0
  5053 ;;      Temps:          0       0       0       0       0       0       0       0       0       0       0       0       
      +0       0       0       0       0       0       0       0       0       0       0       0       0       0       0       
      +0       0       0       0       0       0       0
  5054 ;;      Totals:         0       0       0       0       0       0       0       0       0       0       0       0       
      +0       0       0       0       0       0       0       0       0       0       0       0       0       0       0       
      +0       0       0       0       0       0       0
  5055 ;;Total ram usage:        0 bytes
  5056 ;; Hardware stack levels used:    1
  5057 ;; Hardware stack levels required when called:    2
  5058 ;; This function calls:
  5059 ;;		_TEMPORIZATION_10ms
  5060 ;;		_TMR2_CallBack
  5061 ;; This function is called by:
  5062 ;;		_INTERRUPT_InterruptManager
  5063 ;; This function uses a non-reentrant model
  5064 ;;
  5065                           
  5066                           	psect	text49
  5067  004AD0                     __ptext49:
  5068                           	callstack 0
  5069  004AD0                     _TMR2_ISR:
  5070                           	callstack 120
  5071  004AD0                     
  5072                           ;mcc_generated_files/tmr2.c: 170:     PIR3bits.TMR2IF = 0;
  5073  004AD0  96B1               	bcf	177,3,c	;volatile
  5074  004AD2                     
  5075                           ;mcc_generated_files/tmr2.c: 174:     TMR2_CallBack();
  5076  004AD2  EC20  F024         	call	_TMR2_CallBack	;wreg free
  5077  004AD6                     
  5078                           ;mcc_generated_files/tmr2.c: 176:     TEMPORIZATION_10ms();
  5079  004AD6  EC16  F026         	call	_TEMPORIZATION_10ms	;wreg free
  5080  004ADA  0012               	return		;funcret
  5081  004ADC                     __end_of_TMR2_ISR:
  5082                           	callstack 0
  5083                           
  5084 ;; *************** function _TMR2_CallBack *****************
  5085 ;; Defined at:
  5086 ;;		line 179 in file "mcc_generated_files/tmr2.c"
  5087 ;; Parameters:    Size  Location     Type
  5088 ;;		None
  5089 ;; Auto vars:     Size  Location     Type
  5090 ;;		None
  5091 ;; Return value:  Size  Location     Type
  5092 ;;                  1    wreg      void 
  5093 ;; Registers used:
  5094 ;;		wreg, status,2, status,0, pclath, tosl, cstack
  5095 ;; Tracked objects:
  5096 ;;		On entry : 0/0
  5097 ;;		On exit  : 0/0
  5098 ;;		Unchanged: 0/0
  5099 ;; Data sizes:     COMRAM   BANK5   BANK6   BANK7   BANK8   BANK9  BANK10  BANK11  BANK12  BANK13  BANK14  BANK15  BANK1
      +6  BANK17  BANK18  BANK19  BANK20  BANK21  BANK22  BANK23  BANK24  BANK25  BANK26  BANK27  BANK28  BANK29  BANK30  BANK3
      +1  BANK32  BANK33  BANK34  BANK35  BANK36  BANK37
  5100 ;;      Params:         0       0       0       0       0       0       0       0       0       0       0       0       
      +0       0       0       0       0       0       0       0       0       0       0       0       0       0       0       
      +0       0       0       0       0       0       0
  5101 ;;      Locals:         0       0       0       0       0       0       0       0       0       0       0       0       
      +0       0       0       0       0       0       0       0       0       0       0       0       0       0       0       
      +0       0       0       0       0       0       0
  5102 ;;      Temps:          0       0       0       0       0       0       0       0       0       0       0       0       
      +0       0       0       0       0       0       0       0       0       0       0       0       0       0       0       
      +0       0       0       0       0       0       0
  5103 ;;      Totals:         0       0       0       0       0       0       0       0       0       0       0       0       
      +0       0       0       0       0       0       0       0       0       0       0       0       0       0       0       
      +0       0       0       0       0       0       0
  5104 ;;Total ram usage:        0 bytes
  5105 ;; Hardware stack levels used:    1
  5106 ;; Hardware stack levels required when called:    1
  5107 ;; This function calls:
  5108 ;;		Absolute function
  5109 ;;		_TMR2_DefaultInterruptHandler
  5110 ;; This function is called by:
  5111 ;;		_TMR2_ISR
  5112 ;; This function uses a non-reentrant model
  5113 ;;
  5114                           
  5115                           	psect	text50
  5116  004840                     __ptext50:
  5117                           	callstack 0
  5118  004840                     _TMR2_CallBack:
  5119                           	callstack 120
  5120  004840                     
  5121                           ;mcc_generated_files/tmr2.c: 183:     if(TMR2_InterruptHandler)
  5122  004840  0105               	movlb	5	; () banked
  5123  004842  51CB               	movf	_TMR2_InterruptHandler& (0+255),w,b
  5124  004844  11CC               	iorwf	(_TMR2_InterruptHandler+1)& (0+255),w,b
  5125  004846  B4D8               	btfsc	status,2,c
  5126  004848  EF28  F024         	goto	i2u446_41
  5127  00484C  EF2A  F024         	goto	i2u446_40
  5128  004850                     i2u446_41:
  5129  004850  EF36  F024         	goto	i2l1284
  5130  004854                     i2u446_40:
  5131  004854                     
  5132                           ; BSR set to: 5
  5133                           ;mcc_generated_files/tmr2.c: 184:     {;mcc_generated_files/tmr2.c: 185:         TMR2_In
      +                          terruptHandler();
  5134  004854  D802               	call	i2u447_48
  5135  004856  EF36  F024         	goto	i2u447_49
  5136  00485A                     i2u447_48:
  5137  00485A  0005               	push	
  5138  00485C  6EFA               	movwf	pclath,c
  5139  00485E  51CB               	movf	_TMR2_InterruptHandler& (0+255),w,b
  5140  004860  6EFD               	movwf	tosl,c
  5141  004862  51CC               	movf	(_TMR2_InterruptHandler+1)& (0+255),w,b
  5142  004864  6EFE               	movwf	tosh,c
  5143  004866  6AFF               	clrf	tosu,c
  5144  004868  50FA               	movf	pclath,w,c
  5145  00486A  0012               	return		;indir
  5146  00486C                     i2u447_49:
  5147  00486C                     i2l1284:
  5148  00486C  0012               	return		;funcret
  5149  00486E                     __end_of_TMR2_CallBack:
  5150                           	callstack 0
  5151                           
  5152 ;; *************** function _TMR2_DefaultInterruptHandler *****************
  5153 ;; Defined at:
  5154 ;;		line 193 in file "mcc_generated_files/tmr2.c"
  5155 ;; Parameters:    Size  Location     Type
  5156 ;;		None
  5157 ;; Auto vars:     Size  Location     Type
  5158 ;;		None
  5159 ;; Return value:  Size  Location     Type
  5160 ;;                  1    wreg      void 
  5161 ;; Registers used:
  5162 ;;		None
  5163 ;; Tracked objects:
  5164 ;;		On entry : 0/0
  5165 ;;		On exit  : 0/0
  5166 ;;		Unchanged: 0/0
  5167 ;; Data sizes:     COMRAM   BANK5   BANK6   BANK7   BANK8   BANK9  BANK10  BANK11  BANK12  BANK13  BANK14  BANK15  BANK1
      +6  BANK17  BANK18  BANK19  BANK20  BANK21  BANK22  BANK23  BANK24  BANK25  BANK26  BANK27  BANK28  BANK29  BANK30  BANK3
      +1  BANK32  BANK33  BANK34  BANK35  BANK36  BANK37
  5168 ;;      Params:         0       0       0       0       0       0       0       0       0       0       0       0       
      +0       0       0       0       0       0       0       0       0       0       0       0       0       0       0       
      +0       0       0       0       0       0       0
  5169 ;;      Locals:         0       0       0       0       0       0       0       0       0       0       0       0       
      +0       0       0       0       0       0       0       0       0       0       0       0       0       0       0       
      +0       0       0       0       0       0       0
  5170 ;;      Temps:          0       0       0       0       0       0       0       0       0       0       0       0       
      +0       0       0       0       0       0       0       0       0       0       0       0       0       0       0       
      +0       0       0       0       0       0       0
  5171 ;;      Totals:         0       0       0       0       0       0       0       0       0       0       0       0       
      +0       0       0       0       0       0       0       0       0       0       0       0       0       0       0       
      +0       0       0       0       0       0       0
  5172 ;;Total ram usage:        0 bytes
  5173 ;; Hardware stack levels used:    1
  5174 ;; This function calls:
  5175 ;;		Nothing
  5176 ;; This function is called by:
  5177 ;;		_TMR2_Initialize
  5178 ;;		_TMR2_CallBack
  5179 ;; This function uses a non-reentrant model
  5180 ;;
  5181                           
  5182                           	psect	text51
  5183  004C2A                     __ptext51:
  5184                           	callstack 0
  5185  004C2A                     _TMR2_DefaultInterruptHandler:
  5186                           	callstack 120
  5187  004C2A  0012               	return		;funcret
  5188  004C2C                     __end_of_TMR2_DefaultInterruptHandler:
  5189                           	callstack 0
  5190                           
  5191 ;; *************** function _TEMPORIZATION_10ms *****************
  5192 ;; Defined at:
  5193 ;;		line 22 in file "TEMPORIZATIONS.c"
  5194 ;; Parameters:    Size  Location     Type
  5195 ;;		None
  5196 ;; Auto vars:     Size  Location     Type
  5197 ;;		None
  5198 ;; Return value:  Size  Location     Type
  5199 ;;                  1    wreg      void 
  5200 ;; Registers used:
  5201 ;;		None
  5202 ;; Tracked objects:
  5203 ;;		On entry : 0/0
  5204 ;;		On exit  : 0/0
  5205 ;;		Unchanged: 0/0
  5206 ;; Data sizes:     COMRAM   BANK5   BANK6   BANK7   BANK8   BANK9  BANK10  BANK11  BANK12  BANK13  BANK14  BANK15  BANK1
      +6  BANK17  BANK18  BANK19  BANK20  BANK21  BANK22  BANK23  BANK24  BANK25  BANK26  BANK27  BANK28  BANK29  BANK30  BANK3
      +1  BANK32  BANK33  BANK34  BANK35  BANK36  BANK37
  5207 ;;      Params:         0       0       0       0       0       0       0       0       0       0       0       0       
      +0       0       0       0       0       0       0       0       0       0       0       0       0       0       0       
      +0       0       0       0       0       0       0
  5208 ;;      Locals:         0       0       0       0       0       0       0       0       0       0       0       0       
      +0       0       0       0       0       0       0       0       0       0       0       0       0       0       0       
      +0       0       0       0       0       0       0
  5209 ;;      Temps:          0       0       0       0       0       0       0       0       0       0       0       0       
      +0       0       0       0       0       0       0       0       0       0       0       0       0       0       0       
      +0       0       0       0       0       0       0
  5210 ;;      Totals:         0       0       0       0       0       0       0       0       0       0       0       0       
      +0       0       0       0       0       0       0       0       0       0       0       0       0       0       0       
      +0       0       0       0       0       0       0
  5211 ;;Total ram usage:        0 bytes
  5212 ;; Hardware stack levels used:    1
  5213 ;; This function calls:
  5214 ;;		Nothing
  5215 ;; This function is called by:
  5216 ;;		_TMR2_ISR
  5217 ;; This function uses a non-reentrant model
  5218 ;;
  5219                           
  5220                           	psect	text52
  5221  004C2C                     __ptext52:
  5222                           	callstack 0
  5223  004C2C                     _TEMPORIZATION_10ms:
  5224                           	callstack 121
  5225  004C2C  0012               	return		;funcret
  5226  004C2E                     __end_of_TEMPORIZATION_10ms:
  5227                           	callstack 0
  5228                           
  5229 ;; *************** function _TMR1_ISR *****************
  5230 ;; Defined at:
  5231 ;;		line 165 in file "mcc_generated_files/tmr1.c"
  5232 ;; Parameters:    Size  Location     Type
  5233 ;;		None
  5234 ;; Auto vars:     Size  Location     Type
  5235 ;;		None
  5236 ;; Return value:  Size  Location     Type
  5237 ;;                  1    wreg      void 
  5238 ;; Registers used:
  5239 ;;		wreg, status,2, status,0, pclath, tosl, cstack
  5240 ;; Tracked objects:
  5241 ;;		On entry : 0/0
  5242 ;;		On exit  : 0/0
  5243 ;;		Unchanged: 0/0
  5244 ;; Data sizes:     COMRAM   BANK5   BANK6   BANK7   BANK8   BANK9  BANK10  BANK11  BANK12  BANK13  BANK14  BANK15  BANK1
      +6  BANK17  BANK18  BANK19  BANK20  BANK21  BANK22  BANK23  BANK24  BANK25  BANK26  BANK27  BANK28  BANK29  BANK30  BANK3
      +1  BANK32  BANK33  BANK34  BANK35  BANK36  BANK37
  5245 ;;      Params:         0       0       0       0       0       0       0       0       0       0       0       0       
      +0       0       0       0       0       0       0       0       0       0       0       0       0       0       0       
      +0       0       0       0       0       0       0
  5246 ;;      Locals:         0       0       0       0       0       0       0       0       0       0       0       0       
      +0       0       0       0       0       0       0       0       0       0       0       0       0       0       0       
      +0       0       0       0       0       0       0
  5247 ;;      Temps:          0       0       0       0       0       0       0       0       0       0       0       0       
      +0       0       0       0       0       0       0       0       0       0       0       0       0       0       0       
      +0       0       0       0       0       0       0
  5248 ;;      Totals:         0       0       0       0       0       0       0       0       0       0       0       0       
      +0       0       0       0       0       0       0       0       0       0       0       0       0       0       0       
      +0       0       0       0       0       0       0
  5249 ;;Total ram usage:        0 bytes
  5250 ;; Hardware stack levels used:    1
  5251 ;; Hardware stack levels required when called:    2
  5252 ;; This function calls:
  5253 ;;		_TEMPORIZATION_100ms
  5254 ;;		_TEMPORIZATION_10s
  5255 ;;		_TEMPORIZATION_1mins
  5256 ;;		_TEMPORIZATION_1s
  5257 ;;		_TEMPORIZATION_30s
  5258 ;;		_TEMPORIZATION_500ms
  5259 ;;		_TMR1_CallBack
  5260 ;;		_TMR1_WriteTimer
  5261 ;; This function is called by:
  5262 ;;		_INTERRUPT_InterruptManager
  5263 ;; This function uses a non-reentrant model
  5264 ;;
  5265                           
  5266                           	psect	text53
  5267  004170                     __ptext53:
  5268                           	callstack 0
  5269  004170                     _TMR1_ISR:
  5270                           	callstack 120
  5271  004170                     
  5272                           ;mcc_generated_files/tmr1.c: 169:     PIR3bits.TMR1IF = 0;
  5273  004170  98B1               	bcf	177,4,c	;volatile
  5274  004172                     
  5275                           ;mcc_generated_files/tmr1.c: 170:     TMR1_WriteTimer(timer1ReloadVal);
  5276  004172  C5CF  F501         	movff	_timer1ReloadVal,TMR1_WriteTimer@timerVal	;volatile
  5277  004176  C5D0  F502         	movff	_timer1ReloadVal+1,TMR1_WriteTimer@timerVal+1	;volatile
  5278  00417A  EC37  F024         	call	_TMR1_WriteTimer	;wreg free
  5279  00417E                     
  5280                           ;mcc_generated_files/tmr1.c: 174:     TMR1_CallBack();
  5281  00417E  EC4E  F024         	call	_TMR1_CallBack	;wreg free
  5282  004182                     
  5283                           ;mcc_generated_files/tmr1.c: 176:     TEMPORIZATION_100ms();
  5284  004182  EC1C  F026         	call	_TEMPORIZATION_100ms	;wreg free
  5285  004186                     
  5286                           ;mcc_generated_files/tmr1.c: 177:     if ( ucCount500ms++ == 5 )
  5287  004186  2A5D               	incf	_ucCount500ms^(0+1280),f,c
  5288  004188  0E06               	movlw	6
  5289  00418A  185D               	xorwf	_ucCount500ms^(0+1280),w,c
  5290  00418C  A4D8               	btfss	status,2,c
  5291  00418E  EFCB  F020         	goto	i2u469_41
  5292  004192  EFCD  F020         	goto	i2u469_40
  5293  004196                     i2u469_41:
  5294  004196  EFD1  F020         	goto	i2l5976
  5295  00419A                     i2u469_40:
  5296  00419A                     
  5297                           ;mcc_generated_files/tmr1.c: 178:     {;mcc_generated_files/tmr1.c: 179:         ucCount
      +                          500ms = 0;
  5298  00419A  0E00               	movlw	0
  5299  00419C  6E5D               	movwf	_ucCount500ms^(0+1280),c
  5300  00419E                     
  5301                           ;mcc_generated_files/tmr1.c: 180:         TEMPORIZATION_500ms();
  5302  00419E  EC18  F026         	call	_TEMPORIZATION_500ms	;wreg free
  5303  0041A2                     i2l5976:
  5304                           
  5305                           ;mcc_generated_files/tmr1.c: 182:     if ( ucCount1s++ == 10 )
  5306  0041A2  2A5C               	incf	_ucCount1s^(0+1280),f,c
  5307  0041A4  0E0B               	movlw	11
  5308  0041A6  185C               	xorwf	_ucCount1s^(0+1280),w,c
  5309  0041A8  A4D8               	btfss	status,2,c
  5310  0041AA  EFD9  F020         	goto	i2u470_41
  5311  0041AE  EFDB  F020         	goto	i2u470_40
  5312  0041B2                     i2u470_41:
  5313  0041B2  EFDF  F020         	goto	i2l5982
  5314  0041B6                     i2u470_40:
  5315  0041B6                     
  5316                           ;mcc_generated_files/tmr1.c: 183:     {;mcc_generated_files/tmr1.c: 184:         ucCount
      +                          1s = 0;
  5317  0041B6  0E00               	movlw	0
  5318  0041B8  6E5C               	movwf	_ucCount1s^(0+1280),c
  5319  0041BA                     
  5320                           ;mcc_generated_files/tmr1.c: 185:         TEMPORIZATION_1s();
  5321  0041BA  ECE4  F024         	call	_TEMPORIZATION_1s	;wreg free
  5322  0041BE                     i2l5982:
  5323                           
  5324                           ;mcc_generated_files/tmr1.c: 187:     if ( ucCount10s++ == 100 )
  5325  0041BE  0105               	movlb	5	; () banked
  5326  0041C0  2BB2               	incf	_ucCount10s& (0+255),f,b
  5327  0041C2  0E65               	movlw	101
  5328  0041C4  19B2               	xorwf	_ucCount10s& (0+255),w,b
  5329  0041C6  A4D8               	btfss	status,2,c
  5330  0041C8  EFE8  F020         	goto	i2u471_41
  5331  0041CC  EFEA  F020         	goto	i2u471_40
  5332  0041D0                     i2u471_41:
  5333  0041D0  EFEE  F020         	goto	i2l5988
  5334  0041D4                     i2u471_40:
  5335  0041D4                     
  5336                           ; BSR set to: 5
  5337                           ;mcc_generated_files/tmr1.c: 188:     {;mcc_generated_files/tmr1.c: 189:         ucCount
      +                          10s = 0;
  5338  0041D4  0E00               	movlw	0
  5339  0041D6  6FB2               	movwf	_ucCount10s& (0+255),b
  5340  0041D8                     
  5341                           ; BSR set to: 5
  5342                           ;mcc_generated_files/tmr1.c: 190:         TEMPORIZATION_10s();
  5343  0041D8  EC1B  F026         	call	_TEMPORIZATION_10s	;wreg free
  5344  0041DC                     i2l5988:
  5345                           
  5346                           ;mcc_generated_files/tmr1.c: 192:     if ( uiCount30s++ == 300 )
  5347  0041DC  0105               	movlb	5	; () banked
  5348  0041DE  4B7C               	infsnz	_uiCount30s& (0+255),f,b
  5349  0041E0  2B7D               	incf	(_uiCount30s+1)& (0+255),f,b
  5350  0041E2  0E2D               	movlw	45
  5351  0041E4  197C               	xorwf	_uiCount30s& (0+255),w,b
  5352  0041E6  E106               	bnz	i2u472_41
  5353  0041E8  057D               	decf	(_uiCount30s+1)& (0+255),w,b
  5354  0041EA  A4D8               	btfss	status,2,c
  5355  0041EC  EFFA  F020         	goto	i2u472_41
  5356  0041F0  EFFC  F020         	goto	i2u472_40
  5357  0041F4                     i2u472_41:
  5358  0041F4  EF02  F021         	goto	i2l5994
  5359  0041F8                     i2u472_40:
  5360  0041F8                     
  5361                           ; BSR set to: 5
  5362                           ;mcc_generated_files/tmr1.c: 193:     {;mcc_generated_files/tmr1.c: 194:         uiCount
      +                          30s = 0;
  5363  0041F8  0E00               	movlw	0
  5364  0041FA  6F7D               	movwf	(_uiCount30s+1)& (0+255),b
  5365  0041FC  0E00               	movlw	0
  5366  0041FE  6F7C               	movwf	_uiCount30s& (0+255),b
  5367  004200                     
  5368                           ; BSR set to: 5
  5369                           ;mcc_generated_files/tmr1.c: 195:         TEMPORIZATION_30s();
  5370  004200  EC19  F026         	call	_TEMPORIZATION_30s	;wreg free
  5371  004204                     i2l5994:
  5372                           
  5373                           ;mcc_generated_files/tmr1.c: 197:     if ( uiCount1min++ == 600 )
  5374  004204  0105               	movlb	5	; () banked
  5375  004206  4B7A               	infsnz	_uiCount1min& (0+255),f,b
  5376  004208  2B7B               	incf	(_uiCount1min+1)& (0+255),f,b
  5377  00420A  0E59               	movlw	89
  5378  00420C  197A               	xorwf	_uiCount1min& (0+255),w,b
  5379  00420E  E107               	bnz	i2u473_41
  5380  004210  0E02               	movlw	2
  5381  004212  197B               	xorwf	(_uiCount1min+1)& (0+255),w,b
  5382  004214  A4D8               	btfss	status,2,c
  5383  004216  EF0F  F021         	goto	i2u473_41
  5384  00421A  EF11  F021         	goto	i2u473_40
  5385  00421E                     i2u473_41:
  5386  00421E  EF17  F021         	goto	i2l1192
  5387  004222                     i2u473_40:
  5388  004222                     
  5389                           ; BSR set to: 5
  5390                           ;mcc_generated_files/tmr1.c: 198:     {;mcc_generated_files/tmr1.c: 199:         uiCount
      +                          1min = 0;
  5391  004222  0E00               	movlw	0
  5392  004224  6F7B               	movwf	(_uiCount1min+1)& (0+255),b
  5393  004226  0E00               	movlw	0
  5394  004228  6F7A               	movwf	_uiCount1min& (0+255),b
  5395  00422A                     
  5396                           ; BSR set to: 5
  5397                           ;mcc_generated_files/tmr1.c: 200:         TEMPORIZATION_1mins();
  5398  00422A  EC1A  F026         	call	_TEMPORIZATION_1mins	;wreg free
  5399  00422E                     i2l1192:
  5400  00422E  0012               	return		;funcret
  5401  004230                     __end_of_TMR1_ISR:
  5402                           	callstack 0
  5403                           
  5404 ;; *************** function _TMR1_WriteTimer *****************
  5405 ;; Defined at:
  5406 ;;		line 128 in file "mcc_generated_files/tmr1.c"
  5407 ;; Parameters:    Size  Location     Type
  5408 ;;  timerVal        2    0[COMRAM] unsigned short 
  5409 ;; Auto vars:     Size  Location     Type
  5410 ;;		None
  5411 ;; Return value:  Size  Location     Type
  5412 ;;                  1    wreg      void 
  5413 ;; Registers used:
  5414 ;;		wreg, status,2
  5415 ;; Tracked objects:
  5416 ;;		On entry : 0/0
  5417 ;;		On exit  : 0/0
  5418 ;;		Unchanged: 0/0
  5419 ;; Data sizes:     COMRAM   BANK5   BANK6   BANK7   BANK8   BANK9  BANK10  BANK11  BANK12  BANK13  BANK14  BANK15  BANK1
      +6  BANK17  BANK18  BANK19  BANK20  BANK21  BANK22  BANK23  BANK24  BANK25  BANK26  BANK27  BANK28  BANK29  BANK30  BANK3
      +1  BANK32  BANK33  BANK34  BANK35  BANK36  BANK37
  5420 ;;      Params:         2       0       0       0       0       0       0       0       0       0       0       0       
      +0       0       0       0       0       0       0       0       0       0       0       0       0       0       0       
      +0       0       0       0       0       0       0
  5421 ;;      Locals:         0       0       0       0       0       0       0       0       0       0       0       0       
      +0       0       0       0       0       0       0       0       0       0       0       0       0       0       0       
      +0       0       0       0       0       0       0
  5422 ;;      Temps:          0       0       0       0       0       0       0       0       0       0       0       0       
      +0       0       0       0       0       0       0       0       0       0       0       0       0       0       0       
      +0       0       0       0       0       0       0
  5423 ;;      Totals:         2       0       0       0       0       0       0       0       0       0       0       0       
      +0       0       0       0       0       0       0       0       0       0       0       0       0       0       0       
      +0       0       0       0       0       0       0
  5424 ;;Total ram usage:        2 bytes
  5425 ;; Hardware stack levels used:    1
  5426 ;; This function calls:
  5427 ;;		Nothing
  5428 ;; This function is called by:
  5429 ;;		_TMR1_ISR
  5430 ;;		_TMR1_Reload
  5431 ;; This function uses a non-reentrant model
  5432 ;;
  5433                           
  5434                           	psect	text54
  5435  00486E                     __ptext54:
  5436                           	callstack 0
  5437  00486E                     _TMR1_WriteTimer:
  5438                           	callstack 121
  5439  00486E                     
  5440                           ;mcc_generated_files/tmr1.c: 128: void TMR1_WriteTimer(uint16_t timerVal);mcc_generated_
      +                          files/tmr1.c: 129: {;mcc_generated_files/tmr1.c: 130:     if (T1CONbits.NOT_SYNC == 1)
  5441  00486E  0103               	movlb	3	; () banked
  5442  004870  A51E               	btfss	30,2,b	;volatile
  5443  004872  EF3D  F024         	goto	i2u442_41
  5444  004876  EF3F  F024         	goto	i2u442_40
  5445  00487A                     i2u442_41:
  5446  00487A  EF48  F024         	goto	i2l5852
  5447  00487E                     i2u442_40:
  5448  00487E                     
  5449                           ; BSR set to: 3
  5450                           ;mcc_generated_files/tmr1.c: 131:     {;mcc_generated_files/tmr1.c: 133:         T1CONbi
      +                          ts.TMR1ON = 0;
  5451  00487E  911E               	bcf	30,0,b	;volatile
  5452  004880                     
  5453                           ; BSR set to: 3
  5454                           ;mcc_generated_files/tmr1.c: 136:         TMR1H = (uint8_t)(timerVal >> 8);
  5455  004880  5002               	movf	(TMR1_WriteTimer@timerVal+1)^(0+1280),w,c
  5456  004882  6F1D               	movwf	29,b	;volatile
  5457  004884                     
  5458                           ; BSR set to: 3
  5459                           ;mcc_generated_files/tmr1.c: 137:         TMR1L = (uint8_t)timerVal;
  5460  004884  0061  F404  F31C   	movff	TMR1_WriteTimer@timerVal,796	;volatile
  5461  00488A                     
  5462                           ; BSR set to: 3
  5463                           ;mcc_generated_files/tmr1.c: 140:         T1CONbits.TMR1ON =1;
  5464  00488A  811E               	bsf	30,0,b	;volatile
  5465                           
  5466                           ;mcc_generated_files/tmr1.c: 141:     }
  5467  00488C  EF4D  F024         	goto	i2l1175
  5468  004890                     i2l5852:
  5469                           
  5470                           ; BSR set to: 3
  5471                           ;mcc_generated_files/tmr1.c: 143:     {;mcc_generated_files/tmr1.c: 145:         TMR1H =
      +                           (uint8_t)(timerVal >> 8);
  5472  004890  5002               	movf	(TMR1_WriteTimer@timerVal+1)^(0+1280),w,c
  5473  004892  6F1D               	movwf	29,b	;volatile
  5474  004894                     
  5475                           ; BSR set to: 3
  5476                           ;mcc_generated_files/tmr1.c: 146:         TMR1L = (uint8_t)timerVal;
  5477  004894  0061  F404  F31C   	movff	TMR1_WriteTimer@timerVal,796	;volatile
  5478  00489A                     i2l1175:
  5479                           
  5480                           ; BSR set to: 3
  5481  00489A  0012               	return		;funcret
  5482  00489C                     __end_of_TMR1_WriteTimer:
  5483                           	callstack 0
  5484                           
  5485 ;; *************** function _TMR1_CallBack *****************
  5486 ;; Defined at:
  5487 ;;		line 204 in file "mcc_generated_files/tmr1.c"
  5488 ;; Parameters:    Size  Location     Type
  5489 ;;		None
  5490 ;; Auto vars:     Size  Location     Type
  5491 ;;		None
  5492 ;; Return value:  Size  Location     Type
  5493 ;;                  1    wreg      void 
  5494 ;; Registers used:
  5495 ;;		wreg, status,2, status,0, pclath, tosl, cstack
  5496 ;; Tracked objects:
  5497 ;;		On entry : 0/0
  5498 ;;		On exit  : 0/0
  5499 ;;		Unchanged: 0/0
  5500 ;; Data sizes:     COMRAM   BANK5   BANK6   BANK7   BANK8   BANK9  BANK10  BANK11  BANK12  BANK13  BANK14  BANK15  BANK1
      +6  BANK17  BANK18  BANK19  BANK20  BANK21  BANK22  BANK23  BANK24  BANK25  BANK26  BANK27  BANK28  BANK29  BANK30  BANK3
      +1  BANK32  BANK33  BANK34  BANK35  BANK36  BANK37
  5501 ;;      Params:         0       0       0       0       0       0       0       0       0       0       0       0       
      +0       0       0       0       0       0       0       0       0       0       0       0       0       0       0       
      +0       0       0       0       0       0       0
  5502 ;;      Locals:         0       0       0       0       0       0       0       0       0       0       0       0       
      +0       0       0       0       0       0       0       0       0       0       0       0       0       0       0       
      +0       0       0       0       0       0       0
  5503 ;;      Temps:          0       0       0       0       0       0       0       0       0       0       0       0       
      +0       0       0       0       0       0       0       0       0       0       0       0       0       0       0       
      +0       0       0       0       0       0       0
  5504 ;;      Totals:         0       0       0       0       0       0       0       0       0       0       0       0       
      +0       0       0       0       0       0       0       0       0       0       0       0       0       0       0       
      +0       0       0       0       0       0       0
  5505 ;;Total ram usage:        0 bytes
  5506 ;; Hardware stack levels used:    1
  5507 ;; Hardware stack levels required when called:    1
  5508 ;; This function calls:
  5509 ;;		Absolute function
  5510 ;;		_TMR1_DefaultInterruptHandler
  5511 ;; This function is called by:
  5512 ;;		_TMR1_ISR
  5513 ;; This function uses a non-reentrant model
  5514 ;;
  5515                           
  5516                           	psect	text55
  5517  00489C                     __ptext55:
  5518                           	callstack 0
  5519  00489C                     _TMR1_CallBack:
  5520                           	callstack 120
  5521  00489C                     
  5522                           ;mcc_generated_files/tmr1.c: 207:     if(TMR1_InterruptHandler)
  5523  00489C  0105               	movlb	5	; () banked
  5524  00489E  51CD               	movf	_TMR1_InterruptHandler& (0+255),w,b
  5525  0048A0  11CE               	iorwf	(_TMR1_InterruptHandler+1)& (0+255),w,b
  5526  0048A2  B4D8               	btfsc	status,2,c
  5527  0048A4  EF56  F024         	goto	i2u443_41
  5528  0048A8  EF58  F024         	goto	i2u443_40
  5529  0048AC                     i2u443_41:
  5530  0048AC  EF64  F024         	goto	i2l1196
  5531  0048B0                     i2u443_40:
  5532  0048B0                     
  5533                           ; BSR set to: 5
  5534                           ;mcc_generated_files/tmr1.c: 208:     {;mcc_generated_files/tmr1.c: 209:         TMR1_In
      +                          terruptHandler();
  5535  0048B0  D802               	call	i2u444_48
  5536  0048B2  EF64  F024         	goto	i2u444_49
  5537  0048B6                     i2u444_48:
  5538  0048B6  0005               	push	
  5539  0048B8  6EFA               	movwf	pclath,c
  5540  0048BA  51CD               	movf	_TMR1_InterruptHandler& (0+255),w,b
  5541  0048BC  6EFD               	movwf	tosl,c
  5542  0048BE  51CE               	movf	(_TMR1_InterruptHandler+1)& (0+255),w,b
  5543  0048C0  6EFE               	movwf	tosh,c
  5544  0048C2  6AFF               	clrf	tosu,c
  5545  0048C4  50FA               	movf	pclath,w,c
  5546  0048C6  0012               	return		;indir
  5547  0048C8                     i2u444_49:
  5548  0048C8                     i2l1196:
  5549  0048C8  0012               	return		;funcret
  5550  0048CA                     __end_of_TMR1_CallBack:
  5551                           	callstack 0
  5552                           
  5553 ;; *************** function _TMR1_DefaultInterruptHandler *****************
  5554 ;; Defined at:
  5555 ;;		line 217 in file "mcc_generated_files/tmr1.c"
  5556 ;; Parameters:    Size  Location     Type
  5557 ;;		None
  5558 ;; Auto vars:     Size  Location     Type
  5559 ;;		None
  5560 ;; Return value:  Size  Location     Type
  5561 ;;                  1    wreg      void 
  5562 ;; Registers used:
  5563 ;;		None
  5564 ;; Tracked objects:
  5565 ;;		On entry : 0/0
  5566 ;;		On exit  : 0/0
  5567 ;;		Unchanged: 0/0
  5568 ;; Data sizes:     COMRAM   BANK5   BANK6   BANK7   BANK8   BANK9  BANK10  BANK11  BANK12  BANK13  BANK14  BANK15  BANK1
      +6  BANK17  BANK18  BANK19  BANK20  BANK21  BANK22  BANK23  BANK24  BANK25  BANK26  BANK27  BANK28  BANK29  BANK30  BANK3
      +1  BANK32  BANK33  BANK34  BANK35  BANK36  BANK37
  5569 ;;      Params:         0       0       0       0       0       0       0       0       0       0       0       0       
      +0       0       0       0       0       0       0       0       0       0       0       0       0       0       0       
      +0       0       0       0       0       0       0
  5570 ;;      Locals:         0       0       0       0       0       0       0       0       0       0       0       0       
      +0       0       0       0       0       0       0       0       0       0       0       0       0       0       0       
      +0       0       0       0       0       0       0
  5571 ;;      Temps:          0       0       0       0       0       0       0       0       0       0       0       0       
      +0       0       0       0       0       0       0       0       0       0       0       0       0       0       0       
      +0       0       0       0       0       0       0
  5572 ;;      Totals:         0       0       0       0       0       0       0       0       0       0       0       0       
      +0       0       0       0       0       0       0       0       0       0       0       0       0       0       0       
      +0       0       0       0       0       0       0
  5573 ;;Total ram usage:        0 bytes
  5574 ;; Hardware stack levels used:    1
  5575 ;; This function calls:
  5576 ;;		Nothing
  5577 ;; This function is called by:
  5578 ;;		_TMR1_Initialize
  5579 ;;		_TMR1_CallBack
  5580 ;; This function uses a non-reentrant model
  5581 ;;
  5582                           
  5583                           	psect	text56
  5584  004C2E                     __ptext56:
  5585                           	callstack 0
  5586  004C2E                     _TMR1_DefaultInterruptHandler:
  5587                           	callstack 120
  5588  004C2E  0012               	return		;funcret
  5589  004C30                     __end_of_TMR1_DefaultInterruptHandler:
  5590                           	callstack 0
  5591                           
  5592 ;; *************** function _TEMPORIZATION_500ms *****************
  5593 ;; Defined at:
  5594 ;;		line 32 in file "TEMPORIZATIONS.c"
  5595 ;; Parameters:    Size  Location     Type
  5596 ;;		None
  5597 ;; Auto vars:     Size  Location     Type
  5598 ;;		None
  5599 ;; Return value:  Size  Location     Type
  5600 ;;                  1    wreg      void 
  5601 ;; Registers used:
  5602 ;;		None
  5603 ;; Tracked objects:
  5604 ;;		On entry : 0/0
  5605 ;;		On exit  : 0/0
  5606 ;;		Unchanged: 0/0
  5607 ;; Data sizes:     COMRAM   BANK5   BANK6   BANK7   BANK8   BANK9  BANK10  BANK11  BANK12  BANK13  BANK14  BANK15  BANK1
      +6  BANK17  BANK18  BANK19  BANK20  BANK21  BANK22  BANK23  BANK24  BANK25  BANK26  BANK27  BANK28  BANK29  BANK30  BANK3
      +1  BANK32  BANK33  BANK34  BANK35  BANK36  BANK37
  5608 ;;      Params:         0       0       0       0       0       0       0       0       0       0       0       0       
      +0       0       0       0       0       0       0       0       0       0       0       0       0       0       0       
      +0       0       0       0       0       0       0
  5609 ;;      Locals:         0       0       0       0       0       0       0       0       0       0       0       0       
      +0       0       0       0       0       0       0       0       0       0       0       0       0       0       0       
      +0       0       0       0       0       0       0
  5610 ;;      Temps:          0       0       0       0       0       0       0       0       0       0       0       0       
      +0       0       0       0       0       0       0       0       0       0       0       0       0       0       0       
      +0       0       0       0       0       0       0
  5611 ;;      Totals:         0       0       0       0       0       0       0       0       0       0       0       0       
      +0       0       0       0       0       0       0       0       0       0       0       0       0       0       0       
      +0       0       0       0       0       0       0
  5612 ;;Total ram usage:        0 bytes
  5613 ;; Hardware stack levels used:    1
  5614 ;; This function calls:
  5615 ;;		Nothing
  5616 ;; This function is called by:
  5617 ;;		_TMR1_ISR
  5618 ;; This function uses a non-reentrant model
  5619 ;;
  5620                           
  5621                           	psect	text57
  5622  004C30                     __ptext57:
  5623                           	callstack 0
  5624  004C30                     _TEMPORIZATION_500ms:
  5625                           	callstack 121
  5626  004C30  0012               	return		;funcret
  5627  004C32                     __end_of_TEMPORIZATION_500ms:
  5628                           	callstack 0
  5629                           
  5630 ;; *************** function _TEMPORIZATION_30s *****************
  5631 ;; Defined at:
  5632 ;;		line 49 in file "TEMPORIZATIONS.c"
  5633 ;; Parameters:    Size  Location     Type
  5634 ;;		None
  5635 ;; Auto vars:     Size  Location     Type
  5636 ;;		None
  5637 ;; Return value:  Size  Location     Type
  5638 ;;                  1    wreg      void 
  5639 ;; Registers used:
  5640 ;;		None
  5641 ;; Tracked objects:
  5642 ;;		On entry : 0/0
  5643 ;;		On exit  : 0/0
  5644 ;;		Unchanged: 0/0
  5645 ;; Data sizes:     COMRAM   BANK5   BANK6   BANK7   BANK8   BANK9  BANK10  BANK11  BANK12  BANK13  BANK14  BANK15  BANK1
      +6  BANK17  BANK18  BANK19  BANK20  BANK21  BANK22  BANK23  BANK24  BANK25  BANK26  BANK27  BANK28  BANK29  BANK30  BANK3
      +1  BANK32  BANK33  BANK34  BANK35  BANK36  BANK37
  5646 ;;      Params:         0       0       0       0       0       0       0       0       0       0       0       0       
      +0       0       0       0       0       0       0       0       0       0       0       0       0       0       0       
      +0       0       0       0       0       0       0
  5647 ;;      Locals:         0       0       0       0       0       0       0       0       0       0       0       0       
      +0       0       0       0       0       0       0       0       0       0       0       0       0       0       0       
      +0       0       0       0       0       0       0
  5648 ;;      Temps:          0       0       0       0       0       0       0       0       0       0       0       0       
      +0       0       0       0       0       0       0       0       0       0       0       0       0       0       0       
      +0       0       0       0       0       0       0
  5649 ;;      Totals:         0       0       0       0       0       0       0       0       0       0       0       0       
      +0       0       0       0       0       0       0       0       0       0       0       0       0       0       0       
      +0       0       0       0       0       0       0
  5650 ;;Total ram usage:        0 bytes
  5651 ;; Hardware stack levels used:    1
  5652 ;; This function calls:
  5653 ;;		Nothing
  5654 ;; This function is called by:
  5655 ;;		_TMR1_ISR
  5656 ;; This function uses a non-reentrant model
  5657 ;;
  5658                           
  5659                           	psect	text58
  5660  004C32                     __ptext58:
  5661                           	callstack 0
  5662  004C32                     _TEMPORIZATION_30s:
  5663                           	callstack 121
  5664  004C32  0012               	return		;funcret
  5665  004C34                     __end_of_TEMPORIZATION_30s:
  5666                           	callstack 0
  5667                           
  5668 ;; *************** function _TEMPORIZATION_1s *****************
  5669 ;; Defined at:
  5670 ;;		line 39 in file "TEMPORIZATIONS.c"
  5671 ;; Parameters:    Size  Location     Type
  5672 ;;		None
  5673 ;; Auto vars:     Size  Location     Type
  5674 ;;		None
  5675 ;; Return value:  Size  Location     Type
  5676 ;;                  1    wreg      void 
  5677 ;; Registers used:
  5678 ;;		wreg, status,2, status,0
  5679 ;; Tracked objects:
  5680 ;;		On entry : 0/0
  5681 ;;		On exit  : 0/0
  5682 ;;		Unchanged: 0/0
  5683 ;; Data sizes:     COMRAM   BANK5   BANK6   BANK7   BANK8   BANK9  BANK10  BANK11  BANK12  BANK13  BANK14  BANK15  BANK1
      +6  BANK17  BANK18  BANK19  BANK20  BANK21  BANK22  BANK23  BANK24  BANK25  BANK26  BANK27  BANK28  BANK29  BANK30  BANK3
      +1  BANK32  BANK33  BANK34  BANK35  BANK36  BANK37
  5684 ;;      Params:         0       0       0       0       0       0       0       0       0       0       0       0       
      +0       0       0       0       0       0       0       0       0       0       0       0       0       0       0       
      +0       0       0       0       0       0       0
  5685 ;;      Locals:         0       0       0       0       0       0       0       0       0       0       0       0       
      +0       0       0       0       0       0       0       0       0       0       0       0       0       0       0       
      +0       0       0       0       0       0       0
  5686 ;;      Temps:          1       0       0       0       0       0       0       0       0       0       0       0       
      +0       0       0       0       0       0       0       0       0       0       0       0       0       0       0       
      +0       0       0       0       0       0       0
  5687 ;;      Totals:         1       0       0       0       0       0       0       0       0       0       0       0       
      +0       0       0       0       0       0       0       0       0       0       0       0       0       0       0       
      +0       0       0       0       0       0       0
  5688 ;;Total ram usage:        1 bytes
  5689 ;; Hardware stack levels used:    1
  5690 ;; This function calls:
  5691 ;;		Nothing
  5692 ;; This function is called by:
  5693 ;;		_TMR1_ISR
  5694 ;; This function uses a non-reentrant model
  5695 ;;
  5696                           
  5697                           	psect	text59
  5698  0049C8                     __ptext59:
  5699                           	callstack 0
  5700  0049C8                     _TEMPORIZATION_1s:
  5701                           	callstack 121
  5702  0049C8  B8BE               	btfsc	190,4,c	;volatile
  5703  0049CA  EFE9  F024         	goto	i2u445_41
  5704  0049CE  EFEC  F024         	goto	i2u445_40
  5705  0049D2                     i2u445_41:
  5706  0049D2  0E01               	movlw	1
  5707  0049D4  EFED  F024         	goto	i2u445_46
  5708  0049D8                     i2u445_40:
  5709  0049D8  0E00               	movlw	0
  5710  0049DA                     i2u445_46:
  5711  0049DA  0AFF               	xorlw	255
  5712  0049DC  6E01               	movwf	??_TEMPORIZATION_1s^(0+1280),c
  5713  0049DE  3A01               	swapf	??_TEMPORIZATION_1s^(0+1280),f,c
  5714  0049E0  50BE               	movf	190,w,c	;volatile
  5715  0049E2  1801               	xorwf	??_TEMPORIZATION_1s^(0+1280),w,c
  5716  0049E4  0BEF               	andlw	-17
  5717  0049E6  1801               	xorwf	??_TEMPORIZATION_1s^(0+1280),w,c
  5718  0049E8  6EBE               	movwf	190,c	;volatile
  5719  0049EA  0012               	return		;funcret
  5720  0049EC                     __end_of_TEMPORIZATION_1s:
  5721                           	callstack 0
  5722                           
  5723 ;; *************** function _TEMPORIZATION_1mins *****************
  5724 ;; Defined at:
  5725 ;;		line 54 in file "TEMPORIZATIONS.c"
  5726 ;; Parameters:    Size  Location     Type
  5727 ;;		None
  5728 ;; Auto vars:     Size  Location     Type
  5729 ;;		None
  5730 ;; Return value:  Size  Location     Type
  5731 ;;                  1    wreg      void 
  5732 ;; Registers used:
  5733 ;;		None
  5734 ;; Tracked objects:
  5735 ;;		On entry : 0/0
  5736 ;;		On exit  : 0/0
  5737 ;;		Unchanged: 0/0
  5738 ;; Data sizes:     COMRAM   BANK5   BANK6   BANK7   BANK8   BANK9  BANK10  BANK11  BANK12  BANK13  BANK14  BANK15  BANK1
      +6  BANK17  BANK18  BANK19  BANK20  BANK21  BANK22  BANK23  BANK24  BANK25  BANK26  BANK27  BANK28  BANK29  BANK30  BANK3
      +1  BANK32  BANK33  BANK34  BANK35  BANK36  BANK37
  5739 ;;      Params:         0       0       0       0       0       0       0       0       0       0       0       0       
      +0       0       0       0       0       0       0       0       0       0       0       0       0       0       0       
      +0       0       0       0       0       0       0
  5740 ;;      Locals:         0       0       0       0       0       0       0       0       0       0       0       0       
      +0       0       0       0       0       0       0       0       0       0       0       0       0       0       0       
      +0       0       0       0       0       0       0
  5741 ;;      Temps:          0       0       0       0       0       0       0       0       0       0       0       0       
      +0       0       0       0       0       0       0       0       0       0       0       0       0       0       0       
      +0       0       0       0       0       0       0
  5742 ;;      Totals:         0       0       0       0       0       0       0       0       0       0       0       0       
      +0       0       0       0       0       0       0       0       0       0       0       0       0       0       0       
      +0       0       0       0       0       0       0
  5743 ;;Total ram usage:        0 bytes
  5744 ;; Hardware stack levels used:    1
  5745 ;; This function calls:
  5746 ;;		Nothing
  5747 ;; This function is called by:
  5748 ;;		_TMR1_ISR
  5749 ;; This function uses a non-reentrant model
  5750 ;;
  5751                           
  5752                           	psect	text60
  5753  004C34                     __ptext60:
  5754                           	callstack 0
  5755  004C34                     _TEMPORIZATION_1mins:
  5756                           	callstack 121
  5757  004C34  0012               	return		;funcret
  5758  004C36                     __end_of_TEMPORIZATION_1mins:
  5759                           	callstack 0
  5760                           
  5761 ;; *************** function _TEMPORIZATION_10s *****************
  5762 ;; Defined at:
  5763 ;;		line 44 in file "TEMPORIZATIONS.c"
  5764 ;; Parameters:    Size  Location     Type
  5765 ;;		None
  5766 ;; Auto vars:     Size  Location     Type
  5767 ;;		None
  5768 ;; Return value:  Size  Location     Type
  5769 ;;                  1    wreg      void 
  5770 ;; Registers used:
  5771 ;;		None
  5772 ;; Tracked objects:
  5773 ;;		On entry : 0/0
  5774 ;;		On exit  : 0/0
  5775 ;;		Unchanged: 0/0
  5776 ;; Data sizes:     COMRAM   BANK5   BANK6   BANK7   BANK8   BANK9  BANK10  BANK11  BANK12  BANK13  BANK14  BANK15  BANK1
      +6  BANK17  BANK18  BANK19  BANK20  BANK21  BANK22  BANK23  BANK24  BANK25  BANK26  BANK27  BANK28  BANK29  BANK30  BANK3
      +1  BANK32  BANK33  BANK34  BANK35  BANK36  BANK37
  5777 ;;      Params:         0       0       0       0       0       0       0       0       0       0       0       0       
      +0       0       0       0       0       0       0       0       0       0       0       0       0       0       0       
      +0       0       0       0       0       0       0
  5778 ;;      Locals:         0       0       0       0       0       0       0       0       0       0       0       0       
      +0       0       0       0       0       0       0       0       0       0       0       0       0       0       0       
      +0       0       0       0       0       0       0
  5779 ;;      Temps:          0       0       0       0       0       0       0       0       0       0       0       0       
      +0       0       0       0       0       0       0       0       0       0       0       0       0       0       0       
      +0       0       0       0       0       0       0
  5780 ;;      Totals:         0       0       0       0       0       0       0       0       0       0       0       0       
      +0       0       0       0       0       0       0       0       0       0       0       0       0       0       0       
      +0       0       0       0       0       0       0
  5781 ;;Total ram usage:        0 bytes
  5782 ;; Hardware stack levels used:    1
  5783 ;; This function calls:
  5784 ;;		Nothing
  5785 ;; This function is called by:
  5786 ;;		_TMR1_ISR
  5787 ;; This function uses a non-reentrant model
  5788 ;;
  5789                           
  5790                           	psect	text61
  5791  004C36                     __ptext61:
  5792                           	callstack 0
  5793  004C36                     _TEMPORIZATION_10s:
  5794                           	callstack 121
  5795  004C36  0012               	return		;funcret
  5796  004C38                     __end_of_TEMPORIZATION_10s:
  5797                           	callstack 0
  5798                           
  5799 ;; *************** function _TEMPORIZATION_100ms *****************
  5800 ;; Defined at:
  5801 ;;		line 27 in file "TEMPORIZATIONS.c"
  5802 ;; Parameters:    Size  Location     Type
  5803 ;;		None
  5804 ;; Auto vars:     Size  Location     Type
  5805 ;;		None
  5806 ;; Return value:  Size  Location     Type
  5807 ;;                  1    wreg      void 
  5808 ;; Registers used:
  5809 ;;		None
  5810 ;; Tracked objects:
  5811 ;;		On entry : 0/0
  5812 ;;		On exit  : 0/0
  5813 ;;		Unchanged: 0/0
  5814 ;; Data sizes:     COMRAM   BANK5   BANK6   BANK7   BANK8   BANK9  BANK10  BANK11  BANK12  BANK13  BANK14  BANK15  BANK1
      +6  BANK17  BANK18  BANK19  BANK20  BANK21  BANK22  BANK23  BANK24  BANK25  BANK26  BANK27  BANK28  BANK29  BANK30  BANK3
      +1  BANK32  BANK33  BANK34  BANK35  BANK36  BANK37
  5815 ;;      Params:         0       0       0       0       0       0       0       0       0       0       0       0       
      +0       0       0       0       0       0       0       0       0       0       0       0       0       0       0       
      +0       0       0       0       0       0       0
  5816 ;;      Locals:         0       0       0       0       0       0       0       0       0       0       0       0       
      +0       0       0       0       0       0       0       0       0       0       0       0       0       0       0       
      +0       0       0       0       0       0       0
  5817 ;;      Temps:          0       0       0       0       0       0       0       0       0       0       0       0       
      +0       0       0       0       0       0       0       0       0       0       0       0       0       0       0       
      +0       0       0       0       0       0       0
  5818 ;;      Totals:         0       0       0       0       0       0       0       0       0       0       0       0       
      +0       0       0       0       0       0       0       0       0       0       0       0       0       0       0       
      +0       0       0       0       0       0       0
  5819 ;;Total ram usage:        0 bytes
  5820 ;; Hardware stack levels used:    1
  5821 ;; This function calls:
  5822 ;;		Nothing
  5823 ;; This function is called by:
  5824 ;;		_TMR1_ISR
  5825 ;; This function uses a non-reentrant model
  5826 ;;
  5827                           
  5828                           	psect	text62
  5829  004C38                     __ptext62:
  5830                           	callstack 0
  5831  004C38                     _TEMPORIZATION_100ms:
  5832                           	callstack 121
  5833  004C38  0012               	return		;funcret
  5834  004C3A                     __end_of_TEMPORIZATION_100ms:
  5835                           	callstack 0
  5836                           
  5837 ;; *************** function _TMR0_ISR *****************
  5838 ;; Defined at:
  5839 ;;		line 121 in file "mcc_generated_files/tmr0.c"
  5840 ;; Parameters:    Size  Location     Type
  5841 ;;		None
  5842 ;; Auto vars:     Size  Location     Type
  5843 ;;		None
  5844 ;; Return value:  Size  Location     Type
  5845 ;;                  1    wreg      void 
  5846 ;; Registers used:
  5847 ;;		wreg, status,2, status,0, pclath, tosl, cstack
  5848 ;; Tracked objects:
  5849 ;;		On entry : 0/0
  5850 ;;		On exit  : 0/0
  5851 ;;		Unchanged: 0/0
  5852 ;; Data sizes:     COMRAM   BANK5   BANK6   BANK7   BANK8   BANK9  BANK10  BANK11  BANK12  BANK13  BANK14  BANK15  BANK1
      +6  BANK17  BANK18  BANK19  BANK20  BANK21  BANK22  BANK23  BANK24  BANK25  BANK26  BANK27  BANK28  BANK29  BANK30  BANK3
      +1  BANK32  BANK33  BANK34  BANK35  BANK36  BANK37
  5853 ;;      Params:         0       0       0       0       0       0       0       0       0       0       0       0       
      +0       0       0       0       0       0       0       0       0       0       0       0       0       0       0       
      +0       0       0       0       0       0       0
  5854 ;;      Locals:         0       0       0       0       0       0       0       0       0       0       0       0       
      +0       0       0       0       0       0       0       0       0       0       0       0       0       0       0       
      +0       0       0       0       0       0       0
  5855 ;;      Temps:          0       0       0       0       0       0       0       0       0       0       0       0       
      +0       0       0       0       0       0       0       0       0       0       0       0       0       0       0       
      +0       0       0       0       0       0       0
  5856 ;;      Totals:         0       0       0       0       0       0       0       0       0       0       0       0       
      +0       0       0       0       0       0       0       0       0       0       0       0       0       0       0       
      +0       0       0       0       0       0       0
  5857 ;;Total ram usage:        0 bytes
  5858 ;; Hardware stack levels used:    1
  5859 ;; Hardware stack levels required when called:    2
  5860 ;; This function calls:
  5861 ;;		_TMR0_CallBack
  5862 ;; This function is called by:
  5863 ;;		_INTERRUPT_InterruptManager
  5864 ;; This function uses a non-reentrant model
  5865 ;;
  5866                           
  5867                           	psect	text63
  5868  004BF8                     __ptext63:
  5869                           	callstack 0
  5870  004BF8                     _TMR0_ISR:
  5871                           	callstack 120
  5872  004BF8                     
  5873                           ;mcc_generated_files/tmr0.c: 124:     PIR3bits.TMR0IF = 0;
  5874  004BF8  9EB1               	bcf	177,7,c	;volatile
  5875  004BFA                     
  5876                           ;mcc_generated_files/tmr0.c: 127:     TMR0_CallBack();
  5877  004BFA  EC65  F024         	call	_TMR0_CallBack	;wreg free
  5878  004BFE  0012               	return		;funcret
  5879  004C00                     __end_of_TMR0_ISR:
  5880                           	callstack 0
  5881                           
  5882 ;; *************** function _TMR0_CallBack *****************
  5883 ;; Defined at:
  5884 ;;		line 132 in file "mcc_generated_files/tmr0.c"
  5885 ;; Parameters:    Size  Location     Type
  5886 ;;		None
  5887 ;; Auto vars:     Size  Location     Type
  5888 ;;		None
  5889 ;; Return value:  Size  Location     Type
  5890 ;;                  1    wreg      void 
  5891 ;; Registers used:
  5892 ;;		wreg, status,2, status,0, pclath, tosl, cstack
  5893 ;; Tracked objects:
  5894 ;;		On entry : 0/0
  5895 ;;		On exit  : 0/0
  5896 ;;		Unchanged: 0/0
  5897 ;; Data sizes:     COMRAM   BANK5   BANK6   BANK7   BANK8   BANK9  BANK10  BANK11  BANK12  BANK13  BANK14  BANK15  BANK1
      +6  BANK17  BANK18  BANK19  BANK20  BANK21  BANK22  BANK23  BANK24  BANK25  BANK26  BANK27  BANK28  BANK29  BANK30  BANK3
      +1  BANK32  BANK33  BANK34  BANK35  BANK36  BANK37
  5898 ;;      Params:         0       0       0       0       0       0       0       0       0       0       0       0       
      +0       0       0       0       0       0       0       0       0       0       0       0       0       0       0       
      +0       0       0       0       0       0       0
  5899 ;;      Locals:         0       0       0       0       0       0       0       0       0       0       0       0       
      +0       0       0       0       0       0       0       0       0       0       0       0       0       0       0       
      +0       0       0       0       0       0       0
  5900 ;;      Temps:          0       0       0       0       0       0       0       0       0       0       0       0       
      +0       0       0       0       0       0       0       0       0       0       0       0       0       0       0       
      +0       0       0       0       0       0       0
  5901 ;;      Totals:         0       0       0       0       0       0       0       0       0       0       0       0       
      +0       0       0       0       0       0       0       0       0       0       0       0       0       0       0       
      +0       0       0       0       0       0       0
  5902 ;;Total ram usage:        0 bytes
  5903 ;; Hardware stack levels used:    1
  5904 ;; Hardware stack levels required when called:    1
  5905 ;; This function calls:
  5906 ;;		Absolute function
  5907 ;;		_TMR0_DefaultInterruptHandler
  5908 ;; This function is called by:
  5909 ;;		_TMR0_ISR
  5910 ;; This function uses a non-reentrant model
  5911 ;;
  5912                           
  5913                           	psect	text64
  5914  0048CA                     __ptext64:
  5915                           	callstack 0
  5916  0048CA                     _TMR0_CallBack:
  5917                           	callstack 120
  5918  0048CA                     
  5919                           ;mcc_generated_files/tmr0.c: 136:     if(TMR0_InterruptHandler)
  5920  0048CA  0105               	movlb	5	; () banked
  5921  0048CC  51C9               	movf	_TMR0_InterruptHandler& (0+255),w,b
  5922  0048CE  11CA               	iorwf	(_TMR0_InterruptHandler+1)& (0+255),w,b
  5923  0048D0  B4D8               	btfsc	status,2,c
  5924  0048D2  EF6D  F024         	goto	i2u448_41
  5925  0048D6  EF6F  F024         	goto	i2u448_40
  5926  0048DA                     i2u448_41:
  5927  0048DA  EF7B  F024         	goto	i2l1337
  5928  0048DE                     i2u448_40:
  5929  0048DE                     
  5930                           ; BSR set to: 5
  5931                           ;mcc_generated_files/tmr0.c: 137:     {;mcc_generated_files/tmr0.c: 138:         TMR0_In
      +                          terruptHandler();
  5932  0048DE  D802               	call	i2u449_48
  5933  0048E0  EF7B  F024         	goto	i2u449_49
  5934  0048E4                     i2u449_48:
  5935  0048E4  0005               	push	
  5936  0048E6  6EFA               	movwf	pclath,c
  5937  0048E8  51C9               	movf	_TMR0_InterruptHandler& (0+255),w,b
  5938  0048EA  6EFD               	movwf	tosl,c
  5939  0048EC  51CA               	movf	(_TMR0_InterruptHandler+1)& (0+255),w,b
  5940  0048EE  6EFE               	movwf	tosh,c
  5941  0048F0  6AFF               	clrf	tosu,c
  5942  0048F2  50FA               	movf	pclath,w,c
  5943  0048F4  0012               	return		;indir
  5944  0048F6                     i2u449_49:
  5945  0048F6                     i2l1337:
  5946  0048F6  0012               	return		;funcret
  5947  0048F8                     __end_of_TMR0_CallBack:
  5948                           	callstack 0
  5949                           
  5950 ;; *************** function _TMR0_DefaultInterruptHandler *****************
  5951 ;; Defined at:
  5952 ;;		line 146 in file "mcc_generated_files/tmr0.c"
  5953 ;; Parameters:    Size  Location     Type
  5954 ;;		None
  5955 ;; Auto vars:     Size  Location     Type
  5956 ;;		None
  5957 ;; Return value:  Size  Location     Type
  5958 ;;                  1    wreg      void 
  5959 ;; Registers used:
  5960 ;;		None
  5961 ;; Tracked objects:
  5962 ;;		On entry : 0/0
  5963 ;;		On exit  : 0/0
  5964 ;;		Unchanged: 0/0
  5965 ;; Data sizes:     COMRAM   BANK5   BANK6   BANK7   BANK8   BANK9  BANK10  BANK11  BANK12  BANK13  BANK14  BANK15  BANK1
      +6  BANK17  BANK18  BANK19  BANK20  BANK21  BANK22  BANK23  BANK24  BANK25  BANK26  BANK27  BANK28  BANK29  BANK30  BANK3
      +1  BANK32  BANK33  BANK34  BANK35  BANK36  BANK37
  5966 ;;      Params:         0       0       0       0       0       0       0       0       0       0       0       0       
      +0       0       0       0       0       0       0       0       0       0       0       0       0       0       0       
      +0       0       0       0       0       0       0
  5967 ;;      Locals:         0       0       0       0       0       0       0       0       0       0       0       0       
      +0       0       0       0       0       0       0       0       0       0       0       0       0       0       0       
      +0       0       0       0       0       0       0
  5968 ;;      Temps:          0       0       0       0       0       0       0       0       0       0       0       0       
      +0       0       0       0       0       0       0       0       0       0       0       0       0       0       0       
      +0       0       0       0       0       0       0
  5969 ;;      Totals:         0       0       0       0       0       0       0       0       0       0       0       0       
      +0       0       0       0       0       0       0       0       0       0       0       0       0       0       0       
      +0       0       0       0       0       0       0
  5970 ;;Total ram usage:        0 bytes
  5971 ;; Hardware stack levels used:    1
  5972 ;; This function calls:
  5973 ;;		Nothing
  5974 ;; This function is called by:
  5975 ;;		_TMR0_Initialize
  5976 ;;		_TMR0_CallBack
  5977 ;; This function uses a non-reentrant model
  5978 ;;
  5979                           
  5980                           	psect	text65
  5981  004C3A                     __ptext65:
  5982                           	callstack 0
  5983  004C3A                     _TMR0_DefaultInterruptHandler:
  5984                           	callstack 120
  5985  004C3A  0012               	return		;funcret
  5986  004C3C                     __end_of_TMR0_DefaultInterruptHandler:
  5987                           	callstack 0
  5988                           
  5989 ;; *************** function _INT0_ISR *****************
  5990 ;; Defined at:
  5991 ;;		line 33 in file "mcc_generated_files/ext_int.c"
  5992 ;; Parameters:    Size  Location     Type
  5993 ;;		None
  5994 ;; Auto vars:     Size  Location     Type
  5995 ;;		None
  5996 ;; Return value:  Size  Location     Type
  5997 ;;                  1    wreg      void 
  5998 ;; Registers used:
  5999 ;;		wreg, status,2, status,0, pclath, tosl, prodl, prodh, cstack
  6000 ;; Tracked objects:
  6001 ;;		On entry : 0/0
  6002 ;;		On exit  : 0/0
  6003 ;;		Unchanged: 0/0
  6004 ;; Data sizes:     COMRAM   BANK5   BANK6   BANK7   BANK8   BANK9  BANK10  BANK11  BANK12  BANK13  BANK14  BANK15  BANK1
      +6  BANK17  BANK18  BANK19  BANK20  BANK21  BANK22  BANK23  BANK24  BANK25  BANK26  BANK27  BANK28  BANK29  BANK30  BANK3
      +1  BANK32  BANK33  BANK34  BANK35  BANK36  BANK37
  6005 ;;      Params:         0       0       0       0       0       0       0       0       0       0       0       0       
      +0       0       0       0       0       0       0       0       0       0       0       0       0       0       0       
      +0       0       0       0       0       0       0
  6006 ;;      Locals:         0       0       0       0       0       0       0       0       0       0       0       0       
      +0       0       0       0       0       0       0       0       0       0       0       0       0       0       0       
      +0       0       0       0       0       0       0
  6007 ;;      Temps:          0       0       0       0       0       0       0       0       0       0       0       0       
      +0       0       0       0       0       0       0       0       0       0       0       0       0       0       0       
      +0       0       0       0       0       0       0
  6008 ;;      Totals:         0       0       0       0       0       0       0       0       0       0       0       0       
      +0       0       0       0       0       0       0       0       0       0       0       0       0       0       0       
      +0       0       0       0       0       0       0
  6009 ;;Total ram usage:        0 bytes
  6010 ;; Hardware stack levels used:    1
  6011 ;; Hardware stack levels required when called:    4
  6012 ;; This function calls:
  6013 ;;		_INT0_CallBack
  6014 ;; This function is called by:
  6015 ;;		_INTERRUPT_InterruptManager
  6016 ;; This function uses a non-reentrant model
  6017 ;;
  6018                           
  6019                           	psect	text66
  6020  004C00                     __ptext66:
  6021                           	callstack 0
  6022  004C00                     _INT0_ISR:
  6023                           	callstack 118
  6024  004C00                     
  6025                           ;mcc_generated_files/ext_int.c: 35:     (PIR1bits.INT0IF = 0);
  6026  004C00  90AF               	bcf	175,0,c	;volatile
  6027  004C02                     
  6028                           ;mcc_generated_files/ext_int.c: 38:     INT0_CallBack();
  6029  004C02  ECBF  F023         	call	_INT0_CallBack	;wreg free
  6030  004C06  0012               	return		;funcret
  6031  004C08                     __end_of_INT0_ISR:
  6032                           	callstack 0
  6033                           
  6034 ;; *************** function _INT0_CallBack *****************
  6035 ;; Defined at:
  6036 ;;		line 42 in file "mcc_generated_files/ext_int.c"
  6037 ;; Parameters:    Size  Location     Type
  6038 ;;		None
  6039 ;; Auto vars:     Size  Location     Type
  6040 ;;		None
  6041 ;; Return value:  Size  Location     Type
  6042 ;;                  1    wreg      void 
  6043 ;; Registers used:
  6044 ;;		wreg, status,2, status,0, pclath, tosl, prodl, prodh, cstack
  6045 ;; Tracked objects:
  6046 ;;		On entry : 0/0
  6047 ;;		On exit  : 0/0
  6048 ;;		Unchanged: 0/0
  6049 ;; Data sizes:     COMRAM   BANK5   BANK6   BANK7   BANK8   BANK9  BANK10  BANK11  BANK12  BANK13  BANK14  BANK15  BANK1
      +6  BANK17  BANK18  BANK19  BANK20  BANK21  BANK22  BANK23  BANK24  BANK25  BANK26  BANK27  BANK28  BANK29  BANK30  BANK3
      +1  BANK32  BANK33  BANK34  BANK35  BANK36  BANK37
  6050 ;;      Params:         0       0       0       0       0       0       0       0       0       0       0       0       
      +0       0       0       0       0       0       0       0       0       0       0       0       0       0       0       
      +0       0       0       0       0       0       0
  6051 ;;      Locals:         0       0       0       0       0       0       0       0       0       0       0       0       
      +0       0       0       0       0       0       0       0       0       0       0       0       0       0       0       
      +0       0       0       0       0       0       0
  6052 ;;      Temps:          0       0       0       0       0       0       0       0       0       0       0       0       
      +0       0       0       0       0       0       0       0       0       0       0       0       0       0       0       
      +0       0       0       0       0       0       0
  6053 ;;      Totals:         0       0       0       0       0       0       0       0       0       0       0       0       
      +0       0       0       0       0       0       0       0       0       0       0       0       0       0       0       
      +0       0       0       0       0       0       0
  6054 ;;Total ram usage:        0 bytes
  6055 ;; Hardware stack levels used:    1
  6056 ;; Hardware stack levels required when called:    3
  6057 ;; This function calls:
  6058 ;;		Absolute function
  6059 ;;		_GPIO_BrakePedalAtRest
  6060 ;;		_INT0_DefaultInterruptHandler
  6061 ;; This function is called by:
  6062 ;;		_INT0_ISR
  6063 ;; This function uses a non-reentrant model
  6064 ;;
  6065                           
  6066                           	psect	text67
  6067  00477E                     __ptext67:
  6068                           	callstack 0
  6069  00477E                     _INT0_CallBack:
  6070                           	callstack 118
  6071  00477E                     
  6072                           ;mcc_generated_files/ext_int.c: 46:     GPIO_BrakePedalAtRest();
  6073  00477E  EC8C  F023         	call	_GPIO_BrakePedalAtRest	;wreg free
  6074  004782                     
  6075                           ;mcc_generated_files/ext_int.c: 47:     if(INT0_InterruptHandler)
  6076  004782  0105               	movlb	5	; () banked
  6077  004784  51E3               	movf	_INT0_InterruptHandler& (0+255),w,b
  6078  004786  11E4               	iorwf	(_INT0_InterruptHandler+1)& (0+255),w,b
  6079  004788  B4D8               	btfsc	status,2,c
  6080  00478A  EFC9  F023         	goto	i2u431_41
  6081  00478E  EFCB  F023         	goto	i2u431_40
  6082  004792                     i2u431_41:
  6083  004792  EFD7  F023         	goto	i2l36
  6084  004796                     i2u431_40:
  6085  004796                     
  6086                           ; BSR set to: 5
  6087                           ;mcc_generated_files/ext_int.c: 48:     {;mcc_generated_files/ext_int.c: 49:         INT
      +                          0_InterruptHandler();
  6088  004796  D802               	call	i2u432_48
  6089  004798  EFD7  F023         	goto	i2u432_49
  6090  00479C                     i2u432_48:
  6091  00479C  0005               	push	
  6092  00479E  6EFA               	movwf	pclath,c
  6093  0047A0  51E3               	movf	_INT0_InterruptHandler& (0+255),w,b
  6094  0047A2  6EFD               	movwf	tosl,c
  6095  0047A4  51E4               	movf	(_INT0_InterruptHandler+1)& (0+255),w,b
  6096  0047A6  6EFE               	movwf	tosh,c
  6097  0047A8  6AFF               	clrf	tosu,c
  6098  0047AA  50FA               	movf	pclath,w,c
  6099  0047AC  0012               	return		;indir
  6100  0047AE                     i2u432_49:
  6101  0047AE                     i2l36:
  6102  0047AE  0012               	return		;funcret
  6103  0047B0                     __end_of_INT0_CallBack:
  6104                           	callstack 0
  6105                           
  6106 ;; *************** function _INT0_DefaultInterruptHandler *****************
  6107 ;; Defined at:
  6108 ;;		line 57 in file "mcc_generated_files/ext_int.c"
  6109 ;; Parameters:    Size  Location     Type
  6110 ;;		None
  6111 ;; Auto vars:     Size  Location     Type
  6112 ;;		None
  6113 ;; Return value:  Size  Location     Type
  6114 ;;                  1    wreg      void 
  6115 ;; Registers used:
  6116 ;;		None
  6117 ;; Tracked objects:
  6118 ;;		On entry : 0/0
  6119 ;;		On exit  : 0/0
  6120 ;;		Unchanged: 0/0
  6121 ;; Data sizes:     COMRAM   BANK5   BANK6   BANK7   BANK8   BANK9  BANK10  BANK11  BANK12  BANK13  BANK14  BANK15  BANK1
      +6  BANK17  BANK18  BANK19  BANK20  BANK21  BANK22  BANK23  BANK24  BANK25  BANK26  BANK27  BANK28  BANK29  BANK30  BANK3
      +1  BANK32  BANK33  BANK34  BANK35  BANK36  BANK37
  6122 ;;      Params:         0       0       0       0       0       0       0       0       0       0       0       0       
      +0       0       0       0       0       0       0       0       0       0       0       0       0       0       0       
      +0       0       0       0       0       0       0
  6123 ;;      Locals:         0       0       0       0       0       0       0       0       0       0       0       0       
      +0       0       0       0       0       0       0       0       0       0       0       0       0       0       0       
      +0       0       0       0       0       0       0
  6124 ;;      Temps:          0       0       0       0       0       0       0       0       0       0       0       0       
      +0       0       0       0       0       0       0       0       0       0       0       0       0       0       0       
      +0       0       0       0       0       0       0
  6125 ;;      Totals:         0       0       0       0       0       0       0       0       0       0       0       0       
      +0       0       0       0       0       0       0       0       0       0       0       0       0       0       0       
      +0       0       0       0       0       0       0
  6126 ;;Total ram usage:        0 bytes
  6127 ;; Hardware stack levels used:    1
  6128 ;; This function calls:
  6129 ;;		Nothing
  6130 ;; This function is called by:
  6131 ;;		_EXT_INT_Initialize
  6132 ;;		_INT0_CallBack
  6133 ;; This function uses a non-reentrant model
  6134 ;;
  6135                           
  6136                           	psect	text68
  6137  004C3C                     __ptext68:
  6138                           	callstack 0
  6139  004C3C                     _INT0_DefaultInterruptHandler:
  6140                           	callstack 120
  6141  004C3C  0012               	return		;funcret
  6142  004C3E                     __end_of_INT0_DefaultInterruptHandler:
  6143                           	callstack 0
  6144                           
  6145 ;; *************** function _GPIO_BrakePedalAtRest *****************
  6146 ;; Defined at:
  6147 ;;		line 113 in file "GPIO.c"
  6148 ;; Parameters:    Size  Location     Type
  6149 ;;		None
  6150 ;; Auto vars:     Size  Location     Type
  6151 ;;		None
  6152 ;; Return value:  Size  Location     Type
  6153 ;;                  1    wreg      void 
  6154 ;; Registers used:
  6155 ;;		wreg, status,2, status,0, prodl, prodh, cstack
  6156 ;; Tracked objects:
  6157 ;;		On entry : 0/0
  6158 ;;		On exit  : 0/0
  6159 ;;		Unchanged: 0/0
  6160 ;; Data sizes:     COMRAM   BANK5   BANK6   BANK7   BANK8   BANK9  BANK10  BANK11  BANK12  BANK13  BANK14  BANK15  BANK1
      +6  BANK17  BANK18  BANK19  BANK20  BANK21  BANK22  BANK23  BANK24  BANK25  BANK26  BANK27  BANK28  BANK29  BANK30  BANK3
      +1  BANK32  BANK33  BANK34  BANK35  BANK36  BANK37
  6161 ;;      Params:         0       0       0       0       0       0       0       0       0       0       0       0       
      +0       0       0       0       0       0       0       0       0       0       0       0       0       0       0       
      +0       0       0       0       0       0       0
  6162 ;;      Locals:         0       0       0       0       0       0       0       0       0       0       0       0       
      +0       0       0       0       0       0       0       0       0       0       0       0       0       0       0       
      +0       0       0       0       0       0       0
  6163 ;;      Temps:          0       0       0       0       0       0       0       0       0       0       0       0       
      +0       0       0       0       0       0       0       0       0       0       0       0       0       0       0       
      +0       0       0       0       0       0       0
  6164 ;;      Totals:         0       0       0       0       0       0       0       0       0       0       0       0       
      +0       0       0       0       0       0       0       0       0       0       0       0       0       0       0       
      +0       0       0       0       0       0       0
  6165 ;;Total ram usage:        0 bytes
  6166 ;; Hardware stack levels used:    1
  6167 ;; Hardware stack levels required when called:    2
  6168 ;; This function calls:
  6169 ;;		_ANALOG_GetVoltage
  6170 ;; This function is called by:
  6171 ;;		_INT0_CallBack
  6172 ;; This function uses a non-reentrant model
  6173 ;;
  6174                           
  6175                           	psect	text69
  6176  004718                     __ptext69:
  6177                           	callstack 0
  6178  004718                     _GPIO_BrakePedalAtRest:
  6179                           	callstack 118
  6180  004718                     
  6181                           ;GPIO.c: 115:     ucPedalPos = PORTAbits.RA5;
  6182  004718  0E00               	movlw	0
  6183  00471A  BACE               	btfsc	206,5,c	;volatile
  6184  00471C  0E01               	movlw	1
  6185  00471E  0105               	movlb	5	; () banked
  6186  004720  6F99               	movwf	_ucPedalPos& (0+255),b
  6187  004722                     
  6188                           ; BSR set to: 5
  6189                           ;GPIO.c: 116:     if ( ucPedalPos == 1 )
  6190  004722  0599               	decf	_ucPedalPos& (0+255),w,b
  6191  004724  A4D8               	btfss	status,2,c
  6192  004726  EF97  F023         	goto	i2u399_41
  6193  00472A  EF99  F023         	goto	i2u399_40
  6194  00472E                     i2u399_41:
  6195  00472E  EFA5  F023         	goto	i2l1567
  6196  004732                     i2u399_40:
  6197  004732                     
  6198                           ; BSR set to: 5
  6199                           ;GPIO.c: 117:     {;GPIO.c: 119:         ucPICHDRPRES1min = ANALOG_GetVoltage(0);
  6200  004732  0E00               	movlw	0
  6201  004734  EC8E  F017         	call	_ANALOG_GetVoltage
  6202  004738  0105               	movlb	5	; () banked
  6203  00473A  6F98               	movwf	_ucPICHDRPRES1min& (0+255),b
  6204                           
  6205                           ;GPIO.c: 120:         ucPICHDRPRES2min = ANALOG_GetVoltage(1);
  6206  00473C  0E01               	movlw	1
  6207  00473E  EC8E  F017         	call	_ANALOG_GetVoltage
  6208  004742  0105               	movlb	5	; () banked
  6209  004744  6F97               	movwf	_ucPICHDRPRES2min& (0+255),b
  6210  004746                     
  6211                           ; BSR set to: 5
  6212                           ;GPIO.c: 123:         ucServoLmin = uiDutyServomotor;
  6213  004746  C556  F59A         	movff	_uiDutyServomotor,_ucServoLmin
  6214  00474A                     i2l1567:
  6215                           
  6216                           ; BSR set to: 5
  6217  00474A  0012               	return		;funcret
  6218  00474C                     __end_of_GPIO_BrakePedalAtRest:
  6219                           	callstack 0
  6220                           
  6221 ;; *************** function _ANALOG_GetVoltage *****************
  6222 ;; Defined at:
  6223 ;;		line 26 in file "ANALOG.c"
  6224 ;; Parameters:    Size  Location     Type
  6225 ;;  ucEntradaAna    1    wreg     unsigned char 
  6226 ;; Auto vars:     Size  Location     Type
  6227 ;;  ucEntradaAna    1   67[COMRAM] unsigned char 
  6228 ;;  uiValorVolta    2   74[COMRAM] unsigned short 
  6229 ;;  uiValorCalcu    2   72[COMRAM] unsigned short 
  6230 ;;  uiValorAnalo    2   70[COMRAM] unsigned short 
  6231 ;;  ucFlag          1   69[COMRAM] unsigned char 
  6232 ;;  ucValor         1   68[COMRAM] unsigned char 
  6233 ;; Return value:  Size  Location     Type
  6234 ;;                  1    wreg      unsigned char 
  6235 ;; Registers used:
  6236 ;;		wreg, status,2, status,0, prodl, prodh, cstack
  6237 ;; Tracked objects:
  6238 ;;		On entry : 0/0
  6239 ;;		On exit  : 0/0
  6240 ;;		Unchanged: 0/0
  6241 ;; Data sizes:     COMRAM   BANK5   BANK6   BANK7   BANK8   BANK9  BANK10  BANK11  BANK12  BANK13  BANK14  BANK15  BANK1
      +6  BANK17  BANK18  BANK19  BANK20  BANK21  BANK22  BANK23  BANK24  BANK25  BANK26  BANK27  BANK28  BANK29  BANK30  BANK3
      +1  BANK32  BANK33  BANK34  BANK35  BANK36  BANK37
  6242 ;;      Params:         0       0       0       0       0       0       0       0       0       0       0       0       
      +0       0       0       0       0       0       0       0       0       0       0       0       0       0       0       
      +0       0       0       0       0       0       0
  6243 ;;      Locals:         9       0       0       0       0       0       0       0       0       0       0       0       
      +0       0       0       0       0       0       0       0       0       0       0       0       0       0       0       
      +0       0       0       0       0       0       0
  6244 ;;      Temps:          2       0       0       0       0       0       0       0       0       0       0       0       
      +0       0       0       0       0       0       0       0       0       0       0       0       0       0       0       
      +0       0       0       0       0       0       0
  6245 ;;      Totals:        11       0       0       0       0       0       0       0       0       0       0       0       
      +0       0       0       0       0       0       0       0       0       0       0       0       0       0       0       
      +0       0       0       0       0       0       0
  6246 ;;Total ram usage:       11 bytes
  6247 ;; Hardware stack levels used:    1
  6248 ;; Hardware stack levels required when called:    1
  6249 ;; This function calls:
  6250 ;;		_ADC_DisableChannelSequencer
  6251 ;;		_ADC_GetSingleConversion
  6252 ;;		_ADC_SelectContext
  6253 ;;		_ADC_StopConversion
  6254 ;;		___fladd
  6255 ;;		___flmul
  6256 ;;		___fltol
  6257 ;;		___lwdiv
  6258 ;;		___wmul
  6259 ;;		___xxtofl
  6260 ;; This function is called by:
  6261 ;;		_GPIO_BrakePedalAtRest
  6262 ;;		_ANALOG_RedAll
  6263 ;;		_EBS_CheckUP_Routine
  6264 ;; This function uses a non-reentrant model
  6265 ;;
  6266                           
  6267                           	psect	text70
  6268  002F1C                     __ptext70:
  6269                           	callstack 0
  6270  002F1C                     _ANALOG_GetVoltage:
  6271                           	callstack 118
  6272                           
  6273                           ; BSR set to: 5
  6274                           ;incstack = 0
  6275                           ;ANALOG_GetVoltage@ucEntradaAnalogica stored from wreg
  6276  002F1C  6E44               	movwf	ANALOG_GetVoltage@ucEntradaAnalogica^(0+1280),c
  6277  002F1E                     
  6278                           ;ANALOG.c: 26: unsigned char ANALOG_GetVoltage (unsigned char ucEntradaAnalogica);ANALOG
      +                          .c: 27: {;ANALOG.c: 28:     uint16_t uiValorAnalog;;ANALOG.c: 29:     uint16_t uiValorVo
      +                          ltage;;ANALOG.c: 30:     uint16_t uiValorCalculado;;ANALOG.c: 31:     unsigned char ucVa
      +                          lor;;ANALOG.c: 33:     unsigned char ucFlag;;ANALOG.c: 35:     switch (ucEntradaAnalogic
      +                          a)
  6279  002F1E  EFF6  F017         	goto	i2l5318
  6280  002F22                     i2l5272:
  6281                           
  6282                           ;ANALOG.c: 38:             ADC_DisableChannelSequencer();
  6283  002F22  EC0A  F026         	call	_ADC_DisableChannelSequencer	;wreg free
  6284  002F26                     
  6285                           ;ANALOG.c: 39:             ADC_SelectContext(CONTEXT_1);
  6286  002F26  0E00               	movlw	0
  6287  002F28  ECF7  F025         	call	_ADC_SelectContext
  6288  002F2C                     
  6289                           ;ANALOG.c: 40:             uiValorAnalog = ADC_GetSingleConversion(HDRPRES1);
  6290  002F2C  0E00               	movlw	0
  6291  002F2E  ECD8  F023         	call	_ADC_GetSingleConversion
  6292  002F32  C501  F547         	movff	?_ADC_GetSingleConversion,ANALOG_GetVoltage@uiValorAnalog
  6293  002F36  C502  F548         	movff	?_ADC_GetSingleConversion+1,ANALOG_GetVoltage@uiValorAnalog+1
  6294  002F3A                     i2l5278:
  6295                           
  6296                           ;ANALOG.c: 41:             ADC_StopConversion();
  6297  002F3A  EC07  F026         	call	_ADC_StopConversion	;wreg free
  6298  002F3E                     
  6299                           ;ANALOG.c: 42:             ucFlag = 1;
  6300  002F3E  0E01               	movlw	1
  6301  002F40  6E46               	movwf	ANALOG_GetVoltage@ucFlag^(0+1280),c
  6302                           
  6303                           ;ANALOG.c: 43:             break;
  6304  002F42  EF1B  F018         	goto	i2l1602
  6305  002F46                     i2l5282:
  6306                           
  6307                           ;ANALOG.c: 45:             ADC_DisableChannelSequencer();
  6308  002F46  EC0A  F026         	call	_ADC_DisableChannelSequencer	;wreg free
  6309  002F4A                     
  6310                           ;ANALOG.c: 46:             ADC_SelectContext(CONTEXT_2);
  6311  002F4A  0E01               	movlw	1
  6312  002F4C  ECF7  F025         	call	_ADC_SelectContext
  6313  002F50                     
  6314                           ;ANALOG.c: 47:             uiValorAnalog = ADC_GetSingleConversion(HDRPRES2);
  6315  002F50  0E01               	movlw	1
  6316  002F52  ECD8  F023         	call	_ADC_GetSingleConversion
  6317  002F56  C501  F547         	movff	?_ADC_GetSingleConversion,ANALOG_GetVoltage@uiValorAnalog
  6318  002F5A  C502  F548         	movff	?_ADC_GetSingleConversion+1,ANALOG_GetVoltage@uiValorAnalog+1
  6319  002F5E  EF9D  F017         	goto	i2l5278
  6320  002F62                     i2l5292:
  6321                           
  6322                           ;ANALOG.c: 52:             ADC_DisableChannelSequencer();
  6323  002F62  EC0A  F026         	call	_ADC_DisableChannelSequencer	;wreg free
  6324  002F66                     
  6325                           ;ANALOG.c: 53:             ADC_SelectContext(CONTEXT_3);
  6326  002F66  0E02               	movlw	2
  6327  002F68  ECF7  F025         	call	_ADC_SelectContext
  6328  002F6C                     
  6329                           ;ANALOG.c: 54:             uiValorAnalog = ADC_GetSingleConversion(NPRES1);
  6330  002F6C  0E17               	movlw	23
  6331  002F6E  ECD8  F023         	call	_ADC_GetSingleConversion
  6332  002F72  C501  F547         	movff	?_ADC_GetSingleConversion,ANALOG_GetVoltage@uiValorAnalog
  6333  002F76  C502  F548         	movff	?_ADC_GetSingleConversion+1,ANALOG_GetVoltage@uiValorAnalog+1
  6334  002F7A                     i2l5298:
  6335                           
  6336                           ;ANALOG.c: 55:             ADC_StopConversion();
  6337  002F7A  EC07  F026         	call	_ADC_StopConversion	;wreg free
  6338  002F7E                     
  6339                           ;ANALOG.c: 56:             ucFlag = 2;
  6340  002F7E  0E02               	movlw	2
  6341  002F80  6E46               	movwf	ANALOG_GetVoltage@ucFlag^(0+1280),c
  6342                           
  6343                           ;ANALOG.c: 57:             break;
  6344  002F82  EF1B  F018         	goto	i2l1602
  6345  002F86                     i2l5302:
  6346                           
  6347                           ;ANALOG.c: 59:             ADC_DisableChannelSequencer();
  6348  002F86  EC0A  F026         	call	_ADC_DisableChannelSequencer	;wreg free
  6349  002F8A                     
  6350                           ;ANALOG.c: 60:             ADC_SelectContext(CONTEXT_4);
  6351  002F8A  0E03               	movlw	3
  6352  002F8C  ECF7  F025         	call	_ADC_SelectContext
  6353  002F90                     
  6354                           ;ANALOG.c: 61:             uiValorAnalog = ADC_GetSingleConversion(NPRES2);
  6355  002F90  0E16               	movlw	22
  6356  002F92  ECD8  F023         	call	_ADC_GetSingleConversion
  6357  002F96  C501  F547         	movff	?_ADC_GetSingleConversion,ANALOG_GetVoltage@uiValorAnalog
  6358  002F9A  C502  F548         	movff	?_ADC_GetSingleConversion+1,ANALOG_GetVoltage@uiValorAnalog+1
  6359  002F9E  EFBD  F017         	goto	i2l5298
  6360  002FA2                     i2l5312:
  6361                           
  6362                           ;ANALOG.c: 68:             uiValorAnalog = PORTCbits.RC4;
  6363  002FA2  B8D0               	btfsc	208,4,c	;volatile
  6364  002FA4  EFD6  F017         	goto	i2u392_41
  6365  002FA8  EFDA  F017         	goto	i2u392_40
  6366  002FAC                     i2u392_41:
  6367  002FAC  6A42               	clrf	??_ANALOG_GetVoltage^(0+1280),c
  6368  002FAE  2A42               	incf	??_ANALOG_GetVoltage^(0+1280),f,c
  6369  002FB0  EFDB  F017         	goto	i2u392_48
  6370  002FB4                     i2u392_40:
  6371  002FB4  6A42               	clrf	??_ANALOG_GetVoltage^(0+1280),c
  6372  002FB6                     i2u392_48:
  6373  002FB6  5042               	movf	??_ANALOG_GetVoltage^(0+1280),w,c
  6374  002FB8  6E47               	movwf	ANALOG_GetVoltage@uiValorAnalog^(0+1280),c
  6375  002FBA  6A48               	clrf	(ANALOG_GetVoltage@uiValorAnalog+1)^(0+1280),c
  6376                           
  6377                           ;ANALOG.c: 69:             ucFlag = 2;
  6378  002FBC  0E02               	movlw	2
  6379  002FBE  6E46               	movwf	ANALOG_GetVoltage@ucFlag^(0+1280),c
  6380                           
  6381                           ;ANALOG.c: 70:             break;
  6382  002FC0  EF1B  F018         	goto	i2l1602
  6383  002FC4                     i2l5314:
  6384                           
  6385                           ;ANALOG.c: 74:             uiValorAnalog = PORTCbits.RC3;
  6386  002FC4  B6D0               	btfsc	208,3,c	;volatile
  6387  002FC6  EFE7  F017         	goto	i2u393_41
  6388  002FCA  EFEB  F017         	goto	i2u393_40
  6389  002FCE                     i2u393_41:
  6390  002FCE  6A42               	clrf	??_ANALOG_GetVoltage^(0+1280),c
  6391  002FD0  2A42               	incf	??_ANALOG_GetVoltage^(0+1280),f,c
  6392  002FD2  EFEC  F017         	goto	i2u393_48
  6393  002FD6                     i2u393_40:
  6394  002FD6  6A42               	clrf	??_ANALOG_GetVoltage^(0+1280),c
  6395  002FD8                     i2u393_48:
  6396  002FD8  5042               	movf	??_ANALOG_GetVoltage^(0+1280),w,c
  6397  002FDA  6E47               	movwf	ANALOG_GetVoltage@uiValorAnalog^(0+1280),c
  6398  002FDC  6A48               	clrf	(ANALOG_GetVoltage@uiValorAnalog+1)^(0+1280),c
  6399                           
  6400                           ;ANALOG.c: 75:             ucFlag = 2;
  6401  002FDE  0E02               	movlw	2
  6402  002FE0  6E46               	movwf	ANALOG_GetVoltage@ucFlag^(0+1280),c
  6403                           
  6404                           ;ANALOG.c: 76:             break;
  6405  002FE2  EF1B  F018         	goto	i2l1602
  6406  002FE6                     i2l1608:
  6407                           
  6408                           ;ANALOG.c: 78:             ucFlag = 0xFF;
  6409  002FE6  6846               	setf	ANALOG_GetVoltage@ucFlag^(0+1280),c
  6410                           
  6411                           ;ANALOG.c: 79:             break;
  6412  002FE8  EF1B  F018         	goto	i2l1602
  6413  002FEC                     i2l5318:
  6414  002FEC  5044               	movf	ANALOG_GetVoltage@ucEntradaAnalogica^(0+1280),w,c
  6415  002FEE  6E42               	movwf	??_ANALOG_GetVoltage^(0+1280),c
  6416  002FF0  6A43               	clrf	(??_ANALOG_GetVoltage+1)^(0+1280),c
  6417                           
  6418                           ; Switch on 2 bytes has been partitioned into a top level switch of size 1, and 1 sub-sw
      +                          itches
  6419                           ; Switch size 1, requested type "simple"
  6420                           ; Number of cases is 1, Range of values is 0 to 0
  6421                           ; switch strategies available:
  6422                           ; Name         Instructions Cycles
  6423                           ; simple_byte            4     3 (average)
  6424                           ;	Chosen strategy is simple_byte
  6425  002FF2  5043               	movf	(??_ANALOG_GetVoltage+1)^(0+1280),w,c
  6426  002FF4  0A00               	xorlw	0	; case 0
  6427  002FF6  B4D8               	btfsc	status,2,c
  6428  002FF8  EF00  F018         	goto	i2l7166
  6429  002FFC  EFF3  F017         	goto	i2l1608
  6430  003000                     i2l7166:
  6431                           
  6432                           ; Switch size 1, requested type "simple"
  6433                           ; Number of cases is 6, Range of values is 0 to 5
  6434                           ; switch strategies available:
  6435                           ; Name         Instructions Cycles
  6436                           ; simple_byte           19    10 (average)
  6437                           ;	Chosen strategy is simple_byte
  6438  003000  5042               	movf	??_ANALOG_GetVoltage^(0+1280),w,c
  6439  003002  0A00               	xorlw	0	; case 0
  6440  003004  B4D8               	btfsc	status,2,c
  6441  003006  EF91  F017         	goto	i2l5272
  6442  00300A  0A01               	xorlw	1	; case 1
  6443  00300C  B4D8               	btfsc	status,2,c
  6444  00300E  EFA3  F017         	goto	i2l5282
  6445  003012  0A03               	xorlw	3	; case 2
  6446  003014  B4D8               	btfsc	status,2,c
  6447  003016  EFB1  F017         	goto	i2l5292
  6448  00301A  0A01               	xorlw	1	; case 3
  6449  00301C  B4D8               	btfsc	status,2,c
  6450  00301E  EFC3  F017         	goto	i2l5302
  6451  003022  0A07               	xorlw	7	; case 4
  6452  003024  B4D8               	btfsc	status,2,c
  6453  003026  EFD1  F017         	goto	i2l5312
  6454  00302A  0A01               	xorlw	1	; case 5
  6455  00302C  B4D8               	btfsc	status,2,c
  6456  00302E  EFE2  F017         	goto	i2l5314
  6457  003032  EFF3  F017         	goto	i2l1608
  6458  003036                     i2l1602:
  6459                           
  6460                           ;ANALOG.c: 82:     __nop();
  6461  003036  F000               	nop	
  6462  003038                     
  6463                           ;ANALOG.c: 84:     if ( ucFlag == 1 )
  6464  003038  0446               	decf	ANALOG_GetVoltage@ucFlag^(0+1280),w,c
  6465  00303A  A4D8               	btfss	status,2,c
  6466  00303C  EF22  F018         	goto	i2u394_41
  6467  003040  EF24  F018         	goto	i2u394_40
  6468  003044                     i2u394_41:
  6469  003044  EF8B  F018         	goto	i2l5346
  6470  003048                     i2u394_40:
  6471  003048                     
  6472                           ;ANALOG.c: 85:     {;ANALOG.c: 86:         if ( uiValorAnalog <= 6 )
  6473  003048  5048               	movf	(ANALOG_GetVoltage@uiValorAnalog+1)^(0+1280),w,c
  6474  00304A  E107               	bnz	i2u395_41
  6475  00304C  0E07               	movlw	7
  6476  00304E  5C47               	subwf	ANALOG_GetVoltage@uiValorAnalog^(0+1280),w,c
  6477  003050  B0D8               	btfsc	status,0,c
  6478  003052  EF2D  F018         	goto	i2u395_41
  6479  003056  EF2F  F018         	goto	i2u395_40
  6480  00305A                     i2u395_41:
  6481  00305A  EF35  F018         	goto	i2l1610
  6482  00305E                     i2u395_40:
  6483  00305E                     
  6484                           ;ANALOG.c: 87:         {;ANALOG.c: 88:             uiValorVoltage = 0;
  6485  00305E  0E00               	movlw	0
  6486  003060  6E4C               	movwf	(ANALOG_GetVoltage@uiValorVoltage+1)^(0+1280),c
  6487  003062  0E00               	movlw	0
  6488  003064  6E4B               	movwf	ANALOG_GetVoltage@uiValorVoltage^(0+1280),c
  6489                           
  6490                           ;ANALOG.c: 89:         }
  6491  003066  EF3F  F018         	goto	i2l1611
  6492  00306A                     i2l1610:
  6493                           
  6494                           ;ANALOG.c: 91:         {;ANALOG.c: 93:             uiValorVoltage = (1*uiValorAnalog);
  6495  00306A  C547  F54B         	movff	ANALOG_GetVoltage@uiValorAnalog,ANALOG_GetVoltage@uiValorVoltage
  6496  00306E  C548  F54C         	movff	ANALOG_GetVoltage@uiValorAnalog+1,ANALOG_GetVoltage@uiValorVoltage+1
  6497  003072                     
  6498                           ;ANALOG.c: 94:             uiValorVoltage = uiValorVoltage - 5;
  6499  003072  0EFB               	movlw	251
  6500  003074  244B               	addwf	ANALOG_GetVoltage@uiValorVoltage^(0+1280),w,c
  6501  003076  6E4B               	movwf	ANALOG_GetVoltage@uiValorVoltage^(0+1280),c
  6502  003078  0EFF               	movlw	255
  6503  00307A  204C               	addwfc	(ANALOG_GetVoltage@uiValorVoltage+1)^(0+1280),w,c
  6504  00307C  6E4C               	movwf	(ANALOG_GetVoltage@uiValorVoltage+1)^(0+1280),c
  6505  00307E                     i2l1611:
  6506                           
  6507                           ;ANALOG.c: 97:         if ( uiValorVoltage > 5000 )
  6508  00307E  0E89               	movlw	137
  6509  003080  5C4B               	subwf	ANALOG_GetVoltage@uiValorVoltage^(0+1280),w,c
  6510  003082  0E13               	movlw	19
  6511  003084  584C               	subwfb	(ANALOG_GetVoltage@uiValorVoltage+1)^(0+1280),w,c
  6512  003086  A0D8               	btfss	status,0,c
  6513  003088  EF48  F018         	goto	i2u396_41
  6514  00308C  EF4A  F018         	goto	i2u396_40
  6515  003090                     i2u396_41:
  6516  003090  EF4C  F018         	goto	i2l5330
  6517  003094                     i2u396_40:
  6518  003094  EFF1  F018         	goto	i2l1614
  6519  003098                     i2l5330:
  6520                           
  6521                           ;ANALOG.c: 103:         {;ANALOG.c: 104:             uiValorCalculado = ( uiValorVoltage
      +                           / 5);
  6522  003098  C54B  F501         	movff	ANALOG_GetVoltage@uiValorVoltage,___lwdiv@dividend
  6523  00309C  C54C  F502         	movff	ANALOG_GetVoltage@uiValorVoltage+1,___lwdiv@dividend+1
  6524  0030A0  0E00               	movlw	0
  6525  0030A2  6E04               	movwf	(___lwdiv@divisor+1)^(0+1280),c
  6526  0030A4  0E05               	movlw	5
  6527  0030A6  6E03               	movwf	___lwdiv@divisor^(0+1280),c
  6528  0030A8  EC15  F022         	call	___lwdiv	;wreg free
  6529  0030AC  C501  F549         	movff	?___lwdiv,ANALOG_GetVoltage@uiValorCalculado
  6530  0030B0  C502  F54A         	movff	?___lwdiv+1,ANALOG_GetVoltage@uiValorCalculado+1
  6531  0030B4                     
  6532                           ;ANALOG.c: 105:             uiValorCalculado = ( uiValorCalculado - 100 );
  6533  0030B4  0E9C               	movlw	156
  6534  0030B6  2449               	addwf	ANALOG_GetVoltage@uiValorCalculado^(0+1280),w,c
  6535  0030B8  6E49               	movwf	ANALOG_GetVoltage@uiValorCalculado^(0+1280),c
  6536  0030BA  0EFF               	movlw	255
  6537  0030BC  204A               	addwfc	(ANALOG_GetVoltage@uiValorCalculado+1)^(0+1280),w,c
  6538  0030BE  6E4A               	movwf	(ANALOG_GetVoltage@uiValorCalculado+1)^(0+1280),c
  6539  0030C0                     
  6540                           ;ANALOG.c: 106:             uiValorCalculado = ( uiValorCalculado * 10 );
  6541  0030C0  C549  F501         	movff	ANALOG_GetVoltage@uiValorCalculado,___wmul@multiplier
  6542  0030C4  C54A  F502         	movff	ANALOG_GetVoltage@uiValorCalculado+1,___wmul@multiplier+1
  6543  0030C8  0E00               	movlw	0
  6544  0030CA  6E04               	movwf	(___wmul@multiplicand+1)^(0+1280),c
  6545  0030CC  0E0A               	movlw	10
  6546  0030CE  6E03               	movwf	___wmul@multiplicand^(0+1280),c
  6547  0030D0  ECA7  F024         	call	___wmul	;wreg free
  6548  0030D4  C501  F549         	movff	?___wmul,ANALOG_GetVoltage@uiValorCalculado
  6549  0030D8  C502  F54A         	movff	?___wmul+1,ANALOG_GetVoltage@uiValorCalculado+1
  6550  0030DC                     
  6551                           ;ANALOG.c: 107:             uiValorCalculado = ( uiValorCalculado / 232 );
  6552  0030DC  C549  F501         	movff	ANALOG_GetVoltage@uiValorCalculado,___lwdiv@dividend
  6553  0030E0  C54A  F502         	movff	ANALOG_GetVoltage@uiValorCalculado+1,___lwdiv@dividend+1
  6554  0030E4  0E00               	movlw	0
  6555  0030E6  6E04               	movwf	(___lwdiv@divisor+1)^(0+1280),c
  6556  0030E8  0EE8               	movlw	232
  6557  0030EA  6E03               	movwf	___lwdiv@divisor^(0+1280),c
  6558  0030EC  EC15  F022         	call	___lwdiv	;wreg free
  6559  0030F0  C501  F549         	movff	?___lwdiv,ANALOG_GetVoltage@uiValorCalculado
  6560  0030F4  C502  F54A         	movff	?___lwdiv+1,ANALOG_GetVoltage@uiValorCalculado+1
  6561  0030F8                     i2l5338:
  6562  0030F8                     
  6563                           ;ANALOG.c: 109:             ucValor = ( uiValorVoltage / 100 );
  6564  0030F8  C54B  F501         	movff	ANALOG_GetVoltage@uiValorVoltage,___lwdiv@dividend
  6565  0030FC  C54C  F502         	movff	ANALOG_GetVoltage@uiValorVoltage+1,___lwdiv@dividend+1
  6566  003100  0E00               	movlw	0
  6567  003102  6E04               	movwf	(___lwdiv@divisor+1)^(0+1280),c
  6568  003104  0E64               	movlw	100
  6569  003106  6E03               	movwf	___lwdiv@divisor^(0+1280),c
  6570  003108  EC15  F022         	call	___lwdiv	;wreg free
  6571  00310C  5001               	movf	?___lwdiv^(0+1280),w,c
  6572  00310E  6E45               	movwf	ANALOG_GetVoltage@ucValor^(0+1280),c
  6573  003110                     
  6574                           ;ANALOG.c: 110:             return (ucValor);
  6575  003110  5045               	movf	ANALOG_GetVoltage@ucValor^(0+1280),w,c
  6576  003112  EFF1  F018         	goto	i2l1614
  6577  003116                     i2l5346:
  6578  003116  0E02               	movlw	2
  6579  003118  1846               	xorwf	ANALOG_GetVoltage@ucFlag^(0+1280),w,c
  6580  00311A  A4D8               	btfss	status,2,c
  6581  00311C  EF92  F018         	goto	i2u397_41
  6582  003120  EF94  F018         	goto	i2u397_40
  6583  003124                     i2u397_41:
  6584  003124  EFF1  F018         	goto	i2l1614
  6585  003128                     i2u397_40:
  6586  003128                     
  6587                           ;ANALOG.c: 114:     {;ANALOG.c: 116:         uiValorVoltage = ((1.1444*uiValorAnalog)-5.
      +                          2658);
  6588  003128  0E6F               	movlw	111
  6589  00312A  6E2C               	movwf	___fladd@a^(0+1280),c
  6590  00312C  0E81               	movlw	129
  6591  00312E  6E2D               	movwf	(___fladd@a+1)^(0+1280),c
  6592  003130  0EA8               	movlw	168
  6593  003132  6E2E               	movwf	(___fladd@a+2)^(0+1280),c
  6594  003134  0EC0               	movlw	192
  6595  003136  6E2F               	movwf	(___fladd@a+3)^(0+1280),c
  6596  003138  0EB3               	movlw	179
  6597  00313A  6E13               	movwf	___flmul@a^(0+1280),c
  6598  00313C  0E7B               	movlw	123
  6599  00313E  6E14               	movwf	(___flmul@a+1)^(0+1280),c
  6600  003140  0E92               	movlw	146
  6601  003142  6E15               	movwf	(___flmul@a+2)^(0+1280),c
  6602  003144  0E3F               	movlw	63
  6603  003146  6E16               	movwf	(___flmul@a+3)^(0+1280),c
  6604  003148  C547  F501         	movff	ANALOG_GetVoltage@uiValorAnalog,___xxtofl@val
  6605  00314C  C548  F502         	movff	ANALOG_GetVoltage@uiValorAnalog+1,___xxtofl@val+1
  6606  003150  6A03               	clrf	(___xxtofl@val+2)^(0+1280),c
  6607  003152  6A04               	clrf	(___xxtofl@val+3)^(0+1280),c
  6608  003154  0E00               	movlw	0
  6609  003156  EC54  F01C         	call	___xxtofl
  6610  00315A  C501  F50F         	movff	?___xxtofl,___flmul@b
  6611  00315E  C502  F510         	movff	?___xxtofl+1,___flmul@b+1
  6612  003162  C503  F511         	movff	?___xxtofl+2,___flmul@b+2
  6613  003166  C504  F512         	movff	?___xxtofl+3,___flmul@b+3
  6614  00316A  EC67  F015         	call	___flmul	;wreg free
  6615  00316E  C50F  F528         	movff	?___flmul,___fladd@b
  6616  003172  C510  F529         	movff	?___flmul+1,___fladd@b+1
  6617  003176  C511  F52A         	movff	?___flmul+2,___fladd@b+2
  6618  00317A  C512  F52B         	movff	?___flmul+3,___fladd@b+3
  6619  00317E  EC07  F013         	call	___fladd	;wreg free
  6620  003182  C528  F538         	movff	?___fladd,___fltol@f1
  6621  003186  C529  F539         	movff	?___fladd+1,___fltol@f1+1
  6622  00318A  C52A  F53A         	movff	?___fladd+2,___fltol@f1+2
  6623  00318E  C52B  F53B         	movff	?___fladd+3,___fltol@f1+3
  6624  003192  ECE4  F01E         	call	___fltol	;wreg free
  6625  003196  C538  F54B         	movff	?___fltol,ANALOG_GetVoltage@uiValorVoltage
  6626  00319A  C539  F54C         	movff	?___fltol+1,ANALOG_GetVoltage@uiValorVoltage+1
  6627  00319E                     
  6628                           ;ANALOG.c: 118:         if ( uiValorVoltage > 5000 )
  6629  00319E  0E89               	movlw	137
  6630  0031A0  5C4B               	subwf	ANALOG_GetVoltage@uiValorVoltage^(0+1280),w,c
  6631  0031A2  0E13               	movlw	19
  6632  0031A4  584C               	subwfb	(ANALOG_GetVoltage@uiValorVoltage+1)^(0+1280),w,c
  6633  0031A6  A0D8               	btfss	status,0,c
  6634  0031A8  EFD8  F018         	goto	i2u398_41
  6635  0031AC  EFDA  F018         	goto	i2u398_40
  6636  0031B0                     i2u398_41:
  6637  0031B0  EFDC  F018         	goto	i2l5354
  6638  0031B4                     i2u398_40:
  6639  0031B4  EFF1  F018         	goto	i2l1614
  6640  0031B8                     i2l5354:
  6641                           
  6642                           ;ANALOG.c: 124:         {;ANALOG.c: 125:             uiValorCalculado = ( uiValorVoltage
      +                           * 2 );
  6643  0031B8  90D8               	bcf	status,0,c
  6644  0031BA  344B               	rlcf	ANALOG_GetVoltage@uiValorVoltage^(0+1280),w,c
  6645  0031BC  6E49               	movwf	ANALOG_GetVoltage@uiValorCalculado^(0+1280),c
  6646  0031BE  344C               	rlcf	(ANALOG_GetVoltage@uiValorVoltage+1)^(0+1280),w,c
  6647  0031C0  6E4A               	movwf	(ANALOG_GetVoltage@uiValorCalculado+1)^(0+1280),c
  6648  0031C2                     
  6649                           ;ANALOG.c: 126:             uiValorCalculado = ( uiValorCalculado / 100 );
  6650  0031C2  C549  F501         	movff	ANALOG_GetVoltage@uiValorCalculado,___lwdiv@dividend
  6651  0031C6  C54A  F502         	movff	ANALOG_GetVoltage@uiValorCalculado+1,___lwdiv@dividend+1
  6652  0031CA  0E00               	movlw	0
  6653  0031CC  6E04               	movwf	(___lwdiv@divisor+1)^(0+1280),c
  6654  0031CE  0E64               	movlw	100
  6655  0031D0  6E03               	movwf	___lwdiv@divisor^(0+1280),c
  6656  0031D2  EC15  F022         	call	___lwdiv	;wreg free
  6657  0031D6  C501  F549         	movff	?___lwdiv,ANALOG_GetVoltage@uiValorCalculado
  6658  0031DA  C502  F54A         	movff	?___lwdiv+1,ANALOG_GetVoltage@uiValorCalculado+1
  6659  0031DE  EF7C  F018         	goto	i2l5338
  6660  0031E2                     i2l1614:
  6661  0031E2  0012               	return		;funcret
  6662  0031E4                     __end_of_ANALOG_GetVoltage:
  6663                           	callstack 0
  6664                           
  6665 ;; *************** function ___flmul *****************
  6666 ;; Defined at:
  6667 ;;		line 8 in file "C:\Program Files\Microchip\xc8\v2.31\pic\sources\c99\common\sprcmul.c"
  6668 ;; Parameters:    Size  Location     Type
  6669 ;;  b               4   14[COMRAM] unsigned char 
  6670 ;;  a               4   18[COMRAM] unsigned char 
  6671 ;; Auto vars:     Size  Location     Type
  6672 ;;  prod            4   33[COMRAM] struct .
  6673 ;;  grs             4   27[COMRAM] unsigned long 
  6674 ;;  temp            2   37[COMRAM] struct .
  6675 ;;  bexp            1   32[COMRAM] unsigned char 
  6676 ;;  aexp            1   31[COMRAM] unsigned char 
  6677 ;;  sign            1   26[COMRAM] unsigned char 
  6678 ;; Return value:  Size  Location     Type
  6679 ;;                  4   14[COMRAM] unsigned char 
  6680 ;; Registers used:
  6681 ;;		wreg, status,2, status,0, prodl, prodh
  6682 ;; Tracked objects:
  6683 ;;		On entry : 0/0
  6684 ;;		On exit  : 0/0
  6685 ;;		Unchanged: 0/0
  6686 ;; Data sizes:     COMRAM   BANK5   BANK6   BANK7   BANK8   BANK9  BANK10  BANK11  BANK12  BANK13  BANK14  BANK15  BANK1
      +6  BANK17  BANK18  BANK19  BANK20  BANK21  BANK22  BANK23  BANK24  BANK25  BANK26  BANK27  BANK28  BANK29  BANK30  BANK3
      +1  BANK32  BANK33  BANK34  BANK35  BANK36  BANK37
  6687 ;;      Params:         8       0       0       0       0       0       0       0       0       0       0       0       
      +0       0       0       0       0       0       0       0       0       0       0       0       0       0       0       
      +0       0       0       0       0       0       0
  6688 ;;      Locals:        13       0       0       0       0       0       0       0       0       0       0       0       
      +0       0       0       0       0       0       0       0       0       0       0       0       0       0       0       
      +0       0       0       0       0       0       0
  6689 ;;      Temps:          4       0       0       0       0       0       0       0       0       0       0       0       
      +0       0       0       0       0       0       0       0       0       0       0       0       0       0       0       
      +0       0       0       0       0       0       0
  6690 ;;      Totals:        25       0       0       0       0       0       0       0       0       0       0       0       
      +0       0       0       0       0       0       0       0       0       0       0       0       0       0       0       
      +0       0       0       0       0       0       0
  6691 ;;Total ram usage:       25 bytes
  6692 ;; Hardware stack levels used:    1
  6693 ;; This function calls:
  6694 ;;		Nothing
  6695 ;; This function is called by:
  6696 ;;		_ANALOG_GetVoltage
  6697 ;; This function uses a non-reentrant model
  6698 ;;
  6699                           
  6700                           	psect	text71
  6701  002ACE                     __ptext71:
  6702                           	callstack 0
  6703  002ACE                     ___flmul:
  6704                           	callstack 118
  6705  002ACE  5012               	movf	(___flmul@b+3)^(0+1280),w,c
  6706  002AD0  0B80               	andlw	128
  6707  002AD2  6E1B               	movwf	___flmul@sign^(0+1280),c
  6708  002AD4  5012               	movf	(___flmul@b+3)^(0+1280),w,c
  6709  002AD6  2412               	addwf	(___flmul@b+3)^(0+1280),w,c
  6710  002AD8  6E21               	movwf	___flmul@bexp^(0+1280),c
  6711  002ADA  AE11               	btfss	(___flmul@b+2)^(0+1280),7,c
  6712  002ADC  EF72  F015         	goto	i2u365_41
  6713  002AE0  EF74  F015         	goto	i2u365_40
  6714  002AE4                     i2u365_41:
  6715  002AE4  EF75  F015         	goto	i2l5058
  6716  002AE8                     i2u365_40:
  6717  002AE8  8021               	bsf	___flmul@bexp^(0+1280),0,c
  6718  002AEA                     i2l5058:
  6719  002AEA  5021               	movf	___flmul@bexp^(0+1280),w,c
  6720  002AEC  B4D8               	btfsc	status,2,c
  6721  002AEE  EF7B  F015         	goto	i2u366_41
  6722  002AF2  EF7D  F015         	goto	i2u366_40
  6723  002AF6                     i2u366_41:
  6724  002AF6  EF90  F015         	goto	i2l5066
  6725  002AFA                     i2u366_40:
  6726  002AFA  2821               	incf	___flmul@bexp^(0+1280),w,c
  6727  002AFC  A4D8               	btfss	status,2,c
  6728  002AFE  EF83  F015         	goto	i2u367_41
  6729  002B02  EF85  F015         	goto	i2u367_40
  6730  002B06                     i2u367_41:
  6731  002B06  EF8D  F015         	goto	i2l5064
  6732  002B0A                     i2u367_40:
  6733  002B0A  0E00               	movlw	0
  6734  002B0C  6E0F               	movwf	___flmul@b^(0+1280),c
  6735  002B0E  0E00               	movlw	0
  6736  002B10  6E10               	movwf	(___flmul@b+1)^(0+1280),c
  6737  002B12  0E00               	movlw	0
  6738  002B14  6E11               	movwf	(___flmul@b+2)^(0+1280),c
  6739  002B16  0E00               	movlw	0
  6740  002B18  6E12               	movwf	(___flmul@b+3)^(0+1280),c
  6741  002B1A                     i2l5064:
  6742  002B1A  8E11               	bsf	(___flmul@b+2)^(0+1280),7,c
  6743  002B1C  EF98  F015         	goto	i2l5068
  6744  002B20                     i2l5066:
  6745  002B20  0E00               	movlw	0
  6746  002B22  6E0F               	movwf	___flmul@b^(0+1280),c
  6747  002B24  0E00               	movlw	0
  6748  002B26  6E10               	movwf	(___flmul@b+1)^(0+1280),c
  6749  002B28  0E00               	movlw	0
  6750  002B2A  6E11               	movwf	(___flmul@b+2)^(0+1280),c
  6751  002B2C  0E00               	movlw	0
  6752  002B2E  6E12               	movwf	(___flmul@b+3)^(0+1280),c
  6753  002B30                     i2l5068:
  6754  002B30  5016               	movf	(___flmul@a+3)^(0+1280),w,c
  6755  002B32  0B80               	andlw	128
  6756  002B34  1A1B               	xorwf	___flmul@sign^(0+1280),f,c
  6757  002B36  5016               	movf	(___flmul@a+3)^(0+1280),w,c
  6758  002B38  2416               	addwf	(___flmul@a+3)^(0+1280),w,c
  6759  002B3A  6E20               	movwf	___flmul@aexp^(0+1280),c
  6760  002B3C  AE15               	btfss	(___flmul@a+2)^(0+1280),7,c
  6761  002B3E  EFA3  F015         	goto	i2u368_41
  6762  002B42  EFA5  F015         	goto	i2u368_40
  6763  002B46                     i2u368_41:
  6764  002B46  EFA6  F015         	goto	i2l5076
  6765  002B4A                     i2u368_40:
  6766  002B4A  8020               	bsf	___flmul@aexp^(0+1280),0,c
  6767  002B4C                     i2l5076:
  6768  002B4C  5020               	movf	___flmul@aexp^(0+1280),w,c
  6769  002B4E  B4D8               	btfsc	status,2,c
  6770  002B50  EFAC  F015         	goto	i2u369_41
  6771  002B54  EFAE  F015         	goto	i2u369_40
  6772  002B58                     i2u369_41:
  6773  002B58  EFC1  F015         	goto	i2l5084
  6774  002B5C                     i2u369_40:
  6775  002B5C  2820               	incf	___flmul@aexp^(0+1280),w,c
  6776  002B5E  A4D8               	btfss	status,2,c
  6777  002B60  EFB4  F015         	goto	i2u370_41
  6778  002B64  EFB6  F015         	goto	i2u370_40
  6779  002B68                     i2u370_41:
  6780  002B68  EFBE  F015         	goto	i2l5082
  6781  002B6C                     i2u370_40:
  6782  002B6C  0E00               	movlw	0
  6783  002B6E  6E13               	movwf	___flmul@a^(0+1280),c
  6784  002B70  0E00               	movlw	0
  6785  002B72  6E14               	movwf	(___flmul@a+1)^(0+1280),c
  6786  002B74  0E00               	movlw	0
  6787  002B76  6E15               	movwf	(___flmul@a+2)^(0+1280),c
  6788  002B78  0E00               	movlw	0
  6789  002B7A  6E16               	movwf	(___flmul@a+3)^(0+1280),c
  6790  002B7C                     i2l5082:
  6791  002B7C  8E15               	bsf	(___flmul@a+2)^(0+1280),7,c
  6792  002B7E  EFC9  F015         	goto	i2l2399
  6793  002B82                     i2l5084:
  6794  002B82  0E00               	movlw	0
  6795  002B84  6E13               	movwf	___flmul@a^(0+1280),c
  6796  002B86  0E00               	movlw	0
  6797  002B88  6E14               	movwf	(___flmul@a+1)^(0+1280),c
  6798  002B8A  0E00               	movlw	0
  6799  002B8C  6E15               	movwf	(___flmul@a+2)^(0+1280),c
  6800  002B8E  0E00               	movlw	0
  6801  002B90  6E16               	movwf	(___flmul@a+3)^(0+1280),c
  6802  002B92                     i2l2399:
  6803  002B92  5020               	movf	___flmul@aexp^(0+1280),w,c
  6804  002B94  B4D8               	btfsc	status,2,c
  6805  002B96  EFCF  F015         	goto	i2u371_41
  6806  002B9A  EFD1  F015         	goto	i2u371_40
  6807  002B9E                     i2u371_41:
  6808  002B9E  EFD9  F015         	goto	i2l5088
  6809  002BA2                     i2u371_40:
  6810  002BA2  5021               	movf	___flmul@bexp^(0+1280),w,c
  6811  002BA4  A4D8               	btfss	status,2,c
  6812  002BA6  EFD7  F015         	goto	i2u372_41
  6813  002BAA  EFD9  F015         	goto	i2u372_40
  6814  002BAE                     i2u372_41:
  6815  002BAE  EFE3  F015         	goto	i2l5092
  6816  002BB2                     i2u372_40:
  6817  002BB2                     i2l5088:
  6818  002BB2  0E00               	movlw	0
  6819  002BB4  6E0F               	movwf	?___flmul^(0+1280),c
  6820  002BB6  0E00               	movlw	0
  6821  002BB8  6E10               	movwf	(?___flmul+1)^(0+1280),c
  6822  002BBA  0E00               	movlw	0
  6823  002BBC  6E11               	movwf	(?___flmul+2)^(0+1280),c
  6824  002BBE  0E00               	movlw	0
  6825  002BC0  6E12               	movwf	(?___flmul+3)^(0+1280),c
  6826  002BC2  EF8D  F017         	goto	i2l2403
  6827  002BC6                     i2l5092:
  6828  002BC6  5015               	movf	(___flmul@a+2)^(0+1280),w,c
  6829  002BC8  020F               	mulwf	___flmul@b^(0+1280),c
  6830  002BCA  0061 F3CC  F526    	movff	prodl,___flmul@temp
  6831  002BD0  0061 F3D0  F527    	movff	prodh,___flmul@temp+1
  6832  002BD6  5026               	movf	___flmul@temp^(0+1280),w,c
  6833  002BD8  6E1C               	movwf	___flmul@grs^(0+1280),c
  6834  002BDA  6A1D               	clrf	(___flmul@grs+1)^(0+1280),c
  6835  002BDC  6A1E               	clrf	(___flmul@grs+2)^(0+1280),c
  6836  002BDE  6A1F               	clrf	(___flmul@grs+3)^(0+1280),c
  6837  002BE0  5027               	movf	(___flmul@temp+1)^(0+1280),w,c
  6838  002BE2  6E22               	movwf	___flmul@prod^(0+1280),c
  6839  002BE4  6A23               	clrf	(___flmul@prod+1)^(0+1280),c
  6840  002BE6  6A24               	clrf	(___flmul@prod+2)^(0+1280),c
  6841  002BE8  6A25               	clrf	(___flmul@prod+3)^(0+1280),c
  6842  002BEA  5014               	movf	(___flmul@a+1)^(0+1280),w,c
  6843  002BEC  0210               	mulwf	(___flmul@b+1)^(0+1280),c
  6844  002BEE  0061 F3CC  F526    	movff	prodl,___flmul@temp
  6845  002BF4  0061 F3D0  F527    	movff	prodh,___flmul@temp+1
  6846  002BFA  5026               	movf	___flmul@temp^(0+1280),w,c
  6847  002BFC  261C               	addwf	___flmul@grs^(0+1280),f,c
  6848  002BFE  0E00               	movlw	0
  6849  002C00  221D               	addwfc	(___flmul@grs+1)^(0+1280),f,c
  6850  002C02  221E               	addwfc	(___flmul@grs+2)^(0+1280),f,c
  6851  002C04  221F               	addwfc	(___flmul@grs+3)^(0+1280),f,c
  6852  002C06  5027               	movf	(___flmul@temp+1)^(0+1280),w,c
  6853  002C08  2622               	addwf	___flmul@prod^(0+1280),f,c
  6854  002C0A  0E00               	movlw	0
  6855  002C0C  2223               	addwfc	(___flmul@prod+1)^(0+1280),f,c
  6856  002C0E  2224               	addwfc	(___flmul@prod+2)^(0+1280),f,c
  6857  002C10  2225               	addwfc	(___flmul@prod+3)^(0+1280),f,c
  6858  002C12  5013               	movf	___flmul@a^(0+1280),w,c
  6859  002C14  0211               	mulwf	(___flmul@b+2)^(0+1280),c
  6860  002C16  0061 F3CC  F526    	movff	prodl,___flmul@temp
  6861  002C1C  0061 F3D0  F527    	movff	prodh,___flmul@temp+1
  6862  002C22  5026               	movf	___flmul@temp^(0+1280),w,c
  6863  002C24  261C               	addwf	___flmul@grs^(0+1280),f,c
  6864  002C26  0E00               	movlw	0
  6865  002C28  221D               	addwfc	(___flmul@grs+1)^(0+1280),f,c
  6866  002C2A  221E               	addwfc	(___flmul@grs+2)^(0+1280),f,c
  6867  002C2C  221F               	addwfc	(___flmul@grs+3)^(0+1280),f,c
  6868  002C2E  5027               	movf	(___flmul@temp+1)^(0+1280),w,c
  6869  002C30  2622               	addwf	___flmul@prod^(0+1280),f,c
  6870  002C32  0E00               	movlw	0
  6871  002C34  2223               	addwfc	(___flmul@prod+1)^(0+1280),f,c
  6872  002C36  2224               	addwfc	(___flmul@prod+2)^(0+1280),f,c
  6873  002C38  2225               	addwfc	(___flmul@prod+3)^(0+1280),f,c
  6874  002C3A  C51E  F51F         	movff	___flmul@grs+2,___flmul@grs+3
  6875  002C3E  C51D  F51E         	movff	___flmul@grs+1,___flmul@grs+2
  6876  002C42  C51C  F51D         	movff	___flmul@grs,___flmul@grs+1
  6877  002C46  6A1C               	clrf	___flmul@grs^(0+1280),c
  6878  002C48  5013               	movf	___flmul@a^(0+1280),w,c
  6879  002C4A  0210               	mulwf	(___flmul@b+1)^(0+1280),c
  6880  002C4C  0061 F3CC  F526    	movff	prodl,___flmul@temp
  6881  002C52  0061 F3D0  F527    	movff	prodh,___flmul@temp+1
  6882  002C58  5026               	movf	___flmul@temp^(0+1280),w,c
  6883  002C5A  261C               	addwf	___flmul@grs^(0+1280),f,c
  6884  002C5C  5027               	movf	(___flmul@temp+1)^(0+1280),w,c
  6885  002C5E  221D               	addwfc	(___flmul@grs+1)^(0+1280),f,c
  6886  002C60  0E00               	movlw	0
  6887  002C62  221E               	addwfc	(___flmul@grs+2)^(0+1280),f,c
  6888  002C64  0E00               	movlw	0
  6889  002C66  221F               	addwfc	(___flmul@grs+3)^(0+1280),f,c
  6890  002C68  5014               	movf	(___flmul@a+1)^(0+1280),w,c
  6891  002C6A  020F               	mulwf	___flmul@b^(0+1280),c
  6892  002C6C  0061 F3CC  F526    	movff	prodl,___flmul@temp
  6893  002C72  0061 F3D0  F527    	movff	prodh,___flmul@temp+1
  6894  002C78  5026               	movf	___flmul@temp^(0+1280),w,c
  6895  002C7A  261C               	addwf	___flmul@grs^(0+1280),f,c
  6896  002C7C  5027               	movf	(___flmul@temp+1)^(0+1280),w,c
  6897  002C7E  221D               	addwfc	(___flmul@grs+1)^(0+1280),f,c
  6898  002C80  0E00               	movlw	0
  6899  002C82  221E               	addwfc	(___flmul@grs+2)^(0+1280),f,c
  6900  002C84  0E00               	movlw	0
  6901  002C86  221F               	addwfc	(___flmul@grs+3)^(0+1280),f,c
  6902  002C88  C51E  F51F         	movff	___flmul@grs+2,___flmul@grs+3
  6903  002C8C  C51D  F51E         	movff	___flmul@grs+1,___flmul@grs+2
  6904  002C90  C51C  F51D         	movff	___flmul@grs,___flmul@grs+1
  6905  002C94  6A1C               	clrf	___flmul@grs^(0+1280),c
  6906  002C96  5013               	movf	___flmul@a^(0+1280),w,c
  6907  002C98  020F               	mulwf	___flmul@b^(0+1280),c
  6908  002C9A  0061 F3CC  F526    	movff	prodl,___flmul@temp
  6909  002CA0  0061 F3D0  F527    	movff	prodh,___flmul@temp+1
  6910  002CA6  5026               	movf	___flmul@temp^(0+1280),w,c
  6911  002CA8  261C               	addwf	___flmul@grs^(0+1280),f,c
  6912  002CAA  5027               	movf	(___flmul@temp+1)^(0+1280),w,c
  6913  002CAC  221D               	addwfc	(___flmul@grs+1)^(0+1280),f,c
  6914  002CAE  0E00               	movlw	0
  6915  002CB0  221E               	addwfc	(___flmul@grs+2)^(0+1280),f,c
  6916  002CB2  0E00               	movlw	0
  6917  002CB4  221F               	addwfc	(___flmul@grs+3)^(0+1280),f,c
  6918  002CB6  5015               	movf	(___flmul@a+2)^(0+1280),w,c
  6919  002CB8  0210               	mulwf	(___flmul@b+1)^(0+1280),c
  6920  002CBA  0061 F3CC  F526    	movff	prodl,___flmul@temp
  6921  002CC0  0061 F3D0  F527    	movff	prodh,___flmul@temp+1
  6922  002CC6  5026               	movf	___flmul@temp^(0+1280),w,c
  6923  002CC8  2622               	addwf	___flmul@prod^(0+1280),f,c
  6924  002CCA  5027               	movf	(___flmul@temp+1)^(0+1280),w,c
  6925  002CCC  2223               	addwfc	(___flmul@prod+1)^(0+1280),f,c
  6926  002CCE  0E00               	movlw	0
  6927  002CD0  2224               	addwfc	(___flmul@prod+2)^(0+1280),f,c
  6928  002CD2  0E00               	movlw	0
  6929  002CD4  2225               	addwfc	(___flmul@prod+3)^(0+1280),f,c
  6930  002CD6  5014               	movf	(___flmul@a+1)^(0+1280),w,c
  6931  002CD8  0211               	mulwf	(___flmul@b+2)^(0+1280),c
  6932  002CDA  0061 F3CC  F526    	movff	prodl,___flmul@temp
  6933  002CE0  0061 F3D0  F527    	movff	prodh,___flmul@temp+1
  6934  002CE6  5026               	movf	___flmul@temp^(0+1280),w,c
  6935  002CE8  2622               	addwf	___flmul@prod^(0+1280),f,c
  6936  002CEA  5027               	movf	(___flmul@temp+1)^(0+1280),w,c
  6937  002CEC  2223               	addwfc	(___flmul@prod+1)^(0+1280),f,c
  6938  002CEE  0E00               	movlw	0
  6939  002CF0  2224               	addwfc	(___flmul@prod+2)^(0+1280),f,c
  6940  002CF2  0E00               	movlw	0
  6941  002CF4  2225               	addwfc	(___flmul@prod+3)^(0+1280),f,c
  6942  002CF6  5015               	movf	(___flmul@a+2)^(0+1280),w,c
  6943  002CF8  0211               	mulwf	(___flmul@b+2)^(0+1280),c
  6944  002CFA  0061 F3CC  F526    	movff	prodl,___flmul@temp
  6945  002D00  0061 F3D0  F527    	movff	prodh,___flmul@temp+1
  6946  002D06  5026               	movf	___flmul@temp^(0+1280),w,c
  6947  002D08  6E17               	movwf	??___flmul^(0+1280),c
  6948  002D0A  5027               	movf	(___flmul@temp+1)^(0+1280),w,c
  6949  002D0C  6E18               	movwf	(??___flmul+1)^(0+1280),c
  6950  002D0E  6A19               	clrf	(??___flmul+2)^(0+1280),c
  6951  002D10  6A1A               	clrf	(??___flmul+3)^(0+1280),c
  6952  002D12  C519  F51A         	movff	??___flmul+2,??___flmul+3
  6953  002D16  C518  F519         	movff	??___flmul+1,??___flmul+2
  6954  002D1A  C517  F518         	movff	??___flmul,??___flmul+1
  6955  002D1E  6A17               	clrf	??___flmul^(0+1280),c
  6956  002D20  5017               	movf	??___flmul^(0+1280),w,c
  6957  002D22  2622               	addwf	___flmul@prod^(0+1280),f,c
  6958  002D24  5018               	movf	(??___flmul+1)^(0+1280),w,c
  6959  002D26  2223               	addwfc	(___flmul@prod+1)^(0+1280),f,c
  6960  002D28  5019               	movf	(??___flmul+2)^(0+1280),w,c
  6961  002D2A  2224               	addwfc	(___flmul@prod+2)^(0+1280),f,c
  6962  002D2C  501A               	movf	(??___flmul+3)^(0+1280),w,c
  6963  002D2E  2225               	addwfc	(___flmul@prod+3)^(0+1280),f,c
  6964  002D30  C51C  F517         	movff	___flmul@grs,??___flmul
  6965  002D34  C51D  F518         	movff	___flmul@grs+1,??___flmul+1
  6966  002D38  C51E  F519         	movff	___flmul@grs+2,??___flmul+2
  6967  002D3C  C51F  F51A         	movff	___flmul@grs+3,??___flmul+3
  6968  002D40  0E19               	movlw	25
  6969  002D42  EFA8  F016         	goto	i2u373_40
  6970  002D46                     i2u373_45:
  6971  002D46  90D8               	bcf	status,0,c
  6972  002D48  321A               	rrcf	(??___flmul+3)^(0+1280),f,c
  6973  002D4A  3219               	rrcf	(??___flmul+2)^(0+1280),f,c
  6974  002D4C  3218               	rrcf	(??___flmul+1)^(0+1280),f,c
  6975  002D4E  3217               	rrcf	??___flmul^(0+1280),f,c
  6976  002D50                     i2u373_40:
  6977  002D50  2EE8               	decfsz	wreg,f,c
  6978  002D52  EFA3  F016         	goto	i2u373_45
  6979  002D56  5017               	movf	??___flmul^(0+1280),w,c
  6980  002D58  2622               	addwf	___flmul@prod^(0+1280),f,c
  6981  002D5A  5018               	movf	(??___flmul+1)^(0+1280),w,c
  6982  002D5C  2223               	addwfc	(___flmul@prod+1)^(0+1280),f,c
  6983  002D5E  5019               	movf	(??___flmul+2)^(0+1280),w,c
  6984  002D60  2224               	addwfc	(___flmul@prod+2)^(0+1280),f,c
  6985  002D62  501A               	movf	(??___flmul+3)^(0+1280),w,c
  6986  002D64  2225               	addwfc	(___flmul@prod+3)^(0+1280),f,c
  6987  002D66  C51E  F51F         	movff	___flmul@grs+2,___flmul@grs+3
  6988  002D6A  C51D  F51E         	movff	___flmul@grs+1,___flmul@grs+2
  6989  002D6E  C51C  F51D         	movff	___flmul@grs,___flmul@grs+1
  6990  002D72  6A1C               	clrf	___flmul@grs^(0+1280),c
  6991  002D74  5020               	movf	___flmul@aexp^(0+1280),w,c
  6992  002D76  C521  F517         	movff	___flmul@bexp,??___flmul
  6993  002D7A  6A18               	clrf	(??___flmul+1)^(0+1280),c
  6994  002D7C  2617               	addwf	??___flmul^(0+1280),f,c
  6995  002D7E  0E00               	movlw	0
  6996  002D80  2218               	addwfc	(??___flmul+1)^(0+1280),f,c
  6997  002D82  0E82               	movlw	130
  6998  002D84  2417               	addwf	??___flmul^(0+1280),w,c
  6999  002D86  6E26               	movwf	___flmul@temp^(0+1280),c
  7000  002D88  0EFF               	movlw	255
  7001  002D8A  2018               	addwfc	(??___flmul+1)^(0+1280),w,c
  7002  002D8C  6E27               	movwf	(___flmul@temp+1)^(0+1280),c
  7003  002D8E  EFDE  F016         	goto	i2l5140
  7004  002D92                     i2l5134:
  7005  002D92  90D8               	bcf	status,0,c
  7006  002D94  3622               	rlcf	___flmul@prod^(0+1280),f,c
  7007  002D96  3623               	rlcf	(___flmul@prod+1)^(0+1280),f,c
  7008  002D98  3624               	rlcf	(___flmul@prod+2)^(0+1280),f,c
  7009  002D9A  3625               	rlcf	(___flmul@prod+3)^(0+1280),f,c
  7010  002D9C  AE1F               	btfss	(___flmul@grs+3)^(0+1280),7,c
  7011  002D9E  EFD3  F016         	goto	i2u374_41
  7012  002DA2  EFD5  F016         	goto	i2u374_40
  7013  002DA6                     i2u374_41:
  7014  002DA6  EFD6  F016         	goto	i2l2406
  7015  002DAA                     i2u374_40:
  7016  002DAA  8022               	bsf	___flmul@prod^(0+1280),0,c
  7017  002DAC                     i2l2406:
  7018  002DAC  90D8               	bcf	status,0,c
  7019  002DAE  361C               	rlcf	___flmul@grs^(0+1280),f,c
  7020  002DB0  361D               	rlcf	(___flmul@grs+1)^(0+1280),f,c
  7021  002DB2  361E               	rlcf	(___flmul@grs+2)^(0+1280),f,c
  7022  002DB4  361F               	rlcf	(___flmul@grs+3)^(0+1280),f,c
  7023  002DB6  0626               	decf	___flmul@temp^(0+1280),f,c
  7024  002DB8  A0D8               	btfss	status,0,c
  7025  002DBA  0627               	decf	(___flmul@temp+1)^(0+1280),f,c
  7026  002DBC                     i2l5140:
  7027  002DBC  AE24               	btfss	(___flmul@prod+2)^(0+1280),7,c
  7028  002DBE  EFE3  F016         	goto	i2u375_41
  7029  002DC2  EFE5  F016         	goto	i2u375_40
  7030  002DC6                     i2u375_41:
  7031  002DC6  EFC9  F016         	goto	i2l5134
  7032  002DCA                     i2u375_40:
  7033  002DCA  0E00               	movlw	0
  7034  002DCC  6E20               	movwf	___flmul@aexp^(0+1280),c
  7035  002DCE  AE1F               	btfss	(___flmul@grs+3)^(0+1280),7,c
  7036  002DD0  EFEC  F016         	goto	i2u376_41
  7037  002DD4  EFEE  F016         	goto	i2u376_40
  7038  002DD8                     i2u376_41:
  7039  002DD8  EF12  F017         	goto	i2l2408
  7040  002DDC                     i2u376_40:
  7041  002DDC  0EFF               	movlw	255
  7042  002DDE  141C               	andwf	___flmul@grs^(0+1280),w,c
  7043  002DE0  6E17               	movwf	??___flmul^(0+1280),c
  7044  002DE2  0EFF               	movlw	255
  7045  002DE4  141D               	andwf	(___flmul@grs+1)^(0+1280),w,c
  7046  002DE6  6E18               	movwf	(??___flmul+1)^(0+1280),c
  7047  002DE8  0EFF               	movlw	255
  7048  002DEA  141E               	andwf	(___flmul@grs+2)^(0+1280),w,c
  7049  002DEC  6E19               	movwf	(??___flmul+2)^(0+1280),c
  7050  002DEE  0E7F               	movlw	127
  7051  002DF0  141F               	andwf	(___flmul@grs+3)^(0+1280),w,c
  7052  002DF2  6E1A               	movwf	(??___flmul+3)^(0+1280),c
  7053  002DF4  5017               	movf	??___flmul^(0+1280),w,c
  7054  002DF6  1018               	iorwf	(??___flmul+1)^(0+1280),w,c
  7055  002DF8  1019               	iorwf	(??___flmul+2)^(0+1280),w,c
  7056  002DFA  101A               	iorwf	(??___flmul+3)^(0+1280),w,c
  7057  002DFC  B4D8               	btfsc	status,2,c
  7058  002DFE  EF03  F017         	goto	i2u377_41
  7059  002E02  EF05  F017         	goto	i2u377_40
  7060  002E06                     i2u377_41:
  7061  002E06  EF09  F017         	goto	i2l2409
  7062  002E0A                     i2u377_40:
  7063  002E0A                     i2l5148:
  7064  002E0A  0E01               	movlw	1
  7065  002E0C  6E20               	movwf	___flmul@aexp^(0+1280),c
  7066  002E0E  EF12  F017         	goto	i2l2408
  7067  002E12                     i2l2409:
  7068  002E12  A022               	btfss	___flmul@prod^(0+1280),0,c
  7069  002E14  EF0E  F017         	goto	i2u378_41
  7070  002E18  EF10  F017         	goto	i2u378_40
  7071  002E1C                     i2u378_41:
  7072  002E1C  EF12  F017         	goto	i2l2408
  7073  002E20                     i2u378_40:
  7074  002E20  EF05  F017         	goto	i2l5148
  7075  002E24                     i2l2408:
  7076  002E24  5020               	movf	___flmul@aexp^(0+1280),w,c
  7077  002E26  B4D8               	btfsc	status,2,c
  7078  002E28  EF18  F017         	goto	i2u379_41
  7079  002E2C  EF1A  F017         	goto	i2u379_40
  7080  002E30                     i2u379_41:
  7081  002E30  EF3E  F017         	goto	i2l5160
  7082  002E34                     i2u379_40:
  7083  002E34  0E01               	movlw	1
  7084  002E36  2622               	addwf	___flmul@prod^(0+1280),f,c
  7085  002E38  0E00               	movlw	0
  7086  002E3A  2223               	addwfc	(___flmul@prod+1)^(0+1280),f,c
  7087  002E3C  2224               	addwfc	(___flmul@prod+2)^(0+1280),f,c
  7088  002E3E  2225               	addwfc	(___flmul@prod+3)^(0+1280),f,c
  7089  002E40  A025               	btfss	(___flmul@prod+3)^(0+1280),0,c
  7090  002E42  EF25  F017         	goto	i2u380_41
  7091  002E46  EF27  F017         	goto	i2u380_40
  7092  002E4A                     i2u380_41:
  7093  002E4A  EF3E  F017         	goto	i2l5160
  7094  002E4E                     i2u380_40:
  7095  002E4E  C522  F517         	movff	___flmul@prod,??___flmul
  7096  002E52  C523  F518         	movff	___flmul@prod+1,??___flmul+1
  7097  002E56  C524  F519         	movff	___flmul@prod+2,??___flmul+2
  7098  002E5A  C525  F51A         	movff	___flmul@prod+3,??___flmul+3
  7099  002E5E  341A               	rlcf	(??___flmul+3)^(0+1280),w,c
  7100  002E60  321A               	rrcf	(??___flmul+3)^(0+1280),f,c
  7101  002E62  3219               	rrcf	(??___flmul+2)^(0+1280),f,c
  7102  002E64  3218               	rrcf	(??___flmul+1)^(0+1280),f,c
  7103  002E66  3217               	rrcf	??___flmul^(0+1280),f,c
  7104  002E68  C517  F522         	movff	??___flmul,___flmul@prod
  7105  002E6C  C518  F523         	movff	??___flmul+1,___flmul@prod+1
  7106  002E70  C519  F524         	movff	??___flmul+2,___flmul@prod+2
  7107  002E74  C51A  F525         	movff	??___flmul+3,___flmul@prod+3
  7108  002E78  4A26               	infsnz	___flmul@temp^(0+1280),f,c
  7109  002E7A  2A27               	incf	(___flmul@temp+1)^(0+1280),f,c
  7110  002E7C                     i2l5160:
  7111  002E7C  BE27               	btfsc	(___flmul@temp+1)^(0+1280),7,c
  7112  002E7E  EF49  F017         	goto	i2u381_41
  7113  002E82  5027               	movf	(___flmul@temp+1)^(0+1280),w,c
  7114  002E84  E108               	bnz	i2u381_40
  7115  002E86  2826               	incf	___flmul@temp^(0+1280),w,c
  7116  002E88  A0D8               	btfss	status,0,c
  7117  002E8A  EF49  F017         	goto	i2u381_41
  7118  002E8E  EF4B  F017         	goto	i2u381_40
  7119  002E92                     i2u381_41:
  7120  002E92  EF55  F017         	goto	i2l5164
  7121  002E96                     i2u381_40:
  7122  002E96  0E00               	movlw	0
  7123  002E98  6E22               	movwf	___flmul@prod^(0+1280),c
  7124  002E9A  0E00               	movlw	0
  7125  002E9C  6E23               	movwf	(___flmul@prod+1)^(0+1280),c
  7126  002E9E  0E80               	movlw	128
  7127  002EA0  6E24               	movwf	(___flmul@prod+2)^(0+1280),c
  7128  002EA2  0E7F               	movlw	127
  7129  002EA4  6E25               	movwf	(___flmul@prod+3)^(0+1280),c
  7130  002EA6  EF83  F017         	goto	i2l5176
  7131  002EAA                     i2l5164:
  7132  002EAA  BE27               	btfsc	(___flmul@temp+1)^(0+1280),7,c
  7133  002EAC  EF62  F017         	goto	i2u382_40
  7134  002EB0  5027               	movf	(___flmul@temp+1)^(0+1280),w,c
  7135  002EB2  E106               	bnz	i2u382_41
  7136  002EB4  0426               	decf	___flmul@temp^(0+1280),w,c
  7137  002EB6  B0D8               	btfsc	status,0,c
  7138  002EB8  EF60  F017         	goto	i2u382_41
  7139  002EBC  EF62  F017         	goto	i2u382_40
  7140  002EC0                     i2u382_41:
  7141  002EC0  EF6E  F017         	goto	i2l2416
  7142  002EC4                     i2u382_40:
  7143  002EC4  0E00               	movlw	0
  7144  002EC6  6E22               	movwf	___flmul@prod^(0+1280),c
  7145  002EC8  0E00               	movlw	0
  7146  002ECA  6E23               	movwf	(___flmul@prod+1)^(0+1280),c
  7147  002ECC  0E00               	movlw	0
  7148  002ECE  6E24               	movwf	(___flmul@prod+2)^(0+1280),c
  7149  002ED0  0E00               	movlw	0
  7150  002ED2  6E25               	movwf	(___flmul@prod+3)^(0+1280),c
  7151  002ED4  0E00               	movlw	0
  7152  002ED6  6E1B               	movwf	___flmul@sign^(0+1280),c
  7153  002ED8  EF83  F017         	goto	i2l5176
  7154  002EDC                     i2l2416:
  7155  002EDC  C526  F521         	movff	___flmul@temp,___flmul@bexp
  7156  002EE0  0EFF               	movlw	255
  7157  002EE2  1622               	andwf	___flmul@prod^(0+1280),f,c
  7158  002EE4  0EFF               	movlw	255
  7159  002EE6  1623               	andwf	(___flmul@prod+1)^(0+1280),f,c
  7160  002EE8  0E7F               	movlw	127
  7161  002EEA  1624               	andwf	(___flmul@prod+2)^(0+1280),f,c
  7162  002EEC  0E00               	movlw	0
  7163  002EEE  1625               	andwf	(___flmul@prod+3)^(0+1280),f,c
  7164  002EF0  A021               	btfss	___flmul@bexp^(0+1280),0,c
  7165  002EF2  EF7D  F017         	goto	i2u383_41
  7166  002EF6  EF7F  F017         	goto	i2u383_40
  7167  002EFA                     i2u383_41:
  7168  002EFA  EF80  F017         	goto	i2l5174
  7169  002EFE                     i2u383_40:
  7170  002EFE  8E24               	bsf	(___flmul@prod+2)^(0+1280),7,c
  7171  002F00                     i2l5174:
  7172  002F00  90D8               	bcf	status,0,c
  7173  002F02  3021               	rrcf	___flmul@bexp^(0+1280),w,c
  7174  002F04  6E25               	movwf	(___flmul@prod+3)^(0+1280),c
  7175  002F06                     i2l5176:
  7176  002F06  501B               	movf	___flmul@sign^(0+1280),w,c
  7177  002F08  1225               	iorwf	(___flmul@prod+3)^(0+1280),f,c
  7178  002F0A  C522  F50F         	movff	___flmul@prod,?___flmul
  7179  002F0E  C523  F510         	movff	___flmul@prod+1,?___flmul+1
  7180  002F12  C524  F511         	movff	___flmul@prod+2,?___flmul+2
  7181  002F16  C525  F512         	movff	___flmul@prod+3,?___flmul+3
  7182  002F1A                     i2l2403:
  7183  002F1A  0012               	return		;funcret
  7184  002F1C                     __end_of___flmul:
  7185                           	callstack 0
  7186                           
  7187 ;; *************** function _ADC_StopConversion *****************
  7188 ;; Defined at:
  7189 ;;		line 548 in file "mcc_generated_files/adc.c"
  7190 ;; Parameters:    Size  Location     Type
  7191 ;;		None
  7192 ;; Auto vars:     Size  Location     Type
  7193 ;;		None
  7194 ;; Return value:  Size  Location     Type
  7195 ;;                  1    wreg      void 
  7196 ;; Registers used:
  7197 ;;		None
  7198 ;; Tracked objects:
  7199 ;;		On entry : 0/0
  7200 ;;		On exit  : 0/0
  7201 ;;		Unchanged: 0/0
  7202 ;; Data sizes:     COMRAM   BANK5   BANK6   BANK7   BANK8   BANK9  BANK10  BANK11  BANK12  BANK13  BANK14  BANK15  BANK1
      +6  BANK17  BANK18  BANK19  BANK20  BANK21  BANK22  BANK23  BANK24  BANK25  BANK26  BANK27  BANK28  BANK29  BANK30  BANK3
      +1  BANK32  BANK33  BANK34  BANK35  BANK36  BANK37
  7203 ;;      Params:         0       0       0       0       0       0       0       0       0       0       0       0       
      +0       0       0       0       0       0       0       0       0       0       0       0       0       0       0       
      +0       0       0       0       0       0       0
  7204 ;;      Locals:         0       0       0       0       0       0       0       0       0       0       0       0       
      +0       0       0       0       0       0       0       0       0       0       0       0       0       0       0       
      +0       0       0       0       0       0       0
  7205 ;;      Temps:          0       0       0       0       0       0       0       0       0       0       0       0       
      +0       0       0       0       0       0       0       0       0       0       0       0       0       0       0       
      +0       0       0       0       0       0       0
  7206 ;;      Totals:         0       0       0       0       0       0       0       0       0       0       0       0       
      +0       0       0       0       0       0       0       0       0       0       0       0       0       0       0       
      +0       0       0       0       0       0       0
  7207 ;;Total ram usage:        0 bytes
  7208 ;; Hardware stack levels used:    1
  7209 ;; This function calls:
  7210 ;;		Nothing
  7211 ;; This function is called by:
  7212 ;;		_ANALOG_GetVoltage
  7213 ;; This function uses a non-reentrant model
  7214 ;;
  7215                           
  7216                           	psect	text72
  7217  004C0E                     __ptext72:
  7218                           	callstack 0
  7219  004C0E                     _ADC_StopConversion:
  7220                           	callstack 118
  7221  004C0E                     
  7222                           ;mcc_generated_files/adc.c: 551:     ADCON0bits.GO = 0;
  7223  004C0E  0103               	movlb	3	; () banked
  7224  004C10  91F3               	bcf	243,0,b	;volatile
  7225  004C12                     
  7226                           ; BSR set to: 3
  7227  004C12  0012               	return		;funcret
  7228  004C14                     __end_of_ADC_StopConversion:
  7229                           	callstack 0
  7230                           
  7231 ;; *************** function _ADC_SelectContext *****************
  7232 ;; Defined at:
  7233 ;;		line 455 in file "mcc_generated_files/adc.c"
  7234 ;; Parameters:    Size  Location     Type
  7235 ;;  context         1    wreg     enum E22156
  7236 ;; Auto vars:     Size  Location     Type
  7237 ;;  context         1    0[COMRAM] enum E22156
  7238 ;; Return value:  Size  Location     Type
  7239 ;;                  1    wreg      void 
  7240 ;; Registers used:
  7241 ;;		wreg
  7242 ;; Tracked objects:
  7243 ;;		On entry : 0/0
  7244 ;;		On exit  : 0/0
  7245 ;;		Unchanged: 0/0
  7246 ;; Data sizes:     COMRAM   BANK5   BANK6   BANK7   BANK8   BANK9  BANK10  BANK11  BANK12  BANK13  BANK14  BANK15  BANK1
      +6  BANK17  BANK18  BANK19  BANK20  BANK21  BANK22  BANK23  BANK24  BANK25  BANK26  BANK27  BANK28  BANK29  BANK30  BANK3
      +1  BANK32  BANK33  BANK34  BANK35  BANK36  BANK37
  7247 ;;      Params:         0       0       0       0       0       0       0       0       0       0       0       0       
      +0       0       0       0       0       0       0       0       0       0       0       0       0       0       0       
      +0       0       0       0       0       0       0
  7248 ;;      Locals:         1       0       0       0       0       0       0       0       0       0       0       0       
      +0       0       0       0       0       0       0       0       0       0       0       0       0       0       0       
      +0       0       0       0       0       0       0
  7249 ;;      Temps:          0       0       0       0       0       0       0       0       0       0       0       0       
      +0       0       0       0       0       0       0       0       0       0       0       0       0       0       0       
      +0       0       0       0       0       0       0
  7250 ;;      Totals:         1       0       0       0       0       0       0       0       0       0       0       0       
      +0       0       0       0       0       0       0       0       0       0       0       0       0       0       0       
      +0       0       0       0       0       0       0
  7251 ;;Total ram usage:        1 bytes
  7252 ;; Hardware stack levels used:    1
  7253 ;; This function calls:
  7254 ;;		Nothing
  7255 ;; This function is called by:
  7256 ;;		_ANALOG_GetVoltage
  7257 ;; This function uses a non-reentrant model
  7258 ;;
  7259                           
  7260                           	psect	text73
  7261  004BEE                     __ptext73:
  7262                           	callstack 0
  7263  004BEE                     _ADC_SelectContext:
  7264                           	callstack 118
  7265                           
  7266                           ; BSR set to: 3
  7267                           ;incstack = 0
  7268                           ;ADC_SelectContext@context stored from wreg
  7269  004BEE  6E01               	movwf	ADC_SelectContext@context^(0+1280),c
  7270  004BF0                     
  7271                           ;mcc_generated_files/adc.c: 455: __attribute__((inline)) void ADC_SelectContext(ADC_cont
      +                          ext_t context);mcc_generated_files/adc.c: 456: {;mcc_generated_files/adc.c: 457:     ADC
      +                          TX = context;
  7272  004BF0  0061  F404  F3FB   	movff	ADC_SelectContext@context,1019	;volatile
  7273  004BF6  0012               	return		;funcret
  7274  004BF8                     __end_of_ADC_SelectContext:
  7275                           	callstack 0
  7276                           
  7277 ;; *************** function _ADC_GetSingleConversion *****************
  7278 ;; Defined at:
  7279 ;;		line 525 in file "mcc_generated_files/adc.c"
  7280 ;; Parameters:    Size  Location     Type
  7281 ;;  channel         1    wreg     enum E22143
  7282 ;; Auto vars:     Size  Location     Type
  7283 ;;  channel         1    4[COMRAM] enum E22143
  7284 ;; Return value:  Size  Location     Type
  7285 ;;                  2    0[COMRAM] unsigned short 
  7286 ;; Registers used:
  7287 ;;		wreg, status,2, status,0
  7288 ;; Tracked objects:
  7289 ;;		On entry : 0/0
  7290 ;;		On exit  : 0/0
  7291 ;;		Unchanged: 0/0
  7292 ;; Data sizes:     COMRAM   BANK5   BANK6   BANK7   BANK8   BANK9  BANK10  BANK11  BANK12  BANK13  BANK14  BANK15  BANK1
      +6  BANK17  BANK18  BANK19  BANK20  BANK21  BANK22  BANK23  BANK24  BANK25  BANK26  BANK27  BANK28  BANK29  BANK30  BANK3
      +1  BANK32  BANK33  BANK34  BANK35  BANK36  BANK37
  7293 ;;      Params:         2       0       0       0       0       0       0       0       0       0       0       0       
      +0       0       0       0       0       0       0       0       0       0       0       0       0       0       0       
      +0       0       0       0       0       0       0
  7294 ;;      Locals:         1       0       0       0       0       0       0       0       0       0       0       0       
      +0       0       0       0       0       0       0       0       0       0       0       0       0       0       0       
      +0       0       0       0       0       0       0
  7295 ;;      Temps:          2       0       0       0       0       0       0       0       0       0       0       0       
      +0       0       0       0       0       0       0       0       0       0       0       0       0       0       0       
      +0       0       0       0       0       0       0
  7296 ;;      Totals:         5       0       0       0       0       0       0       0       0       0       0       0       
      +0       0       0       0       0       0       0       0       0       0       0       0       0       0       0       
      +0       0       0       0       0       0       0
  7297 ;;Total ram usage:        5 bytes
  7298 ;; Hardware stack levels used:    1
  7299 ;; This function calls:
  7300 ;;		Nothing
  7301 ;; This function is called by:
  7302 ;;		_ANALOG_GetVoltage
  7303 ;; This function uses a non-reentrant model
  7304 ;;
  7305                           
  7306                           	psect	text74
  7307  0047B0                     __ptext74:
  7308                           	callstack 0
  7309  0047B0                     _ADC_GetSingleConversion:
  7310                           	callstack 118
  7311                           
  7312                           ;incstack = 0
  7313                           ;ADC_GetSingleConversion@channel stored from wreg
  7314  0047B0  6E05               	movwf	ADC_GetSingleConversion@channel^(0+1280),c
  7315  0047B2                     
  7316                           ;mcc_generated_files/adc.c: 525: adc_result_t ADC_GetSingleConversion(ADC_channel_t chan
      +                          nel);mcc_generated_files/adc.c: 526: {;mcc_generated_files/adc.c: 528:     ADPCH = chann
      +                          el;
  7317  0047B2  0061  F414  F3EC   	movff	ADC_GetSingleConversion@channel,1004	;volatile
  7318  0047B8                     
  7319                           ;mcc_generated_files/adc.c: 531:     ADCON0bits.ON = 1;
  7320  0047B8  0103               	movlb	3	; () banked
  7321  0047BA  8FF3               	bsf	243,7,b	;volatile
  7322  0047BC                     
  7323                           ; BSR set to: 3
  7324                           ;mcc_generated_files/adc.c: 534:     ADCON0bits.CONT = 0;
  7325  0047BC  9DF3               	bcf	243,6,b	;volatile
  7326  0047BE                     
  7327                           ; BSR set to: 3
  7328                           ;mcc_generated_files/adc.c: 537:     ADCON0bits.GO = 1;
  7329  0047BE  81F3               	bsf	243,0,b	;volatile
  7330  0047C0                     i2l405:
  7331                           
  7332                           ; BSR set to: 3
  7333                           ;mcc_generated_files/adc.c: 540:     while(ADCON0bits.GO)
  7334  0047C0  B1F3               	btfsc	243,0,b	;volatile
  7335  0047C2  EFE5  F023         	goto	i2u360_41
  7336  0047C6  EFE7  F023         	goto	i2u360_40
  7337  0047CA                     i2u360_41:
  7338  0047CA  EFE0  F023         	goto	i2l405
  7339  0047CE                     i2u360_40:
  7340  0047CE                     
  7341                           ; BSR set to: 3
  7342                           ;mcc_generated_files/adc.c: 545:     return ((adc_result_t) ((ADRESH << 8) + ADRESL));
  7343  0047CE  51EB               	movf	235,w,b	;volatile
  7344  0047D0  6E04               	movwf	(??_ADC_GetSingleConversion+1)^(0+1280),c
  7345  0047D2  6A03               	clrf	??_ADC_GetSingleConversion^(0+1280),c
  7346  0047D4  51EA               	movf	234,w,b	;volatile
  7347  0047D6  2403               	addwf	??_ADC_GetSingleConversion^(0+1280),w,c
  7348  0047D8  6E01               	movwf	?_ADC_GetSingleConversion^(0+1280),c
  7349  0047DA  0E00               	movlw	0
  7350  0047DC  2004               	addwfc	(??_ADC_GetSingleConversion+1)^(0+1280),w,c
  7351  0047DE  6E02               	movwf	(?_ADC_GetSingleConversion+1)^(0+1280),c
  7352  0047E0                     
  7353                           ; BSR set to: 3
  7354  0047E0  0012               	return		;funcret
  7355  0047E2                     __end_of_ADC_GetSingleConversion:
  7356                           	callstack 0
  7357                           
  7358 ;; *************** function _ADC_DisableChannelSequencer *****************
  7359 ;; Defined at:
  7360 ;;		line 445 in file "mcc_generated_files/adc.c"
  7361 ;; Parameters:    Size  Location     Type
  7362 ;;		None
  7363 ;; Auto vars:     Size  Location     Type
  7364 ;;		None
  7365 ;; Return value:  Size  Location     Type
  7366 ;;                  1    wreg      void 
  7367 ;; Registers used:
  7368 ;;		None
  7369 ;; Tracked objects:
  7370 ;;		On entry : 0/0
  7371 ;;		On exit  : 0/0
  7372 ;;		Unchanged: 0/0
  7373 ;; Data sizes:     COMRAM   BANK5   BANK6   BANK7   BANK8   BANK9  BANK10  BANK11  BANK12  BANK13  BANK14  BANK15  BANK1
      +6  BANK17  BANK18  BANK19  BANK20  BANK21  BANK22  BANK23  BANK24  BANK25  BANK26  BANK27  BANK28  BANK29  BANK30  BANK3
      +1  BANK32  BANK33  BANK34  BANK35  BANK36  BANK37
  7374 ;;      Params:         0       0       0       0       0       0       0       0       0       0       0       0       
      +0       0       0       0       0       0       0       0       0       0       0       0       0       0       0       
      +0       0       0       0       0       0       0
  7375 ;;      Locals:         0       0       0       0       0       0       0       0       0       0       0       0       
      +0       0       0       0       0       0       0       0       0       0       0       0       0       0       0       
      +0       0       0       0       0       0       0
  7376 ;;      Temps:          0       0       0       0       0       0       0       0       0       0       0       0       
      +0       0       0       0       0       0       0       0       0       0       0       0       0       0       0       
      +0       0       0       0       0       0       0
  7377 ;;      Totals:         0       0       0       0       0       0       0       0       0       0       0       0       
      +0       0       0       0       0       0       0       0       0       0       0       0       0       0       0       
      +0       0       0       0       0       0       0
  7378 ;;Total ram usage:        0 bytes
  7379 ;; Hardware stack levels used:    1
  7380 ;; This function calls:
  7381 ;;		Nothing
  7382 ;; This function is called by:
  7383 ;;		_ANALOG_GetVoltage
  7384 ;; This function uses a non-reentrant model
  7385 ;;
  7386                           
  7387                           	psect	text75
  7388  004C14                     __ptext75:
  7389                           	callstack 0
  7390  004C14                     _ADC_DisableChannelSequencer:
  7391                           	callstack 118
  7392  004C14                     
  7393                           ;mcc_generated_files/adc.c: 447:     ADCON0bits.CSEN = 0;
  7394  004C14  0103               	movlb	3	; () banked
  7395  004C16  9BF3               	bcf	243,5,b	;volatile
  7396  004C18                     
  7397                           ; BSR set to: 3
  7398  004C18  0012               	return		;funcret
  7399  004C1A                     __end_of_ADC_DisableChannelSequencer:
  7400                           	callstack 0
  7401                           
  7402 ;; *************** function _CAN1_RXI_ISR *****************
  7403 ;; Defined at:
  7404 ;;		line 741 in file "mcc_generated_files/can1.c"
  7405 ;; Parameters:    Size  Location     Type
  7406 ;;		None
  7407 ;; Auto vars:     Size  Location     Type
  7408 ;;		None
  7409 ;; Return value:  Size  Location     Type
  7410 ;;                  1    wreg      void 
  7411 ;; Registers used:
  7412 ;;		wreg, fsr2l, fsr2h, status,2, status,0, pclath, tosl, tblptrl, tblptrh, tblptru, prodl, prodh, cstack
  7413 ;; Tracked objects:
  7414 ;;		On entry : 0/0
  7415 ;;		On exit  : 0/0
  7416 ;;		Unchanged: 0/0
  7417 ;; Data sizes:     COMRAM   BANK5   BANK6   BANK7   BANK8   BANK9  BANK10  BANK11  BANK12  BANK13  BANK14  BANK15  BANK1
      +6  BANK17  BANK18  BANK19  BANK20  BANK21  BANK22  BANK23  BANK24  BANK25  BANK26  BANK27  BANK28  BANK29  BANK30  BANK3
      +1  BANK32  BANK33  BANK34  BANK35  BANK36  BANK37
  7418 ;;      Params:         0       0       0       0       0       0       0       0       0       0       0       0       
      +0       0       0       0       0       0       0       0       0       0       0       0       0       0       0       
      +0       0       0       0       0       0       0
  7419 ;;      Locals:         0       0       0       0       0       0       0       0       0       0       0       0       
      +0       0       0       0       0       0       0       0       0       0       0       0       0       0       0       
      +0       0       0       0       0       0       0
  7420 ;;      Temps:          0       0       0       0       0       0       0       0       0       0       0       0       
      +0       0       0       0       0       0       0       0       0       0       0       0       0       0       0       
      +0       0       0       0       0       0       0
  7421 ;;      Totals:         0       0       0       0       0       0       0       0       0       0       0       0       
      +0       0       0       0       0       0       0       0       0       0       0       0       0       0       0       
      +0       0       0       0       0       0       0
  7422 ;;Total ram usage:        0 bytes
  7423 ;; Hardware stack levels used:    1
  7424 ;; Hardware stack levels required when called:    6
  7425 ;; This function calls:
  7426 ;;		Absolute function
  7427 ;;		_DefaultFIFO1NotEmptyHandler
  7428 ;; This function is called by:
  7429 ;;		_INTERRUPT_InterruptManager
  7430 ;; This function uses a non-reentrant model
  7431 ;;
  7432                           
  7433                           	psect	text76
  7434  0048F8                     __ptext76:
  7435                           	callstack 0
  7436  0048F8                     _CAN1_RXI_ISR:
  7437                           	callstack 116
  7438  0048F8                     
  7439                           ;mcc_generated_files/can1.c: 743:     if (1 == C1FIFOSTA1Lbits.TFNRFNIF)
  7440  0048F8  0101               	movlb	1	; () banked
  7441  0048FA  A160               	btfss	96,0,b	;volatile
  7442  0048FC  EF82  F024         	goto	i2u467_41
  7443  004900  EF84  F024         	goto	i2u467_40
  7444  004904                     i2u467_41:
  7445  004904  EF91  F024         	goto	i2l997
  7446  004908                     i2u467_40:
  7447  004908                     
  7448                           ; BSR set to: 1
  7449                           ;mcc_generated_files/can1.c: 744:     {;mcc_generated_files/can1.c: 745:         CAN1_FI
      +                          FO1NotEmptyHandler();
  7450  004908  D802               	call	i2u468_48
  7451  00490A  EF91  F024         	goto	i2u468_49
  7452  00490E                     i2u468_48:
  7453  00490E  0005               	push	
  7454  004910  6EFA               	movwf	pclath,c
  7455  004912  0105               	movlb	5	; () banked
  7456  004914  518C               	movf	_CAN1_FIFO1NotEmptyHandler& (0+255),w,b
  7457  004916  6EFD               	movwf	tosl,c
  7458  004918  518D               	movf	(_CAN1_FIFO1NotEmptyHandler+1)& (0+255),w,b
  7459  00491A  6EFE               	movwf	tosh,c
  7460  00491C  6AFF               	clrf	tosu,c
  7461  00491E  50FA               	movf	pclath,w,c
  7462  004920  0012               	return		;indir
  7463  004922                     i2u468_49:
  7464  004922                     i2l997:
  7465  004922  0012               	return		;funcret
  7466  004924                     __end_of_CAN1_RXI_ISR:
  7467                           	callstack 0
  7468                           
  7469 ;; *************** function _DefaultFIFO1NotEmptyHandler *****************
  7470 ;; Defined at:
  7471 ;;		line 120 in file "mcc_generated_files/can1.c"
  7472 ;; Parameters:    Size  Location     Type
  7473 ;;		None
  7474 ;; Auto vars:     Size  Location     Type
  7475 ;;		None
  7476 ;; Return value:  Size  Location     Type
  7477 ;;                  1    wreg      void 
  7478 ;; Registers used:
  7479 ;;		wreg, fsr2l, fsr2h, status,2, status,0, tblptrl, tblptrh, tblptru, prodl, prodh, cstack
  7480 ;; Tracked objects:
  7481 ;;		On entry : 0/0
  7482 ;;		On exit  : 0/0
  7483 ;;		Unchanged: 0/0
  7484 ;; Data sizes:     COMRAM   BANK5   BANK6   BANK7   BANK8   BANK9  BANK10  BANK11  BANK12  BANK13  BANK14  BANK15  BANK1
      +6  BANK17  BANK18  BANK19  BANK20  BANK21  BANK22  BANK23  BANK24  BANK25  BANK26  BANK27  BANK28  BANK29  BANK30  BANK3
      +1  BANK32  BANK33  BANK34  BANK35  BANK36  BANK37
  7485 ;;      Params:         0       0       0       0       0       0       0       0       0       0       0       0       
      +0       0       0       0       0       0       0       0       0       0       0       0       0       0       0       
      +0       0       0       0       0       0       0
  7486 ;;      Locals:         0       0       0       0       0       0       0       0       0       0       0       0       
      +0       0       0       0       0       0       0       0       0       0       0       0       0       0       0       
      +0       0       0       0       0       0       0
  7487 ;;      Temps:          0       0       0       0       0       0       0       0       0       0       0       0       
      +0       0       0       0       0       0       0       0       0       0       0       0       0       0       0       
      +0       0       0       0       0       0       0
  7488 ;;      Totals:         0       0       0       0       0       0       0       0       0       0       0       0       
      +0       0       0       0       0       0       0       0       0       0       0       0       0       0       0       
      +0       0       0       0       0       0       0
  7489 ;;Total ram usage:        0 bytes
  7490 ;; Hardware stack levels used:    1
  7491 ;; Hardware stack levels required when called:    5
  7492 ;; This function calls:
  7493 ;;		_CANReadMessage
  7494 ;; This function is called by:
  7495 ;;		_CAN1_RX_FIFO_Configuration
  7496 ;;		_CAN1_RXI_ISR
  7497 ;; This function uses a non-reentrant model
  7498 ;;
  7499                           
  7500                           	psect	text77
  7501  004C1A                     __ptext77:
  7502                           	callstack 0
  7503  004C1A                     _DefaultFIFO1NotEmptyHandler:
  7504                           	callstack 116
  7505  004C1A                     
  7506                           ;mcc_generated_files/can1.c: 122:     CANReadMessage();
  7507  004C1A  ECF2  F018         	call	_CANReadMessage	;wreg free
  7508  004C1E  0012               	return		;funcret
  7509  004C20                     __end_of_DefaultFIFO1NotEmptyHandler:
  7510                           	callstack 0
  7511                           
  7512 ;; *************** function _CANReadMessage *****************
  7513 ;; Defined at:
  7514 ;;		line 100 in file "MESSAGES.c"
  7515 ;; Parameters:    Size  Location     Type
  7516 ;;		None
  7517 ;; Auto vars:     Size  Location     Type
  7518 ;;  id              4    2[BANK5 ] unsigned long 
  7519 ;;  data1           1   13[BANK5 ] unsigned char 
  7520 ;;  data2           1   12[BANK5 ] unsigned char 
  7521 ;;  data3           1   11[BANK5 ] unsigned char 
  7522 ;;  data5           1   10[BANK5 ] unsigned char 
  7523 ;;  data4           1    9[BANK5 ] unsigned char 
  7524 ;;  data6           1    8[BANK5 ] unsigned char 
  7525 ;;  data8           1    7[BANK5 ] unsigned char 
  7526 ;;  data7           1    6[BANK5 ] unsigned char 
  7527 ;;  dlc             1    0        unsigned char 
  7528 ;;  idType          1    0        unsigned char 
  7529 ;; Return value:  Size  Location     Type
  7530 ;;                  1    wreg      void 
  7531 ;; Registers used:
  7532 ;;		wreg, fsr2l, fsr2h, status,2, status,0, tblptrl, tblptrh, tblptru, prodl, prodh, cstack
  7533 ;; Tracked objects:
  7534 ;;		On entry : 0/0
  7535 ;;		On exit  : 0/0
  7536 ;;		Unchanged: 0/0
  7537 ;; Data sizes:     COMRAM   BANK5   BANK6   BANK7   BANK8   BANK9  BANK10  BANK11  BANK12  BANK13  BANK14  BANK15  BANK1
      +6  BANK17  BANK18  BANK19  BANK20  BANK21  BANK22  BANK23  BANK24  BANK25  BANK26  BANK27  BANK28  BANK29  BANK30  BANK3
      +1  BANK32  BANK33  BANK34  BANK35  BANK36  BANK37
  7538 ;;      Params:         0       0       0       0       0       0       0       0       0       0       0       0       
      +0       0       0       0       0       0       0       0       0       0       0       0       0       0       0       
      +0       0       0       0       0       0       0
  7539 ;;      Locals:         0      14       0       0       0       0       0       0       0       0       0       0       
      +0       0       0       0       0       0       0       0       0       0       0       0       0       0       0       
      +0       0       0       0       0       0       0
  7540 ;;      Temps:          5       0       0       0       0       0       0       0       0       0       0       0       
      +0       0       0       0       0       0       0       0       0       0       0       0       0       0       0       
      +0       0       0       0       0       0       0
  7541 ;;      Totals:         5      14       0       0       0       0       0       0       0       0       0       0       
      +0       0       0       0       0       0       0       0       0       0       0       0       0       0       0       
      +0       0       0       0       0       0       0
  7542 ;;Total ram usage:       19 bytes
  7543 ;; Hardware stack levels used:    1
  7544 ;; Hardware stack levels required when called:    4
  7545 ;; This function calls:
  7546 ;;		_CAN1_Receive
  7547 ;;		_CAN1_ReceivedMessageCountGet
  7548 ;;		_SERVICEBRAKE_Move
  7549 ;; This function is called by:
  7550 ;;		_DefaultFIFO1NotEmptyHandler
  7551 ;; This function uses a non-reentrant model
  7552 ;;
  7553                           
  7554                           	psect	text78
  7555  0031E4                     __ptext78:
  7556                           	callstack 0
  7557  0031E4                     _CANReadMessage:
  7558                           	callstack 116
  7559  0031E4                     
  7560                           ;MESSAGES.c: 102:     uint32_t id;;MESSAGES.c: 103:     unsigned char idType;;MESSAGES.c
      +                          : 104:     unsigned char dlc;;MESSAGES.c: 105:     unsigned char data1;;MESSAGES.c: 106:
      +                               unsigned char data2;;MESSAGES.c: 107:     unsigned char data3;;MESSAGES.c: 108:    
      +                           unsigned char data4;;MESSAGES.c: 109:     unsigned char data5;;MESSAGES.c: 110:     uns
      +                          igned char data6;;MESSAGES.c: 111:     unsigned char data7;;MESSAGES.c: 112:     unsigne
      +                          d char data8;;MESSAGES.c: 114:     if(CAN1_ReceivedMessageCountGet() > 0)
  7561  0031E4  EC53  F020         	call	_CAN1_ReceivedMessageCountGet	;wreg free
  7562  0031E8  0900               	iorlw	0
  7563  0031EA  B4D8               	btfsc	status,2,c
  7564  0031EC  EFFA  F018         	goto	i2u400_41
  7565  0031F0  EFFC  F018         	goto	i2u400_40
  7566  0031F4                     i2u400_41:
  7567  0031F4  EF20  F01A         	goto	i2l1471
  7568  0031F8                     i2u400_40:
  7569  0031F8                     
  7570                           ;MESSAGES.c: 115:     {;MESSAGES.c: 116:         if(1 == CAN1_Receive(&msgReceipt))
  7571  0031F8  0EBB               	movlw	low _msgReceipt
  7572  0031FA  6E22               	movwf	CAN1_Receive@rxCanMsg^(0+1280),c
  7573  0031FC  0E05               	movlw	high _msgReceipt
  7574  0031FE  6E23               	movwf	(CAN1_Receive@rxCanMsg+1)^(0+1280),c
  7575  003200  EC3B  F023         	call	_CAN1_Receive	;wreg free
  7576  003204  06E8               	decf	wreg,f,c
  7577  003206  A4D8               	btfss	status,2,c
  7578  003208  EF08  F019         	goto	i2u401_41
  7579  00320C  EF0A  F019         	goto	i2u401_40
  7580  003210                     i2u401_41:
  7581  003210  EF20  F01A         	goto	i2l1471
  7582  003214                     i2u401_40:
  7583  003214                     
  7584                           ;MESSAGES.c: 117:         {;MESSAGES.c: 118:             __nop();
  7585  003214  F000               	nop	
  7586                           
  7587                           ;MESSAGES.c: 119:             id = msgReceipt.msgId;
  7588  003216  C5BB  F5E7         	movff	_msgReceipt,CANReadMessage@id
  7589  00321A  C5BC  F5E8         	movff	_msgReceipt+1,CANReadMessage@id+1
  7590  00321E  C5BD  F5E9         	movff	_msgReceipt+2,CANReadMessage@id+2
  7591  003222  C5BE  F5EA         	movff	_msgReceipt+3,CANReadMessage@id+3
  7592  003226                     
  7593                           ;MESSAGES.c: 122:             data1 = msgReceipt.data[0];
  7594  003226  0061  F700  F4D9   	movff	_msgReceipt+5,fsr2l
  7595  00322C  0061  F704  F4DA   	movff	_msgReceipt+6,fsr2h
  7596  003232  50DF               	movf	indf2,w,c
  7597  003234  0105               	movlb	5	; () banked
  7598  003236  6FF2               	movwf	CANReadMessage@data1& (0+255),b
  7599  003238                     
  7600                           ; BSR set to: 5
  7601                           ;MESSAGES.c: 123:             data2 = msgReceipt.data[1];
  7602  003238  EE20 F001          	lfsr	2,1
  7603  00323C  51C0               	movf	(_msgReceipt+5)& (0+255),w,b
  7604  00323E  26D9               	addwf	fsr2l,f,c
  7605  003240  51C1               	movf	(_msgReceipt+6)& (0+255),w,b
  7606  003242  22DA               	addwfc	fsr2h,f,c
  7607  003244  50DF               	movf	indf2,w,c
  7608  003246  6FF1               	movwf	CANReadMessage@data2& (0+255),b
  7609  003248                     
  7610                           ; BSR set to: 5
  7611                           ;MESSAGES.c: 124:             data3 = msgReceipt.data[2];
  7612  003248  EE20 F002          	lfsr	2,2
  7613  00324C  51C0               	movf	(_msgReceipt+5)& (0+255),w,b
  7614  00324E  26D9               	addwf	fsr2l,f,c
  7615  003250  51C1               	movf	(_msgReceipt+6)& (0+255),w,b
  7616  003252  22DA               	addwfc	fsr2h,f,c
  7617  003254  50DF               	movf	indf2,w,c
  7618  003256  6FF0               	movwf	CANReadMessage@data3& (0+255),b
  7619  003258                     
  7620                           ; BSR set to: 5
  7621                           ;MESSAGES.c: 125:             data4 = msgReceipt.data[3];
  7622  003258  EE20 F003          	lfsr	2,3
  7623  00325C  51C0               	movf	(_msgReceipt+5)& (0+255),w,b
  7624  00325E  26D9               	addwf	fsr2l,f,c
  7625  003260  51C1               	movf	(_msgReceipt+6)& (0+255),w,b
  7626  003262  22DA               	addwfc	fsr2h,f,c
  7627  003264  50DF               	movf	indf2,w,c
  7628  003266  6FEE               	movwf	CANReadMessage@data4& (0+255),b
  7629  003268                     
  7630                           ; BSR set to: 5
  7631                           ;MESSAGES.c: 126:             data5 = msgReceipt.data[4];
  7632  003268  EE20 F004          	lfsr	2,4
  7633  00326C  51C0               	movf	(_msgReceipt+5)& (0+255),w,b
  7634  00326E  26D9               	addwf	fsr2l,f,c
  7635  003270  51C1               	movf	(_msgReceipt+6)& (0+255),w,b
  7636  003272  22DA               	addwfc	fsr2h,f,c
  7637  003274  50DF               	movf	indf2,w,c
  7638  003276  6FEF               	movwf	CANReadMessage@data5& (0+255),b
  7639  003278                     
  7640                           ; BSR set to: 5
  7641                           ;MESSAGES.c: 127:             data6 = msgReceipt.data[5];
  7642  003278  EE20 F005          	lfsr	2,5
  7643  00327C  51C0               	movf	(_msgReceipt+5)& (0+255),w,b
  7644  00327E  26D9               	addwf	fsr2l,f,c
  7645  003280  51C1               	movf	(_msgReceipt+6)& (0+255),w,b
  7646  003282  22DA               	addwfc	fsr2h,f,c
  7647  003284  50DF               	movf	indf2,w,c
  7648  003286  6FED               	movwf	CANReadMessage@data6& (0+255),b
  7649  003288                     
  7650                           ; BSR set to: 5
  7651                           ;MESSAGES.c: 128:             data7 = msgReceipt.data[6];
  7652  003288  EE20 F006          	lfsr	2,6
  7653  00328C  51C0               	movf	(_msgReceipt+5)& (0+255),w,b
  7654  00328E  26D9               	addwf	fsr2l,f,c
  7655  003290  51C1               	movf	(_msgReceipt+6)& (0+255),w,b
  7656  003292  22DA               	addwfc	fsr2h,f,c
  7657  003294  50DF               	movf	indf2,w,c
  7658  003296  6FEB               	movwf	CANReadMessage@data7& (0+255),b
  7659  003298                     
  7660                           ; BSR set to: 5
  7661                           ;MESSAGES.c: 129:             data8 = msgReceipt.data[7];
  7662  003298  EE20 F007          	lfsr	2,7
  7663  00329C  51C0               	movf	(_msgReceipt+5)& (0+255),w,b
  7664  00329E  26D9               	addwf	fsr2l,f,c
  7665  0032A0  51C1               	movf	(_msgReceipt+6)& (0+255),w,b
  7666  0032A2  22DA               	addwfc	fsr2h,f,c
  7667  0032A4  50DF               	movf	indf2,w,c
  7668  0032A6  6FEC               	movwf	CANReadMessage@data8& (0+255),b
  7669                           
  7670                           ;MESSAGES.c: 131:             switch (id)
  7671  0032A8  EFDA  F019         	goto	i2l5432
  7672  0032AC                     i2l1463:
  7673                           
  7674                           ; BSR set to: 5
  7675                           ;MESSAGES.c: 134:                     ucTargetAccelerator = data1;
  7676  0032AC  C5F2  F5B1         	movff	CANReadMessage@data1,_ucTargetAccelerator
  7677                           
  7678                           ;MESSAGES.c: 135:                     ucTargetClutch = data2;
  7679  0032B0  C5F1  F5B0         	movff	CANReadMessage@data2,_ucTargetClutch
  7680                           
  7681                           ;MESSAGES.c: 136:                     ucTargetBrake = data3;
  7682  0032B4  C5F0  F5AF         	movff	CANReadMessage@data3,_ucTargetBrake
  7683                           
  7684                           ;MESSAGES.c: 137:                     ucTargetDirection = data4;
  7685  0032B8  C5EE  F5AE         	movff	CANReadMessage@data4,_ucTargetDirection
  7686                           
  7687                           ;MESSAGES.c: 138:                     ucTargetGear = data5;
  7688  0032BC  C5EF  F5AD         	movff	CANReadMessage@data5,_ucTargetGear
  7689  0032C0                     
  7690                           ; BSR set to: 5
  7691                           ;MESSAGES.c: 140:                     SERVICEBRAKE_Move(ucTargetBrake);
  7692  0032C0  51AF               	movf	_ucTargetBrake& (0+255),w,b
  7693  0032C2  ECB6  F022         	call	_SERVICEBRAKE_Move
  7694                           
  7695                           ;MESSAGES.c: 142:                     break;
  7696  0032C6  EF20  F01A         	goto	i2l1471
  7697  0032CA                     i2l5426:
  7698                           
  7699                           ; BSR set to: 5
  7700                           ;MESSAGES.c: 144:                     ucAS_state = ( data1 & 0x07 );
  7701  0032CA  51F2               	movf	CANReadMessage@data1& (0+255),w,b
  7702  0032CC  0B07               	andlw	7
  7703  0032CE  6FAC               	movwf	_ucAS_state& (0+255),b
  7704                           
  7705                           ;MESSAGES.c: 145:                     ucEBS_state = ( data1 & 0x18 );
  7706  0032D0  51F2               	movf	CANReadMessage@data1& (0+255),w,b
  7707  0032D2  0B18               	andlw	24
  7708  0032D4  6FAB               	movwf	_ucEBS_state& (0+255),b
  7709                           
  7710                           ;MESSAGES.c: 146:                     ucAMI_state = ( data1 & 0xE0 );
  7711  0032D6  51F2               	movf	CANReadMessage@data1& (0+255),w,b
  7712  0032D8  0BE0               	andlw	224
  7713  0032DA  6FAA               	movwf	_ucAMI_state& (0+255),b
  7714                           
  7715                           ;MESSAGES.c: 147:                     ucSteering_state = ( data2 & 0x01 );
  7716  0032DC  51F1               	movf	CANReadMessage@data2& (0+255),w,b
  7717  0032DE  0B01               	andlw	1
  7718  0032E0  6FA9               	movwf	_ucSteering_state& (0+255),b
  7719                           
  7720                           ;MESSAGES.c: 148:                     ucService_brake = ( data2 & 0x06 );
  7721  0032E2  51F1               	movf	CANReadMessage@data2& (0+255),w,b
  7722  0032E4  0B06               	andlw	6
  7723  0032E6  6FA8               	movwf	_ucService_brake& (0+255),b
  7724                           
  7725                           ;MESSAGES.c: 149:                     ucLap_counter = ( data2 & 0x78 );
  7726  0032E8  51F1               	movf	CANReadMessage@data2& (0+255),w,b
  7727  0032EA  0B78               	andlw	120
  7728  0032EC  6FA7               	movwf	_ucLap_counter& (0+255),b
  7729                           
  7730                           ;MESSAGES.c: 150:                     ucCones_count_actual = ( ( ( data3 & 0x7F ) << 1 )
      +                           | ( ( data2 & 0x80 ) >> 7 ) );
  7731  0032EE  C5F0  F54D         	movff	CANReadMessage@data3,??_CANReadMessage
  7732  0032F2  0E7F               	movlw	127
  7733  0032F4  164D               	andwf	??_CANReadMessage^(0+1280),f,c
  7734  0032F6  6A4E               	clrf	(??_CANReadMessage+1)^(0+1280),c
  7735  0032F8  AFF1               	btfss	CANReadMessage@data2& (0+255),7,b
  7736  0032FA  D001               	bra	i2u402_45
  7737  0032FC  2A4E               	incf	(??_CANReadMessage+1)^(0+1280),f,c
  7738  0032FE                     i2u402_45:
  7739  0032FE  304E               	rrcf	(??_CANReadMessage+1)^(0+1280),w,c
  7740  003300  344D               	rlcf	??_CANReadMessage^(0+1280),w,c
  7741  003302  6FA6               	movwf	_ucCones_count_actual& (0+255),b
  7742                           
  7743                           ;MESSAGES.c: 151:                     uiCones_count_all = ( ( ( data5 & 0xFF ) << 8 ) | 
      +                          ( ( data4 & 0xFF ) << 1 ) | ( ( data3 & 0x80 ) >> 7 ) );
  7744  003304  51EE               	movf	CANReadMessage@data4& (0+255),w,b
  7745  003306  6E4D               	movwf	??_CANReadMessage^(0+1280),c
  7746  003308  6A4E               	clrf	(??_CANReadMessage+1)^(0+1280),c
  7747  00330A  90D8               	bcf	status,0,c
  7748  00330C  364D               	rlcf	??_CANReadMessage^(0+1280),f,c
  7749  00330E  364E               	rlcf	(??_CANReadMessage+1)^(0+1280),f,c
  7750  003310  51EF               	movf	CANReadMessage@data5& (0+255),w,b
  7751  003312  6E50               	movwf	(??_CANReadMessage+3)^(0+1280),c
  7752  003314  6A4F               	clrf	(??_CANReadMessage+2)^(0+1280),c
  7753  003316  504D               	movf	??_CANReadMessage^(0+1280),w,c
  7754  003318  124F               	iorwf	(??_CANReadMessage+2)^(0+1280),f,c
  7755  00331A  504E               	movf	(??_CANReadMessage+1)^(0+1280),w,c
  7756  00331C  1250               	iorwf	(??_CANReadMessage+3)^(0+1280),f,c
  7757  00331E  6A51               	clrf	(??_CANReadMessage+4)^(0+1280),c
  7758  003320  AFF0               	btfss	CANReadMessage@data3& (0+255),7,b
  7759  003322  D001               	bra	i2u403_45
  7760  003324  2A51               	incf	(??_CANReadMessage+4)^(0+1280),f,c
  7761  003326                     i2u403_45:
  7762  003326  0E01               	movlw	1
  7763  003328  1651               	andwf	(??_CANReadMessage+4)^(0+1280),f,c
  7764  00332A  5051               	movf	(??_CANReadMessage+4)^(0+1280),w,c
  7765  00332C  104F               	iorwf	(??_CANReadMessage+2)^(0+1280),w,c
  7766  00332E  6F76               	movwf	_uiCones_count_all& (0+255),b
  7767  003330  5050               	movf	(??_CANReadMessage+3)^(0+1280),w,c
  7768  003332  6F77               	movwf	(_uiCones_count_all+1)& (0+255),b
  7769                           
  7770                           ;MESSAGES.c: 152:                     break;
  7771  003334  EF20  F01A         	goto	i2l1471
  7772  003338                     i2l1466:
  7773                           
  7774                           ; BSR set to: 5
  7775                           ;MESSAGES.c: 154:                     ucSpeed_actual = data1;
  7776  003338  C5F2  F5A5         	movff	CANReadMessage@data1,_ucSpeed_actual
  7777                           
  7778                           ;MESSAGES.c: 155:                     ucSpeed_target = data2;
  7779  00333C  C5F1  F5A4         	movff	CANReadMessage@data2,_ucSpeed_target
  7780                           
  7781                           ;MESSAGES.c: 156:                     ucSteering_angle_actual = data3;
  7782  003340  C5F0  F5A3         	movff	CANReadMessage@data3,_ucSteering_angle_actual
  7783                           
  7784                           ;MESSAGES.c: 157:                     ucSteering_angle_target = data4;
  7785  003344  C5EE  F5A2         	movff	CANReadMessage@data4,_ucSteering_angle_target
  7786                           
  7787                           ;MESSAGES.c: 158:                     ucBrake_hydr_actual = data5;
  7788  003348  C5EF  F5A1         	movff	CANReadMessage@data5,_ucBrake_hydr_actual
  7789                           
  7790                           ;MESSAGES.c: 159:                     ucBrake_hydr_target = data6;
  7791  00334C  C5ED  F5A0         	movff	CANReadMessage@data6,_ucBrake_hydr_target
  7792                           
  7793                           ;MESSAGES.c: 160:                     ucMotor_moment_actual = data7;
  7794  003350  C5EB  F59F         	movff	CANReadMessage@data7,_ucMotor_moment_actual
  7795                           
  7796                           ;MESSAGES.c: 161:                     ucMotor_moment_target = data8;
  7797  003354  C5EC  F59E         	movff	CANReadMessage@data8,_ucMotor_moment_target
  7798                           
  7799                           ;MESSAGES.c: 162:                     break;
  7800  003358  EF20  F01A         	goto	i2l1471
  7801  00335C                     i2l5428:
  7802                           
  7803                           ; BSR set to: 5
  7804                           ;MESSAGES.c: 164:                     uiAcc_longitudinal = ( ( data2 << 8 ) | data1 );
  7805  00335C  51F2               	movf	CANReadMessage@data1& (0+255),w,b
  7806  00335E  C5F1  F54D         	movff	CANReadMessage@data2,??_CANReadMessage
  7807  003362  6A4E               	clrf	(??_CANReadMessage+1)^(0+1280),c
  7808  003364  C54D  F54E         	movff	??_CANReadMessage,??_CANReadMessage+1
  7809  003368  6A4D               	clrf	??_CANReadMessage^(0+1280),c
  7810  00336A  104D               	iorwf	??_CANReadMessage^(0+1280),w,c
  7811  00336C  6F74               	movwf	_uiAcc_longitudinal& (0+255),b
  7812  00336E  504E               	movf	(??_CANReadMessage+1)^(0+1280),w,c
  7813  003370  6F75               	movwf	(_uiAcc_longitudinal+1)& (0+255),b
  7814                           
  7815                           ;MESSAGES.c: 165:                     uiAcc_lateral = ( ( data4 << 8 ) | data3 );
  7816  003372  51F0               	movf	CANReadMessage@data3& (0+255),w,b
  7817  003374  C5EE  F54D         	movff	CANReadMessage@data4,??_CANReadMessage
  7818  003378  6A4E               	clrf	(??_CANReadMessage+1)^(0+1280),c
  7819  00337A  C54D  F54E         	movff	??_CANReadMessage,??_CANReadMessage+1
  7820  00337E  6A4D               	clrf	??_CANReadMessage^(0+1280),c
  7821  003380  104D               	iorwf	??_CANReadMessage^(0+1280),w,c
  7822  003382  6F72               	movwf	_uiAcc_lateral& (0+255),b
  7823  003384  504E               	movf	(??_CANReadMessage+1)^(0+1280),w,c
  7824  003386  6F73               	movwf	(_uiAcc_lateral+1)& (0+255),b
  7825                           
  7826                           ;MESSAGES.c: 166:                     uiYaw_rate = ( ( data6 << 8 ) | data5 );;
  7827  003388  51EF               	movf	CANReadMessage@data5& (0+255),w,b
  7828  00338A  C5ED  F54D         	movff	CANReadMessage@data6,??_CANReadMessage
  7829  00338E  6A4E               	clrf	(??_CANReadMessage+1)^(0+1280),c
  7830  003390  C54D  F54E         	movff	??_CANReadMessage,??_CANReadMessage+1
  7831  003394  6A4D               	clrf	??_CANReadMessage^(0+1280),c
  7832  003396  104D               	iorwf	??_CANReadMessage^(0+1280),w,c
  7833  003398  6F70               	movwf	_uiYaw_rate& (0+255),b
  7834  00339A  504E               	movf	(??_CANReadMessage+1)^(0+1280),w,c
  7835  00339C  6F71               	movwf	(_uiYaw_rate+1)& (0+255),b
  7836                           
  7837                           ;MESSAGES.c: 167:                     break;
  7838  00339E  EF20  F01A         	goto	i2l1471
  7839  0033A2                     i2l1468:
  7840                           
  7841                           ; BSR set to: 5
  7842                           ;MESSAGES.c: 169:                     ucTargetBrake = data1;
  7843  0033A2  C5F2  F5AF         	movff	CANReadMessage@data1,_ucTargetBrake
  7844  0033A6                     i2l1469:
  7845                           
  7846                           ; BSR set to: 5
  7847                           ;MESSAGES.c: 173:                     ucASMode = data1;
  7848  0033A6  C5F2  F59B         	movff	CANReadMessage@data1,_ucASMode
  7849                           
  7850                           ;MESSAGES.c: 174:                     break;
  7851  0033AA  EF20  F01A         	goto	i2l1471
  7852  0033AE                     i2l1470:
  7853                           
  7854                           ; BSR set to: 5
  7855                           ;MESSAGES.c: 176:                     __nop();
  7856  0033AE  F000               	nop	
  7857                           
  7858                           ;MESSAGES.c: 177:                     break;
  7859  0033B0  EF20  F01A         	goto	i2l1471
  7860  0033B4                     i2l5432:
  7861                           
  7862                           ; BSR set to: 5
  7863  0033B4  C5E7  F54D         	movff	CANReadMessage@id,??_CANReadMessage
  7864  0033B8  C5E8  F54E         	movff	CANReadMessage@id+1,??_CANReadMessage+1
  7865  0033BC  C5E9  F54F         	movff	CANReadMessage@id+2,??_CANReadMessage+2
  7866  0033C0  C5EA  F550         	movff	CANReadMessage@id+3,??_CANReadMessage+3
  7867                           
  7868                           ; Switch on 2 bytes has been partitioned into a top level switch of size 1, and 2 sub-sw
      +                          itches
  7869                           ; Switch size 1, requested type "simple"
  7870                           ; Number of cases is 1, Range of values is 0 to 0
  7871                           ; switch strategies available:
  7872                           ; Name         Instructions Cycles
  7873                           ; simple_byte            4     3 (average)
  7874                           ;	Chosen strategy is simple_byte
  7875  0033C4  5050               	movf	(??_CANReadMessage+3)^(0+1280),w,c
  7876  0033C6  0A00               	xorlw	0	; case 0
  7877  0033C8  B4D8               	btfsc	status,2,c
  7878  0033CA  EF19  F01A         	goto	i2l7170
  7879  0033CE  EFD7  F019         	goto	i2l1470
  7880  0033D2                     i2l7168:
  7881                           
  7882                           ; BSR set to: 5
  7883                           ; Switch on 2 bytes has been partitioned into a top level switch of size 1, and 3 sub-sw
      +                          itches
  7884                           ; Switch size 1, requested type "simple"
  7885                           ; Number of cases is 3, Range of values is 3 to 5
  7886                           ; switch strategies available:
  7887                           ; Name         Instructions Cycles
  7888                           ; simple_byte           10     6 (average)
  7889                           ;	Chosen strategy is simple_byte
  7890  0033D2  504E               	movf	(??_CANReadMessage+1)^(0+1280),w,c
  7891  0033D4  0A03               	xorlw	3	; case 3
  7892  0033D6  B4D8               	btfsc	status,2,c
  7893  0033D8  EFF8  F019         	goto	i2l7172
  7894  0033DC  0A07               	xorlw	7	; case 4
  7895  0033DE  B4D8               	btfsc	status,2,c
  7896  0033E0  EF03  F01A         	goto	i2l7174
  7897  0033E4  0A01               	xorlw	1	; case 5
  7898  0033E6  B4D8               	btfsc	status,2,c
  7899  0033E8  EF0A  F01A         	goto	i2l7176
  7900  0033EC  EFD7  F019         	goto	i2l1470
  7901  0033F0                     i2l7172:
  7902                           
  7903                           ; BSR set to: 5
  7904                           ; Switch size 1, requested type "simple"
  7905                           ; Number of cases is 2, Range of values is 32 to 71
  7906                           ; switch strategies available:
  7907                           ; Name         Instructions Cycles
  7908                           ; simple_byte            7     4 (average)
  7909                           ;	Chosen strategy is simple_byte
  7910  0033F0  504D               	movf	??_CANReadMessage^(0+1280),w,c
  7911  0033F2  0A20               	xorlw	32	; case 32
  7912  0033F4  B4D8               	btfsc	status,2,c
  7913  0033F6  EF56  F019         	goto	i2l1463
  7914  0033FA  0A67               	xorlw	103	; case 71
  7915  0033FC  B4D8               	btfsc	status,2,c
  7916  0033FE  EFD3  F019         	goto	i2l1469
  7917  003402  EFD7  F019         	goto	i2l1470
  7918  003406                     i2l7174:
  7919                           
  7920                           ; BSR set to: 5
  7921                           ; Switch size 1, requested type "simple"
  7922                           ; Number of cases is 1, Range of values is 18 to 18
  7923                           ; switch strategies available:
  7924                           ; Name         Instructions Cycles
  7925                           ; simple_byte            4     3 (average)
  7926                           ;	Chosen strategy is simple_byte
  7927  003406  504D               	movf	??_CANReadMessage^(0+1280),w,c
  7928  003408  0A12               	xorlw	18	; case 18
  7929  00340A  B4D8               	btfsc	status,2,c
  7930  00340C  EFD1  F019         	goto	i2l1468
  7931  003410  EFD7  F019         	goto	i2l1470
  7932  003414                     i2l7176:
  7933                           
  7934                           ; BSR set to: 5
  7935                           ; Switch size 1, requested type "simple"
  7936                           ; Number of cases is 3, Range of values is 0 to 2
  7937                           ; switch strategies available:
  7938                           ; Name         Instructions Cycles
  7939                           ; simple_byte           10     6 (average)
  7940                           ;	Chosen strategy is simple_byte
  7941  003414  504D               	movf	??_CANReadMessage^(0+1280),w,c
  7942  003416  0A00               	xorlw	0	; case 0
  7943  003418  B4D8               	btfsc	status,2,c
  7944  00341A  EF65  F019         	goto	i2l5426
  7945  00341E  0A01               	xorlw	1	; case 1
  7946  003420  B4D8               	btfsc	status,2,c
  7947  003422  EF9C  F019         	goto	i2l1466
  7948  003426  0A03               	xorlw	3	; case 2
  7949  003428  B4D8               	btfsc	status,2,c
  7950  00342A  EFAE  F019         	goto	i2l5428
  7951  00342E  EFD7  F019         	goto	i2l1470
  7952  003432                     i2l7170:
  7953                           
  7954                           ; BSR set to: 5
  7955                           ; Switch size 1, requested type "simple"
  7956                           ; Number of cases is 1, Range of values is 0 to 0
  7957                           ; switch strategies available:
  7958                           ; Name         Instructions Cycles
  7959                           ; simple_byte            4     3 (average)
  7960                           ;	Chosen strategy is simple_byte
  7961  003432  504F               	movf	(??_CANReadMessage+2)^(0+1280),w,c
  7962  003434  0A00               	xorlw	0	; case 0
  7963  003436  B4D8               	btfsc	status,2,c
  7964  003438  EFE9  F019         	goto	i2l7168
  7965  00343C  EFD7  F019         	goto	i2l1470
  7966  003440                     i2l1471:
  7967  003440  0012               	return		;funcret
  7968  003442                     __end_of_CANReadMessage:
  7969                           	callstack 0
  7970                           
  7971 ;; *************** function _SERVICEBRAKE_Move *****************
  7972 ;; Defined at:
  7973 ;;		line 21 in file "SERVICEBRAKE.c"
  7974 ;; Parameters:    Size  Location     Type
  7975 ;;  ucTargetMove    1    wreg     unsigned char 
  7976 ;; Auto vars:     Size  Location     Type
  7977 ;;  ucTargetMove    1   75[COMRAM] unsigned char 
  7978 ;; Return value:  Size  Location     Type
  7979 ;;                  1    wreg      void 
  7980 ;; Registers used:
  7981 ;;		wreg, status,2, status,0, prodl, prodh, cstack
  7982 ;; Tracked objects:
  7983 ;;		On entry : 0/0
  7984 ;;		On exit  : 0/0
  7985 ;;		Unchanged: 0/0
  7986 ;; Data sizes:     COMRAM   BANK5   BANK6   BANK7   BANK8   BANK9  BANK10  BANK11  BANK12  BANK13  BANK14  BANK15  BANK1
      +6  BANK17  BANK18  BANK19  BANK20  BANK21  BANK22  BANK23  BANK24  BANK25  BANK26  BANK27  BANK28  BANK29  BANK30  BANK3
      +1  BANK32  BANK33  BANK34  BANK35  BANK36  BANK37
  7987 ;;      Params:         0       0       0       0       0       0       0       0       0       0       0       0       
      +0       0       0       0       0       0       0       0       0       0       0       0       0       0       0       
      +0       0       0       0       0       0       0
  7988 ;;      Locals:         1       0       0       0       0       0       0       0       0       0       0       0       
      +0       0       0       0       0       0       0       0       0       0       0       0       0       0       0       
      +0       0       0       0       0       0       0
  7989 ;;      Temps:          0       0       0       0       0       0       0       0       0       0       0       0       
      +0       0       0       0       0       0       0       0       0       0       0       0       0       0       0       
      +0       0       0       0       0       0       0
  7990 ;;      Totals:         1       0       0       0       0       0       0       0       0       0       0       0       
      +0       0       0       0       0       0       0       0       0       0       0       0       0       0       0       
      +0       0       0       0       0       0       0
  7991 ;;Total ram usage:        1 bytes
  7992 ;; Hardware stack levels used:    1
  7993 ;; Hardware stack levels required when called:    2
  7994 ;; This function calls:
  7995 ;;		_GPIO_PWM1_Control
  7996 ;;		___lwdiv
  7997 ;; This function is called by:
  7998 ;;		_CANReadMessage
  7999 ;; This function uses a non-reentrant model
  8000 ;;
  8001                           
  8002                           	psect	text79
  8003  00456C                     __ptext79:
  8004                           	callstack 0
  8005  00456C                     _SERVICEBRAKE_Move:
  8006                           	callstack 117
  8007                           
  8008                           ;incstack = 0
  8009                           ;SERVICEBRAKE_Move@ucTargetMove stored from wreg
  8010  00456C  6E4C               	movwf	SERVICEBRAKE_Move@ucTargetMove^(0+1280),c
  8011  00456E                     
  8012                           ;SERVICEBRAKE.c: 21: void SERVICEBRAKE_Move (unsigned char ucTargetMove);SERVICEBRAKE.c:
      +                           22: {;SERVICEBRAKE.c: 27:     if ( ucASMode == 1 )
  8013  00456E  0105               	movlb	5	; () banked
  8014  004570  059B               	decf	_ucASMode& (0+255),w,b
  8015  004572  A4D8               	btfss	status,2,c
  8016  004574  EFBE  F022         	goto	i2u391_41
  8017  004578  EFC0  F022         	goto	i2u391_40
  8018  00457C                     i2u391_41:
  8019  00457C  EFE3  F022         	goto	i2l1644
  8020  004580                     i2u391_40:
  8021  004580                     
  8022                           ; BSR set to: 5
  8023                           ;SERVICEBRAKE.c: 28:     {;SERVICEBRAKE.c: 29:         uiDutyServomotor = ucTargetMove *
      +                           60;
  8024  004580  504C               	movf	SERVICEBRAKE_Move@ucTargetMove^(0+1280),w,c
  8025  004582  0D3C               	mullw	60
  8026  004584  0061 F3CC  F556    	movff	prodl,_uiDutyServomotor
  8027  00458A  0061 F3D0  F557    	movff	prodh,_uiDutyServomotor+1
  8028  004590                     
  8029                           ; BSR set to: 5
  8030                           ;SERVICEBRAKE.c: 30:         uiDutyServomotor = uiDutyServomotor / 100;
  8031  004590  C556  F501         	movff	_uiDutyServomotor,___lwdiv@dividend
  8032  004594  C557  F502         	movff	_uiDutyServomotor+1,___lwdiv@dividend+1
  8033  004598  0E00               	movlw	0
  8034  00459A  6E04               	movwf	(___lwdiv@divisor+1)^(0+1280),c
  8035  00459C  0E64               	movlw	100
  8036  00459E  6E03               	movwf	___lwdiv@divisor^(0+1280),c
  8037  0045A0  EC15  F022         	call	___lwdiv	;wreg free
  8038  0045A4  C501  F556         	movff	?___lwdiv,_uiDutyServomotor
  8039  0045A8  C502  F557         	movff	?___lwdiv+1,_uiDutyServomotor+1
  8040  0045AC                     
  8041                           ;SERVICEBRAKE.c: 31:         uiDutyServomotor = (uiDutyServomotor & 0xFF);
  8042  0045AC  5056               	movf	_uiDutyServomotor^(0+1280),w,c
  8043  0045AE  6E56               	movwf	_uiDutyServomotor^(0+1280),c
  8044  0045B0  6A57               	clrf	(_uiDutyServomotor+1)^(0+1280),c
  8045  0045B2                     
  8046                           ;SERVICEBRAKE.c: 32:         GPIO_PWM1_Control(uiDutyServomotor, 300);
  8047  0045B2  C556  F542         	movff	_uiDutyServomotor,GPIO_PWM1_Control@uiDutyCycle
  8048  0045B6  C557  F543         	movff	_uiDutyServomotor+1,GPIO_PWM1_Control@uiDutyCycle+1
  8049  0045BA  0E01               	movlw	1
  8050  0045BC  6E45               	movwf	(GPIO_PWM1_Control@uiFreq+1)^(0+1280),c
  8051  0045BE  0E2C               	movlw	44
  8052  0045C0  6E44               	movwf	GPIO_PWM1_Control@uiFreq^(0+1280),c
  8053  0045C2  EC67  F01F         	call	_GPIO_PWM1_Control	;wreg free
  8054  0045C6                     i2l1644:
  8055  0045C6  0012               	return		;funcret
  8056  0045C8                     __end_of_SERVICEBRAKE_Move:
  8057                           	callstack 0
  8058                           
  8059 ;; *************** function _GPIO_PWM1_Control *****************
  8060 ;; Defined at:
  8061 ;;		line 49 in file "GPIO.c"
  8062 ;; Parameters:    Size  Location     Type
  8063 ;;  uiDutyCycle     2   65[COMRAM] unsigned int 
  8064 ;;  uiFreq          2   67[COMRAM] unsigned int 
  8065 ;; Auto vars:     Size  Location     Type
  8066 ;;  uiConvertedD    2   73[COMRAM] unsigned int 
  8067 ;;  uiConvertedP    2   71[COMRAM] unsigned int 
  8068 ;; Return value:  Size  Location     Type
  8069 ;;                  1    wreg      void 
  8070 ;; Registers used:
  8071 ;;		wreg, status,2, status,0, prodl, prodh, cstack
  8072 ;; Tracked objects:
  8073 ;;		On entry : 0/0
  8074 ;;		On exit  : 0/0
  8075 ;;		Unchanged: 0/0
  8076 ;; Data sizes:     COMRAM   BANK5   BANK6   BANK7   BANK8   BANK9  BANK10  BANK11  BANK12  BANK13  BANK14  BANK15  BANK1
      +6  BANK17  BANK18  BANK19  BANK20  BANK21  BANK22  BANK23  BANK24  BANK25  BANK26  BANK27  BANK28  BANK29  BANK30  BANK3
      +1  BANK32  BANK33  BANK34  BANK35  BANK36  BANK37
  8077 ;;      Params:         4       0       0       0       0       0       0       0       0       0       0       0       
      +0       0       0       0       0       0       0       0       0       0       0       0       0       0       0       
      +0       0       0       0       0       0       0
  8078 ;;      Locals:         4       0       0       0       0       0       0       0       0       0       0       0       
      +0       0       0       0       0       0       0       0       0       0       0       0       0       0       0       
      +0       0       0       0       0       0       0
  8079 ;;      Temps:          2       0       0       0       0       0       0       0       0       0       0       0       
      +0       0       0       0       0       0       0       0       0       0       0       0       0       0       0       
      +0       0       0       0       0       0       0
  8080 ;;      Totals:        10       0       0       0       0       0       0       0       0       0       0       0       
      +0       0       0       0       0       0       0       0       0       0       0       0       0       0       0       
      +0       0       0       0       0       0       0
  8081 ;;Total ram usage:       10 bytes
  8082 ;; Hardware stack levels used:    1
  8083 ;; Hardware stack levels required when called:    1
  8084 ;; This function calls:
  8085 ;;		_PWM1_16BIT_LoadBufferRegisters
  8086 ;;		_PWM1_16BIT_SetSlice1Output1DutyCycleRegister
  8087 ;;		_PWM1_16BIT_WritePeriodRegister
  8088 ;;		___aldiv
  8089 ;;		___fladd
  8090 ;;		___fltol
  8091 ;;		___lwdiv
  8092 ;;		___wmul
  8093 ;;		___xxtofl
  8094 ;; This function is called by:
  8095 ;;		_SERVICEBRAKE_Move
  8096 ;;		_SERVICEBRAKE_Init
  8097 ;; This function uses a non-reentrant model
  8098 ;;
  8099                           
  8100                           	psect	text80
  8101  003ECE                     __ptext80:
  8102                           	callstack 0
  8103  003ECE                     _GPIO_PWM1_Control:
  8104                           	callstack 117
  8105  003ECE                     
  8106                           ;GPIO.c: 49: void GPIO_PWM1_Control (unsigned int uiDutyCycle, unsigned int uiFreq);GPIO
      +                          .c: 50: {;GPIO.c: 51:     unsigned int uiConvertedPeriod;;GPIO.c: 52:     unsigned int u
      +                          iConvertedDC;;GPIO.c: 55:     uiConvertedPeriod = ( 39241/uiFreq );
  8107  003ECE  0E49               	movlw	73
  8108  003ED0  6E01               	movwf	___aldiv@dividend^(0+1280),c
  8109  003ED2  0E99               	movlw	153
  8110  003ED4  6E02               	movwf	(___aldiv@dividend+1)^(0+1280),c
  8111  003ED6  0E00               	movlw	0
  8112  003ED8  6E03               	movwf	(___aldiv@dividend+2)^(0+1280),c
  8113  003EDA  0E00               	movlw	0
  8114  003EDC  6E04               	movwf	(___aldiv@dividend+3)^(0+1280),c
  8115  003EDE  C544  F505         	movff	GPIO_PWM1_Control@uiFreq,___aldiv@divisor
  8116  003EE2  C545  F506         	movff	GPIO_PWM1_Control@uiFreq+1,___aldiv@divisor+1
  8117  003EE6  6A07               	clrf	(___aldiv@divisor+2)^(0+1280),c
  8118  003EE8  6A08               	clrf	(___aldiv@divisor+3)^(0+1280),c
  8119  003EEA  ECD9  F01D         	call	___aldiv	;wreg free
  8120  003EEE  C501  F548         	movff	?___aldiv,GPIO_PWM1_Control@uiConvertedPeriod
  8121  003EF2  C502  F549         	movff	?___aldiv+1,GPIO_PWM1_Control@uiConvertedPeriod+1
  8122                           
  8123                           ;GPIO.c: 56:     uiConvertedPeriod = ( uiConvertedPeriod - 1.1508 );
  8124  003EF6  0E6A               	movlw	106
  8125  003EF8  6E2C               	movwf	___fladd@a^(0+1280),c
  8126  003EFA  0E4D               	movlw	77
  8127  003EFC  6E2D               	movwf	(___fladd@a+1)^(0+1280),c
  8128  003EFE  0E93               	movlw	147
  8129  003F00  6E2E               	movwf	(___fladd@a+2)^(0+1280),c
  8130  003F02  0EBF               	movlw	191
  8131  003F04  6E2F               	movwf	(___fladd@a+3)^(0+1280),c
  8132  003F06  C548  F501         	movff	GPIO_PWM1_Control@uiConvertedPeriod,___xxtofl@val
  8133  003F0A  C549  F502         	movff	GPIO_PWM1_Control@uiConvertedPeriod+1,___xxtofl@val+1
  8134  003F0E  6A03               	clrf	(___xxtofl@val+2)^(0+1280),c
  8135  003F10  6A04               	clrf	(___xxtofl@val+3)^(0+1280),c
  8136  003F12  0E00               	movlw	0
  8137  003F14  EC54  F01C         	call	___xxtofl
  8138  003F18  C501  F528         	movff	?___xxtofl,___fladd@b
  8139  003F1C  C502  F529         	movff	?___xxtofl+1,___fladd@b+1
  8140  003F20  C503  F52A         	movff	?___xxtofl+2,___fladd@b+2
  8141  003F24  C504  F52B         	movff	?___xxtofl+3,___fladd@b+3
  8142  003F28  EC07  F013         	call	___fladd	;wreg free
  8143  003F2C  C528  F538         	movff	?___fladd,___fltol@f1
  8144  003F30  C529  F539         	movff	?___fladd+1,___fltol@f1+1
  8145  003F34  C52A  F53A         	movff	?___fladd+2,___fltol@f1+2
  8146  003F38  C52B  F53B         	movff	?___fladd+3,___fltol@f1+3
  8147  003F3C  ECE4  F01E         	call	___fltol	;wreg free
  8148  003F40  C538  F548         	movff	?___fltol,GPIO_PWM1_Control@uiConvertedPeriod
  8149  003F44  C539  F549         	movff	?___fltol+1,GPIO_PWM1_Control@uiConvertedPeriod+1
  8150  003F48                     
  8151                           ;GPIO.c: 57:     uiConvertedDC = ( uiDutyCycle * 4 );
  8152  003F48  C542  F546         	movff	GPIO_PWM1_Control@uiDutyCycle,??_GPIO_PWM1_Control
  8153  003F4C  C543  F547         	movff	GPIO_PWM1_Control@uiDutyCycle+1,??_GPIO_PWM1_Control+1
  8154  003F50  90D8               	bcf	status,0,c
  8155  003F52  3646               	rlcf	??_GPIO_PWM1_Control^(0+1280),f,c
  8156  003F54  3647               	rlcf	(??_GPIO_PWM1_Control+1)^(0+1280),f,c
  8157  003F56  90D8               	bcf	status,0,c
  8158  003F58  3646               	rlcf	??_GPIO_PWM1_Control^(0+1280),f,c
  8159  003F5A  3647               	rlcf	(??_GPIO_PWM1_Control+1)^(0+1280),f,c
  8160  003F5C  C546  F54A         	movff	??_GPIO_PWM1_Control,GPIO_PWM1_Control@uiConvertedDC
  8161  003F60  C547  F54B         	movff	??_GPIO_PWM1_Control+1,GPIO_PWM1_Control@uiConvertedDC+1
  8162  003F64                     
  8163                           ;GPIO.c: 58:     uiConvertedDC = ( uiConvertedDC * 100 );
  8164  003F64  C54A  F501         	movff	GPIO_PWM1_Control@uiConvertedDC,___wmul@multiplier
  8165  003F68  C54B  F502         	movff	GPIO_PWM1_Control@uiConvertedDC+1,___wmul@multiplier+1
  8166  003F6C  0E00               	movlw	0
  8167  003F6E  6E04               	movwf	(___wmul@multiplicand+1)^(0+1280),c
  8168  003F70  0E64               	movlw	100
  8169  003F72  6E03               	movwf	___wmul@multiplicand^(0+1280),c
  8170  003F74  ECA7  F024         	call	___wmul	;wreg free
  8171  003F78  C501  F54A         	movff	?___wmul,GPIO_PWM1_Control@uiConvertedDC
  8172  003F7C  C502  F54B         	movff	?___wmul+1,GPIO_PWM1_Control@uiConvertedDC+1
  8173  003F80                     
  8174                           ;GPIO.c: 59:     uiConvertedDC = ( uiConvertedDC / uiFreq );
  8175  003F80  C54A  F501         	movff	GPIO_PWM1_Control@uiConvertedDC,___lwdiv@dividend
  8176  003F84  C54B  F502         	movff	GPIO_PWM1_Control@uiConvertedDC+1,___lwdiv@dividend+1
  8177  003F88  C544  F503         	movff	GPIO_PWM1_Control@uiFreq,___lwdiv@divisor
  8178  003F8C  C545  F504         	movff	GPIO_PWM1_Control@uiFreq+1,___lwdiv@divisor+1
  8179  003F90  EC15  F022         	call	___lwdiv	;wreg free
  8180  003F94  C501  F54A         	movff	?___lwdiv,GPIO_PWM1_Control@uiConvertedDC
  8181  003F98  C502  F54B         	movff	?___lwdiv+1,GPIO_PWM1_Control@uiConvertedDC+1
  8182  003F9C                     
  8183                           ;GPIO.c: 61:     PWM1_16BIT_SetSlice1Output1DutyCycleRegister(uiConvertedDC);
  8184  003F9C  C54A  F501         	movff	GPIO_PWM1_Control@uiConvertedDC,PWM1_16BIT_SetSlice1Output1DutyCycleRegister@regi
      +                          sterValue
  8185  003FA0  C54B  F502         	movff	GPIO_PWM1_Control@uiConvertedDC+1,PWM1_16BIT_SetSlice1Output1DutyCycleRegister@re
      +                          gisterValue+1
  8186  003FA4  EC74  F025         	call	_PWM1_16BIT_SetSlice1Output1DutyCycleRegister	;wreg free
  8187  003FA8                     
  8188                           ;GPIO.c: 62:     PWM1_16BIT_WritePeriodRegister(uiConvertedPeriod);
  8189  003FA8  C548  F501         	movff	GPIO_PWM1_Control@uiConvertedPeriod,PWM1_16BIT_WritePeriodRegister@periodCount
  8190  003FAC  C549  F502         	movff	GPIO_PWM1_Control@uiConvertedPeriod+1,PWM1_16BIT_WritePeriodRegister@periodCount+
      +                          1
  8191  003FB0  EC6E  F025         	call	_PWM1_16BIT_WritePeriodRegister	;wreg free
  8192  003FB4                     
  8193                           ;GPIO.c: 63:     PWM1_16BIT_LoadBufferRegisters();
  8194  003FB4  EC12  F026         	call	_PWM1_16BIT_LoadBufferRegisters	;wreg free
  8195  003FB8  0012               	return		;funcret
  8196  003FBA                     __end_of_GPIO_PWM1_Control:
  8197                           	callstack 0
  8198                           
  8199 ;; *************** function ___xxtofl *****************
  8200 ;; Defined at:
  8201 ;;		line 10 in file "C:\Program Files\Microchip\xc8\v2.31\pic\sources\c99\common\xxtofl.c"
  8202 ;; Parameters:    Size  Location     Type
  8203 ;;  sign            1    wreg     unsigned char 
  8204 ;;  val             4    0[COMRAM] long 
  8205 ;; Auto vars:     Size  Location     Type
  8206 ;;  sign            1    8[COMRAM] unsigned char 
  8207 ;;  arg             4   10[COMRAM] unsigned long 
  8208 ;;  exp             1    9[COMRAM] unsigned char 
  8209 ;; Return value:  Size  Location     Type
  8210 ;;                  4    0[COMRAM] unsigned char 
  8211 ;; Registers used:
  8212 ;;		wreg, status,2, status,0
  8213 ;; Tracked objects:
  8214 ;;		On entry : 0/0
  8215 ;;		On exit  : 0/0
  8216 ;;		Unchanged: 0/0
  8217 ;; Data sizes:     COMRAM   BANK5   BANK6   BANK7   BANK8   BANK9  BANK10  BANK11  BANK12  BANK13  BANK14  BANK15  BANK1
      +6  BANK17  BANK18  BANK19  BANK20  BANK21  BANK22  BANK23  BANK24  BANK25  BANK26  BANK27  BANK28  BANK29  BANK30  BANK3
      +1  BANK32  BANK33  BANK34  BANK35  BANK36  BANK37
  8218 ;;      Params:         4       0       0       0       0       0       0       0       0       0       0       0       
      +0       0       0       0       0       0       0       0       0       0       0       0       0       0       0       
      +0       0       0       0       0       0       0
  8219 ;;      Locals:         6       0       0       0       0       0       0       0       0       0       0       0       
      +0       0       0       0       0       0       0       0       0       0       0       0       0       0       0       
      +0       0       0       0       0       0       0
  8220 ;;      Temps:          4       0       0       0       0       0       0       0       0       0       0       0       
      +0       0       0       0       0       0       0       0       0       0       0       0       0       0       0       
      +0       0       0       0       0       0       0
  8221 ;;      Totals:        14       0       0       0       0       0       0       0       0       0       0       0       
      +0       0       0       0       0       0       0       0       0       0       0       0       0       0       0       
      +0       0       0       0       0       0       0
  8222 ;;Total ram usage:       14 bytes
  8223 ;; Hardware stack levels used:    1
  8224 ;; This function calls:
  8225 ;;		Nothing
  8226 ;; This function is called by:
  8227 ;;		_GPIO_PWM1_Control
  8228 ;;		_ANALOG_GetVoltage
  8229 ;;		_GPIO_PWM2_Control
  8230 ;; This function uses a non-reentrant model
  8231 ;;
  8232                           
  8233                           	psect	text81
  8234  0038A8                     __ptext81:
  8235                           	callstack 0
  8236  0038A8                     ___xxtofl:
  8237                           	callstack 118
  8238                           
  8239                           ;incstack = 0
  8240                           ;___xxtofl@sign stored from wreg
  8241  0038A8  6E09               	movwf	___xxtofl@sign^(0+1280),c
  8242  0038AA  5009               	movf	___xxtofl@sign^(0+1280),w,c
  8243  0038AC  B4D8               	btfsc	status,2,c
  8244  0038AE  EF5B  F01C         	goto	i2u350_41
  8245  0038B2  EF5D  F01C         	goto	i2u350_40
  8246  0038B6                     i2u350_41:
  8247  0038B6  EF7F  F01C         	goto	i2l2440
  8248  0038BA                     i2u350_40:
  8249  0038BA  BE04               	btfsc	(___xxtofl@val+3)^(0+1280),7,c
  8250  0038BC  EF64  F01C         	goto	i2u351_40
  8251  0038C0  EF62  F01C         	goto	i2u351_41
  8252  0038C4                     i2u351_41:
  8253  0038C4  EF7F  F01C         	goto	i2l2440
  8254  0038C8                     i2u351_40:
  8255  0038C8  C501  F505         	movff	___xxtofl@val,??___xxtofl
  8256  0038CC  C502  F506         	movff	___xxtofl@val+1,??___xxtofl+1
  8257  0038D0  C503  F507         	movff	___xxtofl@val+2,??___xxtofl+2
  8258  0038D4  C504  F508         	movff	___xxtofl@val+3,??___xxtofl+3
  8259  0038D8  1E05               	comf	??___xxtofl^(0+1280),f,c
  8260  0038DA  1E06               	comf	(??___xxtofl+1)^(0+1280),f,c
  8261  0038DC  1E07               	comf	(??___xxtofl+2)^(0+1280),f,c
  8262  0038DE  1E08               	comf	(??___xxtofl+3)^(0+1280),f,c
  8263  0038E0  2A05               	incf	??___xxtofl^(0+1280),f,c
  8264  0038E2  0E00               	movlw	0
  8265  0038E4  2206               	addwfc	(??___xxtofl+1)^(0+1280),f,c
  8266  0038E6  2207               	addwfc	(??___xxtofl+2)^(0+1280),f,c
  8267  0038E8  2208               	addwfc	(??___xxtofl+3)^(0+1280),f,c
  8268  0038EA  C505  F50B         	movff	??___xxtofl,___xxtofl@arg
  8269  0038EE  C506  F50C         	movff	??___xxtofl+1,___xxtofl@arg+1
  8270  0038F2  C507  F50D         	movff	??___xxtofl+2,___xxtofl@arg+2
  8271  0038F6  C508  F50E         	movff	??___xxtofl+3,___xxtofl@arg+3
  8272  0038FA  EF87  F01C         	goto	i2l4950
  8273  0038FE                     i2l2440:
  8274  0038FE  C501  F50B         	movff	___xxtofl@val,___xxtofl@arg
  8275  003902  C502  F50C         	movff	___xxtofl@val+1,___xxtofl@arg+1
  8276  003906  C503  F50D         	movff	___xxtofl@val+2,___xxtofl@arg+2
  8277  00390A  C504  F50E         	movff	___xxtofl@val+3,___xxtofl@arg+3
  8278  00390E                     i2l4950:
  8279  00390E  5001               	movf	___xxtofl@val^(0+1280),w,c
  8280  003910  1002               	iorwf	(___xxtofl@val+1)^(0+1280),w,c
  8281  003912  1003               	iorwf	(___xxtofl@val+2)^(0+1280),w,c
  8282  003914  1004               	iorwf	(___xxtofl@val+3)^(0+1280),w,c
  8283  003916  A4D8               	btfss	status,2,c
  8284  003918  EF90  F01C         	goto	i2u352_41
  8285  00391C  EF92  F01C         	goto	i2u352_40
  8286  003920                     i2u352_41:
  8287  003920  EF9C  F01C         	goto	i2l4956
  8288  003924                     i2u352_40:
  8289  003924  0E00               	movlw	0
  8290  003926  6E01               	movwf	?___xxtofl^(0+1280),c
  8291  003928  0E00               	movlw	0
  8292  00392A  6E02               	movwf	(?___xxtofl+1)^(0+1280),c
  8293  00392C  0E00               	movlw	0
  8294  00392E  6E03               	movwf	(?___xxtofl+2)^(0+1280),c
  8295  003930  0E00               	movlw	0
  8296  003932  6E04               	movwf	(?___xxtofl+3)^(0+1280),c
  8297  003934  EF2D  F01D         	goto	i2l2443
  8298  003938                     i2l4956:
  8299  003938  0E96               	movlw	150
  8300  00393A  6E0A               	movwf	___xxtofl@exp^(0+1280),c
  8301  00393C  EFA6  F01C         	goto	i2l4960
  8302  003940                     i2l4958:
  8303  003940  2A0A               	incf	___xxtofl@exp^(0+1280),f,c
  8304  003942  90D8               	bcf	status,0,c
  8305  003944  320E               	rrcf	(___xxtofl@arg+3)^(0+1280),f,c
  8306  003946  320D               	rrcf	(___xxtofl@arg+2)^(0+1280),f,c
  8307  003948  320C               	rrcf	(___xxtofl@arg+1)^(0+1280),f,c
  8308  00394A  320B               	rrcf	___xxtofl@arg^(0+1280),f,c
  8309  00394C                     i2l4960:
  8310  00394C  0E00               	movlw	0
  8311  00394E  140B               	andwf	___xxtofl@arg^(0+1280),w,c
  8312  003950  6E05               	movwf	??___xxtofl^(0+1280),c
  8313  003952  0E00               	movlw	0
  8314  003954  140C               	andwf	(___xxtofl@arg+1)^(0+1280),w,c
  8315  003956  6E06               	movwf	(??___xxtofl+1)^(0+1280),c
  8316  003958  0E00               	movlw	0
  8317  00395A  140D               	andwf	(___xxtofl@arg+2)^(0+1280),w,c
  8318  00395C  6E07               	movwf	(??___xxtofl+2)^(0+1280),c
  8319  00395E  0EFE               	movlw	254
  8320  003960  140E               	andwf	(___xxtofl@arg+3)^(0+1280),w,c
  8321  003962  6E08               	movwf	(??___xxtofl+3)^(0+1280),c
  8322  003964  5005               	movf	??___xxtofl^(0+1280),w,c
  8323  003966  1006               	iorwf	(??___xxtofl+1)^(0+1280),w,c
  8324  003968  1007               	iorwf	(??___xxtofl+2)^(0+1280),w,c
  8325  00396A  1008               	iorwf	(??___xxtofl+3)^(0+1280),w,c
  8326  00396C  A4D8               	btfss	status,2,c
  8327  00396E  EFBB  F01C         	goto	i2u353_41
  8328  003972  EFBD  F01C         	goto	i2u353_40
  8329  003976                     i2u353_41:
  8330  003976  EFA0  F01C         	goto	i2l4958
  8331  00397A                     i2u353_40:
  8332  00397A  EFCB  F01C         	goto	i2l2447
  8333  00397E                     i2l4962:
  8334  00397E  2A0A               	incf	___xxtofl@exp^(0+1280),f,c
  8335  003980  0E01               	movlw	1
  8336  003982  260B               	addwf	___xxtofl@arg^(0+1280),f,c
  8337  003984  0E00               	movlw	0
  8338  003986  220C               	addwfc	(___xxtofl@arg+1)^(0+1280),f,c
  8339  003988  220D               	addwfc	(___xxtofl@arg+2)^(0+1280),f,c
  8340  00398A  220E               	addwfc	(___xxtofl@arg+3)^(0+1280),f,c
  8341  00398C  90D8               	bcf	status,0,c
  8342  00398E  320E               	rrcf	(___xxtofl@arg+3)^(0+1280),f,c
  8343  003990  320D               	rrcf	(___xxtofl@arg+2)^(0+1280),f,c
  8344  003992  320C               	rrcf	(___xxtofl@arg+1)^(0+1280),f,c
  8345  003994  320B               	rrcf	___xxtofl@arg^(0+1280),f,c
  8346  003996                     i2l2447:
  8347  003996  0E00               	movlw	0
  8348  003998  140B               	andwf	___xxtofl@arg^(0+1280),w,c
  8349  00399A  6E05               	movwf	??___xxtofl^(0+1280),c
  8350  00399C  0E00               	movlw	0
  8351  00399E  140C               	andwf	(___xxtofl@arg+1)^(0+1280),w,c
  8352  0039A0  6E06               	movwf	(??___xxtofl+1)^(0+1280),c
  8353  0039A2  0E00               	movlw	0
  8354  0039A4  140D               	andwf	(___xxtofl@arg+2)^(0+1280),w,c
  8355  0039A6  6E07               	movwf	(??___xxtofl+2)^(0+1280),c
  8356  0039A8  0EFF               	movlw	255
  8357  0039AA  140E               	andwf	(___xxtofl@arg+3)^(0+1280),w,c
  8358  0039AC  6E08               	movwf	(??___xxtofl+3)^(0+1280),c
  8359  0039AE  5005               	movf	??___xxtofl^(0+1280),w,c
  8360  0039B0  1006               	iorwf	(??___xxtofl+1)^(0+1280),w,c
  8361  0039B2  1007               	iorwf	(??___xxtofl+2)^(0+1280),w,c
  8362  0039B4  1008               	iorwf	(??___xxtofl+3)^(0+1280),w,c
  8363  0039B6  A4D8               	btfss	status,2,c
  8364  0039B8  EFE0  F01C         	goto	i2u354_41
  8365  0039BC  EFE2  F01C         	goto	i2u354_40
  8366  0039C0                     i2u354_41:
  8367  0039C0  EFBF  F01C         	goto	i2l4962
  8368  0039C4                     i2u354_40:
  8369  0039C4  EFEA  F01C         	goto	i2l4970
  8370  0039C8                     i2l4968:
  8371  0039C8  060A               	decf	___xxtofl@exp^(0+1280),f,c
  8372  0039CA  90D8               	bcf	status,0,c
  8373  0039CC  360B               	rlcf	___xxtofl@arg^(0+1280),f,c
  8374  0039CE  360C               	rlcf	(___xxtofl@arg+1)^(0+1280),f,c
  8375  0039D0  360D               	rlcf	(___xxtofl@arg+2)^(0+1280),f,c
  8376  0039D2  360E               	rlcf	(___xxtofl@arg+3)^(0+1280),f,c
  8377  0039D4                     i2l4970:
  8378  0039D4  BE0D               	btfsc	(___xxtofl@arg+2)^(0+1280),7,c
  8379  0039D6  EFEF  F01C         	goto	i2u355_41
  8380  0039DA  EFF1  F01C         	goto	i2u355_40
  8381  0039DE                     i2u355_41:
  8382  0039DE  EFF9  F01C         	goto	i2l2454
  8383  0039E2                     i2u355_40:
  8384  0039E2  0E02               	movlw	2
  8385  0039E4  600A               	cpfslt	___xxtofl@exp^(0+1280),c
  8386  0039E6  EFF7  F01C         	goto	i2u356_41
  8387  0039EA  EFF9  F01C         	goto	i2u356_40
  8388  0039EE                     i2u356_41:
  8389  0039EE  EFE4  F01C         	goto	i2l4968
  8390  0039F2                     i2u356_40:
  8391  0039F2                     i2l2454:
  8392  0039F2  B00A               	btfsc	___xxtofl@exp^(0+1280),0,c
  8393  0039F4  EFFE  F01C         	goto	i2u357_41
  8394  0039F8  EF00  F01D         	goto	i2u357_40
  8395  0039FC                     i2u357_41:
  8396  0039FC  EF01  F01D         	goto	i2l4976
  8397  003A00                     i2u357_40:
  8398  003A00  9E0D               	bcf	(___xxtofl@arg+2)^(0+1280),7,c
  8399  003A02                     i2l4976:
  8400  003A02  90D8               	bcf	status,0,c
  8401  003A04  320A               	rrcf	___xxtofl@exp^(0+1280),f,c
  8402  003A06  C50A  F505         	movff	___xxtofl@exp,??___xxtofl
  8403  003A0A  6A06               	clrf	(??___xxtofl+1)^(0+1280),c
  8404  003A0C  6A07               	clrf	(??___xxtofl+2)^(0+1280),c
  8405  003A0E  6A08               	clrf	(??___xxtofl+3)^(0+1280),c
  8406  003A10  C505  F508         	movff	??___xxtofl,??___xxtofl+3
  8407  003A14  6A07               	clrf	(??___xxtofl+2)^(0+1280),c
  8408  003A16  6A06               	clrf	(??___xxtofl+1)^(0+1280),c
  8409  003A18  6A05               	clrf	??___xxtofl^(0+1280),c
  8410  003A1A  5005               	movf	??___xxtofl^(0+1280),w,c
  8411  003A1C  120B               	iorwf	___xxtofl@arg^(0+1280),f,c
  8412  003A1E  5006               	movf	(??___xxtofl+1)^(0+1280),w,c
  8413  003A20  120C               	iorwf	(___xxtofl@arg+1)^(0+1280),f,c
  8414  003A22  5007               	movf	(??___xxtofl+2)^(0+1280),w,c
  8415  003A24  120D               	iorwf	(___xxtofl@arg+2)^(0+1280),f,c
  8416  003A26  5008               	movf	(??___xxtofl+3)^(0+1280),w,c
  8417  003A28  120E               	iorwf	(___xxtofl@arg+3)^(0+1280),f,c
  8418  003A2A  5009               	movf	___xxtofl@sign^(0+1280),w,c
  8419  003A2C  B4D8               	btfsc	status,2,c
  8420  003A2E  EF1B  F01D         	goto	i2u358_41
  8421  003A32  EF1D  F01D         	goto	i2u358_40
  8422  003A36                     i2u358_41:
  8423  003A36  EF25  F01D         	goto	i2l4986
  8424  003A3A                     i2u358_40:
  8425  003A3A  BE04               	btfsc	(___xxtofl@val+3)^(0+1280),7,c
  8426  003A3C  EF24  F01D         	goto	i2u359_40
  8427  003A40  EF22  F01D         	goto	i2u359_41
  8428  003A44                     i2u359_41:
  8429  003A44  EF25  F01D         	goto	i2l4986
  8430  003A48                     i2u359_40:
  8431  003A48  8E0E               	bsf	(___xxtofl@arg+3)^(0+1280),7,c
  8432  003A4A                     i2l4986:
  8433  003A4A  C50B  F501         	movff	___xxtofl@arg,?___xxtofl
  8434  003A4E  C50C  F502         	movff	___xxtofl@arg+1,?___xxtofl+1
  8435  003A52  C50D  F503         	movff	___xxtofl@arg+2,?___xxtofl+2
  8436  003A56  C50E  F504         	movff	___xxtofl@arg+3,?___xxtofl+3
  8437  003A5A                     i2l2443:
  8438  003A5A  0012               	return		;funcret
  8439  003A5C                     __end_of___xxtofl:
  8440                           	callstack 0
  8441                           
  8442 ;; *************** function ___wmul *****************
  8443 ;; Defined at:
  8444 ;;		line 15 in file "C:\Program Files\Microchip\xc8\v2.31\pic\sources\c99\common\Umul16.c"
  8445 ;; Parameters:    Size  Location     Type
  8446 ;;  multiplier      2    0[COMRAM] unsigned int 
  8447 ;;  multiplicand    2    2[COMRAM] unsigned int 
  8448 ;; Auto vars:     Size  Location     Type
  8449 ;;  product         2    4[COMRAM] unsigned int 
  8450 ;; Return value:  Size  Location     Type
  8451 ;;                  2    0[COMRAM] unsigned int 
  8452 ;; Registers used:
  8453 ;;		wreg, status,2, status,0, prodl, prodh
  8454 ;; Tracked objects:
  8455 ;;		On entry : 0/0
  8456 ;;		On exit  : 0/0
  8457 ;;		Unchanged: 0/0
  8458 ;; Data sizes:     COMRAM   BANK5   BANK6   BANK7   BANK8   BANK9  BANK10  BANK11  BANK12  BANK13  BANK14  BANK15  BANK1
      +6  BANK17  BANK18  BANK19  BANK20  BANK21  BANK22  BANK23  BANK24  BANK25  BANK26  BANK27  BANK28  BANK29  BANK30  BANK3
      +1  BANK32  BANK33  BANK34  BANK35  BANK36  BANK37
  8459 ;;      Params:         4       0       0       0       0       0       0       0       0       0       0       0       
      +0       0       0       0       0       0       0       0       0       0       0       0       0       0       0       
      +0       0       0       0       0       0       0
  8460 ;;      Locals:         2       0       0       0       0       0       0       0       0       0       0       0       
      +0       0       0       0       0       0       0       0       0       0       0       0       0       0       0       
      +0       0       0       0       0       0       0
  8461 ;;      Temps:          0       0       0       0       0       0       0       0       0       0       0       0       
      +0       0       0       0       0       0       0       0       0       0       0       0       0       0       0       
      +0       0       0       0       0       0       0
  8462 ;;      Totals:         6       0       0       0       0       0       0       0       0       0       0       0       
      +0       0       0       0       0       0       0       0       0       0       0       0       0       0       0       
      +0       0       0       0       0       0       0
  8463 ;;Total ram usage:        6 bytes
  8464 ;; Hardware stack levels used:    1
  8465 ;; This function calls:
  8466 ;;		Nothing
  8467 ;; This function is called by:
  8468 ;;		_GPIO_PWM1_Control
  8469 ;;		_ANALOG_GetVoltage
  8470 ;;		_GPIO_PWM2_Control
  8471 ;; This function uses a non-reentrant model
  8472 ;;
  8473                           
  8474                           	psect	text82
  8475  00494E                     __ptext82:
  8476                           	callstack 0
  8477  00494E                     ___wmul:
  8478                           	callstack 118
  8479  00494E  5001               	movf	___wmul@multiplier^(0+1280),w,c
  8480  004950  0203               	mulwf	___wmul@multiplicand^(0+1280),c
  8481  004952  0061 F3CC  F505    	movff	prodl,___wmul@product
  8482  004958  0061 F3D0  F506    	movff	prodh,___wmul@product+1
  8483  00495E  5001               	movf	___wmul@multiplier^(0+1280),w,c
  8484  004960  0204               	mulwf	(___wmul@multiplicand+1)^(0+1280),c
  8485  004962  50F3               	movf	243,w,c
  8486  004964  2606               	addwf	(___wmul@product+1)^(0+1280),f,c
  8487  004966  5002               	movf	(___wmul@multiplier+1)^(0+1280),w,c
  8488  004968  0203               	mulwf	___wmul@multiplicand^(0+1280),c
  8489  00496A  50F3               	movf	243,w,c
  8490  00496C  2606               	addwf	(___wmul@product+1)^(0+1280),f,c
  8491  00496E  C505  F501         	movff	___wmul@product,?___wmul
  8492  004972  C506  F502         	movff	___wmul@product+1,?___wmul+1
  8493  004976  0012               	return		;funcret
  8494  004978                     __end_of___wmul:
  8495                           	callstack 0
  8496                           
  8497 ;; *************** function ___lwdiv *****************
  8498 ;; Defined at:
  8499 ;;		line 7 in file "C:\Program Files\Microchip\xc8\v2.31\pic\sources\c99\common\lwdiv.c"
  8500 ;; Parameters:    Size  Location     Type
  8501 ;;  dividend        2    0[COMRAM] unsigned int 
  8502 ;;  divisor         2    2[COMRAM] unsigned int 
  8503 ;; Auto vars:     Size  Location     Type
  8504 ;;  quotient        2    4[COMRAM] unsigned int 
  8505 ;;  counter         1    6[COMRAM] unsigned char 
  8506 ;; Return value:  Size  Location     Type
  8507 ;;                  2    0[COMRAM] unsigned int 
  8508 ;; Registers used:
  8509 ;;		wreg, status,2, status,0
  8510 ;; Tracked objects:
  8511 ;;		On entry : 0/0
  8512 ;;		On exit  : 0/0
  8513 ;;		Unchanged: 0/0
  8514 ;; Data sizes:     COMRAM   BANK5   BANK6   BANK7   BANK8   BANK9  BANK10  BANK11  BANK12  BANK13  BANK14  BANK15  BANK1
      +6  BANK17  BANK18  BANK19  BANK20  BANK21  BANK22  BANK23  BANK24  BANK25  BANK26  BANK27  BANK28  BANK29  BANK30  BANK3
      +1  BANK32  BANK33  BANK34  BANK35  BANK36  BANK37
  8515 ;;      Params:         4       0       0       0       0       0       0       0       0       0       0       0       
      +0       0       0       0       0       0       0       0       0       0       0       0       0       0       0       
      +0       0       0       0       0       0       0
  8516 ;;      Locals:         3       0       0       0       0       0       0       0       0       0       0       0       
      +0       0       0       0       0       0       0       0       0       0       0       0       0       0       0       
      +0       0       0       0       0       0       0
  8517 ;;      Temps:          0       0       0       0       0       0       0       0       0       0       0       0       
      +0       0       0       0       0       0       0       0       0       0       0       0       0       0       0       
      +0       0       0       0       0       0       0
  8518 ;;      Totals:         7       0       0       0       0       0       0       0       0       0       0       0       
      +0       0       0       0       0       0       0       0       0       0       0       0       0       0       0       
      +0       0       0       0       0       0       0
  8519 ;;Total ram usage:        7 bytes
  8520 ;; Hardware stack levels used:    1
  8521 ;; This function calls:
  8522 ;;		Nothing
  8523 ;; This function is called by:
  8524 ;;		_GPIO_PWM1_Control
  8525 ;;		_ANALOG_GetVoltage
  8526 ;;		_SERVICEBRAKE_Move
  8527 ;;		_GPIO_PWM2_Control
  8528 ;;		_ETC_Move
  8529 ;; This function uses a non-reentrant model
  8530 ;;
  8531                           
  8532                           	psect	text83
  8533  00442A                     __ptext83:
  8534                           	callstack 0
  8535  00442A                     ___lwdiv:
  8536                           	callstack 118
  8537  00442A  0E00               	movlw	0
  8538  00442C  6E06               	movwf	(___lwdiv@quotient+1)^(0+1280),c
  8539  00442E  0E00               	movlw	0
  8540  004430  6E05               	movwf	___lwdiv@quotient^(0+1280),c
  8541  004432  5003               	movf	___lwdiv@divisor^(0+1280),w,c
  8542  004434  1004               	iorwf	(___lwdiv@divisor+1)^(0+1280),w,c
  8543  004436  B4D8               	btfsc	status,2,c
  8544  004438  EF20  F022         	goto	i2u347_41
  8545  00443C  EF22  F022         	goto	i2u347_40
  8546  004440                     i2u347_41:
  8547  004440  EF4A  F022         	goto	i2l2276
  8548  004444                     i2u347_40:
  8549  004444  0E01               	movlw	1
  8550  004446  6E07               	movwf	___lwdiv@counter^(0+1280),c
  8551  004448  EF2A  F022         	goto	i2l4930
  8552  00444C                     i2l4928:
  8553  00444C  90D8               	bcf	status,0,c
  8554  00444E  3603               	rlcf	___lwdiv@divisor^(0+1280),f,c
  8555  004450  3604               	rlcf	(___lwdiv@divisor+1)^(0+1280),f,c
  8556  004452  2A07               	incf	___lwdiv@counter^(0+1280),f,c
  8557  004454                     i2l4930:
  8558  004454  AE04               	btfss	(___lwdiv@divisor+1)^(0+1280),7,c
  8559  004456  EF2F  F022         	goto	i2u348_41
  8560  00445A  EF31  F022         	goto	i2u348_40
  8561  00445E                     i2u348_41:
  8562  00445E  EF26  F022         	goto	i2l4928
  8563  004462                     i2u348_40:
  8564  004462                     i2l4932:
  8565  004462  90D8               	bcf	status,0,c
  8566  004464  3605               	rlcf	___lwdiv@quotient^(0+1280),f,c
  8567  004466  3606               	rlcf	(___lwdiv@quotient+1)^(0+1280),f,c
  8568  004468  5003               	movf	___lwdiv@divisor^(0+1280),w,c
  8569  00446A  5C01               	subwf	___lwdiv@dividend^(0+1280),w,c
  8570  00446C  5004               	movf	(___lwdiv@divisor+1)^(0+1280),w,c
  8571  00446E  5802               	subwfb	(___lwdiv@dividend+1)^(0+1280),w,c
  8572  004470  A0D8               	btfss	status,0,c
  8573  004472  EF3D  F022         	goto	i2u349_41
  8574  004476  EF3F  F022         	goto	i2u349_40
  8575  00447A                     i2u349_41:
  8576  00447A  EF44  F022         	goto	i2l4940
  8577  00447E                     i2u349_40:
  8578  00447E  5003               	movf	___lwdiv@divisor^(0+1280),w,c
  8579  004480  5E01               	subwf	___lwdiv@dividend^(0+1280),f,c
  8580  004482  5004               	movf	(___lwdiv@divisor+1)^(0+1280),w,c
  8581  004484  5A02               	subwfb	(___lwdiv@dividend+1)^(0+1280),f,c
  8582  004486  8005               	bsf	___lwdiv@quotient^(0+1280),0,c
  8583  004488                     i2l4940:
  8584  004488  90D8               	bcf	status,0,c
  8585  00448A  3204               	rrcf	(___lwdiv@divisor+1)^(0+1280),f,c
  8586  00448C  3203               	rrcf	___lwdiv@divisor^(0+1280),f,c
  8587  00448E  2E07               	decfsz	___lwdiv@counter^(0+1280),f,c
  8588  004490  EF31  F022         	goto	i2l4932
  8589  004494                     i2l2276:
  8590  004494  C505  F501         	movff	___lwdiv@quotient,?___lwdiv
  8591  004498  C506  F502         	movff	___lwdiv@quotient+1,?___lwdiv+1
  8592  00449C  0012               	return		;funcret
  8593  00449E                     __end_of___lwdiv:
  8594                           	callstack 0
  8595                           
  8596 ;; *************** function ___fltol *****************
  8597 ;; Defined at:
  8598 ;;		line 43 in file "C:\Program Files\Microchip\xc8\v2.31\pic\sources\c99\common\fltol.c"
  8599 ;; Parameters:    Size  Location     Type
  8600 ;;  f1              4   55[COMRAM] unsigned int 
  8601 ;; Auto vars:     Size  Location     Type
  8602 ;;  exp1            1   64[COMRAM] unsigned char 
  8603 ;;  sign1           1   63[COMRAM] unsigned char 
  8604 ;; Return value:  Size  Location     Type
  8605 ;;                  4   55[COMRAM] long 
  8606 ;; Registers used:
  8607 ;;		wreg, status,2, status,0
  8608 ;; Tracked objects:
  8609 ;;		On entry : 0/0
  8610 ;;		On exit  : 0/0
  8611 ;;		Unchanged: 0/0
  8612 ;; Data sizes:     COMRAM   BANK5   BANK6   BANK7   BANK8   BANK9  BANK10  BANK11  BANK12  BANK13  BANK14  BANK15  BANK1
      +6  BANK17  BANK18  BANK19  BANK20  BANK21  BANK22  BANK23  BANK24  BANK25  BANK26  BANK27  BANK28  BANK29  BANK30  BANK3
      +1  BANK32  BANK33  BANK34  BANK35  BANK36  BANK37
  8613 ;;      Params:         4       0       0       0       0       0       0       0       0       0       0       0       
      +0       0       0       0       0       0       0       0       0       0       0       0       0       0       0       
      +0       0       0       0       0       0       0
  8614 ;;      Locals:         2       0       0       0       0       0       0       0       0       0       0       0       
      +0       0       0       0       0       0       0       0       0       0       0       0       0       0       0       
      +0       0       0       0       0       0       0
  8615 ;;      Temps:          4       0       0       0       0       0       0       0       0       0       0       0       
      +0       0       0       0       0       0       0       0       0       0       0       0       0       0       0       
      +0       0       0       0       0       0       0
  8616 ;;      Totals:        10       0       0       0       0       0       0       0       0       0       0       0       
      +0       0       0       0       0       0       0       0       0       0       0       0       0       0       0       
      +0       0       0       0       0       0       0
  8617 ;;Total ram usage:       10 bytes
  8618 ;; Hardware stack levels used:    1
  8619 ;; This function calls:
  8620 ;;		Nothing
  8621 ;; This function is called by:
  8622 ;;		_GPIO_PWM1_Control
  8623 ;;		_ANALOG_GetVoltage
  8624 ;;		_GPIO_PWM2_Control
  8625 ;; This function uses a non-reentrant model
  8626 ;;
  8627                           
  8628                           	psect	text84
  8629  003DC8                     __ptext84:
  8630                           	callstack 0
  8631  003DC8                     ___fltol:
  8632                           	callstack 118
  8633  003DC8  343A               	rlcf	(___fltol@f1+2)^(0+1280),w,c
  8634  003DCA  343B               	rlcf	(___fltol@f1+3)^(0+1280),w,c
  8635  003DCC  6E41               	movwf	___fltol@exp1^(0+1280),c
  8636  003DCE  5041               	movf	___fltol@exp1^(0+1280),w,c
  8637  003DD0  A4D8               	btfss	status,2,c
  8638  003DD2  EFED  F01E         	goto	i2u340_41
  8639  003DD6  EFEF  F01E         	goto	i2u340_40
  8640  003DDA                     i2u340_41:
  8641  003DDA  EFF9  F01E         	goto	i2l4884
  8642  003DDE                     i2u340_40:
  8643  003DDE                     i2l4880:
  8644  003DDE  0E00               	movlw	0
  8645  003DE0  6E38               	movwf	?___fltol^(0+1280),c
  8646  003DE2  0E00               	movlw	0
  8647  003DE4  6E39               	movwf	(?___fltol+1)^(0+1280),c
  8648  003DE6  0E00               	movlw	0
  8649  003DE8  6E3A               	movwf	(?___fltol+2)^(0+1280),c
  8650  003DEA  0E00               	movlw	0
  8651  003DEC  6E3B               	movwf	(?___fltol+3)^(0+1280),c
  8652  003DEE  EF66  F01F         	goto	i2l2082
  8653  003DF2                     i2l4884:
  8654  003DF2  C538  F53C         	movff	___fltol@f1,??___fltol
  8655  003DF6  C539  F53D         	movff	___fltol@f1+1,??___fltol+1
  8656  003DFA  C53A  F53E         	movff	___fltol@f1+2,??___fltol+2
  8657  003DFE  C53B  F53F         	movff	___fltol@f1+3,??___fltol+3
  8658  003E02  0E20               	movlw	32
  8659  003E04  EF09  F01F         	goto	i2u341_40
  8660  003E08                     i2u341_45:
  8661  003E08  90D8               	bcf	status,0,c
  8662  003E0A  323F               	rrcf	(??___fltol+3)^(0+1280),f,c
  8663  003E0C  323E               	rrcf	(??___fltol+2)^(0+1280),f,c
  8664  003E0E  323D               	rrcf	(??___fltol+1)^(0+1280),f,c
  8665  003E10  323C               	rrcf	??___fltol^(0+1280),f,c
  8666  003E12                     i2u341_40:
  8667  003E12  2EE8               	decfsz	wreg,f,c
  8668  003E14  EF04  F01F         	goto	i2u341_45
  8669  003E18  503C               	movf	??___fltol^(0+1280),w,c
  8670  003E1A  6E40               	movwf	___fltol@sign1^(0+1280),c
  8671  003E1C  8E3A               	bsf	(___fltol@f1+2)^(0+1280),7,c
  8672  003E1E  0EFF               	movlw	255
  8673  003E20  1638               	andwf	___fltol@f1^(0+1280),f,c
  8674  003E22  0EFF               	movlw	255
  8675  003E24  1639               	andwf	(___fltol@f1+1)^(0+1280),f,c
  8676  003E26  0EFF               	movlw	255
  8677  003E28  163A               	andwf	(___fltol@f1+2)^(0+1280),f,c
  8678  003E2A  0E00               	movlw	0
  8679  003E2C  163B               	andwf	(___fltol@f1+3)^(0+1280),f,c
  8680  003E2E  0E96               	movlw	150
  8681  003E30  5E41               	subwf	___fltol@exp1^(0+1280),f,c
  8682  003E32  BE41               	btfsc	___fltol@exp1^(0+1280),7,c
  8683  003E34  EF20  F01F         	goto	i2u342_40
  8684  003E38  EF1E  F01F         	goto	i2u342_41
  8685  003E3C                     i2u342_41:
  8686  003E3C  EF36  F01F         	goto	i2l4904
  8687  003E40                     i2u342_40:
  8688  003E40  5041               	movf	___fltol@exp1^(0+1280),w,c
  8689  003E42  0A80               	xorlw	128
  8690  003E44  0F97               	addlw	151
  8691  003E46  B0D8               	btfsc	status,0,c
  8692  003E48  EF28  F01F         	goto	i2u343_41
  8693  003E4C  EF2A  F01F         	goto	i2u343_40
  8694  003E50                     i2u343_41:
  8695  003E50  EF2C  F01F         	goto	i2l4900
  8696  003E54                     i2u343_40:
  8697  003E54  EFEF  F01E         	goto	i2l4880
  8698  003E58                     i2l4900:
  8699  003E58  90D8               	bcf	status,0,c
  8700  003E5A  323B               	rrcf	(___fltol@f1+3)^(0+1280),f,c
  8701  003E5C  323A               	rrcf	(___fltol@f1+2)^(0+1280),f,c
  8702  003E5E  3239               	rrcf	(___fltol@f1+1)^(0+1280),f,c
  8703  003E60  3238               	rrcf	___fltol@f1^(0+1280),f,c
  8704  003E62  3E41               	incfsz	___fltol@exp1^(0+1280),f,c
  8705  003E64  EF2C  F01F         	goto	i2l4900
  8706  003E68  EF4E  F01F         	goto	i2l4914
  8707  003E6C                     i2l4904:
  8708  003E6C  0E1F               	movlw	31
  8709  003E6E  6441               	cpfsgt	___fltol@exp1^(0+1280),c
  8710  003E70  EF3C  F01F         	goto	i2u344_41
  8711  003E74  EF3E  F01F         	goto	i2u344_40
  8712  003E78                     i2u344_41:
  8713  003E78  EF46  F01F         	goto	i2l4912
  8714  003E7C                     i2u344_40:
  8715  003E7C  EFEF  F01E         	goto	i2l4880
  8716  003E80                     i2l4910:
  8717  003E80  90D8               	bcf	status,0,c
  8718  003E82  3638               	rlcf	___fltol@f1^(0+1280),f,c
  8719  003E84  3639               	rlcf	(___fltol@f1+1)^(0+1280),f,c
  8720  003E86  363A               	rlcf	(___fltol@f1+2)^(0+1280),f,c
  8721  003E88  363B               	rlcf	(___fltol@f1+3)^(0+1280),f,c
  8722  003E8A  0641               	decf	___fltol@exp1^(0+1280),f,c
  8723  003E8C                     i2l4912:
  8724  003E8C  5041               	movf	___fltol@exp1^(0+1280),w,c
  8725  003E8E  A4D8               	btfss	status,2,c
  8726  003E90  EF4C  F01F         	goto	i2u345_41
  8727  003E94  EF4E  F01F         	goto	i2u345_40
  8728  003E98                     i2u345_41:
  8729  003E98  EF40  F01F         	goto	i2l4910
  8730  003E9C                     i2u345_40:
  8731  003E9C                     i2l4914:
  8732  003E9C  5040               	movf	___fltol@sign1^(0+1280),w,c
  8733  003E9E  B4D8               	btfsc	status,2,c
  8734  003EA0  EF54  F01F         	goto	i2u346_41
  8735  003EA4  EF56  F01F         	goto	i2u346_40
  8736  003EA8                     i2u346_41:
  8737  003EA8  EF5E  F01F         	goto	i2l4918
  8738  003EAC                     i2u346_40:
  8739  003EAC  1E3B               	comf	(___fltol@f1+3)^(0+1280),f,c
  8740  003EAE  1E3A               	comf	(___fltol@f1+2)^(0+1280),f,c
  8741  003EB0  1E39               	comf	(___fltol@f1+1)^(0+1280),f,c
  8742  003EB2  6C38               	negf	___fltol@f1^(0+1280),c
  8743  003EB4  0E00               	movlw	0
  8744  003EB6  2239               	addwfc	(___fltol@f1+1)^(0+1280),f,c
  8745  003EB8  223A               	addwfc	(___fltol@f1+2)^(0+1280),f,c
  8746  003EBA  223B               	addwfc	(___fltol@f1+3)^(0+1280),f,c
  8747  003EBC                     i2l4918:
  8748  003EBC  C538  F538         	movff	___fltol@f1,?___fltol
  8749  003EC0  C539  F539         	movff	___fltol@f1+1,?___fltol+1
  8750  003EC4  C53A  F53A         	movff	___fltol@f1+2,?___fltol+2
  8751  003EC8  C53B  F53B         	movff	___fltol@f1+3,?___fltol+3
  8752  003ECC                     i2l2082:
  8753  003ECC  0012               	return		;funcret
  8754  003ECE                     __end_of___fltol:
  8755                           	callstack 0
  8756                           
  8757 ;; *************** function ___fladd *****************
  8758 ;; Defined at:
  8759 ;;		line 10 in file "C:\Program Files\Microchip\xc8\v2.31\pic\sources\c99\common\sprcadd.c"
  8760 ;; Parameters:    Size  Location     Type
  8761 ;;  b               4   39[COMRAM] long 
  8762 ;;  a               4   43[COMRAM] long 
  8763 ;; Auto vars:     Size  Location     Type
  8764 ;;  grs             1   54[COMRAM] unsigned char 
  8765 ;;  bexp            1   53[COMRAM] unsigned char 
  8766 ;;  aexp            1   52[COMRAM] unsigned char 
  8767 ;;  signs           1   51[COMRAM] unsigned char 
  8768 ;; Return value:  Size  Location     Type
  8769 ;;                  4   39[COMRAM] unsigned char 
  8770 ;; Registers used:
  8771 ;;		wreg, status,2, status,0
  8772 ;; Tracked objects:
  8773 ;;		On entry : 0/0
  8774 ;;		On exit  : 0/0
  8775 ;;		Unchanged: 0/0
  8776 ;; Data sizes:     COMRAM   BANK5   BANK6   BANK7   BANK8   BANK9  BANK10  BANK11  BANK12  BANK13  BANK14  BANK15  BANK1
      +6  BANK17  BANK18  BANK19  BANK20  BANK21  BANK22  BANK23  BANK24  BANK25  BANK26  BANK27  BANK28  BANK29  BANK30  BANK3
      +1  BANK32  BANK33  BANK34  BANK35  BANK36  BANK37
  8777 ;;      Params:         8       0       0       0       0       0       0       0       0       0       0       0       
      +0       0       0       0       0       0       0       0       0       0       0       0       0       0       0       
      +0       0       0       0       0       0       0
  8778 ;;      Locals:         4       0       0       0       0       0       0       0       0       0       0       0       
      +0       0       0       0       0       0       0       0       0       0       0       0       0       0       0       
      +0       0       0       0       0       0       0
  8779 ;;      Temps:          4       0       0       0       0       0       0       0       0       0       0       0       
      +0       0       0       0       0       0       0       0       0       0       0       0       0       0       0       
      +0       0       0       0       0       0       0
  8780 ;;      Totals:        16       0       0       0       0       0       0       0       0       0       0       0       
      +0       0       0       0       0       0       0       0       0       0       0       0       0       0       0       
      +0       0       0       0       0       0       0
  8781 ;;Total ram usage:       16 bytes
  8782 ;; Hardware stack levels used:    1
  8783 ;; This function calls:
  8784 ;;		Nothing
  8785 ;; This function is called by:
  8786 ;;		_GPIO_PWM1_Control
  8787 ;;		_ANALOG_GetVoltage
  8788 ;;		_GPIO_PWM2_Control
  8789 ;; This function uses a non-reentrant model
  8790 ;;
  8791                           
  8792                           	psect	text85
  8793  00260E                     __ptext85:
  8794                           	callstack 0
  8795  00260E                     ___fladd:
  8796                           	callstack 118
  8797  00260E  502B               	movf	(___fladd@b+3)^(0+1280),w,c
  8798  002610  0B80               	andlw	128
  8799  002612  6E34               	movwf	___fladd@signs^(0+1280),c
  8800  002614  502B               	movf	(___fladd@b+3)^(0+1280),w,c
  8801  002616  242B               	addwf	(___fladd@b+3)^(0+1280),w,c
  8802  002618  6E36               	movwf	___fladd@bexp^(0+1280),c
  8803  00261A  AE2A               	btfss	(___fladd@b+2)^(0+1280),7,c
  8804  00261C  EF12  F013         	goto	i2u301_41
  8805  002620  EF14  F013         	goto	i2u301_40
  8806  002624                     i2u301_41:
  8807  002624  EF15  F013         	goto	i2l4682
  8808  002628                     i2u301_40:
  8809  002628  8036               	bsf	___fladd@bexp^(0+1280),0,c
  8810  00262A                     i2l4682:
  8811  00262A  5036               	movf	___fladd@bexp^(0+1280),w,c
  8812  00262C  B4D8               	btfsc	status,2,c
  8813  00262E  EF1B  F013         	goto	i2u302_41
  8814  002632  EF1D  F013         	goto	i2u302_40
  8815  002636                     i2u302_41:
  8816  002636  EF32  F013         	goto	i2l4692
  8817  00263A                     i2u302_40:
  8818  00263A  2836               	incf	___fladd@bexp^(0+1280),w,c
  8819  00263C  A4D8               	btfss	status,2,c
  8820  00263E  EF23  F013         	goto	i2u303_41
  8821  002642  EF25  F013         	goto	i2u303_40
  8822  002646                     i2u303_41:
  8823  002646  EF2D  F013         	goto	i2l4688
  8824  00264A                     i2u303_40:
  8825  00264A  0E00               	movlw	0
  8826  00264C  6E28               	movwf	___fladd@b^(0+1280),c
  8827  00264E  0E00               	movlw	0
  8828  002650  6E29               	movwf	(___fladd@b+1)^(0+1280),c
  8829  002652  0E00               	movlw	0
  8830  002654  6E2A               	movwf	(___fladd@b+2)^(0+1280),c
  8831  002656  0E00               	movlw	0
  8832  002658  6E2B               	movwf	(___fladd@b+3)^(0+1280),c
  8833  00265A                     i2l4688:
  8834  00265A  8E2A               	bsf	(___fladd@b+2)^(0+1280),7,c
  8835  00265C  0E00               	movlw	0
  8836  00265E  6E2B               	movwf	(___fladd@b+3)^(0+1280),c
  8837  002660  EF3A  F013         	goto	i2l4694
  8838  002664                     i2l4692:
  8839  002664  0E00               	movlw	0
  8840  002666  6E28               	movwf	___fladd@b^(0+1280),c
  8841  002668  0E00               	movlw	0
  8842  00266A  6E29               	movwf	(___fladd@b+1)^(0+1280),c
  8843  00266C  0E00               	movlw	0
  8844  00266E  6E2A               	movwf	(___fladd@b+2)^(0+1280),c
  8845  002670  0E00               	movlw	0
  8846  002672  6E2B               	movwf	(___fladd@b+3)^(0+1280),c
  8847  002674                     i2l4694:
  8848  002674  502F               	movf	(___fladd@a+3)^(0+1280),w,c
  8849  002676  0B80               	andlw	128
  8850  002678  6E35               	movwf	___fladd@aexp^(0+1280),c
  8851  00267A  5034               	movf	___fladd@signs^(0+1280),w,c
  8852  00267C  1835               	xorwf	___fladd@aexp^(0+1280),w,c
  8853  00267E  B4D8               	btfsc	status,2,c
  8854  002680  EF44  F013         	goto	i2u304_41
  8855  002684  EF46  F013         	goto	i2u304_40
  8856  002688                     i2u304_41:
  8857  002688  EF47  F013         	goto	i2l4700
  8858  00268C                     i2u304_40:
  8859  00268C  8C34               	bsf	___fladd@signs^(0+1280),6,c
  8860  00268E                     i2l4700:
  8861  00268E  502F               	movf	(___fladd@a+3)^(0+1280),w,c
  8862  002690  242F               	addwf	(___fladd@a+3)^(0+1280),w,c
  8863  002692  6E35               	movwf	___fladd@aexp^(0+1280),c
  8864  002694  AE2E               	btfss	(___fladd@a+2)^(0+1280),7,c
  8865  002696  EF4F  F013         	goto	i2u305_41
  8866  00269A  EF51  F013         	goto	i2u305_40
  8867  00269E                     i2u305_41:
  8868  00269E  EF52  F013         	goto	i2l4706
  8869  0026A2                     i2u305_40:
  8870  0026A2  8035               	bsf	___fladd@aexp^(0+1280),0,c
  8871  0026A4                     i2l4706:
  8872  0026A4  5035               	movf	___fladd@aexp^(0+1280),w,c
  8873  0026A6  B4D8               	btfsc	status,2,c
  8874  0026A8  EF58  F013         	goto	i2u306_41
  8875  0026AC  EF5A  F013         	goto	i2u306_40
  8876  0026B0                     i2u306_41:
  8877  0026B0  EF6F  F013         	goto	i2l4716
  8878  0026B4                     i2u306_40:
  8879  0026B4  2835               	incf	___fladd@aexp^(0+1280),w,c
  8880  0026B6  A4D8               	btfss	status,2,c
  8881  0026B8  EF60  F013         	goto	i2u307_41
  8882  0026BC  EF62  F013         	goto	i2u307_40
  8883  0026C0                     i2u307_41:
  8884  0026C0  EF6A  F013         	goto	i2l4712
  8885  0026C4                     i2u307_40:
  8886  0026C4  0E00               	movlw	0
  8887  0026C6  6E2C               	movwf	___fladd@a^(0+1280),c
  8888  0026C8  0E00               	movlw	0
  8889  0026CA  6E2D               	movwf	(___fladd@a+1)^(0+1280),c
  8890  0026CC  0E00               	movlw	0
  8891  0026CE  6E2E               	movwf	(___fladd@a+2)^(0+1280),c
  8892  0026D0  0E00               	movlw	0
  8893  0026D2  6E2F               	movwf	(___fladd@a+3)^(0+1280),c
  8894  0026D4                     i2l4712:
  8895  0026D4  8E2E               	bsf	(___fladd@a+2)^(0+1280),7,c
  8896  0026D6  0E00               	movlw	0
  8897  0026D8  6E2F               	movwf	(___fladd@a+3)^(0+1280),c
  8898  0026DA  EF77  F013         	goto	i2l4718
  8899  0026DE                     i2l4716:
  8900  0026DE  0E00               	movlw	0
  8901  0026E0  6E2C               	movwf	___fladd@a^(0+1280),c
  8902  0026E2  0E00               	movlw	0
  8903  0026E4  6E2D               	movwf	(___fladd@a+1)^(0+1280),c
  8904  0026E6  0E00               	movlw	0
  8905  0026E8  6E2E               	movwf	(___fladd@a+2)^(0+1280),c
  8906  0026EA  0E00               	movlw	0
  8907  0026EC  6E2F               	movwf	(___fladd@a+3)^(0+1280),c
  8908  0026EE                     i2l4718:
  8909  0026EE  5036               	movf	___fladd@bexp^(0+1280),w,c
  8910  0026F0  5C35               	subwf	___fladd@aexp^(0+1280),w,c
  8911  0026F2  B0D8               	btfsc	status,0,c
  8912  0026F4  EF7E  F013         	goto	i2u308_41
  8913  0026F8  EF80  F013         	goto	i2u308_40
  8914  0026FC                     i2u308_41:
  8915  0026FC  EFA7  F013         	goto	i2l4754
  8916  002700                     i2u308_40:
  8917  002700  AC34               	btfss	___fladd@signs^(0+1280),6,c
  8918  002702  EF85  F013         	goto	i2u309_41
  8919  002706  EF87  F013         	goto	i2u309_40
  8920  00270A                     i2u309_41:
  8921  00270A  EF89  F013         	goto	i2l4724
  8922  00270E                     i2u309_40:
  8923  00270E  0E80               	movlw	128
  8924  002710  1A34               	xorwf	___fladd@signs^(0+1280),f,c
  8925  002712                     i2l4724:
  8926  002712  C536  F537         	movff	___fladd@bexp,___fladd@grs
  8927  002716  C535  F536         	movff	___fladd@aexp,___fladd@bexp
  8928  00271A  C537  F535         	movff	___fladd@grs,___fladd@aexp
  8929  00271E  C528  F537         	movff	___fladd@b,___fladd@grs
  8930  002722  C52C  F528         	movff	___fladd@a,___fladd@b
  8931  002726  C537  F52C         	movff	___fladd@grs,___fladd@a
  8932  00272A  C529  F537         	movff	___fladd@b+1,___fladd@grs
  8933  00272E  C52D  F529         	movff	___fladd@a+1,___fladd@b+1
  8934  002732  C537  F52D         	movff	___fladd@grs,___fladd@a+1
  8935  002736  C52A  F537         	movff	___fladd@b+2,___fladd@grs
  8936  00273A  C52E  F52A         	movff	___fladd@a+2,___fladd@b+2
  8937  00273E  C537  F52E         	movff	___fladd@grs,___fladd@a+2
  8938  002742  C52B  F537         	movff	___fladd@b+3,___fladd@grs
  8939  002746  C52F  F52B         	movff	___fladd@a+3,___fladd@b+3
  8940  00274A  C537  F52F         	movff	___fladd@grs,___fladd@a+3
  8941  00274E                     i2l4754:
  8942  00274E  0E00               	movlw	0
  8943  002750  6E37               	movwf	___fladd@grs^(0+1280),c
  8944  002752  5036               	movf	___fladd@bexp^(0+1280),w,c
  8945  002754  C535  F530         	movff	___fladd@aexp,??___fladd
  8946  002758  6A31               	clrf	(??___fladd+1)^(0+1280),c
  8947  00275A  5E30               	subwf	??___fladd^(0+1280),f,c
  8948  00275C  0E00               	movlw	0
  8949  00275E  5A31               	subwfb	(??___fladd+1)^(0+1280),f,c
  8950  002760  BE31               	btfsc	(??___fladd+1)^(0+1280),7,c
  8951  002762  EFBC  F013         	goto	i2u310_41
  8952  002766  5031               	movf	(??___fladd+1)^(0+1280),w,c
  8953  002768  E109               	bnz	i2u310_40
  8954  00276A  0E1A               	movlw	26
  8955  00276C  5C30               	subwf	??___fladd^(0+1280),w,c
  8956  00276E  A0D8               	btfss	status,0,c
  8957  002770  EFBC  F013         	goto	i2u310_41
  8958  002774  EFBE  F013         	goto	i2u310_40
  8959  002778                     i2u310_41:
  8960  002778  EFF5  F013         	goto	i2l2314
  8961  00277C                     i2u310_40:
  8962  00277C  5028               	movf	___fladd@b^(0+1280),w,c
  8963  00277E  1029               	iorwf	(___fladd@b+1)^(0+1280),w,c
  8964  002780  102A               	iorwf	(___fladd@b+2)^(0+1280),w,c
  8965  002782  102B               	iorwf	(___fladd@b+3)^(0+1280),w,c
  8966  002784  A4D8               	btfss	status,2,c
  8967  002786  EFC7  F013         	goto	i2u311_41
  8968  00278A  EFCA  F013         	goto	i2u311_40
  8969  00278E                     i2u311_41:
  8970  00278E  0E01               	movlw	1
  8971  002790  EFCB  F013         	goto	i2u312_40
  8972  002794                     i2u311_40:
  8973  002794  0E00               	movlw	0
  8974  002796                     i2u312_40:
  8975  002796  6E37               	movwf	___fladd@grs^(0+1280),c
  8976  002798  0E00               	movlw	0
  8977  00279A  6E28               	movwf	___fladd@b^(0+1280),c
  8978  00279C  0E00               	movlw	0
  8979  00279E  6E29               	movwf	(___fladd@b+1)^(0+1280),c
  8980  0027A0  0E00               	movlw	0
  8981  0027A2  6E2A               	movwf	(___fladd@b+2)^(0+1280),c
  8982  0027A4  0E00               	movlw	0
  8983  0027A6  6E2B               	movwf	(___fladd@b+3)^(0+1280),c
  8984  0027A8  C535  F536         	movff	___fladd@aexp,___fladd@bexp
  8985  0027AC  EFFE  F013         	goto	i2l2313
  8986  0027B0                     i2l2315:
  8987  0027B0  A037               	btfss	___fladd@grs^(0+1280),0,c
  8988  0027B2  EFDD  F013         	goto	i2u313_41
  8989  0027B6  EFDF  F013         	goto	i2u313_40
  8990  0027BA                     i2u313_41:
  8991  0027BA  EFE5  F013         	goto	i2l4766
  8992  0027BE                     i2u313_40:
  8993  0027BE  90D8               	bcf	status,0,c
  8994  0027C0  3037               	rrcf	___fladd@grs^(0+1280),w,c
  8995  0027C2  0901               	iorlw	1
  8996  0027C4  6E37               	movwf	___fladd@grs^(0+1280),c
  8997  0027C6  EFE7  F013         	goto	i2l4768
  8998  0027CA                     i2l4766:
  8999  0027CA  90D8               	bcf	status,0,c
  9000  0027CC  3237               	rrcf	___fladd@grs^(0+1280),f,c
  9001  0027CE                     i2l4768:
  9002  0027CE  A028               	btfss	___fladd@b^(0+1280),0,c
  9003  0027D0  EFEC  F013         	goto	i2u314_41
  9004  0027D4  EFEE  F013         	goto	i2u314_40
  9005  0027D8                     i2u314_41:
  9006  0027D8  EFEF  F013         	goto	i2l4772
  9007  0027DC                     i2u314_40:
  9008  0027DC  8E37               	bsf	___fladd@grs^(0+1280),7,c
  9009  0027DE                     i2l4772:
  9010  0027DE  342B               	rlcf	(___fladd@b+3)^(0+1280),w,c
  9011  0027E0  322B               	rrcf	(___fladd@b+3)^(0+1280),f,c
  9012  0027E2  322A               	rrcf	(___fladd@b+2)^(0+1280),f,c
  9013  0027E4  3229               	rrcf	(___fladd@b+1)^(0+1280),f,c
  9014  0027E6  3228               	rrcf	___fladd@b^(0+1280),f,c
  9015  0027E8  2A36               	incf	___fladd@bexp^(0+1280),f,c
  9016  0027EA                     i2l2314:
  9017  0027EA  5035               	movf	___fladd@aexp^(0+1280),w,c
  9018  0027EC  5C36               	subwf	___fladd@bexp^(0+1280),w,c
  9019  0027EE  A0D8               	btfss	status,0,c
  9020  0027F0  EFFC  F013         	goto	i2u315_41
  9021  0027F4  EFFE  F013         	goto	i2u315_40
  9022  0027F8                     i2u315_41:
  9023  0027F8  EFD8  F013         	goto	i2l2315
  9024  0027FC                     i2u315_40:
  9025  0027FC                     i2l2313:
  9026  0027FC  BC34               	btfsc	___fladd@signs^(0+1280),6,c
  9027  0027FE  EF03  F014         	goto	i2u316_41
  9028  002802  EF05  F014         	goto	i2u316_40
  9029  002806                     i2u316_41:
  9030  002806  EF45  F014         	goto	i2l4800
  9031  00280A                     i2u316_40:
  9032  00280A  5036               	movf	___fladd@bexp^(0+1280),w,c
  9033  00280C  A4D8               	btfss	status,2,c
  9034  00280E  EF0B  F014         	goto	i2u317_41
  9035  002812  EF0D  F014         	goto	i2u317_40
  9036  002816                     i2u317_41:
  9037  002816  EF17  F014         	goto	i2l4782
  9038  00281A                     i2u317_40:
  9039  00281A  0E00               	movlw	0
  9040  00281C  6E28               	movwf	?___fladd^(0+1280),c
  9041  00281E  0E00               	movlw	0
  9042  002820  6E29               	movwf	(?___fladd+1)^(0+1280),c
  9043  002822  0E00               	movlw	0
  9044  002824  6E2A               	movwf	(?___fladd+2)^(0+1280),c
  9045  002826  0E00               	movlw	0
  9046  002828  6E2B               	movwf	(?___fladd+3)^(0+1280),c
  9047  00282A  EF66  F015         	goto	i2l2322
  9048  00282E                     i2l4782:
  9049  00282E  502C               	movf	___fladd@a^(0+1280),w,c
  9050  002830  2628               	addwf	___fladd@b^(0+1280),f,c
  9051  002832  502D               	movf	(___fladd@a+1)^(0+1280),w,c
  9052  002834  2229               	addwfc	(___fladd@b+1)^(0+1280),f,c
  9053  002836  502E               	movf	(___fladd@a+2)^(0+1280),w,c
  9054  002838  222A               	addwfc	(___fladd@b+2)^(0+1280),f,c
  9055  00283A  502F               	movf	(___fladd@a+3)^(0+1280),w,c
  9056  00283C  222B               	addwfc	(___fladd@b+3)^(0+1280),f,c
  9057  00283E  A02B               	btfss	(___fladd@b+3)^(0+1280),0,c
  9058  002840  EF24  F014         	goto	i2u318_41
  9059  002844  EF26  F014         	goto	i2u318_40
  9060  002848                     i2u318_41:
  9061  002848  EFD2  F014         	goto	i2l4836
  9062  00284C                     i2u318_40:
  9063  00284C  A037               	btfss	___fladd@grs^(0+1280),0,c
  9064  00284E  EF2B  F014         	goto	i2u319_41
  9065  002852  EF2D  F014         	goto	i2u319_40
  9066  002856                     i2u319_41:
  9067  002856  EF33  F014         	goto	i2l4790
  9068  00285A                     i2u319_40:
  9069  00285A  90D8               	bcf	status,0,c
  9070  00285C  3037               	rrcf	___fladd@grs^(0+1280),w,c
  9071  00285E  0901               	iorlw	1
  9072  002860  6E37               	movwf	___fladd@grs^(0+1280),c
  9073  002862  EF35  F014         	goto	i2l4792
  9074  002866                     i2l4790:
  9075  002866  90D8               	bcf	status,0,c
  9076  002868  3237               	rrcf	___fladd@grs^(0+1280),f,c
  9077  00286A                     i2l4792:
  9078  00286A  A028               	btfss	___fladd@b^(0+1280),0,c
  9079  00286C  EF3A  F014         	goto	i2u320_41
  9080  002870  EF3C  F014         	goto	i2u320_40
  9081  002874                     i2u320_41:
  9082  002874  EF3D  F014         	goto	i2l4796
  9083  002878                     i2u320_40:
  9084  002878  8E37               	bsf	___fladd@grs^(0+1280),7,c
  9085  00287A                     i2l4796:
  9086  00287A  342B               	rlcf	(___fladd@b+3)^(0+1280),w,c
  9087  00287C  322B               	rrcf	(___fladd@b+3)^(0+1280),f,c
  9088  00287E  322A               	rrcf	(___fladd@b+2)^(0+1280),f,c
  9089  002880  3229               	rrcf	(___fladd@b+1)^(0+1280),f,c
  9090  002882  3228               	rrcf	___fladd@b^(0+1280),f,c
  9091  002884  2A36               	incf	___fladd@bexp^(0+1280),f,c
  9092  002886  EFD2  F014         	goto	i2l4836
  9093  00288A                     i2l4800:
  9094  00288A  502C               	movf	___fladd@a^(0+1280),w,c
  9095  00288C  5C28               	subwf	___fladd@b^(0+1280),w,c
  9096  00288E  502D               	movf	(___fladd@a+1)^(0+1280),w,c
  9097  002890  5829               	subwfb	(___fladd@b+1)^(0+1280),w,c
  9098  002892  502E               	movf	(___fladd@a+2)^(0+1280),w,c
  9099  002894  582A               	subwfb	(___fladd@b+2)^(0+1280),w,c
  9100  002896  502B               	movf	(___fladd@b+3)^(0+1280),w,c
  9101  002898  0A80               	xorlw	128
  9102  00289A  6E30               	movwf	??___fladd^(0+1280),c
  9103  00289C  502F               	movf	(___fladd@a+3)^(0+1280),w,c
  9104  00289E  0A80               	xorlw	128
  9105  0028A0  5830               	subwfb	??___fladd^(0+1280),w,c
  9106  0028A2  B0D8               	btfsc	status,0,c
  9107  0028A4  EF56  F014         	goto	i2u321_41
  9108  0028A8  EF58  F014         	goto	i2u321_40
  9109  0028AC                     i2u321_41:
  9110  0028AC  EF83  F014         	goto	i2l4810
  9111  0028B0                     i2u321_40:
  9112  0028B0  5028               	movf	___fladd@b^(0+1280),w,c
  9113  0028B2  5C2C               	subwf	___fladd@a^(0+1280),w,c
  9114  0028B4  6E30               	movwf	??___fladd^(0+1280),c
  9115  0028B6  5029               	movf	(___fladd@b+1)^(0+1280),w,c
  9116  0028B8  582D               	subwfb	(___fladd@a+1)^(0+1280),w,c
  9117  0028BA  6E31               	movwf	(??___fladd+1)^(0+1280),c
  9118  0028BC  502A               	movf	(___fladd@b+2)^(0+1280),w,c
  9119  0028BE  582E               	subwfb	(___fladd@a+2)^(0+1280),w,c
  9120  0028C0  6E32               	movwf	(??___fladd+2)^(0+1280),c
  9121  0028C2  502B               	movf	(___fladd@b+3)^(0+1280),w,c
  9122  0028C4  582F               	subwfb	(___fladd@a+3)^(0+1280),w,c
  9123  0028C6  6E33               	movwf	(??___fladd+3)^(0+1280),c
  9124  0028C8  0EFF               	movlw	255
  9125  0028CA  2430               	addwf	??___fladd^(0+1280),w,c
  9126  0028CC  6E28               	movwf	___fladd@b^(0+1280),c
  9127  0028CE  0EFF               	movlw	255
  9128  0028D0  2031               	addwfc	(??___fladd+1)^(0+1280),w,c
  9129  0028D2  6E29               	movwf	(___fladd@b+1)^(0+1280),c
  9130  0028D4  0EFF               	movlw	255
  9131  0028D6  2032               	addwfc	(??___fladd+2)^(0+1280),w,c
  9132  0028D8  6E2A               	movwf	(___fladd@b+2)^(0+1280),c
  9133  0028DA  0EFF               	movlw	255
  9134  0028DC  2033               	addwfc	(??___fladd+3)^(0+1280),w,c
  9135  0028DE  6E2B               	movwf	(___fladd@b+3)^(0+1280),c
  9136  0028E0  0E80               	movlw	128
  9137  0028E2  1A34               	xorwf	___fladd@signs^(0+1280),f,c
  9138  0028E4  6C37               	negf	___fladd@grs^(0+1280),c
  9139  0028E6  5037               	movf	___fladd@grs^(0+1280),w,c
  9140  0028E8  A4D8               	btfss	status,2,c
  9141  0028EA  EF79  F014         	goto	i2u322_41
  9142  0028EE  EF7B  F014         	goto	i2u322_40
  9143  0028F2                     i2u322_41:
  9144  0028F2  EF8B  F014         	goto	i2l2330
  9145  0028F6                     i2u322_40:
  9146  0028F6  0E01               	movlw	1
  9147  0028F8  2628               	addwf	___fladd@b^(0+1280),f,c
  9148  0028FA  0E00               	movlw	0
  9149  0028FC  2229               	addwfc	(___fladd@b+1)^(0+1280),f,c
  9150  0028FE  222A               	addwfc	(___fladd@b+2)^(0+1280),f,c
  9151  002900  222B               	addwfc	(___fladd@b+3)^(0+1280),f,c
  9152  002902  EF8B  F014         	goto	i2l2330
  9153  002906                     i2l4810:
  9154  002906  502C               	movf	___fladd@a^(0+1280),w,c
  9155  002908  5E28               	subwf	___fladd@b^(0+1280),f,c
  9156  00290A  502D               	movf	(___fladd@a+1)^(0+1280),w,c
  9157  00290C  5A29               	subwfb	(___fladd@b+1)^(0+1280),f,c
  9158  00290E  502E               	movf	(___fladd@a+2)^(0+1280),w,c
  9159  002910  5A2A               	subwfb	(___fladd@b+2)^(0+1280),f,c
  9160  002912  502F               	movf	(___fladd@a+3)^(0+1280),w,c
  9161  002914  5A2B               	subwfb	(___fladd@b+3)^(0+1280),f,c
  9162  002916                     i2l2330:
  9163  002916  5028               	movf	___fladd@b^(0+1280),w,c
  9164  002918  1029               	iorwf	(___fladd@b+1)^(0+1280),w,c
  9165  00291A  102A               	iorwf	(___fladd@b+2)^(0+1280),w,c
  9166  00291C  102B               	iorwf	(___fladd@b+3)^(0+1280),w,c
  9167  00291E  A4D8               	btfss	status,2,c
  9168  002920  EF94  F014         	goto	i2u323_41
  9169  002924  EF96  F014         	goto	i2u323_40
  9170  002928                     i2u323_41:
  9171  002928  EFCB  F014         	goto	i2l4834
  9172  00292C                     i2u323_40:
  9173  00292C  5037               	movf	___fladd@grs^(0+1280),w,c
  9174  00292E  A4D8               	btfss	status,2,c
  9175  002930  EF9C  F014         	goto	i2u324_41
  9176  002934  EF9E  F014         	goto	i2u324_40
  9177  002938                     i2u324_41:
  9178  002938  EFCB  F014         	goto	i2l4834
  9179  00293C                     i2u324_40:
  9180  00293C  0E00               	movlw	0
  9181  00293E  6E28               	movwf	?___fladd^(0+1280),c
  9182  002940  0E00               	movlw	0
  9183  002942  6E29               	movwf	(?___fladd+1)^(0+1280),c
  9184  002944  0E00               	movlw	0
  9185  002946  6E2A               	movwf	(?___fladd+2)^(0+1280),c
  9186  002948  0E00               	movlw	0
  9187  00294A  6E2B               	movwf	(?___fladd+3)^(0+1280),c
  9188  00294C  EF66  F015         	goto	i2l2322
  9189  002950                     i2l4818:
  9190  002950  90D8               	bcf	status,0,c
  9191  002952  3628               	rlcf	___fladd@b^(0+1280),f,c
  9192  002954  3629               	rlcf	(___fladd@b+1)^(0+1280),f,c
  9193  002956  362A               	rlcf	(___fladd@b+2)^(0+1280),f,c
  9194  002958  362B               	rlcf	(___fladd@b+3)^(0+1280),f,c
  9195  00295A  AE37               	btfss	___fladd@grs^(0+1280),7,c
  9196  00295C  EFB2  F014         	goto	i2u325_41
  9197  002960  EFB4  F014         	goto	i2u325_40
  9198  002964                     i2u325_41:
  9199  002964  EFB5  F014         	goto	i2l4824
  9200  002968                     i2u325_40:
  9201  002968  8028               	bsf	___fladd@b^(0+1280),0,c
  9202  00296A                     i2l4824:
  9203  00296A  A037               	btfss	___fladd@grs^(0+1280),0,c
  9204  00296C  EFBA  F014         	goto	i2u326_41
  9205  002970  EFBC  F014         	goto	i2u326_40
  9206  002974                     i2u326_41:
  9207  002974  EFC0  F014         	goto	i2l4828
  9208  002978                     i2u326_40:
  9209  002978  80D8               	bsf	status,0,c
  9210  00297A  3637               	rlcf	___fladd@grs^(0+1280),f,c
  9211  00297C  EFC2  F014         	goto	i2l4830
  9212  002980                     i2l4828:
  9213  002980  90D8               	bcf	status,0,c
  9214  002982  3637               	rlcf	___fladd@grs^(0+1280),f,c
  9215  002984                     i2l4830:
  9216  002984  5036               	movf	___fladd@bexp^(0+1280),w,c
  9217  002986  B4D8               	btfsc	status,2,c
  9218  002988  EFC8  F014         	goto	i2u327_41
  9219  00298C  EFCA  F014         	goto	i2u327_40
  9220  002990                     i2u327_41:
  9221  002990  EFCB  F014         	goto	i2l4834
  9222  002994                     i2u327_40:
  9223  002994  0636               	decf	___fladd@bexp^(0+1280),f,c
  9224  002996                     i2l4834:
  9225  002996  AE2A               	btfss	(___fladd@b+2)^(0+1280),7,c
  9226  002998  EFD0  F014         	goto	i2u328_41
  9227  00299C  EFD2  F014         	goto	i2u328_40
  9228  0029A0                     i2u328_41:
  9229  0029A0  EFA8  F014         	goto	i2l4818
  9230  0029A4                     i2u328_40:
  9231  0029A4                     i2l4836:
  9232  0029A4  0E00               	movlw	0
  9233  0029A6  6E35               	movwf	___fladd@aexp^(0+1280),c
  9234  0029A8  AE37               	btfss	___fladd@grs^(0+1280),7,c
  9235  0029AA  EFD9  F014         	goto	i2u329_41
  9236  0029AE  EFDB  F014         	goto	i2u329_40
  9237  0029B2                     i2u329_41:
  9238  0029B2  EFF3  F014         	goto	i2l2339
  9239  0029B6                     i2u329_40:
  9240  0029B6  C537  F530         	movff	___fladd@grs,??___fladd
  9241  0029BA  0E7F               	movlw	127
  9242  0029BC  1630               	andwf	??___fladd^(0+1280),f,c
  9243  0029BE  B4D8               	btfsc	status,2,c
  9244  0029C0  EFE4  F014         	goto	i2u330_41
  9245  0029C4  EFE6  F014         	goto	i2u330_40
  9246  0029C8                     i2u330_41:
  9247  0029C8  EFEA  F014         	goto	i2l2340
  9248  0029CC                     i2u330_40:
  9249  0029CC                     i2l4842:
  9250  0029CC  0E01               	movlw	1
  9251  0029CE  6E35               	movwf	___fladd@aexp^(0+1280),c
  9252  0029D0  EFF3  F014         	goto	i2l2339
  9253  0029D4                     i2l2340:
  9254  0029D4  A028               	btfss	___fladd@b^(0+1280),0,c
  9255  0029D6  EFEF  F014         	goto	i2u331_41
  9256  0029DA  EFF1  F014         	goto	i2u331_40
  9257  0029DE                     i2u331_41:
  9258  0029DE  EFF3  F014         	goto	i2l2339
  9259  0029E2                     i2u331_40:
  9260  0029E2  EFE6  F014         	goto	i2l4842
  9261  0029E6                     i2l2339:
  9262  0029E6  5035               	movf	___fladd@aexp^(0+1280),w,c
  9263  0029E8  B4D8               	btfsc	status,2,c
  9264  0029EA  EFF9  F014         	goto	i2u332_41
  9265  0029EE  EFFB  F014         	goto	i2u332_40
  9266  0029F2                     i2u332_41:
  9267  0029F2  EF26  F015         	goto	i2l4854
  9268  0029F6                     i2u332_40:
  9269  0029F6  0E01               	movlw	1
  9270  0029F8  2628               	addwf	___fladd@b^(0+1280),f,c
  9271  0029FA  0E00               	movlw	0
  9272  0029FC  2229               	addwfc	(___fladd@b+1)^(0+1280),f,c
  9273  0029FE  222A               	addwfc	(___fladd@b+2)^(0+1280),f,c
  9274  002A00  222B               	addwfc	(___fladd@b+3)^(0+1280),f,c
  9275  002A02  A02B               	btfss	(___fladd@b+3)^(0+1280),0,c
  9276  002A04  EF06  F015         	goto	i2u333_41
  9277  002A08  EF08  F015         	goto	i2u333_40
  9278  002A0C                     i2u333_41:
  9279  002A0C  EF26  F015         	goto	i2l4854
  9280  002A10                     i2u333_40:
  9281  002A10  C528  F530         	movff	___fladd@b,??___fladd
  9282  002A14  C529  F531         	movff	___fladd@b+1,??___fladd+1
  9283  002A18  C52A  F532         	movff	___fladd@b+2,??___fladd+2
  9284  002A1C  C52B  F533         	movff	___fladd@b+3,??___fladd+3
  9285  002A20  3433               	rlcf	(??___fladd+3)^(0+1280),w,c
  9286  002A22  3233               	rrcf	(??___fladd+3)^(0+1280),f,c
  9287  002A24  3232               	rrcf	(??___fladd+2)^(0+1280),f,c
  9288  002A26  3231               	rrcf	(??___fladd+1)^(0+1280),f,c
  9289  002A28  3230               	rrcf	??___fladd^(0+1280),f,c
  9290  002A2A  C530  F528         	movff	??___fladd,___fladd@b
  9291  002A2E  C531  F529         	movff	??___fladd+1,___fladd@b+1
  9292  002A32  C532  F52A         	movff	??___fladd+2,___fladd@b+2
  9293  002A36  C533  F52B         	movff	??___fladd+3,___fladd@b+3
  9294  002A3A  2836               	incf	___fladd@bexp^(0+1280),w,c
  9295  002A3C  B4D8               	btfsc	status,2,c
  9296  002A3E  EF23  F015         	goto	i2u334_41
  9297  002A42  EF25  F015         	goto	i2u334_40
  9298  002A46                     i2u334_41:
  9299  002A46  EF26  F015         	goto	i2l4854
  9300  002A4A                     i2u334_40:
  9301  002A4A  2A36               	incf	___fladd@bexp^(0+1280),f,c
  9302  002A4C                     i2l4854:
  9303  002A4C  2836               	incf	___fladd@bexp^(0+1280),w,c
  9304  002A4E  B4D8               	btfsc	status,2,c
  9305  002A50  EF2C  F015         	goto	i2u335_41
  9306  002A54  EF2E  F015         	goto	i2u335_40
  9307  002A58                     i2u335_41:
  9308  002A58  EF36  F015         	goto	i2l4858
  9309  002A5C                     i2u335_40:
  9310  002A5C  5036               	movf	___fladd@bexp^(0+1280),w,c
  9311  002A5E  A4D8               	btfss	status,2,c
  9312  002A60  EF34  F015         	goto	i2u336_41
  9313  002A64  EF36  F015         	goto	i2u336_40
  9314  002A68                     i2u336_41:
  9315  002A68  EF48  F015         	goto	i2l4862
  9316  002A6C                     i2u336_40:
  9317  002A6C                     i2l4858:
  9318  002A6C  0E00               	movlw	0
  9319  002A6E  6E28               	movwf	___fladd@b^(0+1280),c
  9320  002A70  0E00               	movlw	0
  9321  002A72  6E29               	movwf	(___fladd@b+1)^(0+1280),c
  9322  002A74  0E00               	movlw	0
  9323  002A76  6E2A               	movwf	(___fladd@b+2)^(0+1280),c
  9324  002A78  0E00               	movlw	0
  9325  002A7A  6E2B               	movwf	(___fladd@b+3)^(0+1280),c
  9326  002A7C  5036               	movf	___fladd@bexp^(0+1280),w,c
  9327  002A7E  A4D8               	btfss	status,2,c
  9328  002A80  EF44  F015         	goto	i2u337_41
  9329  002A84  EF46  F015         	goto	i2u337_40
  9330  002A88                     i2u337_41:
  9331  002A88  EF48  F015         	goto	i2l4862
  9332  002A8C                     i2u337_40:
  9333  002A8C  0E00               	movlw	0
  9334  002A8E  6E34               	movwf	___fladd@signs^(0+1280),c
  9335  002A90                     i2l4862:
  9336  002A90  A036               	btfss	___fladd@bexp^(0+1280),0,c
  9337  002A92  EF4D  F015         	goto	i2u338_41
  9338  002A96  EF4F  F015         	goto	i2u338_40
  9339  002A9A                     i2u338_41:
  9340  002A9A  EF52  F015         	goto	i2l4866
  9341  002A9E                     i2u338_40:
  9342  002A9E  8E2A               	bsf	(___fladd@b+2)^(0+1280),7,c
  9343  002AA0  EF53  F015         	goto	i2l4868
  9344  002AA4                     i2l4866:
  9345  002AA4  9E2A               	bcf	(___fladd@b+2)^(0+1280),7,c
  9346  002AA6                     i2l4868:
  9347  002AA6  90D8               	bcf	status,0,c
  9348  002AA8  3036               	rrcf	___fladd@bexp^(0+1280),w,c
  9349  002AAA  6E2B               	movwf	(___fladd@b+3)^(0+1280),c
  9350  002AAC  AE34               	btfss	___fladd@signs^(0+1280),7,c
  9351  002AAE  EF5B  F015         	goto	i2u339_41
  9352  002AB2  EF5D  F015         	goto	i2u339_40
  9353  002AB6                     i2u339_41:
  9354  002AB6  EF5E  F015         	goto	i2l4874
  9355  002ABA                     i2u339_40:
  9356  002ABA  8E2B               	bsf	(___fladd@b+3)^(0+1280),7,c
  9357  002ABC                     i2l4874:
  9358  002ABC  C528  F528         	movff	___fladd@b,?___fladd
  9359  002AC0  C529  F529         	movff	___fladd@b+1,?___fladd+1
  9360  002AC4  C52A  F52A         	movff	___fladd@b+2,?___fladd+2
  9361  002AC8  C52B  F52B         	movff	___fladd@b+3,?___fladd+3
  9362  002ACC                     i2l2322:
  9363  002ACC  0012               	return		;funcret
  9364  002ACE                     __end_of___fladd:
  9365                           	callstack 0
  9366                           
  9367 ;; *************** function ___aldiv *****************
  9368 ;; Defined at:
  9369 ;;		line 7 in file "C:\Program Files\Microchip\xc8\v2.31\pic\sources\c99\common\aldiv.c"
  9370 ;; Parameters:    Size  Location     Type
  9371 ;;  dividend        4    0[COMRAM] long 
  9372 ;;  divisor         4    4[COMRAM] long 
  9373 ;; Auto vars:     Size  Location     Type
  9374 ;;  quotient        4   10[COMRAM] long 
  9375 ;;  sign            1    9[COMRAM] unsigned char 
  9376 ;;  counter         1    8[COMRAM] unsigned char 
  9377 ;; Return value:  Size  Location     Type
  9378 ;;                  4    0[COMRAM] long 
  9379 ;; Registers used:
  9380 ;;		wreg, status,2, status,0
  9381 ;; Tracked objects:
  9382 ;;		On entry : 0/0
  9383 ;;		On exit  : 0/0
  9384 ;;		Unchanged: 0/0
  9385 ;; Data sizes:     COMRAM   BANK5   BANK6   BANK7   BANK8   BANK9  BANK10  BANK11  BANK12  BANK13  BANK14  BANK15  BANK1
      +6  BANK17  BANK18  BANK19  BANK20  BANK21  BANK22  BANK23  BANK24  BANK25  BANK26  BANK27  BANK28  BANK29  BANK30  BANK3
      +1  BANK32  BANK33  BANK34  BANK35  BANK36  BANK37
  9386 ;;      Params:         8       0       0       0       0       0       0       0       0       0       0       0       
      +0       0       0       0       0       0       0       0       0       0       0       0       0       0       0       
      +0       0       0       0       0       0       0
  9387 ;;      Locals:         6       0       0       0       0       0       0       0       0       0       0       0       
      +0       0       0       0       0       0       0       0       0       0       0       0       0       0       0       
      +0       0       0       0       0       0       0
  9388 ;;      Temps:          0       0       0       0       0       0       0       0       0       0       0       0       
      +0       0       0       0       0       0       0       0       0       0       0       0       0       0       0       
      +0       0       0       0       0       0       0
  9389 ;;      Totals:        14       0       0       0       0       0       0       0       0       0       0       0       
      +0       0       0       0       0       0       0       0       0       0       0       0       0       0       0       
      +0       0       0       0       0       0       0
  9390 ;;Total ram usage:       14 bytes
  9391 ;; Hardware stack levels used:    1
  9392 ;; This function calls:
  9393 ;;		Nothing
  9394 ;; This function is called by:
  9395 ;;		_GPIO_PWM1_Control
  9396 ;;		_GPIO_PWM2_Control
  9397 ;; This function uses a non-reentrant model
  9398 ;;
  9399                           
  9400                           	psect	text86
  9401  003BB2                     __ptext86:
  9402                           	callstack 0
  9403  003BB2                     ___aldiv:
  9404                           	callstack 117
  9405  003BB2  0E00               	movlw	0
  9406  003BB4  6E0A               	movwf	___aldiv@sign^(0+1280),c
  9407  003BB6  BE08               	btfsc	(___aldiv@divisor+3)^(0+1280),7,c
  9408  003BB8  EFE2  F01D         	goto	i2u295_40
  9409  003BBC  EFE0  F01D         	goto	i2u295_41
  9410  003BC0                     i2u295_41:
  9411  003BC0  EFEC  F01D         	goto	i2l4640
  9412  003BC4                     i2u295_40:
  9413  003BC4  1E08               	comf	(___aldiv@divisor+3)^(0+1280),f,c
  9414  003BC6  1E07               	comf	(___aldiv@divisor+2)^(0+1280),f,c
  9415  003BC8  1E06               	comf	(___aldiv@divisor+1)^(0+1280),f,c
  9416  003BCA  6C05               	negf	___aldiv@divisor^(0+1280),c
  9417  003BCC  0E00               	movlw	0
  9418  003BCE  2206               	addwfc	(___aldiv@divisor+1)^(0+1280),f,c
  9419  003BD0  2207               	addwfc	(___aldiv@divisor+2)^(0+1280),f,c
  9420  003BD2  2208               	addwfc	(___aldiv@divisor+3)^(0+1280),f,c
  9421  003BD4  0E01               	movlw	1
  9422  003BD6  6E0A               	movwf	___aldiv@sign^(0+1280),c
  9423  003BD8                     i2l4640:
  9424  003BD8  BE04               	btfsc	(___aldiv@dividend+3)^(0+1280),7,c
  9425  003BDA  EFF3  F01D         	goto	i2u296_40
  9426  003BDE  EFF1  F01D         	goto	i2u296_41
  9427  003BE2                     i2u296_41:
  9428  003BE2  EFFD  F01D         	goto	i2l4646
  9429  003BE6                     i2u296_40:
  9430  003BE6  1E04               	comf	(___aldiv@dividend+3)^(0+1280),f,c
  9431  003BE8  1E03               	comf	(___aldiv@dividend+2)^(0+1280),f,c
  9432  003BEA  1E02               	comf	(___aldiv@dividend+1)^(0+1280),f,c
  9433  003BEC  6C01               	negf	___aldiv@dividend^(0+1280),c
  9434  003BEE  0E00               	movlw	0
  9435  003BF0  2202               	addwfc	(___aldiv@dividend+1)^(0+1280),f,c
  9436  003BF2  2203               	addwfc	(___aldiv@dividend+2)^(0+1280),f,c
  9437  003BF4  2204               	addwfc	(___aldiv@dividend+3)^(0+1280),f,c
  9438  003BF6  0E01               	movlw	1
  9439  003BF8  1A0A               	xorwf	___aldiv@sign^(0+1280),f,c
  9440  003BFA                     i2l4646:
  9441  003BFA  0E00               	movlw	0
  9442  003BFC  6E0B               	movwf	___aldiv@quotient^(0+1280),c
  9443  003BFE  0E00               	movlw	0
  9444  003C00  6E0C               	movwf	(___aldiv@quotient+1)^(0+1280),c
  9445  003C02  0E00               	movlw	0
  9446  003C04  6E0D               	movwf	(___aldiv@quotient+2)^(0+1280),c
  9447  003C06  0E00               	movlw	0
  9448  003C08  6E0E               	movwf	(___aldiv@quotient+3)^(0+1280),c
  9449  003C0A  5005               	movf	___aldiv@divisor^(0+1280),w,c
  9450  003C0C  1006               	iorwf	(___aldiv@divisor+1)^(0+1280),w,c
  9451  003C0E  1007               	iorwf	(___aldiv@divisor+2)^(0+1280),w,c
  9452  003C10  1008               	iorwf	(___aldiv@divisor+3)^(0+1280),w,c
  9453  003C12  B4D8               	btfsc	status,2,c
  9454  003C14  EF0E  F01E         	goto	i2u297_41
  9455  003C18  EF10  F01E         	goto	i2u297_40
  9456  003C1C                     i2u297_41:
  9457  003C1C  EF46  F01E         	goto	i2l4668
  9458  003C20                     i2u297_40:
  9459  003C20  0E01               	movlw	1
  9460  003C22  6E09               	movwf	___aldiv@counter^(0+1280),c
  9461  003C24  EF1A  F01E         	goto	i2l4654
  9462  003C28                     i2l4652:
  9463  003C28  90D8               	bcf	status,0,c
  9464  003C2A  3605               	rlcf	___aldiv@divisor^(0+1280),f,c
  9465  003C2C  3606               	rlcf	(___aldiv@divisor+1)^(0+1280),f,c
  9466  003C2E  3607               	rlcf	(___aldiv@divisor+2)^(0+1280),f,c
  9467  003C30  3608               	rlcf	(___aldiv@divisor+3)^(0+1280),f,c
  9468  003C32  2A09               	incf	___aldiv@counter^(0+1280),f,c
  9469  003C34                     i2l4654:
  9470  003C34  AE08               	btfss	(___aldiv@divisor+3)^(0+1280),7,c
  9471  003C36  EF1F  F01E         	goto	i2u298_41
  9472  003C3A  EF21  F01E         	goto	i2u298_40
  9473  003C3E                     i2u298_41:
  9474  003C3E  EF14  F01E         	goto	i2l4652
  9475  003C42                     i2u298_40:
  9476  003C42                     i2l4656:
  9477  003C42  90D8               	bcf	status,0,c
  9478  003C44  360B               	rlcf	___aldiv@quotient^(0+1280),f,c
  9479  003C46  360C               	rlcf	(___aldiv@quotient+1)^(0+1280),f,c
  9480  003C48  360D               	rlcf	(___aldiv@quotient+2)^(0+1280),f,c
  9481  003C4A  360E               	rlcf	(___aldiv@quotient+3)^(0+1280),f,c
  9482  003C4C  5005               	movf	___aldiv@divisor^(0+1280),w,c
  9483  003C4E  5C01               	subwf	___aldiv@dividend^(0+1280),w,c
  9484  003C50  5006               	movf	(___aldiv@divisor+1)^(0+1280),w,c
  9485  003C52  5802               	subwfb	(___aldiv@dividend+1)^(0+1280),w,c
  9486  003C54  5007               	movf	(___aldiv@divisor+2)^(0+1280),w,c
  9487  003C56  5803               	subwfb	(___aldiv@dividend+2)^(0+1280),w,c
  9488  003C58  5008               	movf	(___aldiv@divisor+3)^(0+1280),w,c
  9489  003C5A  5804               	subwfb	(___aldiv@dividend+3)^(0+1280),w,c
  9490  003C5C  A0D8               	btfss	status,0,c
  9491  003C5E  EF33  F01E         	goto	i2u299_41
  9492  003C62  EF35  F01E         	goto	i2u299_40
  9493  003C66                     i2u299_41:
  9494  003C66  EF3E  F01E         	goto	i2l4664
  9495  003C6A                     i2u299_40:
  9496  003C6A  5005               	movf	___aldiv@divisor^(0+1280),w,c
  9497  003C6C  5E01               	subwf	___aldiv@dividend^(0+1280),f,c
  9498  003C6E  5006               	movf	(___aldiv@divisor+1)^(0+1280),w,c
  9499  003C70  5A02               	subwfb	(___aldiv@dividend+1)^(0+1280),f,c
  9500  003C72  5007               	movf	(___aldiv@divisor+2)^(0+1280),w,c
  9501  003C74  5A03               	subwfb	(___aldiv@dividend+2)^(0+1280),f,c
  9502  003C76  5008               	movf	(___aldiv@divisor+3)^(0+1280),w,c
  9503  003C78  5A04               	subwfb	(___aldiv@dividend+3)^(0+1280),f,c
  9504  003C7A  800B               	bsf	___aldiv@quotient^(0+1280),0,c
  9505  003C7C                     i2l4664:
  9506  003C7C  90D8               	bcf	status,0,c
  9507  003C7E  3208               	rrcf	(___aldiv@divisor+3)^(0+1280),f,c
  9508  003C80  3207               	rrcf	(___aldiv@divisor+2)^(0+1280),f,c
  9509  003C82  3206               	rrcf	(___aldiv@divisor+1)^(0+1280),f,c
  9510  003C84  3205               	rrcf	___aldiv@divisor^(0+1280),f,c
  9511  003C86  2E09               	decfsz	___aldiv@counter^(0+1280),f,c
  9512  003C88  EF21  F01E         	goto	i2l4656
  9513  003C8C                     i2l4668:
  9514  003C8C  500A               	movf	___aldiv@sign^(0+1280),w,c
  9515  003C8E  B4D8               	btfsc	status,2,c
  9516  003C90  EF4C  F01E         	goto	i2u300_41
  9517  003C94  EF4E  F01E         	goto	i2u300_40
  9518  003C98                     i2u300_41:
  9519  003C98  EF56  F01E         	goto	i2l4672
  9520  003C9C                     i2u300_40:
  9521  003C9C  1E0E               	comf	(___aldiv@quotient+3)^(0+1280),f,c
  9522  003C9E  1E0D               	comf	(___aldiv@quotient+2)^(0+1280),f,c
  9523  003CA0  1E0C               	comf	(___aldiv@quotient+1)^(0+1280),f,c
  9524  003CA2  6C0B               	negf	___aldiv@quotient^(0+1280),c
  9525  003CA4  0E00               	movlw	0
  9526  003CA6  220C               	addwfc	(___aldiv@quotient+1)^(0+1280),f,c
  9527  003CA8  220D               	addwfc	(___aldiv@quotient+2)^(0+1280),f,c
  9528  003CAA  220E               	addwfc	(___aldiv@quotient+3)^(0+1280),f,c
  9529  003CAC                     i2l4672:
  9530  003CAC  C50B  F501         	movff	___aldiv@quotient,?___aldiv
  9531  003CB0  C50C  F502         	movff	___aldiv@quotient+1,?___aldiv+1
  9532  003CB4  C50D  F503         	movff	___aldiv@quotient+2,?___aldiv+2
  9533  003CB8  C50E  F504         	movff	___aldiv@quotient+3,?___aldiv+3
  9534  003CBC  0012               	return		;funcret
  9535  003CBE                     __end_of___aldiv:
  9536                           	callstack 0
  9537                           
  9538 ;; *************** function _PWM1_16BIT_WritePeriodRegister *****************
  9539 ;; Defined at:
  9540 ;;		line 144 in file "mcc_generated_files/pwm1_16bit.c"
  9541 ;; Parameters:    Size  Location     Type
  9542 ;;  periodCount     2    0[COMRAM] unsigned short 
  9543 ;; Auto vars:     Size  Location     Type
  9544 ;;		None
  9545 ;; Return value:  Size  Location     Type
  9546 ;;                  1    wreg      void 
  9547 ;; Registers used:
  9548 ;;		wreg, status,2
  9549 ;; Tracked objects:
  9550 ;;		On entry : 0/0
  9551 ;;		On exit  : 0/0
  9552 ;;		Unchanged: 0/0
  9553 ;; Data sizes:     COMRAM   BANK5   BANK6   BANK7   BANK8   BANK9  BANK10  BANK11  BANK12  BANK13  BANK14  BANK15  BANK1
      +6  BANK17  BANK18  BANK19  BANK20  BANK21  BANK22  BANK23  BANK24  BANK25  BANK26  BANK27  BANK28  BANK29  BANK30  BANK3
      +1  BANK32  BANK33  BANK34  BANK35  BANK36  BANK37
  9554 ;;      Params:         2       0       0       0       0       0       0       0       0       0       0       0       
      +0       0       0       0       0       0       0       0       0       0       0       0       0       0       0       
      +0       0       0       0       0       0       0
  9555 ;;      Locals:         0       0       0       0       0       0       0       0       0       0       0       0       
      +0       0       0       0       0       0       0       0       0       0       0       0       0       0       0       
      +0       0       0       0       0       0       0
  9556 ;;      Temps:          0       0       0       0       0       0       0       0       0       0       0       0       
      +0       0       0       0       0       0       0       0       0       0       0       0       0       0       0       
      +0       0       0       0       0       0       0
  9557 ;;      Totals:         2       0       0       0       0       0       0       0       0       0       0       0       
      +0       0       0       0       0       0       0       0       0       0       0       0       0       0       0       
      +0       0       0       0       0       0       0
  9558 ;;Total ram usage:        2 bytes
  9559 ;; Hardware stack levels used:    1
  9560 ;; This function calls:
  9561 ;;		Nothing
  9562 ;; This function is called by:
  9563 ;;		_GPIO_PWM1_Control
  9564 ;; This function uses a non-reentrant model
  9565 ;;
  9566                           
  9567                           	psect	text87
  9568  004ADC                     __ptext87:
  9569                           	callstack 0
  9570  004ADC                     _PWM1_16BIT_WritePeriodRegister:
  9571                           	callstack 117
  9572  004ADC                     
  9573                           ;mcc_generated_files/pwm1_16bit.c: 144: void PWM1_16BIT_WritePeriodRegister(uint16_t per
      +                          iodCount);mcc_generated_files/pwm1_16bit.c: 145: {;mcc_generated_files/pwm1_16bit.c: 146
      +                          :     PWM1PRL = (uint8_t)periodCount;
  9574  004ADC  0061  F404  F463   	movff	PWM1_16BIT_WritePeriodRegister@periodCount,1123	;volatile
  9575  004AE2                     
  9576                           ;mcc_generated_files/pwm1_16bit.c: 147:     PWM1PRH = (uint8_t)(periodCount >> 8);
  9577  004AE2  5002               	movf	(PWM1_16BIT_WritePeriodRegister@periodCount+1)^(0+1280),w,c
  9578  004AE4  6E64               	movwf	100,c	;volatile
  9579  004AE6  0012               	return		;funcret
  9580  004AE8                     __end_of_PWM1_16BIT_WritePeriodRegister:
  9581                           	callstack 0
  9582                           
  9583 ;; *************** function _PWM1_16BIT_SetSlice1Output1DutyCycleRegister *****************
  9584 ;; Defined at:
  9585 ;;		line 150 in file "mcc_generated_files/pwm1_16bit.c"
  9586 ;; Parameters:    Size  Location     Type
  9587 ;;  registerValu    2    0[COMRAM] unsigned short 
  9588 ;; Auto vars:     Size  Location     Type
  9589 ;;		None
  9590 ;; Return value:  Size  Location     Type
  9591 ;;                  1    wreg      void 
  9592 ;; Registers used:
  9593 ;;		wreg, status,2
  9594 ;; Tracked objects:
  9595 ;;		On entry : 0/0
  9596 ;;		On exit  : 0/0
  9597 ;;		Unchanged: 0/0
  9598 ;; Data sizes:     COMRAM   BANK5   BANK6   BANK7   BANK8   BANK9  BANK10  BANK11  BANK12  BANK13  BANK14  BANK15  BANK1
      +6  BANK17  BANK18  BANK19  BANK20  BANK21  BANK22  BANK23  BANK24  BANK25  BANK26  BANK27  BANK28  BANK29  BANK30  BANK3
      +1  BANK32  BANK33  BANK34  BANK35  BANK36  BANK37
  9599 ;;      Params:         2       0       0       0       0       0       0       0       0       0       0       0       
      +0       0       0       0       0       0       0       0       0       0       0       0       0       0       0       
      +0       0       0       0       0       0       0
  9600 ;;      Locals:         0       0       0       0       0       0       0       0       0       0       0       0       
      +0       0       0       0       0       0       0       0       0       0       0       0       0       0       0       
      +0       0       0       0       0       0       0
  9601 ;;      Temps:          0       0       0       0       0       0       0       0       0       0       0       0       
      +0       0       0       0       0       0       0       0       0       0       0       0       0       0       0       
      +0       0       0       0       0       0       0
  9602 ;;      Totals:         2       0       0       0       0       0       0       0       0       0       0       0       
      +0       0       0       0       0       0       0       0       0       0       0       0       0       0       0       
      +0       0       0       0       0       0       0
  9603 ;;Total ram usage:        2 bytes
  9604 ;; Hardware stack levels used:    1
  9605 ;; This function calls:
  9606 ;;		Nothing
  9607 ;; This function is called by:
  9608 ;;		_GPIO_PWM1_Control
  9609 ;; This function uses a non-reentrant model
  9610 ;;
  9611                           
  9612                           	psect	text88
  9613  004AE8                     __ptext88:
  9614                           	callstack 0
  9615  004AE8                     _PWM1_16BIT_SetSlice1Output1DutyCycleRegister:
  9616                           	callstack 117
  9617  004AE8                     
  9618                           ;mcc_generated_files/pwm1_16bit.c: 150: void PWM1_16BIT_SetSlice1Output1DutyCycleRegiste
      +                          r(uint16_t registerValue);mcc_generated_files/pwm1_16bit.c: 151: {;mcc_generated_files/p
      +                          wm1_16bit.c: 152:     PWM1S1P1L = (uint8_t)(registerValue);
  9619  004AE8  0061  F404  F46B   	movff	PWM1_16BIT_SetSlice1Output1DutyCycleRegister@registerValue,1131	;volatile
  9620  004AEE                     
  9621                           ;mcc_generated_files/pwm1_16bit.c: 153:     PWM1S1P1H = (uint8_t)(registerValue >> 8);
  9622  004AEE  5002               	movf	(PWM1_16BIT_SetSlice1Output1DutyCycleRegister@registerValue+1)^(0+1280),w,c
  9623  004AF0  6E6C               	movwf	108,c	;volatile
  9624  004AF2  0012               	return		;funcret
  9625  004AF4                     __end_of_PWM1_16BIT_SetSlice1Output1DutyCycleRegister:
  9626                           	callstack 0
  9627                           
  9628 ;; *************** function _PWM1_16BIT_LoadBufferRegisters *****************
  9629 ;; Defined at:
  9630 ;;		line 162 in file "mcc_generated_files/pwm1_16bit.c"
  9631 ;; Parameters:    Size  Location     Type
  9632 ;;		None
  9633 ;; Auto vars:     Size  Location     Type
  9634 ;;		None
  9635 ;; Return value:  Size  Location     Type
  9636 ;;                  1    wreg      void 
  9637 ;; Registers used:
  9638 ;;		None
  9639 ;; Tracked objects:
  9640 ;;		On entry : 0/0
  9641 ;;		On exit  : 0/0
  9642 ;;		Unchanged: 0/0
  9643 ;; Data sizes:     COMRAM   BANK5   BANK6   BANK7   BANK8   BANK9  BANK10  BANK11  BANK12  BANK13  BANK14  BANK15  BANK1
      +6  BANK17  BANK18  BANK19  BANK20  BANK21  BANK22  BANK23  BANK24  BANK25  BANK26  BANK27  BANK28  BANK29  BANK30  BANK3
      +1  BANK32  BANK33  BANK34  BANK35  BANK36  BANK37
  9644 ;;      Params:         0       0       0       0       0       0       0       0       0       0       0       0       
      +0       0       0       0       0       0       0       0       0       0       0       0       0       0       0       
      +0       0       0       0       0       0       0
  9645 ;;      Locals:         0       0       0       0       0       0       0       0       0       0       0       0       
      +0       0       0       0       0       0       0       0       0       0       0       0       0       0       0       
      +0       0       0       0       0       0       0
  9646 ;;      Temps:          0       0       0       0       0       0       0       0       0       0       0       0       
      +0       0       0       0       0       0       0       0       0       0       0       0       0       0       0       
      +0       0       0       0       0       0       0
  9647 ;;      Totals:         0       0       0       0       0       0       0       0       0       0       0       0       
      +0       0       0       0       0       0       0       0       0       0       0       0       0       0       0       
      +0       0       0       0       0       0       0
  9648 ;;Total ram usage:        0 bytes
  9649 ;; Hardware stack levels used:    1
  9650 ;; This function calls:
  9651 ;;		Nothing
  9652 ;; This function is called by:
  9653 ;;		_GPIO_PWM1_Control
  9654 ;; This function uses a non-reentrant model
  9655 ;;
  9656                           
  9657                           	psect	text89
  9658  004C24                     __ptext89:
  9659                           	callstack 0
  9660  004C24                     _PWM1_16BIT_LoadBufferRegisters:
  9661                           	callstack 117
  9662  004C24                     
  9663                           ;mcc_generated_files/pwm1_16bit.c: 165:     PWM1CONbits.LD = 1;
  9664  004C24  8469               	bsf	105,2,c	;volatile
  9665  004C26  0012               	return		;funcret
  9666  004C28                     __end_of_PWM1_16BIT_LoadBufferRegisters:
  9667                           	callstack 0
  9668                           
  9669 ;; *************** function _CAN1_ReceivedMessageCountGet *****************
  9670 ;; Defined at:
  9671 ;;		line 447 in file "mcc_generated_files/can1.c"
  9672 ;; Parameters:    Size  Location     Type
  9673 ;;		None
  9674 ;; Auto vars:     Size  Location     Type
  9675 ;;  fifoHead        1    8[COMRAM] unsigned char 
  9676 ;;  fifoTail        1    7[COMRAM] unsigned char 
  9677 ;;  fifoDepth       1    6[COMRAM] unsigned char 
  9678 ;;  numOfMsg        1    3[COMRAM] unsigned char 
  9679 ;;  channel         1    5[COMRAM] enum E22386
  9680 ;;  rxMsgStatus     1    4[COMRAM] enum E22818
  9681 ;;  index           1    9[COMRAM] unsigned char 
  9682 ;;  totalMsgObj     1    2[COMRAM] unsigned char 
  9683 ;; Return value:  Size  Location     Type
  9684 ;;                  1    wreg      unsigned char 
  9685 ;; Registers used:
  9686 ;;		wreg, fsr2l, fsr2h, status,2, status,0, prodl, prodh, cstack
  9687 ;; Tracked objects:
  9688 ;;		On entry : 0/0
  9689 ;;		On exit  : 0/0
  9690 ;;		Unchanged: 0/0
  9691 ;; Data sizes:     COMRAM   BANK5   BANK6   BANK7   BANK8   BANK9  BANK10  BANK11  BANK12  BANK13  BANK14  BANK15  BANK1
      +6  BANK17  BANK18  BANK19  BANK20  BANK21  BANK22  BANK23  BANK24  BANK25  BANK26  BANK27  BANK28  BANK29  BANK30  BANK3
      +1  BANK32  BANK33  BANK34  BANK35  BANK36  BANK37
  9692 ;;      Params:         0       0       0       0       0       0       0       0       0       0       0       0       
      +0       0       0       0       0       0       0       0       0       0       0       0       0       0       0       
      +0       0       0       0       0       0       0
  9693 ;;      Locals:         8       0       0       0       0       0       0       0       0       0       0       0       
      +0       0       0       0       0       0       0       0       0       0       0       0       0       0       0       
      +0       0       0       0       0       0       0
  9694 ;;      Temps:          0       0       0       0       0       0       0       0       0       0       0       0       
      +0       0       0       0       0       0       0       0       0       0       0       0       0       0       0       
      +0       0       0       0       0       0       0
  9695 ;;      Totals:         8       0       0       0       0       0       0       0       0       0       0       0       
      +0       0       0       0       0       0       0       0       0       0       0       0       0       0       0       
      +0       0       0       0       0       0       0
  9696 ;;Total ram usage:        8 bytes
  9697 ;; Hardware stack levels used:    1
  9698 ;; Hardware stack levels required when called:    1
  9699 ;; This function calls:
  9700 ;;		_GetRxFifoDepth
  9701 ;;		_GetRxFifoStatus
  9702 ;; This function is called by:
  9703 ;;		_CANReadMessage
  9704 ;; This function uses a non-reentrant model
  9705 ;;
  9706                           
  9707                           	psect	text90
  9708  0040A6                     __ptext90:
  9709                           	callstack 0
  9710  0040A6                     _CAN1_ReceivedMessageCountGet:
  9711                           	callstack 118
  9712  0040A6                     
  9713                           ;mcc_generated_files/can1.c: 449:     uint8_t index, totalMsgObj = 0;
  9714  0040A6  0E00               	movlw	0
  9715  0040A8  6E03               	movwf	CAN1_ReceivedMessageCountGet@totalMsgObj^(0+1280),c
  9716                           
  9717                           ;mcc_generated_files/can1.c: 451:     for (index = 0; index < (1U); index++)
  9718  0040AA  0E00               	movlw	0
  9719  0040AC  6E0A               	movwf	CAN1_ReceivedMessageCountGet@index^(0+1280),c
  9720  0040AE                     i2l5224:
  9721                           
  9722                           ;mcc_generated_files/can1.c: 452:     {;mcc_generated_files/can1.c: 453:         CAN1_RX
      +                          _FIFO_CHANNELS channel = rxFifos[index].channel;
  9723  0040AE  500A               	movf	CAN1_ReceivedMessageCountGet@index^(0+1280),w,c
  9724  0040B0  0D02               	mullw	2
  9725  0040B2  0EF3               	movlw	low _rxFifos
  9726  0040B4  24F3               	addwf	243,w,c
  9727  0040B6  6ED9               	movwf	fsr2l,c
  9728  0040B8  0E05               	movlw	high _rxFifos
  9729  0040BA  20F4               	addwfc	prodh,w,c
  9730  0040BC  6EDA               	movwf	fsr2h,c
  9731  0040BE  50DF               	movf	indf2,w,c
  9732  0040C0  6E06               	movwf	CAN1_ReceivedMessageCountGet@channel^(0+1280),c
  9733  0040C2                     
  9734                           ;mcc_generated_files/can1.c: 454:         CAN_RX_FIFO_STATUS rxMsgStatus = GetRxFifoStat
      +                          us(channel);
  9735  0040C2  5006               	movf	CAN1_ReceivedMessageCountGet@channel^(0+1280),w,c
  9736  0040C4  EC3D  F025         	call	_GetRxFifoStatus
  9737  0040C8  6E05               	movwf	CAN1_ReceivedMessageCountGet@rxMsgStatus^(0+1280),c
  9738  0040CA                     
  9739                           ;mcc_generated_files/can1.c: 456:         if (CAN_RX_MSG_AVAILABLE == (rxMsgStatus & CAN
      +                          _RX_MSG_AVAILABLE))
  9740  0040CA  A005               	btfss	CAN1_ReceivedMessageCountGet@rxMsgStatus^(0+1280),0,c
  9741  0040CC  EF6A  F020         	goto	i2u386_41
  9742  0040D0  EF6C  F020         	goto	i2u386_40
  9743  0040D4                     i2u386_41:
  9744  0040D4  EFAD  F020         	goto	i2l5248
  9745  0040D8                     i2u386_40:
  9746  0040D8                     
  9747                           ;mcc_generated_files/can1.c: 457:         {;mcc_generated_files/can1.c: 458:            
      +                           uint8_t numOfMsg, fifoDepth = GetRxFifoDepth(channel);
  9748  0040D8  5006               	movf	CAN1_ReceivedMessageCountGet@channel^(0+1280),w,c
  9749  0040DA  EC16  F025         	call	_GetRxFifoDepth
  9750  0040DE  6E07               	movwf	CAN1_ReceivedMessageCountGet@fifoDepth^(0+1280),c
  9751  0040E0                     
  9752                           ;mcc_generated_files/can1.c: 460:             if (CAN_RX_MSG_OVERFLOW == (rxMsgStatus & 
      +                          CAN_RX_MSG_OVERFLOW))
  9753  0040E0  A605               	btfss	CAN1_ReceivedMessageCountGet@rxMsgStatus^(0+1280),3,c
  9754  0040E2  EF75  F020         	goto	i2u387_41
  9755  0040E6  EF77  F020         	goto	i2u387_40
  9756  0040EA                     i2u387_41:
  9757  0040EA  EF7B  F020         	goto	i2l5236
  9758  0040EE                     i2u387_40:
  9759  0040EE                     i2l5234:
  9760                           
  9761                           ;mcc_generated_files/can1.c: 461:             {;mcc_generated_files/can1.c: 462:        
      +                                   numOfMsg = fifoDepth;
  9762  0040EE  C507  F504         	movff	CAN1_ReceivedMessageCountGet@fifoDepth,CAN1_ReceivedMessageCountGet@numOfMsg
  9763                           
  9764                           ;mcc_generated_files/can1.c: 463:             }
  9765  0040F2  EFAB  F020         	goto	i2l5246
  9766  0040F6                     i2l5236:
  9767                           
  9768                           ;mcc_generated_files/can1.c: 465:             {;mcc_generated_files/can1.c: 466:        
      +                                   uint8_t fifoTail = FIFO[channel].STAH & 0x1F;
  9769  0040F6  5006               	movf	CAN1_ReceivedMessageCountGet@channel^(0+1280),w,c
  9770  0040F8  0D0C               	mullw	12
  9771  0040FA  0E55               	movlw	85
  9772  0040FC  24F3               	addwf	243,w,c
  9773  0040FE  6ED9               	movwf	fsr2l,c
  9774  004100  0E01               	movlw	1
  9775  004102  20F4               	addwfc	prodh,w,c
  9776  004104  6EDA               	movwf	fsr2h,c
  9777  004106  50DF               	movf	indf2,w,c
  9778  004108  0B1F               	andlw	31
  9779  00410A  6E08               	movwf	CAN1_ReceivedMessageCountGet@fifoTail^(0+1280),c
  9780                           
  9781                           ;mcc_generated_files/can1.c: 467:                 uint8_t fifoHead = rxFifos[index].fifo
      +                          Head;
  9782  00410C  500A               	movf	CAN1_ReceivedMessageCountGet@index^(0+1280),w,c
  9783  00410E  0D02               	mullw	2
  9784  004110  0EF4               	movlw	low (_rxFifos+1)
  9785  004112  24F3               	addwf	243,w,c
  9786  004114  6ED9               	movwf	fsr2l,c
  9787  004116  0E05               	movlw	high (_rxFifos+1)
  9788  004118  20F4               	addwfc	prodh,w,c
  9789  00411A  6EDA               	movwf	fsr2h,c
  9790  00411C  50DF               	movf	indf2,w,c
  9791  00411E  6E09               	movwf	CAN1_ReceivedMessageCountGet@fifoHead^(0+1280),c
  9792  004120                     
  9793                           ;mcc_generated_files/can1.c: 469:                 if (fifoTail < fifoHead)
  9794  004120  5009               	movf	CAN1_ReceivedMessageCountGet@fifoHead^(0+1280),w,c
  9795  004122  5C08               	subwf	CAN1_ReceivedMessageCountGet@fifoTail^(0+1280),w,c
  9796  004124  B0D8               	btfsc	status,0,c
  9797  004126  EF97  F020         	goto	i2u388_41
  9798  00412A  EF99  F020         	goto	i2u388_40
  9799  00412E                     i2u388_41:
  9800  00412E  EF9F  F020         	goto	i2l5242
  9801  004132                     i2u388_40:
  9802  004132                     
  9803                           ;mcc_generated_files/can1.c: 470:                 {;mcc_generated_files/can1.c: 471:    
      +                                           numOfMsg = ((fifoTail + fifoDepth) - fifoHead);
  9804  004132  5009               	movf	CAN1_ReceivedMessageCountGet@fifoHead^(0+1280),w,c
  9805  004134  5C08               	subwf	CAN1_ReceivedMessageCountGet@fifoTail^(0+1280),w,c
  9806  004136  2407               	addwf	CAN1_ReceivedMessageCountGet@fifoDepth^(0+1280),w,c
  9807  004138  6E04               	movwf	CAN1_ReceivedMessageCountGet@numOfMsg^(0+1280),c
  9808                           
  9809                           ;mcc_generated_files/can1.c: 472:                 }
  9810  00413A  EFAB  F020         	goto	i2l5246
  9811  00413E                     i2l5242:
  9812  00413E  5008               	movf	CAN1_ReceivedMessageCountGet@fifoTail^(0+1280),w,c
  9813  004140  5C09               	subwf	CAN1_ReceivedMessageCountGet@fifoHead^(0+1280),w,c
  9814  004142  B0D8               	btfsc	status,0,c
  9815  004144  EFA6  F020         	goto	i2u389_41
  9816  004148  EFA8  F020         	goto	i2u389_40
  9817  00414C                     i2u389_41:
  9818  00414C  EF77  F020         	goto	i2l5234
  9819  004150                     i2u389_40:
  9820  004150                     
  9821                           ;mcc_generated_files/can1.c: 474:                 {;mcc_generated_files/can1.c: 475:    
      +                                           numOfMsg = fifoTail - fifoHead;
  9822  004150  5009               	movf	CAN1_ReceivedMessageCountGet@fifoHead^(0+1280),w,c
  9823  004152  5C08               	subwf	CAN1_ReceivedMessageCountGet@fifoTail^(0+1280),w,c
  9824  004154  6E04               	movwf	CAN1_ReceivedMessageCountGet@numOfMsg^(0+1280),c
  9825  004156                     i2l5246:
  9826                           
  9827                           ;mcc_generated_files/can1.c: 483:             totalMsgObj += numOfMsg;
  9828  004156  5004               	movf	CAN1_ReceivedMessageCountGet@numOfMsg^(0+1280),w,c
  9829  004158  2603               	addwf	CAN1_ReceivedMessageCountGet@totalMsgObj^(0+1280),f,c
  9830  00415A                     i2l5248:
  9831                           
  9832                           ;mcc_generated_files/can1.c: 485:     }
  9833  00415A  2A0A               	incf	CAN1_ReceivedMessageCountGet@index^(0+1280),f,c
  9834  00415C  500A               	movf	CAN1_ReceivedMessageCountGet@index^(0+1280),w,c
  9835  00415E  B4D8               	btfsc	status,2,c
  9836  004160  EFB4  F020         	goto	i2u390_41
  9837  004164  EFB6  F020         	goto	i2u390_40
  9838  004168                     i2u390_41:
  9839  004168  EF57  F020         	goto	i2l5224
  9840  00416C                     i2u390_40:
  9841  00416C                     
  9842                           ;mcc_generated_files/can1.c: 487:     return totalMsgObj;
  9843  00416C  5003               	movf	CAN1_ReceivedMessageCountGet@totalMsgObj^(0+1280),w,c
  9844  00416E  0012               	return		;funcret
  9845  004170                     __end_of_CAN1_ReceivedMessageCountGet:
  9846                           	callstack 0
  9847                           
  9848 ;; *************** function _CAN1_Receive *****************
  9849 ;; Defined at:
  9850 ;;		line 412 in file "mcc_generated_files/can1.c"
  9851 ;; Parameters:    Size  Location     Type
  9852 ;;  rxCanMsg        2   33[COMRAM] PTR struct .
  9853 ;;		 -> msgReceipt(7), 
  9854 ;; Auto vars:     Size  Location     Type
  9855 ;;  index           1   36[COMRAM] unsigned char 
  9856 ;;  status          1   35[COMRAM] _Bool 
  9857 ;; Return value:  Size  Location     Type
  9858 ;;                  1    wreg      _Bool 
  9859 ;; Registers used:
  9860 ;;		wreg, fsr2l, fsr2h, status,2, status,0, tblptrl, tblptrh, tblptru, prodl, prodh, cstack
  9861 ;; Tracked objects:
  9862 ;;		On entry : 0/0
  9863 ;;		On exit  : 0/0
  9864 ;;		Unchanged: 0/0
  9865 ;; Data sizes:     COMRAM   BANK5   BANK6   BANK7   BANK8   BANK9  BANK10  BANK11  BANK12  BANK13  BANK14  BANK15  BANK1
      +6  BANK17  BANK18  BANK19  BANK20  BANK21  BANK22  BANK23  BANK24  BANK25  BANK26  BANK27  BANK28  BANK29  BANK30  BANK3
      +1  BANK32  BANK33  BANK34  BANK35  BANK36  BANK37
  9866 ;;      Params:         2       0       0       0       0       0       0       0       0       0       0       0       
      +0       0       0       0       0       0       0       0       0       0       0       0       0       0       0       
      +0       0       0       0       0       0       0
  9867 ;;      Locals:         2       0       0       0       0       0       0       0       0       0       0       0       
      +0       0       0       0       0       0       0       0       0       0       0       0       0       0       0       
      +0       0       0       0       0       0       0
  9868 ;;      Temps:          0       0       0       0       0       0       0       0       0       0       0       0       
      +0       0       0       0       0       0       0       0       0       0       0       0       0       0       0       
      +0       0       0       0       0       0       0
  9869 ;;      Totals:         4       0       0       0       0       0       0       0       0       0       0       0       
      +0       0       0       0       0       0       0       0       0       0       0       0       0       0       0       
      +0       0       0       0       0       0       0
  9870 ;;Total ram usage:        4 bytes
  9871 ;; Hardware stack levels used:    1
  9872 ;; Hardware stack levels required when called:    3
  9873 ;; This function calls:
  9874 ;;		_Receive
  9875 ;; This function is called by:
  9876 ;;		_CANReadMessage
  9877 ;; This function uses a non-reentrant model
  9878 ;;
  9879                           
  9880                           	psect	text91
  9881  004676                     __ptext91:
  9882                           	callstack 0
  9883  004676                     _CAN1_Receive:
  9884                           	callstack 116
  9885  004676                     
  9886                           ;mcc_generated_files/can1.c: 417:     for (index = 0; index < (1U); index++)
  9887  004676  0E00               	movlw	0
  9888  004678  6E25               	movwf	CAN1_Receive@index^(0+1280),c
  9889  00467A                     i2l5206:
  9890                           
  9891                           ;mcc_generated_files/can1.c: 418:     {;mcc_generated_files/can1.c: 419:         status 
      +                          = Receive(index, rxFifos[index].channel, rxCanMsg);
  9892  00467A  5025               	movf	CAN1_Receive@index^(0+1280),w,c
  9893  00467C  0D02               	mullw	2
  9894  00467E  0EF3               	movlw	low _rxFifos
  9895  004680  24F3               	addwf	243,w,c
  9896  004682  6ED9               	movwf	fsr2l,c
  9897  004684  0E05               	movlw	high _rxFifos
  9898  004686  20F4               	addwfc	prodh,w,c
  9899  004688  6EDA               	movwf	fsr2h,c
  9900  00468A  50DF               	movf	indf2,w,c
  9901  00468C  6E18               	movwf	Receive@channel^(0+1280),c
  9902  00468E  C522  F519         	movff	CAN1_Receive@rxCanMsg,Receive@rxCanMsg
  9903  004692  C523  F51A         	movff	CAN1_Receive@rxCanMsg+1,Receive@rxCanMsg+1
  9904  004696  5025               	movf	CAN1_Receive@index^(0+1280),w,c
  9905  004698  ECDD  F01F         	call	_Receive
  9906  00469C  6E24               	movwf	CAN1_Receive@status^(0+1280),c
  9907  00469E                     
  9908                           ;mcc_generated_files/can1.c: 421:         if (status)
  9909  00469E  5024               	movf	CAN1_Receive@status^(0+1280),w,c
  9910  0046A0  B4D8               	btfsc	status,2,c
  9911  0046A2  EF55  F023         	goto	i2u384_41
  9912  0046A6  EF57  F023         	goto	i2u384_40
  9913  0046AA                     i2u384_41:
  9914  0046AA  EF59  F023         	goto	i2l5212
  9915  0046AE                     i2u384_40:
  9916  0046AE  EF62  F023         	goto	i2l5216
  9917  0046B2                     i2l5212:
  9918                           
  9919                           ;mcc_generated_files/can1.c: 425:     }
  9920  0046B2  2A25               	incf	CAN1_Receive@index^(0+1280),f,c
  9921  0046B4  5025               	movf	CAN1_Receive@index^(0+1280),w,c
  9922  0046B6  B4D8               	btfsc	status,2,c
  9923  0046B8  EF60  F023         	goto	i2u385_41
  9924  0046BC  EF62  F023         	goto	i2u385_40
  9925  0046C0                     i2u385_41:
  9926  0046C0  EF3D  F023         	goto	i2l5206
  9927  0046C4                     i2u385_40:
  9928  0046C4                     i2l5216:
  9929                           
  9930                           ;mcc_generated_files/can1.c: 427:     return status;
  9931  0046C4  5024               	movf	CAN1_Receive@status^(0+1280),w,c
  9932  0046C6  0012               	return		;funcret
  9933  0046C8                     __end_of_CAN1_Receive:
  9934                           	callstack 0
  9935                           
  9936 ;; *************** function _Receive *****************
  9937 ;; Defined at:
  9938 ;;		line 380 in file "mcc_generated_files/can1.c"
  9939 ;; Parameters:    Size  Location     Type
  9940 ;;  index           1    wreg     unsigned char 
  9941 ;;  channel         1   23[COMRAM] enum E22386
  9942 ;;  rxCanMsg        2   24[COMRAM] PTR struct .
  9943 ;;		 -> msgReceipt(7), 
  9944 ;; Auto vars:     Size  Location     Type
  9945 ;;  index           1   32[COMRAM] unsigned char 
  9946 ;;  rxFifoObj       2   29[COMRAM] PTR unsigned char 
  9947 ;;		 -> RAM(9727), 
  9948 ;;  rxMsgStatus     1   31[COMRAM] enum E22818
  9949 ;;  status          1   28[COMRAM] _Bool 
  9950 ;; Return value:  Size  Location     Type
  9951 ;;                  1    wreg      _Bool 
  9952 ;; Registers used:
  9953 ;;		wreg, fsr2l, fsr2h, status,2, status,0, tblptrl, tblptrh, tblptru, prodl, prodh, cstack
  9954 ;; Tracked objects:
  9955 ;;		On entry : 0/0
  9956 ;;		On exit  : 0/0
  9957 ;;		Unchanged: 0/0
  9958 ;; Data sizes:     COMRAM   BANK5   BANK6   BANK7   BANK8   BANK9  BANK10  BANK11  BANK12  BANK13  BANK14  BANK15  BANK1
      +6  BANK17  BANK18  BANK19  BANK20  BANK21  BANK22  BANK23  BANK24  BANK25  BANK26  BANK27  BANK28  BANK29  BANK30  BANK3
      +1  BANK32  BANK33  BANK34  BANK35  BANK36  BANK37
  9959 ;;      Params:         3       0       0       0       0       0       0       0       0       0       0       0       
      +0       0       0       0       0       0       0       0       0       0       0       0       0       0       0       
      +0       0       0       0       0       0       0
  9960 ;;      Locals:         5       0       0       0       0       0       0       0       0       0       0       0       
      +0       0       0       0       0       0       0       0       0       0       0       0       0       0       0       
      +0       0       0       0       0       0       0
  9961 ;;      Temps:          2       0       0       0       0       0       0       0       0       0       0       0       
      +0       0       0       0       0       0       0       0       0       0       0       0       0       0       0       
      +0       0       0       0       0       0       0
  9962 ;;      Totals:        10       0       0       0       0       0       0       0       0       0       0       0       
      +0       0       0       0       0       0       0       0       0       0       0       0       0       0       0       
      +0       0       0       0       0       0       0
  9963 ;;Total ram usage:       10 bytes
  9964 ;; Hardware stack levels used:    1
  9965 ;; Hardware stack levels required when called:    2
  9966 ;; This function calls:
  9967 ;;		_GetRxFifoDepth
  9968 ;;		_GetRxFifoStatus
  9969 ;;		_ReadMessageFromFifo
  9970 ;; This function is called by:
  9971 ;;		_CAN1_Receive
  9972 ;;		_CAN1_ReceiveFrom
  9973 ;; This function uses a non-reentrant model
  9974 ;;
  9975                           
  9976                           	psect	text92
  9977  003FBA                     __ptext92:
  9978                           	callstack 0
  9979  003FBA                     _Receive:
  9980                           	callstack 116
  9981                           
  9982                           ;incstack = 0
  9983                           ;Receive@index stored from wreg
  9984  003FBA  6E21               	movwf	Receive@index^(0+1280),c
  9985  003FBC                     
  9986                           ;mcc_generated_files/can1.c: 380: static _Bool Receive(uint8_t index, CAN1_RX_FIFO_CHANN
      +                          ELS channel, CAN_MSG_OBJ *rxCanMsg);mcc_generated_files/can1.c: 381: {;mcc_generated_fil
      +                          es/can1.c: 382:     _Bool status = 0;
  9987  003FBC  0E00               	movlw	0
  9988  003FBE  6E1D               	movwf	Receive@status^(0+1280),c
  9989  003FC0                     
  9990                           ;mcc_generated_files/can1.c: 383:     CAN_RX_FIFO_STATUS rxMsgStatus = GetRxFifoStatus(c
      +                          hannel);
  9991  003FC0  5018               	movf	Receive@channel^(0+1280),w,c
  9992  003FC2  EC3D  F025         	call	_GetRxFifoStatus
  9993  003FC6  6E20               	movwf	Receive@rxMsgStatus^(0+1280),c
  9994  003FC8                     
  9995                           ;mcc_generated_files/can1.c: 385:     if (CAN_RX_MSG_AVAILABLE == (rxMsgStatus & CAN_RX_
      +                          MSG_AVAILABLE))
  9996  003FC8  A020               	btfss	Receive@rxMsgStatus^(0+1280),0,c
  9997  003FCA  EFE9  F01F         	goto	i2u361_41
  9998  003FCE  EFEB  F01F         	goto	i2u361_40
  9999  003FD2                     i2u361_41:
 10000  003FD2  EF51  F020         	goto	i2l5034
 10001  003FD6                     i2u361_40:
 10002  003FD6                     
 10003                           ;mcc_generated_files/can1.c: 386:     {;mcc_generated_files/can1.c: 387:         uint8_t
      +                           *rxFifoObj = (uint8_t *) FIFO[channel].UA;
 10004  003FD6  5018               	movf	Receive@channel^(0+1280),w,c
 10005  003FD8  0D0C               	mullw	12
 10006  003FDA  0E58               	movlw	88
 10007  003FDC  24F3               	addwf	243,w,c
 10008  003FDE  6ED9               	movwf	fsr2l,c
 10009  003FE0  0E01               	movlw	1
 10010  003FE2  20F4               	addwfc	prodh,w,c
 10011  003FE4  6EDA               	movwf	fsr2h,c
 10012  003FE6  0061 F378  F51E    	movff	postinc2,Receive@rxFifoObj
 10013  003FEC  0061 F374  F51F    	movff	postdec2,Receive@rxFifoObj+1
 10014  003FF2                     
 10015                           ;mcc_generated_files/can1.c: 389:         if (rxFifoObj != ((void*)0))
 10016  003FF2  501E               	movf	Receive@rxFifoObj^(0+1280),w,c
 10017  003FF4  101F               	iorwf	(Receive@rxFifoObj+1)^(0+1280),w,c
 10018  003FF6  B4D8               	btfsc	status,2,c
 10019  003FF8  EF00  F020         	goto	i2u362_41
 10020  003FFC  EF02  F020         	goto	i2u362_40
 10021  004000                     i2u362_41:
 10022  004000  EF51  F020         	goto	i2l5034
 10023  004004                     i2u362_40:
 10024  004004                     
 10025                           ;mcc_generated_files/can1.c: 390:         {;mcc_generated_files/can1.c: 391:            
      +                           ReadMessageFromFifo(rxFifoObj, rxCanMsg);
 10026  004004  C51E  F50C         	movff	Receive@rxFifoObj,ReadMessageFromFifo@rxFifoObj
 10027  004008  C51F  F50D         	movff	Receive@rxFifoObj+1,ReadMessageFromFifo@rxFifoObj+1
 10028  00400C  C519  F50E         	movff	Receive@rxCanMsg,ReadMessageFromFifo@rxCanMsg
 10029  004010  C51A  F50F         	movff	Receive@rxCanMsg+1,ReadMessageFromFifo@rxCanMsg+1
 10030  004014  EC21  F01A         	call	_ReadMessageFromFifo	;wreg free
 10031  004018                     
 10032                           ;mcc_generated_files/can1.c: 392:             FIFO[channel].CONH |= 0x1;
 10033  004018  5018               	movf	Receive@channel^(0+1280),w,c
 10034  00401A  0D0C               	mullw	12
 10035  00401C  0E51               	movlw	81
 10036  00401E  24F3               	addwf	243,w,c
 10037  004020  6ED9               	movwf	fsr2l,c
 10038  004022  0E01               	movlw	1
 10039  004024  20F4               	addwfc	prodh,w,c
 10040  004026  6EDA               	movwf	fsr2h,c
 10041  004028  0E00               	movlw	0
 10042  00402A  80DB               	bsf	plusw2,0,c
 10043  00402C                     
 10044                           ;mcc_generated_files/can1.c: 394:             rxFifos[index].fifoHead += 1;
 10045  00402C  5021               	movf	Receive@index^(0+1280),w,c
 10046  00402E  0D02               	mullw	2
 10047  004030  0EF4               	movlw	low (_rxFifos+1)
 10048  004032  24F3               	addwf	243,w,c
 10049  004034  6ED9               	movwf	fsr2l,c
 10050  004036  0E05               	movlw	high (_rxFifos+1)
 10051  004038  20F4               	addwfc	prodh,w,c
 10052  00403A  6EDA               	movwf	fsr2h,c
 10053  00403C  2ADF               	incf	indf2,f,c
 10054  00403E                     
 10055                           ;mcc_generated_files/can1.c: 395:             if (rxFifos[index].fifoHead >= GetRxFifoDe
      +                          pth(channel))
 10056  00403E  5018               	movf	Receive@channel^(0+1280),w,c
 10057  004040  EC16  F025         	call	_GetRxFifoDepth
 10058  004044  6E1B               	movwf	??_Receive^(0+1280),c
 10059  004046  5021               	movf	Receive@index^(0+1280),w,c
 10060  004048  0D02               	mullw	2
 10061  00404A  0EF4               	movlw	low (_rxFifos+1)
 10062  00404C  24F3               	addwf	243,w,c
 10063  00404E  6ED9               	movwf	fsr2l,c
 10064  004050  0E05               	movlw	high (_rxFifos+1)
 10065  004052  20F4               	addwfc	prodh,w,c
 10066  004054  6EDA               	movwf	fsr2h,c
 10067  004056  501B               	movf	??_Receive^(0+1280),w,c
 10068  004058  5CDE               	subwf	postinc2,w,c
 10069  00405A  A0D8               	btfss	status,0,c
 10070  00405C  EF32  F020         	goto	i2u363_41
 10071  004060  EF34  F020         	goto	i2u363_40
 10072  004064                     i2u363_41:
 10073  004064  EF3E  F020         	goto	i2l5028
 10074  004068                     i2u363_40:
 10075  004068                     
 10076                           ;mcc_generated_files/can1.c: 396:             {;mcc_generated_files/can1.c: 397:        
      +                                   rxFifos[index].fifoHead = 0;
 10077  004068  5021               	movf	Receive@index^(0+1280),w,c
 10078  00406A  0D02               	mullw	2
 10079  00406C  0EF4               	movlw	low (_rxFifos+1)
 10080  00406E  24F3               	addwf	243,w,c
 10081  004070  6ED9               	movwf	fsr2l,c
 10082  004072  0E05               	movlw	high (_rxFifos+1)
 10083  004074  20F4               	addwfc	prodh,w,c
 10084  004076  6EDA               	movwf	fsr2h,c
 10085  004078  0E00               	movlw	0
 10086  00407A  6EDF               	movwf	indf2,c
 10087  00407C                     i2l5028:
 10088                           
 10089                           ;mcc_generated_files/can1.c: 400:             if (CAN_RX_MSG_OVERFLOW == (rxMsgStatus & 
      +                          CAN_RX_MSG_OVERFLOW))
 10090  00407C  A620               	btfss	Receive@rxMsgStatus^(0+1280),3,c
 10091  00407E  EF43  F020         	goto	i2u364_41
 10092  004082  EF45  F020         	goto	i2u364_40
 10093  004086                     i2u364_41:
 10094  004086  EF4F  F020         	goto	i2l5032
 10095  00408A                     i2u364_40:
 10096  00408A                     
 10097                           ;mcc_generated_files/can1.c: 401:             {;mcc_generated_files/can1.c: 402:        
      +                                   FIFO[channel].STAL &= ~0x8;
 10098  00408A  5018               	movf	Receive@channel^(0+1280),w,c
 10099  00408C  0D0C               	mullw	12
 10100  00408E  0E54               	movlw	84
 10101  004090  24F3               	addwf	243,w,c
 10102  004092  6ED9               	movwf	fsr2l,c
 10103  004094  0E01               	movlw	1
 10104  004096  20F4               	addwfc	prodh,w,c
 10105  004098  6EDA               	movwf	fsr2h,c
 10106  00409A  0EF7               	movlw	247
 10107  00409C  16DF               	andwf	indf2,f,c
 10108  00409E                     i2l5032:
 10109                           
 10110                           ;mcc_generated_files/can1.c: 405:             status = 1;
 10111  00409E  0E01               	movlw	1
 10112  0040A0  6E1D               	movwf	Receive@status^(0+1280),c
 10113  0040A2                     i2l5034:
 10114                           
 10115                           ;mcc_generated_files/can1.c: 409:     return status;
 10116  0040A2  501D               	movf	Receive@status^(0+1280),w,c
 10117  0040A4  0012               	return		;funcret
 10118  0040A6                     __end_of_Receive:
 10119                           	callstack 0
 10120                           
 10121 ;; *************** function _ReadMessageFromFifo *****************
 10122 ;; Defined at:
 10123 ;;		line 346 in file "mcc_generated_files/can1.c"
 10124 ;; Parameters:    Size  Location     Type
 10125 ;;  rxFifoObj       2   11[COMRAM] PTR unsigned char 
 10126 ;;		 -> RAM(9727), 
 10127 ;;  rxCanMsg        2   13[COMRAM] PTR struct .
 10128 ;;		 -> msgReceipt(7), 
 10129 ;; Auto vars:     Size  Location     Type
 10130 ;;  msgId           4   18[COMRAM] unsigned long 
 10131 ;;  status          1   22[COMRAM] unsigned char 
 10132 ;;  payloadOffse    1    0        const unsigned char 
 10133 ;; Return value:  Size  Location     Type
 10134 ;;                  1    wreg      void 
 10135 ;; Registers used:
 10136 ;;		wreg, fsr2l, fsr2h, status,2, status,0, tblptrl, tblptrh, tblptru, cstack
 10137 ;; Tracked objects:
 10138 ;;		On entry : 0/0
 10139 ;;		On exit  : 0/0
 10140 ;;		Unchanged: 0/0
 10141 ;; Data sizes:     COMRAM   BANK5   BANK6   BANK7   BANK8   BANK9  BANK10  BANK11  BANK12  BANK13  BANK14  BANK15  BANK1
      +6  BANK17  BANK18  BANK19  BANK20  BANK21  BANK22  BANK23  BANK24  BANK25  BANK26  BANK27  BANK28  BANK29  BANK30  BANK3
      +1  BANK32  BANK33  BANK34  BANK35  BANK36  BANK37
 10142 ;;      Params:         4       0       0       0       0       0       0       0       0       0       0       0       
      +0       0       0       0       0       0       0       0       0       0       0       0       0       0       0       
      +0       0       0       0       0       0       0
 10143 ;;      Locals:         6       0       0       0       0       0       0       0       0       0       0       0       
      +0       0       0       0       0       0       0       0       0       0       0       0       0       0       0       
      +0       0       0       0       0       0       0
 10144 ;;      Temps:          2       0       0       0       0       0       0       0       0       0       0       0       
      +0       0       0       0       0       0       0       0       0       0       0       0       0       0       0       
      +0       0       0       0       0       0       0
 10145 ;;      Totals:        12       0       0       0       0       0       0       0       0       0       0       0       
      +0       0       0       0       0       0       0       0       0       0       0       0       0       0       0       
      +0       0       0       0       0       0       0
 10146 ;;Total ram usage:       12 bytes
 10147 ;; Hardware stack levels used:    1
 10148 ;; Hardware stack levels required when called:    1
 10149 ;; This function calls:
 10150 ;;		_memcpy
 10151 ;; This function is called by:
 10152 ;;		_Receive
 10153 ;; This function uses a non-reentrant model
 10154 ;;
 10155                           
 10156                           	psect	text93
 10157  003442                     __ptext93:
 10158                           	callstack 0
 10159  003442                     _ReadMessageFromFifo:
 10160                           	callstack 116
 10161  003442                     
 10162                           ;mcc_generated_files/can1.c: 346: static void ReadMessageFromFifo(uint8_t *rxFifoObj, CA
      +                          N_MSG_OBJ *rxCanMsg);mcc_generated_files/can1.c: 347: {;mcc_generated_files/can1.c: 348:
      +                               uint32_t msgId;;mcc_generated_files/can1.c: 349:     uint8_t status = rxFifoObj[4];
 10163  003442  EE20 F004          	lfsr	2,4
 10164  003446  500C               	movf	ReadMessageFromFifo@rxFifoObj^(0+1280),w,c
 10165  003448  26D9               	addwf	fsr2l,f,c
 10166  00344A  500D               	movf	(ReadMessageFromFifo@rxFifoObj+1)^(0+1280),w,c
 10167  00344C  22DA               	addwfc	fsr2h,f,c
 10168  00344E  50DF               	movf	indf2,w,c
 10169  003450  6E17               	movwf	ReadMessageFromFifo@status^(0+1280),c
 10170  003452                     
 10171                           ;mcc_generated_files/can1.c: 356:     rxCanMsg->field.dlc = status;
 10172  003452  C517  F510         	movff	ReadMessageFromFifo@status,??_ReadMessageFromFifo
 10173  003456  EE20 F004          	lfsr	2,4
 10174  00345A  500E               	movf	ReadMessageFromFifo@rxCanMsg^(0+1280),w,c
 10175  00345C  26D9               	addwf	fsr2l,f,c
 10176  00345E  500F               	movf	(ReadMessageFromFifo@rxCanMsg+1)^(0+1280),w,c
 10177  003460  22DA               	addwfc	fsr2h,f,c
 10178  003462  4610               	rlncf	??_ReadMessageFromFifo^(0+1280),f,c
 10179  003464  4610               	rlncf	??_ReadMessageFromFifo^(0+1280),f,c
 10180  003466  50DF               	movf	479,w,c
 10181  003468  1810               	xorwf	??_ReadMessageFromFifo^(0+1280),w,c
 10182  00346A  0BC3               	andlw	-61
 10183  00346C  1810               	xorwf	??_ReadMessageFromFifo^(0+1280),w,c
 10184  00346E  6EDF               	movwf	479,c
 10185  003470                     
 10186                           ;mcc_generated_files/can1.c: 357:     rxCanMsg->field.idType = (status & (1UL << (4U))) 
      +                          ? CAN_FRAME_EXT : CAN_FRAME_STD;
 10187  003470  B817               	btfsc	ReadMessageFromFifo@status^(0+1280),4,c
 10188  003472  EF3D  F01A         	goto	i2u284_41
 10189  003476  EF41  F01A         	goto	i2u284_40
 10190  00347A                     i2u284_41:
 10191  00347A  6A10               	clrf	??_ReadMessageFromFifo^(0+1280),c
 10192  00347C  2A10               	incf	??_ReadMessageFromFifo^(0+1280),f,c
 10193  00347E  EF42  F01A         	goto	i2u285_48
 10194  003482                     i2u284_40:
 10195  003482  6A10               	clrf	??_ReadMessageFromFifo^(0+1280),c
 10196  003484                     i2u285_48:
 10197  003484  EE20 F004          	lfsr	2,4
 10198  003488  500E               	movf	ReadMessageFromFifo@rxCanMsg^(0+1280),w,c
 10199  00348A  26D9               	addwf	fsr2l,f,c
 10200  00348C  500F               	movf	(ReadMessageFromFifo@rxCanMsg+1)^(0+1280),w,c
 10201  00348E  22DA               	addwfc	fsr2h,f,c
 10202  003490  50DF               	movf	479,w,c
 10203  003492  1810               	xorwf	??_ReadMessageFromFifo^(0+1280),w,c
 10204  003494  0BFE               	andlw	-2
 10205  003496  1810               	xorwf	??_ReadMessageFromFifo^(0+1280),w,c
 10206  003498  6EDF               	movwf	479,c
 10207  00349A                     
 10208                           ;mcc_generated_files/can1.c: 358:     rxCanMsg->field.frameType = (status & (1UL << (5U)
      +                          )) ? CAN_FRAME_RTR : CAN_FRAME_DATA;
 10209  00349A  BA17               	btfsc	ReadMessageFromFifo@status^(0+1280),5,c
 10210  00349C  EF52  F01A         	goto	i2u286_41
 10211  0034A0  EF56  F01A         	goto	i2u286_40
 10212  0034A4                     i2u286_41:
 10213  0034A4  6A10               	clrf	??_ReadMessageFromFifo^(0+1280),c
 10214  0034A6  2A10               	incf	??_ReadMessageFromFifo^(0+1280),f,c
 10215  0034A8  EF57  F01A         	goto	i2u287_48
 10216  0034AC                     i2u286_40:
 10217  0034AC  6A10               	clrf	??_ReadMessageFromFifo^(0+1280),c
 10218  0034AE                     i2u287_48:
 10219  0034AE  EE20 F004          	lfsr	2,4
 10220  0034B2  500E               	movf	ReadMessageFromFifo@rxCanMsg^(0+1280),w,c
 10221  0034B4  26D9               	addwf	fsr2l,f,c
 10222  0034B6  500F               	movf	(ReadMessageFromFifo@rxCanMsg+1)^(0+1280),w,c
 10223  0034B8  22DA               	addwfc	fsr2h,f,c
 10224  0034BA  4610               	rlncf	??_ReadMessageFromFifo^(0+1280),f,c
 10225  0034BC  50DF               	movf	479,w,c
 10226  0034BE  1810               	xorwf	??_ReadMessageFromFifo^(0+1280),w,c
 10227  0034C0  0BFD               	andlw	-3
 10228  0034C2  1810               	xorwf	??_ReadMessageFromFifo^(0+1280),w,c
 10229  0034C4  6EDF               	movwf	479,c
 10230  0034C6                     
 10231                           ;mcc_generated_files/can1.c: 359:     rxCanMsg->field.brs = (status & (1UL << (6U))) ? C
      +                          AN_BRS_MODE : CAN_NON_BRS_MODE;
 10232  0034C6  BC17               	btfsc	ReadMessageFromFifo@status^(0+1280),6,c
 10233  0034C8  EF68  F01A         	goto	i2u288_41
 10234  0034CC  EF6C  F01A         	goto	i2u288_40
 10235  0034D0                     i2u288_41:
 10236  0034D0  6A10               	clrf	??_ReadMessageFromFifo^(0+1280),c
 10237  0034D2  2A10               	incf	??_ReadMessageFromFifo^(0+1280),f,c
 10238  0034D4  EF6D  F01A         	goto	i2u289_48
 10239  0034D8                     i2u288_40:
 10240  0034D8  6A10               	clrf	??_ReadMessageFromFifo^(0+1280),c
 10241  0034DA                     i2u289_48:
 10242  0034DA  EE20 F004          	lfsr	2,4
 10243  0034DE  500E               	movf	ReadMessageFromFifo@rxCanMsg^(0+1280),w,c
 10244  0034E0  26D9               	addwf	fsr2l,f,c
 10245  0034E2  500F               	movf	(ReadMessageFromFifo@rxCanMsg+1)^(0+1280),w,c
 10246  0034E4  22DA               	addwfc	fsr2h,f,c
 10247  0034E6  3210               	rrcf	??_ReadMessageFromFifo^(0+1280),f,c
 10248  0034E8  3210               	rrcf	??_ReadMessageFromFifo^(0+1280),f,c
 10249  0034EA  50DF               	movf	479,w,c
 10250  0034EC  1810               	xorwf	??_ReadMessageFromFifo^(0+1280),w,c
 10251  0034EE  0B7F               	andlw	-129
 10252  0034F0  1810               	xorwf	??_ReadMessageFromFifo^(0+1280),w,c
 10253  0034F2  6EDF               	movwf	479,c
 10254  0034F4                     
 10255                           ;mcc_generated_files/can1.c: 360:     rxCanMsg->field.formatType = (status & (1UL << (7U
      +                          ))) ? CAN_FRAME_EXT : CAN_FRAME_STD;
 10256  0034F4  BE17               	btfsc	ReadMessageFromFifo@status^(0+1280),7,c
 10257  0034F6  EF7F  F01A         	goto	i2u290_41
 10258  0034FA  EF83  F01A         	goto	i2u290_40
 10259  0034FE                     i2u290_41:
 10260  0034FE  6A10               	clrf	??_ReadMessageFromFifo^(0+1280),c
 10261  003500  2A10               	incf	??_ReadMessageFromFifo^(0+1280),f,c
 10262  003502  EF84  F01A         	goto	i2u291_48
 10263  003506                     i2u290_40:
 10264  003506  6A10               	clrf	??_ReadMessageFromFifo^(0+1280),c
 10265  003508                     i2u291_48:
 10266  003508  EE20 F004          	lfsr	2,4
 10267  00350C  500E               	movf	ReadMessageFromFifo@rxCanMsg^(0+1280),w,c
 10268  00350E  26D9               	addwf	fsr2l,f,c
 10269  003510  500F               	movf	(ReadMessageFromFifo@rxCanMsg+1)^(0+1280),w,c
 10270  003512  22DA               	addwfc	fsr2h,f,c
 10271  003514  3A10               	swapf	??_ReadMessageFromFifo^(0+1280),f,c
 10272  003516  4610               	rlncf	??_ReadMessageFromFifo^(0+1280),f,c
 10273  003518  4610               	rlncf	??_ReadMessageFromFifo^(0+1280),f,c
 10274  00351A  50DF               	movf	479,w,c
 10275  00351C  1810               	xorwf	??_ReadMessageFromFifo^(0+1280),w,c
 10276  00351E  0BBF               	andlw	-65
 10277  003520  1810               	xorwf	??_ReadMessageFromFifo^(0+1280),w,c
 10278  003522  6EDF               	movwf	479,c
 10279  003524                     
 10280                           ;mcc_generated_files/can1.c: 362:     msgId = rxFifoObj[1] & (0x07U);
 10281  003524  EE20 F001          	lfsr	2,1
 10282  003528  500C               	movf	ReadMessageFromFifo@rxFifoObj^(0+1280),w,c
 10283  00352A  26D9               	addwf	fsr2l,f,c
 10284  00352C  500D               	movf	(ReadMessageFromFifo@rxFifoObj+1)^(0+1280),w,c
 10285  00352E  22DA               	addwfc	fsr2h,f,c
 10286  003530  50DF               	movf	indf2,w,c
 10287  003532  6E10               	movwf	??_ReadMessageFromFifo^(0+1280),c
 10288  003534  0E07               	movlw	7
 10289  003536  1610               	andwf	??_ReadMessageFromFifo^(0+1280),f,c
 10290  003538  5010               	movf	??_ReadMessageFromFifo^(0+1280),w,c
 10291  00353A  6E13               	movwf	ReadMessageFromFifo@msgId^(0+1280),c
 10292  00353C  6A14               	clrf	(ReadMessageFromFifo@msgId+1)^(0+1280),c
 10293  00353E  6A15               	clrf	(ReadMessageFromFifo@msgId+2)^(0+1280),c
 10294  003540  6A16               	clrf	(ReadMessageFromFifo@msgId+3)^(0+1280),c
 10295  003542                     
 10296                           ;mcc_generated_files/can1.c: 363:     msgId <<= (8U);
 10297  003542  C515  F516         	movff	ReadMessageFromFifo@msgId+2,ReadMessageFromFifo@msgId+3
 10298  003546  C514  F515         	movff	ReadMessageFromFifo@msgId+1,ReadMessageFromFifo@msgId+2
 10299  00354A  C513  F514         	movff	ReadMessageFromFifo@msgId,ReadMessageFromFifo@msgId+1
 10300  00354E  6A13               	clrf	ReadMessageFromFifo@msgId^(0+1280),c
 10301  003550                     
 10302                           ;mcc_generated_files/can1.c: 364:     msgId |= rxFifoObj[0];
 10303  003550  0061  F430  F4D9   	movff	ReadMessageFromFifo@rxFifoObj,fsr2l
 10304  003556  0061  F434  F4DA   	movff	ReadMessageFromFifo@rxFifoObj+1,fsr2h
 10305  00355C  50DF               	movf	indf2,w,c
 10306  00355E  6E10               	movwf	??_ReadMessageFromFifo^(0+1280),c
 10307  003560  5010               	movf	??_ReadMessageFromFifo^(0+1280),w,c
 10308  003562  1213               	iorwf	ReadMessageFromFifo@msgId^(0+1280),f,c
 10309  003564                     
 10310                           ;mcc_generated_files/can1.c: 365:     if (CAN_FRAME_EXT == rxCanMsg->field.idType)
 10311  003564  EE20 F004          	lfsr	2,4
 10312  003568  500E               	movf	ReadMessageFromFifo@rxCanMsg^(0+1280),w,c
 10313  00356A  26D9               	addwf	fsr2l,f,c
 10314  00356C  500F               	movf	(ReadMessageFromFifo@rxCanMsg+1)^(0+1280),w,c
 10315  00356E  22DA               	addwfc	fsr2h,f,c
 10316  003570  A0DF               	btfss	indf2,0,c
 10317  003572  EFBD  F01A         	goto	i2u292_41
 10318  003576  EFBF  F01A         	goto	i2u292_40
 10319  00357A                     i2u292_41:
 10320  00357A  EF00  F01B         	goto	i2l4620
 10321  00357E                     i2u292_40:
 10322  00357E                     
 10323                           ;mcc_generated_files/can1.c: 366:     {;mcc_generated_files/can1.c: 367:         msgId <
      +                          <= (5U);
 10324  00357E  0E05               	movlw	5
 10325  003580                     i2u293_45:
 10326  003580  90D8               	bcf	status,0,c
 10327  003582  3613               	rlcf	ReadMessageFromFifo@msgId^(0+1280),f,c
 10328  003584  3614               	rlcf	(ReadMessageFromFifo@msgId+1)^(0+1280),f,c
 10329  003586  3615               	rlcf	(ReadMessageFromFifo@msgId+2)^(0+1280),f,c
 10330  003588  3616               	rlcf	(ReadMessageFromFifo@msgId+3)^(0+1280),f,c
 10331  00358A  2EE8               	decfsz	wreg,f,c
 10332  00358C  EFC0  F01A         	goto	i2u293_45
 10333  003590                     
 10334                           ;mcc_generated_files/can1.c: 368:         msgId |= (rxFifoObj[3] & (0x1FU));
 10335  003590  EE20 F003          	lfsr	2,3
 10336  003594  500C               	movf	ReadMessageFromFifo@rxFifoObj^(0+1280),w,c
 10337  003596  26D9               	addwf	fsr2l,f,c
 10338  003598  500D               	movf	(ReadMessageFromFifo@rxFifoObj+1)^(0+1280),w,c
 10339  00359A  22DA               	addwfc	fsr2h,f,c
 10340  00359C  50DF               	movf	indf2,w,c
 10341  00359E  6E10               	movwf	??_ReadMessageFromFifo^(0+1280),c
 10342  0035A0  0E1F               	movlw	31
 10343  0035A2  1610               	andwf	??_ReadMessageFromFifo^(0+1280),f,c
 10344  0035A4  5010               	movf	??_ReadMessageFromFifo^(0+1280),w,c
 10345  0035A6  1213               	iorwf	ReadMessageFromFifo@msgId^(0+1280),f,c
 10346  0035A8                     
 10347                           ;mcc_generated_files/can1.c: 369:         msgId <<= (8U);
 10348  0035A8  C515  F516         	movff	ReadMessageFromFifo@msgId+2,ReadMessageFromFifo@msgId+3
 10349  0035AC  C514  F515         	movff	ReadMessageFromFifo@msgId+1,ReadMessageFromFifo@msgId+2
 10350  0035B0  C513  F514         	movff	ReadMessageFromFifo@msgId,ReadMessageFromFifo@msgId+1
 10351  0035B4  6A13               	clrf	ReadMessageFromFifo@msgId^(0+1280),c
 10352  0035B6                     
 10353                           ;mcc_generated_files/can1.c: 370:         msgId |= rxFifoObj[2];
 10354  0035B6  EE20 F002          	lfsr	2,2
 10355  0035BA  500C               	movf	ReadMessageFromFifo@rxFifoObj^(0+1280),w,c
 10356  0035BC  26D9               	addwf	fsr2l,f,c
 10357  0035BE  500D               	movf	(ReadMessageFromFifo@rxFifoObj+1)^(0+1280),w,c
 10358  0035C0  22DA               	addwfc	fsr2h,f,c
 10359  0035C2  50DF               	movf	indf2,w,c
 10360  0035C4  6E10               	movwf	??_ReadMessageFromFifo^(0+1280),c
 10361  0035C6  5010               	movf	??_ReadMessageFromFifo^(0+1280),w,c
 10362  0035C8  1213               	iorwf	ReadMessageFromFifo@msgId^(0+1280),f,c
 10363  0035CA                     
 10364                           ;mcc_generated_files/can1.c: 371:         msgId <<= (5U);
 10365  0035CA  0E05               	movlw	5
 10366  0035CC                     i2u294_45:
 10367  0035CC  90D8               	bcf	status,0,c
 10368  0035CE  3613               	rlcf	ReadMessageFromFifo@msgId^(0+1280),f,c
 10369  0035D0  3614               	rlcf	(ReadMessageFromFifo@msgId+1)^(0+1280),f,c
 10370  0035D2  3615               	rlcf	(ReadMessageFromFifo@msgId+2)^(0+1280),f,c
 10371  0035D4  3616               	rlcf	(ReadMessageFromFifo@msgId+3)^(0+1280),f,c
 10372  0035D6  2EE8               	decfsz	wreg,f,c
 10373  0035D8  EFE6  F01A         	goto	i2u294_45
 10374  0035DC                     
 10375                           ;mcc_generated_files/can1.c: 372:         msgId |= (rxFifoObj[1] & (0xF8U)) >> (3U);
 10376  0035DC  EE20 F001          	lfsr	2,1
 10377  0035E0  500C               	movf	ReadMessageFromFifo@rxFifoObj^(0+1280),w,c
 10378  0035E2  26D9               	addwf	fsr2l,f,c
 10379  0035E4  500D               	movf	(ReadMessageFromFifo@rxFifoObj+1)^(0+1280),w,c
 10380  0035E6  22DA               	addwfc	fsr2h,f,c
 10381  0035E8  50DF               	movf	indf2,w,c
 10382  0035EA  6E10               	movwf	??_ReadMessageFromFifo^(0+1280),c
 10383  0035EC  90D8               	bcf	status,0,c
 10384  0035EE  3210               	rrcf	??_ReadMessageFromFifo^(0+1280),f,c
 10385  0035F0  90D8               	bcf	status,0,c
 10386  0035F2  3210               	rrcf	??_ReadMessageFromFifo^(0+1280),f,c
 10387  0035F4  90D8               	bcf	status,0,c
 10388  0035F6  3210               	rrcf	??_ReadMessageFromFifo^(0+1280),f,c
 10389  0035F8  0E1F               	movlw	31
 10390  0035FA  1610               	andwf	??_ReadMessageFromFifo^(0+1280),f,c
 10391  0035FC  5010               	movf	??_ReadMessageFromFifo^(0+1280),w,c
 10392  0035FE  1213               	iorwf	ReadMessageFromFifo@msgId^(0+1280),f,c
 10393  003600                     i2l4620:
 10394                           
 10395                           ;mcc_generated_files/can1.c: 374:     rxCanMsg->msgId = msgId;
 10396  003600  0061  F438  F4D9   	movff	ReadMessageFromFifo@rxCanMsg,fsr2l
 10397  003606  0061  F43C  F4DA   	movff	ReadMessageFromFifo@rxCanMsg+1,fsr2h
 10398  00360C  0061  F44C  F4DE   	movff	ReadMessageFromFifo@msgId,postinc2
 10399  003612  0061  F450  F4DE   	movff	ReadMessageFromFifo@msgId+1,postinc2
 10400  003618  0061  F454  F4DE   	movff	ReadMessageFromFifo@msgId+2,postinc2
 10401  00361E  0061  F458  F4DE   	movff	ReadMessageFromFifo@msgId+3,postinc2
 10402  003624                     
 10403                           ;mcc_generated_files/can1.c: 376:     memcpy(rxMsgData, rxFifoObj + payloadOffsetBytes, 
      +                          (DLC_BYTES[(rxCanMsg->field.dlc)]));
 10404  003624  0E00               	movlw	low _rxMsgData
 10405  003626  6E01               	movwf	memcpy@d1^(0+1280),c
 10406  003628  0E06               	movlw	high _rxMsgData
 10407  00362A  6E02               	movwf	(memcpy@d1+1)^(0+1280),c
 10408  00362C  0E08               	movlw	8
 10409  00362E  240C               	addwf	ReadMessageFromFifo@rxFifoObj^(0+1280),w,c
 10410  003630  6E03               	movwf	memcpy@s1^(0+1280),c
 10411  003632  0E00               	movlw	0
 10412  003634  200D               	addwfc	(ReadMessageFromFifo@rxFifoObj+1)^(0+1280),w,c
 10413  003636  6E04               	movwf	(memcpy@s1+1)^(0+1280),c
 10414  003638  EE20 F004          	lfsr	2,4
 10415  00363C  500E               	movf	ReadMessageFromFifo@rxCanMsg^(0+1280),w,c
 10416  00363E  26D9               	addwf	fsr2l,f,c
 10417  003640  500F               	movf	(ReadMessageFromFifo@rxCanMsg+1)^(0+1280),w,c
 10418  003642  22DA               	addwfc	fsr2h,f,c
 10419  003644  30DF               	rrcf	479,w,c
 10420  003646  32E8               	rrcf	wreg,f,c
 10421  003648  0B0F               	andlw	15
 10422  00364A  6E10               	movwf	??_ReadMessageFromFifo^(0+1280),c
 10423  00364C  6A11               	clrf	(??_ReadMessageFromFifo+1)^(0+1280),c
 10424  00364E  0E01               	movlw	low _DLC_BYTES
 10425  003650  2410               	addwf	??_ReadMessageFromFifo^(0+1280),w,c
 10426  003652  6EF6               	movwf	tblptrl,c
 10427  003654  0E26               	movlw	high _DLC_BYTES
 10428  003656  2011               	addwfc	(??_ReadMessageFromFifo+1)^(0+1280),w,c
 10429  003658  6EF7               	movwf	tblptrh,c
 10430  00365A                     	if	1	;There are 3 active tblptr bytes
 10431  00365A  6AF8               	clrf	tblptru,c
 10432  00365C  0E00               	movlw	low (__mediumconst shr (0+16))
 10433  00365E  22F8               	addwfc	tblptru,f,c
 10434  003660                     	endif
 10435  003660  0008               	tblrd		*
 10436  003662  50F5               	movf	tablat,w,c
 10437  003664  6E05               	movwf	memcpy@n^(0+1280),c
 10438  003666  6A06               	clrf	(memcpy@n+1)^(0+1280),c
 10439  003668  ECE4  F022         	call	_memcpy	;wreg free
 10440  00366C                     
 10441                           ;mcc_generated_files/can1.c: 377:     rxCanMsg->data = rxMsgData;
 10442  00366C  EE20 F005          	lfsr	2,5
 10443  003670  500E               	movf	ReadMessageFromFifo@rxCanMsg^(0+1280),w,c
 10444  003672  26D9               	addwf	fsr2l,f,c
 10445  003674  500F               	movf	(ReadMessageFromFifo@rxCanMsg+1)^(0+1280),w,c
 10446  003676  22DA               	addwfc	fsr2h,f,c
 10447  003678  0E00               	movlw	low _rxMsgData
 10448  00367A  6EDE               	movwf	postinc2,c
 10449  00367C  0E06               	movlw	high _rxMsgData
 10450  00367E  6EDD               	movwf	postdec2,c
 10451  003680  0012               	return		;funcret
 10452  003682                     __end_of_ReadMessageFromFifo:
 10453                           	callstack 0
 10454                           
 10455 ;; *************** function _memcpy *****************
 10456 ;; Defined at:
 10457 ;;		line 4 in file "C:\Program Files\Microchip\xc8\v2.31\pic\sources\c99\common\memcpy.c"
 10458 ;; Parameters:    Size  Location     Type
 10459 ;;  d1              2    0[COMRAM] PTR void 
 10460 ;;		 -> RAM(9727), rxMsgData(8), 
 10461 ;;  s1              2    2[COMRAM] PTR const void 
 10462 ;;		 -> CANDATAdata(8), RAM(9727), rxMsgData(8), 
 10463 ;;  n               2    4[COMRAM] unsigned int 
 10464 ;; Auto vars:     Size  Location     Type
 10465 ;;  s               2    8[COMRAM] PTR const unsigned char 
 10466 ;;		 -> CANDATAdata(8), RAM(9727), rxMsgData(8), 
 10467 ;;  d               2    6[COMRAM] PTR unsigned char 
 10468 ;;		 -> RAM(9727), rxMsgData(8), 
 10469 ;;  tmp             1   10[COMRAM] unsigned char 
 10470 ;; Return value:  Size  Location     Type
 10471 ;;                  2    0[COMRAM] PTR void 
 10472 ;; Registers used:
 10473 ;;		wreg, fsr2l, fsr2h, status,2, status,0
 10474 ;; Tracked objects:
 10475 ;;		On entry : 0/0
 10476 ;;		On exit  : 0/0
 10477 ;;		Unchanged: 0/0
 10478 ;; Data sizes:     COMRAM   BANK5   BANK6   BANK7   BANK8   BANK9  BANK10  BANK11  BANK12  BANK13  BANK14  BANK15  BANK1
      +6  BANK17  BANK18  BANK19  BANK20  BANK21  BANK22  BANK23  BANK24  BANK25  BANK26  BANK27  BANK28  BANK29  BANK30  BANK3
      +1  BANK32  BANK33  BANK34  BANK35  BANK36  BANK37
 10479 ;;      Params:         6       0       0       0       0       0       0       0       0       0       0       0       
      +0       0       0       0       0       0       0       0       0       0       0       0       0       0       0       
      +0       0       0       0       0       0       0
 10480 ;;      Locals:         5       0       0       0       0       0       0       0       0       0       0       0       
      +0       0       0       0       0       0       0       0       0       0       0       0       0       0       0       
      +0       0       0       0       0       0       0
 10481 ;;      Temps:          0       0       0       0       0       0       0       0       0       0       0       0       
      +0       0       0       0       0       0       0       0       0       0       0       0       0       0       0       
      +0       0       0       0       0       0       0
 10482 ;;      Totals:        11       0       0       0       0       0       0       0       0       0       0       0       
      +0       0       0       0       0       0       0       0       0       0       0       0       0       0       0       
      +0       0       0       0       0       0       0
 10483 ;;Total ram usage:       11 bytes
 10484 ;; Hardware stack levels used:    1
 10485 ;; This function calls:
 10486 ;;		Nothing
 10487 ;; This function is called by:
 10488 ;;		_ReadMessageFromFifo
 10489 ;;		_WriteMessageToFifo
 10490 ;; This function uses a non-reentrant model
 10491 ;;
 10492                           
 10493                           	psect	text94
 10494  0045C8                     __ptext94:
 10495                           	callstack 0
 10496  0045C8                     _memcpy:
 10497                           	callstack 116
 10498  0045C8  C503  F509         	movff	memcpy@s1,memcpy@s
 10499  0045CC  C504  F50A         	movff	memcpy@s1+1,memcpy@s+1
 10500  0045D0  C501  F507         	movff	memcpy@d1,memcpy@d
 10501  0045D4  C502  F508         	movff	memcpy@d1+1,memcpy@d+1
 10502  0045D8  EF03  F023         	goto	i2l4566
 10503  0045DC                     i2l4558:
 10504  0045DC  0061  F424  F4D9   	movff	memcpy@s,fsr2l
 10505  0045E2  0061  F428  F4DA   	movff	memcpy@s+1,fsr2h
 10506  0045E8  50DF               	movf	indf2,w,c
 10507  0045EA  6E0B               	movwf	memcpy@tmp^(0+1280),c
 10508  0045EC  4A09               	infsnz	memcpy@s^(0+1280),f,c
 10509  0045EE  2A0A               	incf	(memcpy@s+1)^(0+1280),f,c
 10510  0045F0  0061  F41C  F4D9   	movff	memcpy@d,fsr2l
 10511  0045F6  0061  F420  F4DA   	movff	memcpy@d+1,fsr2h
 10512  0045FC  0061  F42C  F4DF   	movff	memcpy@tmp,indf2
 10513  004602  4A07               	infsnz	memcpy@d^(0+1280),f,c
 10514  004604  2A08               	incf	(memcpy@d+1)^(0+1280),f,c
 10515  004606                     i2l4566:
 10516  004606  0605               	decf	memcpy@n^(0+1280),f,c
 10517  004608  A0D8               	btfss	status,0,c
 10518  00460A  0606               	decf	(memcpy@n+1)^(0+1280),f,c
 10519  00460C  2805               	incf	memcpy@n^(0+1280),w,c
 10520  00460E  E106               	bnz	i2u283_41
 10521  004610  2806               	incf	(memcpy@n+1)^(0+1280),w,c
 10522  004612  A4D8               	btfss	status,2,c
 10523  004614  EF0E  F023         	goto	i2u283_41
 10524  004618  EF10  F023         	goto	i2u283_40
 10525  00461C                     i2u283_41:
 10526  00461C  EFEE  F022         	goto	i2l4558
 10527  004620                     i2u283_40:
 10528  004620  0012               	return		;funcret
 10529  004622                     __end_of_memcpy:
 10530                           	callstack 0
 10531                           
 10532 ;; *************** function _GetRxFifoStatus *****************
 10533 ;; Defined at:
 10534 ;;		line 341 in file "mcc_generated_files/can1.c"
 10535 ;; Parameters:    Size  Location     Type
 10536 ;;  validChannel    1    wreg     unsigned char 
 10537 ;; Auto vars:     Size  Location     Type
 10538 ;;  validChannel    1    0[COMRAM] unsigned char 
 10539 ;; Return value:  Size  Location     Type
 10540 ;;                  1    wreg      enum E22818
 10541 ;; Registers used:
 10542 ;;		wreg, fsr2l, fsr2h, status,2, status,0, prodl, prodh
 10543 ;; Tracked objects:
 10544 ;;		On entry : 0/0
 10545 ;;		On exit  : 0/0
 10546 ;;		Unchanged: 0/0
 10547 ;; Data sizes:     COMRAM   BANK5   BANK6   BANK7   BANK8   BANK9  BANK10  BANK11  BANK12  BANK13  BANK14  BANK15  BANK1
      +6  BANK17  BANK18  BANK19  BANK20  BANK21  BANK22  BANK23  BANK24  BANK25  BANK26  BANK27  BANK28  BANK29  BANK30  BANK3
      +1  BANK32  BANK33  BANK34  BANK35  BANK36  BANK37
 10548 ;;      Params:         0       0       0       0       0       0       0       0       0       0       0       0       
      +0       0       0       0       0       0       0       0       0       0       0       0       0       0       0       
      +0       0       0       0       0       0       0
 10549 ;;      Locals:         1       0       0       0       0       0       0       0       0       0       0       0       
      +0       0       0       0       0       0       0       0       0       0       0       0       0       0       0       
      +0       0       0       0       0       0       0
 10550 ;;      Temps:          0       0       0       0       0       0       0       0       0       0       0       0       
      +0       0       0       0       0       0       0       0       0       0       0       0       0       0       0       
      +0       0       0       0       0       0       0
 10551 ;;      Totals:         1       0       0       0       0       0       0       0       0       0       0       0       
      +0       0       0       0       0       0       0       0       0       0       0       0       0       0       0       
      +0       0       0       0       0       0       0
 10552 ;;Total ram usage:        1 bytes
 10553 ;; Hardware stack levels used:    1
 10554 ;; This function calls:
 10555 ;;		Nothing
 10556 ;; This function is called by:
 10557 ;;		_Receive
 10558 ;;		_CAN1_ReceivedMessageCountGet
 10559 ;; This function uses a non-reentrant model
 10560 ;;
 10561                           
 10562                           	psect	text95
 10563  004A7A                     __ptext95:
 10564                           	callstack 0
 10565  004A7A                     _GetRxFifoStatus:
 10566                           	callstack 118
 10567                           
 10568                           ;incstack = 0
 10569                           ;GetRxFifoStatus@validChannel stored from wreg
 10570  004A7A  6E01               	movwf	GetRxFifoStatus@validChannel^(0+1280),c
 10571  004A7C                     
 10572                           ;mcc_generated_files/can1.c: 341: static CAN_RX_FIFO_STATUS GetRxFifoStatus(uint8_t vali
      +                          dChannel);mcc_generated_files/can1.c: 342: {;mcc_generated_files/can1.c: 343:     return
      +                           FIFO[validChannel].STAL & (CAN_RX_MSG_AVAILABLE | CAN_RX_MSG_OVERFLOW);
 10573  004A7C  5001               	movf	GetRxFifoStatus@validChannel^(0+1280),w,c
 10574  004A7E  0D0C               	mullw	12
 10575  004A80  0E54               	movlw	84
 10576  004A82  24F3               	addwf	243,w,c
 10577  004A84  6ED9               	movwf	fsr2l,c
 10578  004A86  0E01               	movlw	1
 10579  004A88  20F4               	addwfc	prodh,w,c
 10580  004A8A  6EDA               	movwf	fsr2h,c
 10581  004A8C  50DF               	movf	indf2,w,c
 10582  004A8E  0B09               	andlw	9
 10583  004A90  0012               	return		;funcret
 10584  004A92                     __end_of_GetRxFifoStatus:
 10585                           	callstack 0
 10586                           
 10587 ;; *************** function _GetRxFifoDepth *****************
 10588 ;; Defined at:
 10589 ;;		line 336 in file "mcc_generated_files/can1.c"
 10590 ;; Parameters:    Size  Location     Type
 10591 ;;  validChannel    1    wreg     unsigned char 
 10592 ;; Auto vars:     Size  Location     Type
 10593 ;;  validChannel    1    1[COMRAM] unsigned char 
 10594 ;; Return value:  Size  Location     Type
 10595 ;;                  1    wreg      unsigned char 
 10596 ;; Registers used:
 10597 ;;		wreg, fsr2l, fsr2h, status,2, status,0, prodl, prodh
 10598 ;; Tracked objects:
 10599 ;;		On entry : 0/0
 10600 ;;		On exit  : 0/0
 10601 ;;		Unchanged: 0/0
 10602 ;; Data sizes:     COMRAM   BANK5   BANK6   BANK7   BANK8   BANK9  BANK10  BANK11  BANK12  BANK13  BANK14  BANK15  BANK1
      +6  BANK17  BANK18  BANK19  BANK20  BANK21  BANK22  BANK23  BANK24  BANK25  BANK26  BANK27  BANK28  BANK29  BANK30  BANK3
      +1  BANK32  BANK33  BANK34  BANK35  BANK36  BANK37
 10603 ;;      Params:         0       0       0       0       0       0       0       0       0       0       0       0       
      +0       0       0       0       0       0       0       0       0       0       0       0       0       0       0       
      +0       0       0       0       0       0       0
 10604 ;;      Locals:         1       0       0       0       0       0       0       0       0       0       0       0       
      +0       0       0       0       0       0       0       0       0       0       0       0       0       0       0       
      +0       0       0       0       0       0       0
 10605 ;;      Temps:          1       0       0       0       0       0       0       0       0       0       0       0       
      +0       0       0       0       0       0       0       0       0       0       0       0       0       0       0       
      +0       0       0       0       0       0       0
 10606 ;;      Totals:         2       0       0       0       0       0       0       0       0       0       0       0       
      +0       0       0       0       0       0       0       0       0       0       0       0       0       0       0       
      +0       0       0       0       0       0       0
 10607 ;;Total ram usage:        2 bytes
 10608 ;; Hardware stack levels used:    1
 10609 ;; This function calls:
 10610 ;;		Nothing
 10611 ;; This function is called by:
 10612 ;;		_Receive
 10613 ;;		_CAN1_ReceivedMessageCountGet
 10614 ;; This function uses a non-reentrant model
 10615 ;;
 10616                           
 10617                           	psect	text96
 10618  004A2C                     __ptext96:
 10619                           	callstack 0
 10620  004A2C                     _GetRxFifoDepth:
 10621                           	callstack 118
 10622                           
 10623                           ;incstack = 0
 10624                           ;GetRxFifoDepth@validChannel stored from wreg
 10625  004A2C  6E02               	movwf	GetRxFifoDepth@validChannel^(0+1280),c
 10626  004A2E                     
 10627                           ;mcc_generated_files/can1.c: 336: static uint8_t GetRxFifoDepth(uint8_t validChannel);mc
      +                          c_generated_files/can1.c: 337: {;mcc_generated_files/can1.c: 338:     return 1U + (FIFO[
      +                          validChannel].CONT & 0x1F);
 10628  004A2E  5002               	movf	GetRxFifoDepth@validChannel^(0+1280),w,c
 10629  004A30  0D0C               	mullw	12
 10630  004A32  0E53               	movlw	83
 10631  004A34  24F3               	addwf	243,w,c
 10632  004A36  6ED9               	movwf	fsr2l,c
 10633  004A38  0E01               	movlw	1
 10634  004A3A  20F4               	addwfc	prodh,w,c
 10635  004A3C  6EDA               	movwf	fsr2h,c
 10636  004A3E  50DF               	movf	indf2,w,c
 10637  004A40  6E01               	movwf	??_GetRxFifoDepth^(0+1280),c
 10638  004A42  0E1F               	movlw	31
 10639  004A44  1601               	andwf	??_GetRxFifoDepth^(0+1280),f,c
 10640  004A46  2801               	incf	??_GetRxFifoDepth^(0+1280),w,c
 10641  004A48  0012               	return		;funcret
 10642  004A4A                     __end_of_GetRxFifoDepth:
 10643                           	callstack 0
 10644                           
 10645 ;; *************** function _CAN1_ISR *****************
 10646 ;; Defined at:
 10647 ;;		line 682 in file "mcc_generated_files/can1.c"
 10648 ;; Parameters:    Size  Location     Type
 10649 ;;		None
 10650 ;; Auto vars:     Size  Location     Type
 10651 ;;		None
 10652 ;; Return value:  Size  Location     Type
 10653 ;;                  1    wreg      void 
 10654 ;; Registers used:
 10655 ;;		wreg, pclath, tosl, cstack
 10656 ;; Tracked objects:
 10657 ;;		On entry : 0/0
 10658 ;;		On exit  : 0/0
 10659 ;;		Unchanged: 0/0
 10660 ;; Data sizes:     COMRAM   BANK5   BANK6   BANK7   BANK8   BANK9  BANK10  BANK11  BANK12  BANK13  BANK14  BANK15  BANK1
      +6  BANK17  BANK18  BANK19  BANK20  BANK21  BANK22  BANK23  BANK24  BANK25  BANK26  BANK27  BANK28  BANK29  BANK30  BANK3
      +1  BANK32  BANK33  BANK34  BANK35  BANK36  BANK37
 10661 ;;      Params:         0       0       0       0       0       0       0       0       0       0       0       0       
      +0       0       0       0       0       0       0       0       0       0       0       0       0       0       0       
      +0       0       0       0       0       0       0
 10662 ;;      Locals:         0       0       0       0       0       0       0       0       0       0       0       0       
      +0       0       0       0       0       0       0       0       0       0       0       0       0       0       0       
      +0       0       0       0       0       0       0
 10663 ;;      Temps:          0       0       0       0       0       0       0       0       0       0       0       0       
      +0       0       0       0       0       0       0       0       0       0       0       0       0       0       0       
      +0       0       0       0       0       0       0
 10664 ;;      Totals:         0       0       0       0       0       0       0       0       0       0       0       0       
      +0       0       0       0       0       0       0       0       0       0       0       0       0       0       0       
      +0       0       0       0       0       0       0
 10665 ;;Total ram usage:        0 bytes
 10666 ;; Hardware stack levels used:    1
 10667 ;; Hardware stack levels required when called:    1
 10668 ;; This function calls:
 10669 ;;		Absolute function
 10670 ;;		_DefaultBusErrorHandler
 10671 ;;		_DefaultBusWakeUpActivityHandler
 10672 ;;		_DefaultInvalidMessageHandler
 10673 ;;		_DefaultModeChangeHandler
 10674 ;;		_DefaultRxBufferOverflowHandler
 10675 ;;		_DefaultSystemErrorHandler
 10676 ;;		_DefaultTxAttemptHandler
 10677 ;; This function is called by:
 10678 ;;		_INTERRUPT_InterruptManager
 10679 ;; This function uses a non-reentrant model
 10680 ;;
 10681                           
 10682                           	psect	text97
 10683  003A5C                     __ptext97:
 10684                           	callstack 0
 10685  003A5C                     _CAN1_ISR:
 10686                           	callstack 121
 10687  003A5C                     
 10688                           ;mcc_generated_files/can1.c: 684:     if (1 == C1INTHbits.IVMIF)
 10689  003A5C  0101               	movlb	1	; () banked
 10690  003A5E  AF1D               	btfss	29,7,b	;volatile
 10691  003A60  EF34  F01D         	goto	i2u451_41
 10692  003A64  EF36  F01D         	goto	i2u451_40
 10693  003A68                     i2u451_41:
 10694  003A68  EF45  F01D         	goto	i2l5920
 10695  003A6C                     i2u451_40:
 10696  003A6C                     
 10697                           ; BSR set to: 1
 10698                           ;mcc_generated_files/can1.c: 685:     {;mcc_generated_files/can1.c: 686:         CAN1_In
      +                          validMessageHandler();
 10699  003A6C  D802               	call	i2u452_48
 10700  003A6E  EF43  F01D         	goto	i2u452_49
 10701  003A72                     i2u452_48:
 10702  003A72  0005               	push	
 10703  003A74  6EFA               	movwf	pclath,c
 10704  003A76  0105               	movlb	5	; () banked
 10705  003A78  518A               	movf	_CAN1_InvalidMessageHandler& (0+255),w,b
 10706  003A7A  6EFD               	movwf	tosl,c
 10707  003A7C  518B               	movf	(_CAN1_InvalidMessageHandler+1)& (0+255),w,b
 10708  003A7E  6EFE               	movwf	tosh,c
 10709  003A80  6AFF               	clrf	tosu,c
 10710  003A82  50FA               	movf	pclath,w,c
 10711  003A84  0012               	return		;indir
 10712  003A86                     i2u452_49:
 10713  003A86                     
 10714                           ;mcc_generated_files/can1.c: 687:         C1INTHbits.IVMIF = 0;
 10715  003A86  0101               	movlb	1	; () banked
 10716  003A88  9F1D               	bcf	29,7,b	;volatile
 10717  003A8A                     i2l5920:
 10718                           
 10719                           ; BSR set to: 1
 10720                           ;mcc_generated_files/can1.c: 690:     if (1 == C1INTHbits.WAKIF)
 10721  003A8A  AD1D               	btfss	29,6,b	;volatile
 10722  003A8C  EF4A  F01D         	goto	i2u453_41
 10723  003A90  EF4C  F01D         	goto	i2u453_40
 10724  003A94                     i2u453_41:
 10725  003A94  EF5B  F01D         	goto	i2l5926
 10726  003A98                     i2u453_40:
 10727  003A98                     
 10728                           ; BSR set to: 1
 10729                           ;mcc_generated_files/can1.c: 691:     {;mcc_generated_files/can1.c: 692:         CAN1_Bu
      +                          sWakeUpActivityHandler();
 10730  003A98  D802               	call	i2u454_48
 10731  003A9A  EF59  F01D         	goto	i2u454_49
 10732  003A9E                     i2u454_48:
 10733  003A9E  0005               	push	
 10734  003AA0  6EFA               	movwf	pclath,c
 10735  003AA2  0105               	movlb	5	; () banked
 10736  003AA4  5188               	movf	_CAN1_BusWakeUpActivityHandler& (0+255),w,b
 10737  003AA6  6EFD               	movwf	tosl,c
 10738  003AA8  5189               	movf	(_CAN1_BusWakeUpActivityHandler+1)& (0+255),w,b
 10739  003AAA  6EFE               	movwf	tosh,c
 10740  003AAC  6AFF               	clrf	tosu,c
 10741  003AAE  50FA               	movf	pclath,w,c
 10742  003AB0  0012               	return		;indir
 10743  003AB2                     i2u454_49:
 10744  003AB2                     
 10745                           ;mcc_generated_files/can1.c: 693:         C1INTHbits.WAKIF = 0;
 10746  003AB2  0101               	movlb	1	; () banked
 10747  003AB4  9D1D               	bcf	29,6,b	;volatile
 10748  003AB6                     i2l5926:
 10749                           
 10750                           ; BSR set to: 1
 10751                           ;mcc_generated_files/can1.c: 696:     if (1 == C1INTHbits.CERRIF)
 10752  003AB6  AB1D               	btfss	29,5,b	;volatile
 10753  003AB8  EF60  F01D         	goto	i2u455_41
 10754  003ABC  EF62  F01D         	goto	i2u455_40
 10755  003AC0                     i2u455_41:
 10756  003AC0  EF71  F01D         	goto	i2l5932
 10757  003AC4                     i2u455_40:
 10758  003AC4                     
 10759                           ; BSR set to: 1
 10760                           ;mcc_generated_files/can1.c: 697:     {;mcc_generated_files/can1.c: 698:         CAN1_Bu
      +                          sErrorHandler();
 10761  003AC4  D802               	call	i2u456_48
 10762  003AC6  EF6F  F01D         	goto	i2u456_49
 10763  003ACA                     i2u456_48:
 10764  003ACA  0005               	push	
 10765  003ACC  6EFA               	movwf	pclath,c
 10766  003ACE  0105               	movlb	5	; () banked
 10767  003AD0  5186               	movf	_CAN1_BusErrorHandler& (0+255),w,b
 10768  003AD2  6EFD               	movwf	tosl,c
 10769  003AD4  5187               	movf	(_CAN1_BusErrorHandler+1)& (0+255),w,b
 10770  003AD6  6EFE               	movwf	tosh,c
 10771  003AD8  6AFF               	clrf	tosu,c
 10772  003ADA  50FA               	movf	pclath,w,c
 10773  003ADC  0012               	return		;indir
 10774  003ADE                     i2u456_49:
 10775  003ADE                     
 10776                           ;mcc_generated_files/can1.c: 699:         C1INTHbits.CERRIF = 0;
 10777  003ADE  0101               	movlb	1	; () banked
 10778  003AE0  9B1D               	bcf	29,5,b	;volatile
 10779  003AE2                     i2l5932:
 10780                           
 10781                           ; BSR set to: 1
 10782                           ;mcc_generated_files/can1.c: 702:     if (1 == C1INTLbits.MODIF)
 10783  003AE2  A71C               	btfss	28,3,b	;volatile
 10784  003AE4  EF76  F01D         	goto	i2u457_41
 10785  003AE8  EF78  F01D         	goto	i2u457_40
 10786  003AEC                     i2u457_41:
 10787  003AEC  EF87  F01D         	goto	i2l5938
 10788  003AF0                     i2u457_40:
 10789  003AF0                     
 10790                           ; BSR set to: 1
 10791                           ;mcc_generated_files/can1.c: 703:     {;mcc_generated_files/can1.c: 704:         CAN1_Mo
      +                          deChangeHandler();
 10792  003AF0  D802               	call	i2u458_48
 10793  003AF2  EF85  F01D         	goto	i2u458_49
 10794  003AF6                     i2u458_48:
 10795  003AF6  0005               	push	
 10796  003AF8  6EFA               	movwf	pclath,c
 10797  003AFA  0105               	movlb	5	; () banked
 10798  003AFC  5184               	movf	_CAN1_ModeChangeHandler& (0+255),w,b
 10799  003AFE  6EFD               	movwf	tosl,c
 10800  003B00  5185               	movf	(_CAN1_ModeChangeHandler+1)& (0+255),w,b
 10801  003B02  6EFE               	movwf	tosh,c
 10802  003B04  6AFF               	clrf	tosu,c
 10803  003B06  50FA               	movf	pclath,w,c
 10804  003B08  0012               	return		;indir
 10805  003B0A                     i2u458_49:
 10806  003B0A                     
 10807                           ;mcc_generated_files/can1.c: 705:         C1INTLbits.MODIF = 0;
 10808  003B0A  0101               	movlb	1	; () banked
 10809  003B0C  971C               	bcf	28,3,b	;volatile
 10810  003B0E                     i2l5938:
 10811                           
 10812                           ; BSR set to: 1
 10813                           ;mcc_generated_files/can1.c: 708:     if (1 == C1INTHbits.SERRIF)
 10814  003B0E  A91D               	btfss	29,4,b	;volatile
 10815  003B10  EF8C  F01D         	goto	i2u459_41
 10816  003B14  EF8E  F01D         	goto	i2u459_40
 10817  003B18                     i2u459_41:
 10818  003B18  EF9D  F01D         	goto	i2l5944
 10819  003B1C                     i2u459_40:
 10820  003B1C                     
 10821                           ; BSR set to: 1
 10822                           ;mcc_generated_files/can1.c: 709:     {;mcc_generated_files/can1.c: 710:         CAN1_Sy
      +                          stemErrorHandler();
 10823  003B1C  D802               	call	i2u460_48
 10824  003B1E  EF9B  F01D         	goto	i2u460_49
 10825  003B22                     i2u460_48:
 10826  003B22  0005               	push	
 10827  003B24  6EFA               	movwf	pclath,c
 10828  003B26  0105               	movlb	5	; () banked
 10829  003B28  5182               	movf	_CAN1_SystemErrorHandler& (0+255),w,b
 10830  003B2A  6EFD               	movwf	tosl,c
 10831  003B2C  5183               	movf	(_CAN1_SystemErrorHandler+1)& (0+255),w,b
 10832  003B2E  6EFE               	movwf	tosh,c
 10833  003B30  6AFF               	clrf	tosu,c
 10834  003B32  50FA               	movf	pclath,w,c
 10835  003B34  0012               	return		;indir
 10836  003B36                     i2u460_49:
 10837  003B36                     
 10838                           ;mcc_generated_files/can1.c: 711:         C1INTHbits.SERRIF = 0;
 10839  003B36  0101               	movlb	1	; () banked
 10840  003B38  991D               	bcf	29,4,b	;volatile
 10841  003B3A                     i2l5944:
 10842                           
 10843                           ; BSR set to: 1
 10844                           ;mcc_generated_files/can1.c: 714:     if (1 == C1INTHbits.TXATIF)
 10845  003B3A  A51D               	btfss	29,2,b	;volatile
 10846  003B3C  EFA2  F01D         	goto	i2u461_41
 10847  003B40  EFA4  F01D         	goto	i2u461_40
 10848  003B44                     i2u461_41:
 10849  003B44  EFBA  F01D         	goto	i2l986
 10850  003B48                     i2u461_40:
 10851  003B48                     
 10852                           ; BSR set to: 1
 10853                           ;mcc_generated_files/can1.c: 715:     {;mcc_generated_files/can1.c: 716:         CAN1_Tx
      +                          AttemptHandler();
 10854  003B48  D802               	call	i2u462_48
 10855  003B4A  EFB1  F01D         	goto	i2u462_49
 10856  003B4E                     i2u462_48:
 10857  003B4E  0005               	push	
 10858  003B50  6EFA               	movwf	pclath,c
 10859  003B52  0105               	movlb	5	; () banked
 10860  003B54  5180               	movf	_CAN1_TxAttemptHandler& (0+255),w,b
 10861  003B56  6EFD               	movwf	tosl,c
 10862  003B58  5181               	movf	(_CAN1_TxAttemptHandler+1)& (0+255),w,b
 10863  003B5A  6EFE               	movwf	tosh,c
 10864  003B5C  6AFF               	clrf	tosu,c
 10865  003B5E  50FA               	movf	pclath,w,c
 10866  003B60  0012               	return		;indir
 10867  003B62                     i2u462_49:
 10868  003B62                     
 10869                           ;mcc_generated_files/can1.c: 717:         if (1 == C1TXQSTALbits.TXATIF)
 10870  003B62  0101               	movlb	1	; () banked
 10871  003B64  A954               	btfss	84,4,b	;volatile
 10872  003B66  EFB7  F01D         	goto	i2u463_41
 10873  003B6A  EFB9  F01D         	goto	i2u463_40
 10874  003B6E                     i2u463_41:
 10875  003B6E  EFBA  F01D         	goto	i2l986
 10876  003B72                     i2u463_40:
 10877  003B72                     
 10878                           ; BSR set to: 1
 10879                           ;mcc_generated_files/can1.c: 718:         {;mcc_generated_files/can1.c: 719:            
      +                           C1TXQSTALbits.TXATIF = 0;
 10880  003B72  9954               	bcf	84,4,b	;volatile
 10881  003B74                     i2l986:
 10882                           
 10883                           ; BSR set to: 1
 10884                           ;mcc_generated_files/can1.c: 723:     if (1 == C1INTHbits.RXOVIF)
 10885  003B74  A71D               	btfss	29,3,b	;volatile
 10886  003B76  EFBF  F01D         	goto	i2u464_41
 10887  003B7A  EFC1  F01D         	goto	i2u464_40
 10888  003B7E                     i2u464_41:
 10889  003B7E  EFD7  F01D         	goto	i2l988
 10890  003B82                     i2u464_40:
 10891  003B82                     
 10892                           ; BSR set to: 1
 10893                           ;mcc_generated_files/can1.c: 724:     {;mcc_generated_files/can1.c: 725:         CAN1_Rx
      +                          BufferOverflowHandler();
 10894  003B82  D802               	call	i2u465_48
 10895  003B84  EFCE  F01D         	goto	i2u465_49
 10896  003B88                     i2u465_48:
 10897  003B88  0005               	push	
 10898  003B8A  6EFA               	movwf	pclath,c
 10899  003B8C  0105               	movlb	5	; () banked
 10900  003B8E  517E               	movf	_CAN1_RxBufferOverflowHandler& (0+255),w,b
 10901  003B90  6EFD               	movwf	tosl,c
 10902  003B92  517F               	movf	(_CAN1_RxBufferOverflowHandler+1)& (0+255),w,b
 10903  003B94  6EFE               	movwf	tosh,c
 10904  003B96  6AFF               	clrf	tosu,c
 10905  003B98  50FA               	movf	pclath,w,c
 10906  003B9A  0012               	return		;indir
 10907  003B9C                     i2u465_49:
 10908  003B9C                     
 10909                           ;mcc_generated_files/can1.c: 726:         if (1 == C1FIFOSTA1Lbits.RXOVIF)
 10910  003B9C  0101               	movlb	1	; () banked
 10911  003B9E  A760               	btfss	96,3,b	;volatile
 10912  003BA0  EFD4  F01D         	goto	i2u466_41
 10913  003BA4  EFD6  F01D         	goto	i2u466_40
 10914  003BA8                     i2u466_41:
 10915  003BA8  EFD7  F01D         	goto	i2l988
 10916  003BAC                     i2u466_40:
 10917  003BAC                     
 10918                           ; BSR set to: 1
 10919                           ;mcc_generated_files/can1.c: 727:         {;mcc_generated_files/can1.c: 728:            
      +                           C1FIFOSTA1Lbits.RXOVIF = 0;
 10920  003BAC  9760               	bcf	96,3,b	;volatile
 10921  003BAE                     i2l988:
 10922                           
 10923                           ; BSR set to: 1
 10924                           ;mcc_generated_files/can1.c: 732:     PIR0bits.CANIF = 0;
 10925  003BAE  9CAE               	bcf	174,6,c	;volatile
 10926  003BB0                     
 10927                           ; BSR set to: 1
 10928  003BB0  0012               	return		;funcret
 10929  003BB2                     __end_of_CAN1_ISR:
 10930                           	callstack 0
 10931                           
 10932 ;; *************** function _DefaultTxAttemptHandler *****************
 10933 ;; Defined at:
 10934 ;;		line 145 in file "mcc_generated_files/can1.c"
 10935 ;; Parameters:    Size  Location     Type
 10936 ;;		None
 10937 ;; Auto vars:     Size  Location     Type
 10938 ;;		None
 10939 ;; Return value:  Size  Location     Type
 10940 ;;                  1    wreg      void 
 10941 ;; Registers used:
 10942 ;;		None
 10943 ;; Tracked objects:
 10944 ;;		On entry : 0/0
 10945 ;;		On exit  : 0/0
 10946 ;;		Unchanged: 0/0
 10947 ;; Data sizes:     COMRAM   BANK5   BANK6   BANK7   BANK8   BANK9  BANK10  BANK11  BANK12  BANK13  BANK14  BANK15  BANK1
      +6  BANK17  BANK18  BANK19  BANK20  BANK21  BANK22  BANK23  BANK24  BANK25  BANK26  BANK27  BANK28  BANK29  BANK30  BANK3
      +1  BANK32  BANK33  BANK34  BANK35  BANK36  BANK37
 10948 ;;      Params:         0       0       0       0       0       0       0       0       0       0       0       0       
      +0       0       0       0       0       0       0       0       0       0       0       0       0       0       0       
      +0       0       0       0       0       0       0
 10949 ;;      Locals:         0       0       0       0       0       0       0       0       0       0       0       0       
      +0       0       0       0       0       0       0       0       0       0       0       0       0       0       0       
      +0       0       0       0       0       0       0
 10950 ;;      Temps:          0       0       0       0       0       0       0       0       0       0       0       0       
      +0       0       0       0       0       0       0       0       0       0       0       0       0       0       0       
      +0       0       0       0       0       0       0
 10951 ;;      Totals:         0       0       0       0       0       0       0       0       0       0       0       0       
      +0       0       0       0       0       0       0       0       0       0       0       0       0       0       0       
      +0       0       0       0       0       0       0
 10952 ;;Total ram usage:        0 bytes
 10953 ;; Hardware stack levels used:    1
 10954 ;; This function calls:
 10955 ;;		Nothing
 10956 ;; This function is called by:
 10957 ;;		_CAN1_ErrorNotificationInterruptEnable
 10958 ;;		_CAN1_ISR
 10959 ;; This function uses a non-reentrant model
 10960 ;;
 10961                           
 10962                           	psect	text98
 10963  004C3E                     __ptext98:
 10964                           	callstack 0
 10965  004C3E                     _DefaultTxAttemptHandler:
 10966                           	callstack 121
 10967  004C3E  0012               	return		;funcret
 10968  004C40                     __end_of_DefaultTxAttemptHandler:
 10969                           	callstack 0
 10970                           
 10971 ;; *************** function _DefaultSystemErrorHandler *****************
 10972 ;; Defined at:
 10973 ;;		line 141 in file "mcc_generated_files/can1.c"
 10974 ;; Parameters:    Size  Location     Type
 10975 ;;		None
 10976 ;; Auto vars:     Size  Location     Type
 10977 ;;		None
 10978 ;; Return value:  Size  Location     Type
 10979 ;;                  1    wreg      void 
 10980 ;; Registers used:
 10981 ;;		None
 10982 ;; Tracked objects:
 10983 ;;		On entry : 0/0
 10984 ;;		On exit  : 0/0
 10985 ;;		Unchanged: 0/0
 10986 ;; Data sizes:     COMRAM   BANK5   BANK6   BANK7   BANK8   BANK9  BANK10  BANK11  BANK12  BANK13  BANK14  BANK15  BANK1
      +6  BANK17  BANK18  BANK19  BANK20  BANK21  BANK22  BANK23  BANK24  BANK25  BANK26  BANK27  BANK28  BANK29  BANK30  BANK3
      +1  BANK32  BANK33  BANK34  BANK35  BANK36  BANK37
 10987 ;;      Params:         0       0       0       0       0       0       0       0       0       0       0       0       
      +0       0       0       0       0       0       0       0       0       0       0       0       0       0       0       
      +0       0       0       0       0       0       0
 10988 ;;      Locals:         0       0       0       0       0       0       0       0       0       0       0       0       
      +0       0       0       0       0       0       0       0       0       0       0       0       0       0       0       
      +0       0       0       0       0       0       0
 10989 ;;      Temps:          0       0       0       0       0       0       0       0       0       0       0       0       
      +0       0       0       0       0       0       0       0       0       0       0       0       0       0       0       
      +0       0       0       0       0       0       0
 10990 ;;      Totals:         0       0       0       0       0       0       0       0       0       0       0       0       
      +0       0       0       0       0       0       0       0       0       0       0       0       0       0       0       
      +0       0       0       0       0       0       0
 10991 ;;Total ram usage:        0 bytes
 10992 ;; Hardware stack levels used:    1
 10993 ;; This function calls:
 10994 ;;		Nothing
 10995 ;; This function is called by:
 10996 ;;		_CAN1_ErrorNotificationInterruptEnable
 10997 ;;		_CAN1_ISR
 10998 ;; This function uses a non-reentrant model
 10999 ;;
 11000                           
 11001                           	psect	text99
 11002  004C40                     __ptext99:
 11003                           	callstack 0
 11004  004C40                     _DefaultSystemErrorHandler:
 11005                           	callstack 121
 11006  004C40  0012               	return		;funcret
 11007  004C42                     __end_of_DefaultSystemErrorHandler:
 11008                           	callstack 0
 11009                           
 11010 ;; *************** function _DefaultRxBufferOverflowHandler *****************
 11011 ;; Defined at:
 11012 ;;		line 149 in file "mcc_generated_files/can1.c"
 11013 ;; Parameters:    Size  Location     Type
 11014 ;;		None
 11015 ;; Auto vars:     Size  Location     Type
 11016 ;;		None
 11017 ;; Return value:  Size  Location     Type
 11018 ;;                  1    wreg      void 
 11019 ;; Registers used:
 11020 ;;		None
 11021 ;; Tracked objects:
 11022 ;;		On entry : 0/0
 11023 ;;		On exit  : 0/0
 11024 ;;		Unchanged: 0/0
 11025 ;; Data sizes:     COMRAM   BANK5   BANK6   BANK7   BANK8   BANK9  BANK10  BANK11  BANK12  BANK13  BANK14  BANK15  BANK1
      +6  BANK17  BANK18  BANK19  BANK20  BANK21  BANK22  BANK23  BANK24  BANK25  BANK26  BANK27  BANK28  BANK29  BANK30  BANK3
      +1  BANK32  BANK33  BANK34  BANK35  BANK36  BANK37
 11026 ;;      Params:         0       0       0       0       0       0       0       0       0       0       0       0       
      +0       0       0       0       0       0       0       0       0       0       0       0       0       0       0       
      +0       0       0       0       0       0       0
 11027 ;;      Locals:         0       0       0       0       0       0       0       0       0       0       0       0       
      +0       0       0       0       0       0       0       0       0       0       0       0       0       0       0       
      +0       0       0       0       0       0       0
 11028 ;;      Temps:          0       0       0       0       0       0       0       0       0       0       0       0       
      +0       0       0       0       0       0       0       0       0       0       0       0       0       0       0       
      +0       0       0       0       0       0       0
 11029 ;;      Totals:         0       0       0       0       0       0       0       0       0       0       0       0       
      +0       0       0       0       0       0       0       0       0       0       0       0       0       0       0       
      +0       0       0       0       0       0       0
 11030 ;;Total ram usage:        0 bytes
 11031 ;; Hardware stack levels used:    1
 11032 ;; This function calls:
 11033 ;;		Nothing
 11034 ;; This function is called by:
 11035 ;;		_CAN1_ErrorNotificationInterruptEnable
 11036 ;;		_CAN1_ISR
 11037 ;; This function uses a non-reentrant model
 11038 ;;
 11039                           
 11040                           	psect	text100
 11041  004C42                     __ptext100:
 11042                           	callstack 0
 11043  004C42                     _DefaultRxBufferOverflowHandler:
 11044                           	callstack 121
 11045  004C42  0012               	return		;funcret
 11046  004C44                     __end_of_DefaultRxBufferOverflowHandler:
 11047                           	callstack 0
 11048                           
 11049 ;; *************** function _DefaultModeChangeHandler *****************
 11050 ;; Defined at:
 11051 ;;		line 137 in file "mcc_generated_files/can1.c"
 11052 ;; Parameters:    Size  Location     Type
 11053 ;;		None
 11054 ;; Auto vars:     Size  Location     Type
 11055 ;;		None
 11056 ;; Return value:  Size  Location     Type
 11057 ;;                  1    wreg      void 
 11058 ;; Registers used:
 11059 ;;		None
 11060 ;; Tracked objects:
 11061 ;;		On entry : 0/0
 11062 ;;		On exit  : 0/0
 11063 ;;		Unchanged: 0/0
 11064 ;; Data sizes:     COMRAM   BANK5   BANK6   BANK7   BANK8   BANK9  BANK10  BANK11  BANK12  BANK13  BANK14  BANK15  BANK1
      +6  BANK17  BANK18  BANK19  BANK20  BANK21  BANK22  BANK23  BANK24  BANK25  BANK26  BANK27  BANK28  BANK29  BANK30  BANK3
      +1  BANK32  BANK33  BANK34  BANK35  BANK36  BANK37
 11065 ;;      Params:         0       0       0       0       0       0       0       0       0       0       0       0       
      +0       0       0       0       0       0       0       0       0       0       0       0       0       0       0       
      +0       0       0       0       0       0       0
 11066 ;;      Locals:         0       0       0       0       0       0       0       0       0       0       0       0       
      +0       0       0       0       0       0       0       0       0       0       0       0       0       0       0       
      +0       0       0       0       0       0       0
 11067 ;;      Temps:          0       0       0       0       0       0       0       0       0       0       0       0       
      +0       0       0       0       0       0       0       0       0       0       0       0       0       0       0       
      +0       0       0       0       0       0       0
 11068 ;;      Totals:         0       0       0       0       0       0       0       0       0       0       0       0       
      +0       0       0       0       0       0       0       0       0       0       0       0       0       0       0       
      +0       0       0       0       0       0       0
 11069 ;;Total ram usage:        0 bytes
 11070 ;; Hardware stack levels used:    1
 11071 ;; This function calls:
 11072 ;;		Nothing
 11073 ;; This function is called by:
 11074 ;;		_CAN1_ErrorNotificationInterruptEnable
 11075 ;;		_CAN1_ISR
 11076 ;; This function uses a non-reentrant model
 11077 ;;
 11078                           
 11079                           	psect	text101
 11080  004C44                     __ptext101:
 11081                           	callstack 0
 11082  004C44                     _DefaultModeChangeHandler:
 11083                           	callstack 121
 11084  004C44  0012               	return		;funcret
 11085  004C46                     __end_of_DefaultModeChangeHandler:
 11086                           	callstack 0
 11087                           
 11088 ;; *************** function _DefaultInvalidMessageHandler *****************
 11089 ;; Defined at:
 11090 ;;		line 125 in file "mcc_generated_files/can1.c"
 11091 ;; Parameters:    Size  Location     Type
 11092 ;;		None
 11093 ;; Auto vars:     Size  Location     Type
 11094 ;;		None
 11095 ;; Return value:  Size  Location     Type
 11096 ;;                  1    wreg      void 
 11097 ;; Registers used:
 11098 ;;		None
 11099 ;; Tracked objects:
 11100 ;;		On entry : 0/0
 11101 ;;		On exit  : 0/0
 11102 ;;		Unchanged: 0/0
 11103 ;; Data sizes:     COMRAM   BANK5   BANK6   BANK7   BANK8   BANK9  BANK10  BANK11  BANK12  BANK13  BANK14  BANK15  BANK1
      +6  BANK17  BANK18  BANK19  BANK20  BANK21  BANK22  BANK23  BANK24  BANK25  BANK26  BANK27  BANK28  BANK29  BANK30  BANK3
      +1  BANK32  BANK33  BANK34  BANK35  BANK36  BANK37
 11104 ;;      Params:         0       0       0       0       0       0       0       0       0       0       0       0       
      +0       0       0       0       0       0       0       0       0       0       0       0       0       0       0       
      +0       0       0       0       0       0       0
 11105 ;;      Locals:         0       0       0       0       0       0       0       0       0       0       0       0       
      +0       0       0       0       0       0       0       0       0       0       0       0       0       0       0       
      +0       0       0       0       0       0       0
 11106 ;;      Temps:          0       0       0       0       0       0       0       0       0       0       0       0       
      +0       0       0       0       0       0       0       0       0       0       0       0       0       0       0       
      +0       0       0       0       0       0       0
 11107 ;;      Totals:         0       0       0       0       0       0       0       0       0       0       0       0       
      +0       0       0       0       0       0       0       0       0       0       0       0       0       0       0       
      +0       0       0       0       0       0       0
 11108 ;;Total ram usage:        0 bytes
 11109 ;; Hardware stack levels used:    1
 11110 ;; This function calls:
 11111 ;;		Nothing
 11112 ;; This function is called by:
 11113 ;;		_CAN1_ErrorNotificationInterruptEnable
 11114 ;;		_CAN1_ISR
 11115 ;; This function uses a non-reentrant model
 11116 ;;
 11117                           
 11118                           	psect	text102
 11119  004C46                     __ptext102:
 11120                           	callstack 0
 11121  004C46                     _DefaultInvalidMessageHandler:
 11122                           	callstack 121
 11123  004C46  0012               	return		;funcret
 11124  004C48                     __end_of_DefaultInvalidMessageHandler:
 11125                           	callstack 0
 11126                           
 11127 ;; *************** function _DefaultBusWakeUpActivityHandler *****************
 11128 ;; Defined at:
 11129 ;;		line 129 in file "mcc_generated_files/can1.c"
 11130 ;; Parameters:    Size  Location     Type
 11131 ;;		None
 11132 ;; Auto vars:     Size  Location     Type
 11133 ;;		None
 11134 ;; Return value:  Size  Location     Type
 11135 ;;                  1    wreg      void 
 11136 ;; Registers used:
 11137 ;;		None
 11138 ;; Tracked objects:
 11139 ;;		On entry : 0/0
 11140 ;;		On exit  : 0/0
 11141 ;;		Unchanged: 0/0
 11142 ;; Data sizes:     COMRAM   BANK5   BANK6   BANK7   BANK8   BANK9  BANK10  BANK11  BANK12  BANK13  BANK14  BANK15  BANK1
      +6  BANK17  BANK18  BANK19  BANK20  BANK21  BANK22  BANK23  BANK24  BANK25  BANK26  BANK27  BANK28  BANK29  BANK30  BANK3
      +1  BANK32  BANK33  BANK34  BANK35  BANK36  BANK37
 11143 ;;      Params:         0       0       0       0       0       0       0       0       0       0       0       0       
      +0       0       0       0       0       0       0       0       0       0       0       0       0       0       0       
      +0       0       0       0       0       0       0
 11144 ;;      Locals:         0       0       0       0       0       0       0       0       0       0       0       0       
      +0       0       0       0       0       0       0       0       0       0       0       0       0       0       0       
      +0       0       0       0       0       0       0
 11145 ;;      Temps:          0       0       0       0       0       0       0       0       0       0       0       0       
      +0       0       0       0       0       0       0       0       0       0       0       0       0       0       0       
      +0       0       0       0       0       0       0
 11146 ;;      Totals:         0       0       0       0       0       0       0       0       0       0       0       0       
      +0       0       0       0       0       0       0       0       0       0       0       0       0       0       0       
      +0       0       0       0       0       0       0
 11147 ;;Total ram usage:        0 bytes
 11148 ;; Hardware stack levels used:    1
 11149 ;; This function calls:
 11150 ;;		Nothing
 11151 ;; This function is called by:
 11152 ;;		_CAN1_ErrorNotificationInterruptEnable
 11153 ;;		_CAN1_ISR
 11154 ;; This function uses a non-reentrant model
 11155 ;;
 11156                           
 11157                           	psect	text103
 11158  004C48                     __ptext103:
 11159                           	callstack 0
 11160  004C48                     _DefaultBusWakeUpActivityHandler:
 11161                           	callstack 121
 11162  004C48  0012               	return		;funcret
 11163  004C4A                     __end_of_DefaultBusWakeUpActivityHandler:
 11164                           	callstack 0
 11165                           
 11166 ;; *************** function _DefaultBusErrorHandler *****************
 11167 ;; Defined at:
 11168 ;;		line 133 in file "mcc_generated_files/can1.c"
 11169 ;; Parameters:    Size  Location     Type
 11170 ;;		None
 11171 ;; Auto vars:     Size  Location     Type
 11172 ;;		None
 11173 ;; Return value:  Size  Location     Type
 11174 ;;                  1    wreg      void 
 11175 ;; Registers used:
 11176 ;;		None
 11177 ;; Tracked objects:
 11178 ;;		On entry : 0/0
 11179 ;;		On exit  : 0/0
 11180 ;;		Unchanged: 0/0
 11181 ;; Data sizes:     COMRAM   BANK5   BANK6   BANK7   BANK8   BANK9  BANK10  BANK11  BANK12  BANK13  BANK14  BANK15  BANK1
      +6  BANK17  BANK18  BANK19  BANK20  BANK21  BANK22  BANK23  BANK24  BANK25  BANK26  BANK27  BANK28  BANK29  BANK30  BANK3
      +1  BANK32  BANK33  BANK34  BANK35  BANK36  BANK37
 11182 ;;      Params:         0       0       0       0       0       0       0       0       0       0       0       0       
      +0       0       0       0       0       0       0       0       0       0       0       0       0       0       0       
      +0       0       0       0       0       0       0
 11183 ;;      Locals:         0       0       0       0       0       0       0       0       0       0       0       0       
      +0       0       0       0       0       0       0       0       0       0       0       0       0       0       0       
      +0       0       0       0       0       0       0
 11184 ;;      Temps:          0       0       0       0       0       0       0       0       0       0       0       0       
      +0       0       0       0       0       0       0       0       0       0       0       0       0       0       0       
      +0       0       0       0       0       0       0
 11185 ;;      Totals:         0       0       0       0       0       0       0       0       0       0       0       0       
      +0       0       0       0       0       0       0       0       0       0       0       0       0       0       0       
      +0       0       0       0       0       0       0
 11186 ;;Total ram usage:        0 bytes
 11187 ;; Hardware stack levels used:    1
 11188 ;; This function calls:
 11189 ;;		Nothing
 11190 ;; This function is called by:
 11191 ;;		_CAN1_ErrorNotificationInterruptEnable
 11192 ;;		_CAN1_ISR
 11193 ;; This function uses a non-reentrant model
 11194 ;;
 11195                           
 11196                           	psect	text104
 11197  004C4A                     __ptext104:
 11198                           	callstack 0
 11199  004C4A                     _DefaultBusErrorHandler:
 11200                           	callstack 121
 11201  004C4A  0012               	return		;funcret
 11202  004C4C                     __end_of_DefaultBusErrorHandler:
 11203                           	callstack 0
 11204                           
 11205                           ;
 11206                           ; Interrupt Vector Table @ 0x8
 11207                           ;
 11208                           
 11209                           	psect	ivt0x8
 11210  000008                     __pivt0x8:
 11211                           	callstack 0
 11212  000008                     ivt0x8_base:
 11213                           	callstack 0
 11214                           
 11215                           ; high-priority vector
 11216  000008  EF5F  F01E         	goto	_INTERRUPT_InterruptManager
 11217  000018                     	org	16
 11218                           
 11219                           ; low-priority vector
 11220  000018  00FF               	reset	
 11221                           
 11222                           	psect	text105
 11223  000000                     __ptext105:
 11224                           	callstack 0
 11225  000000                     
 11226                           	psect	rparam
 11227  0000                     
 11228                           	psect	idloc
 11229                           
 11230                           ;Config register IDLOC0 @ 0x200000
 11231                           ;	unspecified, using default values
 11232  200000                     	org	2097152
 11233  200000  0FFF               	dw	4095
 11234                           
 11235                           ;Config register IDLOC1 @ 0x200002
 11236                           ;	unspecified, using default values
 11237  200002                     	org	2097154
 11238  200002  0FFF               	dw	4095
 11239                           
 11240                           ;Config register IDLOC2 @ 0x200004
 11241                           ;	unspecified, using default values
 11242  200004                     	org	2097156
 11243  200004  0FFF               	dw	4095
 11244                           
 11245                           ;Config register IDLOC3 @ 0x200006
 11246                           ;	unspecified, using default values
 11247  200006                     	org	2097158
 11248  200006  0FFF               	dw	4095
 11249                           
 11250                           ;Config register IDLOC4 @ 0x200008
 11251                           ;	unspecified, using default values
 11252  200008                     	org	2097160
 11253  200008  0FFF               	dw	4095
 11254                           
 11255                           ;Config register IDLOC5 @ 0x20000A
 11256                           ;	unspecified, using default values
 11257  20000A                     	org	2097162
 11258  20000A  0FFF               	dw	4095
 11259                           
 11260                           ;Config register IDLOC6 @ 0x20000C
 11261                           ;	unspecified, using default values
 11262  20000C                     	org	2097164
 11263  20000C  0FFF               	dw	4095
 11264                           
 11265                           ;Config register IDLOC7 @ 0x20000E
 11266                           ;	unspecified, using default values
 11267  20000E                     	org	2097166
 11268  20000E  0FFF               	dw	4095
 11269                           
 11270                           ;Config register IDLOC8 @ 0x200010
 11271                           ;	unspecified, using default values
 11272  200010                     	org	2097168
 11273  200010  0FFF               	dw	4095
 11274                           
 11275                           ;Config register IDLOC9 @ 0x200012
 11276                           ;	unspecified, using default values
 11277  200012                     	org	2097170
 11278  200012  0FFF               	dw	4095
 11279                           
 11280                           ;Config register IDLOC10 @ 0x200014
 11281                           ;	unspecified, using default values
 11282  200014                     	org	2097172
 11283  200014  0FFF               	dw	4095
 11284                           
 11285                           ;Config register IDLOC11 @ 0x200016
 11286                           ;	unspecified, using default values
 11287  200016                     	org	2097174
 11288  200016  0FFF               	dw	4095
 11289                           
 11290                           ;Config register IDLOC12 @ 0x200018
 11291                           ;	unspecified, using default values
 11292  200018                     	org	2097176
 11293  200018  0FFF               	dw	4095
 11294                           
 11295                           ;Config register IDLOC13 @ 0x20001A
 11296                           ;	unspecified, using default values
 11297  20001A                     	org	2097178
 11298  20001A  0FFF               	dw	4095
 11299                           
 11300                           ;Config register IDLOC14 @ 0x20001C
 11301                           ;	unspecified, using default values
 11302  20001C                     	org	2097180
 11303  20001C  0FFF               	dw	4095
 11304                           
 11305                           ;Config register IDLOC15 @ 0x20001E
 11306                           ;	unspecified, using default values
 11307  20001E                     	org	2097182
 11308  20001E  0FFF               	dw	4095
 11309                           
 11310                           	psect	config
 11311                           
 11312                           ;Config register CONFIG1 @ 0x300000
 11313                           ;	External Oscillator Selection
 11314                           ;	FEXTOSC = HS, HS (crystal oscillator) above 8 MHz
 11315                           ;	Reset Oscillator Selection
 11316                           ;	RSTOSC = EXTOSC, EXTOSC operating per FEXTOSC bits (device manufacturing default)
 11317  300000                     	org	3145728
 11318  300000  FA                 	db	250
 11319                           
 11320                           ;Config register CONFIG2 @ 0x300001
 11321                           ;	Clock out Enable bit
 11322                           ;	CLKOUTEN = OFF, CLKOUT function is disabled
 11323                           ;	PRLOCKED One-Way Set Enable bit
 11324                           ;	PR1WAY = ON, PRLOCKED bit can be cleared and set only once
 11325                           ;	Clock Switch Enable bit
 11326                           ;	CSWEN = ON, Writing to NOSC and NDIV is allowed
 11327                           ;	JTAG Enable bit
 11328                           ;	JTAGEN = OFF, Disable JTAG Boundary Scan mode, JTAG pins revert to user functions
 11329                           ;	Fail-Safe Clock Monitor Enable bit
 11330                           ;	FCMEN = ON, Fail-Safe Clock Monitor enabled
 11331                           ;	Fail-Safe Clock Monitor -Primary XTAL Enable bit
 11332                           ;	FCMENP = ON, FSCM timer will set FSCMP bit and OSFIF interrupt on Primary XTAL failure
 11333                           ;	Fail-Safe Clock Monitor -Secondary XTAL Enable bit
 11334                           ;	FCMENS = ON, FSCM timer will set FSCMS bit and OSFIF interrupt on Secondary XTAL failu
      +                          re
 11335  300001                     	org	3145729
 11336  300001  EF                 	db	239
 11337                           
 11338                           ;Config register CONFIG3 @ 0x300002
 11339                           ;	MCLR Enable bit
 11340                           ;	MCLRE = EXTMCLR, If LVP = 0, MCLR pin is MCLR; If LVP = 1, RE3 pin function is MCLR
 11341                           ;	Power-up timer selection bits
 11342                           ;	PWRTS = PWRT_OFF, PWRT is disabled
 11343                           ;	Multi-vector enable bit
 11344                           ;	MVECEN = OFF, Interrupt contoller does not use vector table to prioritze interrupts
 11345                           ;	IVTLOCK bit One-way set enable bit
 11346                           ;	IVT1WAY = ON, IVTLOCKED bit can be cleared and set only once
 11347                           ;	Low Power BOR Enable bit
 11348                           ;	LPBOREN = OFF, Low-Power BOR disabled
 11349                           ;	Brown-out Reset Enable bits
 11350                           ;	BOREN = SBORDIS, Brown-out Reset enabled , SBOREN bit is ignored
 11351  300002                     	org	3145730
 11352  300002  F7                 	db	247
 11353                           
 11354                           ;Config register CONFIG4 @ 0x300003
 11355                           ;	Brown-out Reset Voltage Selection bits
 11356                           ;	BORV = VBOR_1P9, Brown-out Reset Voltage (VBOR) set to 1.9V
 11357                           ;	ZCD Disable bit
 11358                           ;	ZCD = OFF, ZCD module is disabled. ZCD can be enabled by setting the ZCDSEN bit of ZCD
      +                          CON
 11359                           ;	PPSLOCK bit One-Way Set Enable bit
 11360                           ;	PPS1WAY = ON, PPSLOCKED bit can be cleared and set only once; PPS registers remain loc
      +                          ked after one clear/set cycle
 11361                           ;	Stack Full/Underflow Reset Enable bit
 11362                           ;	STVREN = ON, Stack full/underflow will cause Reset
 11363                           ;	Low Voltage Programming Enable bit
 11364                           ;	LVP = OFF, HV on MCLR/VPP must be used for programming
 11365                           ;	Extended Instruction Set Enable bit
 11366                           ;	XINST = OFF, Extended Instruction Set and Indexed Addressing Mode disabled
 11367  300003                     	org	3145731
 11368  300003  DF                 	db	223
 11369                           
 11370                           ;Config register CONFIG5 @ 0x300004
 11371                           ;	WDT Period selection bits
 11372                           ;	WDTCPS = WDTCPS_31, Divider ratio 1:65536; software control of WDTPS
 11373                           ;	WDT operating mode
 11374                           ;	WDTE = OFF, WDT Disabled; SWDTEN is ignored
 11375  300004                     	org	3145732
 11376  300004  9F                 	db	159
 11377                           
 11378                           ;Config register CONFIG6 @ 0x300005
 11379                           ;	WDT Window Select bits
 11380                           ;	WDTCWS = WDTCWS_7, window always open (100%); software control; keyed access not requi
      +                          red
 11381                           ;	WDT input clock selector
 11382                           ;	WDTCCS = SC, Software Control
 11383  300005                     	org	3145733
 11384  300005  FF                 	db	255
 11385                           
 11386                           ;Config register CONFIG7 @ 0x300006
 11387                           ;	Boot Block Size selection bits
 11388                           ;	BBSIZE = BBSIZE_512, Boot Block size is 512 words
 11389                           ;	Boot Block enable bit
 11390                           ;	BBEN = OFF, Boot block disabled
 11391                           ;	Storage Area Flash enable bit
 11392                           ;	SAFEN = OFF, SAF disabled
 11393  300006                     	org	3145734
 11394  300006  FF                 	db	255
 11395                           
 11396                           ;Config register CONFIG8 @ 0x300007
 11397                           ;	Boot Block Write Protection bit
 11398                           ;	WRTB = OFF, Boot Block not Write protected
 11399                           ;	Configuration Register Write Protection bit
 11400                           ;	WRTC = OFF, Configuration registers not Write protected
 11401                           ;	Data EEPROM Write Protection bit
 11402                           ;	WRTD = OFF, Data EEPROM not Write protected
 11403                           ;	SAF Write protection bit
 11404                           ;	WRTSAF = OFF, SAF not Write Protected
 11405                           ;	Application Block write protection bit
 11406                           ;	WRTAPP = OFF, Application Block not write protected
 11407  300007                     	org	3145735
 11408  300007  FF                 	db	255
 11409                           
 11410                           ;Config register CONFIG9 @ 0x300008
 11411                           ;	CRC on boot output pin selection
 11412                           ;	BOOTPINSEL = RC5, CRC on boot output pin is RC5
 11413                           ;	CRC on boot output pin enable bit
 11414                           ;	BPEN = OFF, CRC on boot output pin disabled
 11415                           ;	CRC on boot output pin open drain bit
 11416                           ;	ODCON = OFF, Pin drives both high-going and low-going signals
 11417  300008                     	org	3145736
 11418  300008  FF                 	db	255
 11419                           
 11420                           ;Config register CONFIG10 @ 0x300009
 11421                           ;	PFM and Data EEPROM Code Protection bit
 11422                           ;	CP = OFF, PFM and Data EEPROM code protection disabled
 11423  300009                     	org	3145737
 11424  300009  FF                 	db	255
 11425                           
 11426                           ;Config register CONFIG11 @ 0x30000A
 11427                           ;	CRC on boot scan enable for boot area
 11428                           ;	BOOTSCEN = OFF, CRC on boot will not include the boot area of program memory in its ca
      +                          lculation
 11429                           ;	CRC on boot Continue on Error for boot areas bit
 11430                           ;	BOOTCOE = HALT, CRC on boot will stop device if error is detected in boot areas
 11431                           ;	CRC on boot application code scan enable
 11432                           ;	APPSCEN = OFF, CRC on boot will not include the application area of program memory in 
      +                          its calculation
 11433                           ;	CRC on boot SAF area scan enable
 11434                           ;	SAFSCEN = OFF, CRC on boot will not include the SAF area of program memory in its calc
      +                          ulation
 11435                           ;	CRC on boot Data EEPROM scan enable
 11436                           ;	DATASCEN = OFF, CRC on boot will not include data EEPROM in its calculation
 11437                           ;	CRC on boot Config fuses scan enable
 11438                           ;	CFGSCEN = OFF, CRC on boot will not include the configuration fuses in its calculation
 11439                           ;	CRC on boot Continue on Error for non-boot areas bit
 11440                           ;	COE = HALT, CRC on boot will stop device if error is detected in non-boot areas
 11441                           ;	Boot on CRC Enable bit
 11442                           ;	BOOTPOR = OFF, CRC on boot will not run
 11443  30000A                     	org	3145738
 11444  30000A  FF                 	db	255
 11445                           
 11446                           ;Config register CONFIG12 @ 0x30000B
 11447                           ;	Boot Sector Polynomial for CRC on boot bits 31-24
 11448                           ;	BCRCPOLT = hFF, Bits 31:24 of BCRCPOL are 0xFF
 11449  30000B                     	org	3145739
 11450  30000B  FF                 	db	255
 11451                           
 11452                           ;Config register CONFIG13 @ 0x30000C
 11453                           ;	Boot Sector Polynomial for CRC on boot bits 23-16
 11454                           ;	BCRCPOLU = hFF, Bits 23:16 of BCRCPOL are 0xFF
 11455  30000C                     	org	3145740
 11456  30000C  FF                 	db	255
 11457                           
 11458                           ;Config register CONFIG14 @ 0x30000D
 11459                           ;	Boot Sector Polynomial for CRC on boot bits 15-8
 11460                           ;	BCRCPOLH = hFF, Bits 15:8 of BCRCPOL are 0xFF
 11461  30000D                     	org	3145741
 11462  30000D  FF                 	db	255
 11463                           
 11464                           ;Config register CONFIG15 @ 0x30000E
 11465                           ;	Boot Sector Polynomial for CRC on boot bits 7-0
 11466                           ;	BCRCPOLL = hFF, Bits 7:0 of BCRCPOL are 0xFF
 11467  30000E                     	org	3145742
 11468  30000E  FF                 	db	255
 11469                           
 11470                           ;Config register CONFIG16 @ 0x30000F
 11471                           ;	Boot Sector Seed for CRC on boot bits 31-24
 11472                           ;	BCRCSEEDT = hFF, Bits 31:24 of BCRCSEED are 0xFF
 11473  30000F                     	org	3145743
 11474  30000F  FF                 	db	255
 11475                           
 11476                           ;Config register CONFIG17 @ 0x300010
 11477                           ;	Boot Sector Seed for CRC on boot bits 23-16
 11478                           ;	BCRCSEEDU = hFF, Bits 23:16 of BCRCSEED are 0xFF
 11479  300010                     	org	3145744
 11480  300010  FF                 	db	255
 11481                           
 11482                           ;Config register CONFIG18 @ 0x300011
 11483                           ;	Boot Sector Seed for CRC on boot bits 15-8
 11484                           ;	BCRCSEEDH = hFF, Bits 15:8 of BCRCSEED are 0xFF
 11485  300011                     	org	3145745
 11486  300011  FF                 	db	255
 11487                           
 11488                           ;Config register CONFIG19 @ 0x300012
 11489                           ;	Boot Sector Seed for CRC on boot bits 7-0
 11490                           ;	BCRCSEEDL = hFF, Bits 7:0 of BCRCSEED are 0xFF
 11491  300012                     	org	3145746
 11492  300012  FF                 	db	255
 11493                           
 11494                           ;Config register CONFIG20 @ 0x300013
 11495                           ;	unspecified, using default values
 11496                           ;	Boot Sector Expected Result for CRC on boot bits 31-24
 11497                           ;	BCRCEREST = 0xFF, unprogrammed default
 11498  300013                     	org	3145747
 11499  300013  FF                 	db	255
 11500                           
 11501                           ;Config register CONFIG21 @ 0x300014
 11502                           ;	unspecified, using default values
 11503                           ;	Boot Sector Expected Result for CRC on boot bits 23-16
 11504                           ;	BCRCERESU = 0xFF, unprogrammed default
 11505  300014                     	org	3145748
 11506  300014  FF                 	db	255
 11507                           
 11508                           ;Config register CONFIG22 @ 0x300015
 11509                           ;	unspecified, using default values
 11510                           ;	Boot Sector Expected Result for CRC on boot bits 15-8
 11511                           ;	BCRCERESH = 0xFF, unprogrammed default
 11512  300015                     	org	3145749
 11513  300015  FF                 	db	255
 11514                           
 11515                           ;Config register CONFIG23 @ 0x300016
 11516                           ;	unspecified, using default values
 11517                           ;	Boot Sector Expected Result for CRC on boot bits 7-0
 11518                           ;	BCRCERESL = 0xFF, unprogrammed default
 11519  300016                     	org	3145750
 11520  300016  FF                 	db	255
 11521                           
 11522                           ;Config register CONFIG24 @ 0x300017
 11523                           ;	Non-Boot Sector Polynomial for CRC on boot bits 31-24
 11524                           ;	CRCPOLT = hFF, Bits 31:24 of CRCPOL are 0xFF
 11525  300017                     	org	3145751
 11526  300017  FF                 	db	255
 11527                           
 11528                           ;Config register CONFIG25 @ 0x300018
 11529                           ;	Non-Boot Sector Polynomial for CRC on boot bits 23-16
 11530                           ;	CRCPOLU = hFF, Bits 23:16 of CRCPOL are 0xFF
 11531  300018                     	org	3145752
 11532  300018  FF                 	db	255
 11533                           
 11534                           ;Config register CONFIG26 @ 0x300019
 11535                           ;	Non-Boot Sector Polynomial for CRC on boot bits 15-8
 11536                           ;	CRCPOLH = hFF, Bits 15:8 of CRCPOL are 0xFF
 11537  300019                     	org	3145753
 11538  300019  FF                 	db	255
 11539                           
 11540                           ;Config register CONFIG27 @ 0x30001A
 11541                           ;	Non-Boot Sector Polynomial for CRC on boot bits 7-0
 11542                           ;	CRCPOLL = hFF, Bits 7:0 of CRCPOL are 0xFF
 11543  30001A                     	org	3145754
 11544  30001A  FF                 	db	255
 11545                           
 11546                           ;Config register CONFIG28 @ 0x30001B
 11547                           ;	Non-Boot Sector Seed for CRC on boot bits 31-24
 11548                           ;	CRCSEEDT = hFF, Bits 31:24 of CRCSEED are 0xFF
 11549  30001B                     	org	3145755
 11550  30001B  FF                 	db	255
 11551                           
 11552                           ;Config register CONFIG29 @ 0x30001C
 11553                           ;	Non-Boot Sector Seed for CRC on boot bits 23-16
 11554                           ;	CRCSEEDU = hFF, Bits 23:16 of CRCSEED are 0xFF
 11555  30001C                     	org	3145756
 11556  30001C  FF                 	db	255
 11557                           
 11558                           ;Config register CONFIG30 @ 0x30001D
 11559                           ;	Non-Boot Sector Seed for CRC on boot bits 15-8
 11560                           ;	CRCSEEDH = hFF, Bits 15:8 of CRCSEED are 0xFF
 11561  30001D                     	org	3145757
 11562  30001D  FF                 	db	255
 11563                           
 11564                           ;Config register CONFIG31 @ 0x30001E
 11565                           ;	Non-Boot Sector Seed for CRC on boot bits 7-0
 11566                           ;	CRCSEEDL = hFF, Bits 7:0 of CRCSEED are 0xFF
 11567  30001E                     	org	3145758
 11568  30001E  FF                 	db	255
 11569                           
 11570                           ;Config register CONFIG32 @ 0x30001F
 11571                           ;	unspecified, using default values
 11572                           ;	Non-Boot Sector Expected Result for CRC on boot bits 31-24
 11573                           ;	CRCEREST = 0xFF, unprogrammed default
 11574  30001F                     	org	3145759
 11575  30001F  FF                 	db	255
 11576                           
 11577                           ;Config register CONFIG33 @ 0x300020
 11578                           ;	unspecified, using default values
 11579                           ;	Non-Boot Sector Expected Result for CRC on boot bits 23-16
 11580                           ;	CRCERESU = 0xFF, unprogrammed default
 11581  300020                     	org	3145760
 11582  300020  FF                 	db	255
 11583                           
 11584                           ;Config register CONFIG34 @ 0x300021
 11585                           ;	unspecified, using default values
 11586                           ;	Non-Boot Sector Expected Result for CRC on boot bits 15-8
 11587                           ;	CRCERESH = 0xFF, unprogrammed default
 11588  300021                     	org	3145761
 11589  300021  FF                 	db	255
 11590                           
 11591                           ;Config register CONFIG35 @ 0x300022
 11592                           ;	unspecified, using default values
 11593                           ;	Non-Boot Sector Expected Result for CRC on boot bits 7-0
 11594                           ;	CRCERESL = 0xFF, unprogrammed default
 11595  300022                     	org	3145762
 11596  300022  FF                 	db	255
 11597                           
 11598                           ; Padding undefined space
 11599  300023                     	org	3145763
 11600  300023  FF                 	db	255
 11601                           tosu	equ	0x4FF
 11602                           tosh	equ	0x4FE
 11603                           tosl	equ	0x4FD
 11604                           stkptr	equ	0x4FC
 11605                           pclatu	equ	0x4FB
 11606                           pclath	equ	0x4FA
 11607                           pcl	equ	0x4F9
 11608                           tblptru	equ	0x4F8
 11609                           tblptrh	equ	0x4F7
 11610                           tblptrl	equ	0x4F6
 11611                           tablat	equ	0x4F5
 11612                           prodh	equ	0x4F4
 11613                           prodl	equ	0x4F3
 11614                           indf0	equ	0x4EF
 11615                           postinc0	equ	0x4EE
 11616                           postdec0	equ	0x4ED
 11617                           preinc0	equ	0x4EC
 11618                           plusw0	equ	0x4EB
 11619                           fsr0h	equ	0x4EA
 11620                           fsr0l	equ	0x4E9
 11621                           wreg	equ	0x4E8
 11622                           indf1	equ	0x4E7
 11623                           postinc1	equ	0x4E6
 11624                           postdec1	equ	0x4E5
 11625                           preinc1	equ	0x4E4
 11626                           plusw1	equ	0x4E3
 11627                           fsr1h	equ	0x4E2
 11628                           fsr1l	equ	0x4E1
 11629                           bsr	equ	0x4E0
 11630                           indf2	equ	0x4DF
 11631                           postinc2	equ	0x4DE
 11632                           postdec2	equ	0x4DD
 11633                           preinc2	equ	0x4DC
 11634                           plusw2	equ	0x4DB
 11635                           fsr2h	equ	0x4DA
 11636                           fsr2l	equ	0x4D9
 11637                           status	equ	0x4D8

Data Sizes:
    Strings     0
    Constant    11
    Data        2
    BSS         121
    Persistent  28
    Stack       0

Auto Spaces:
    Space          Size  Autos    Used
    COMRAM           95     85      93
    BANK5           160     14     149
    BANK6           256      4      12
    BANK7           256      0       0
    BANK8           256      0       0
    BANK9           256      0       0
    BANK10          256      0       0
    BANK11          256      0       0
    BANK12          256      0       0
    BANK13          256      0       0
    BANK14          256      0       0
    BANK15          256      0       0
    BANK16          256      0       0
    BANK17          256      0       0
    BANK18          256      0       0
    BANK19          256      0       0
    BANK20          256      0       0
    BANK21          256      0       0
    BANK22          256      0       0
    BANK23          256      0       0
    BANK24          256      0       0
    BANK25          256      0       0
    BANK26          256      0       0
    BANK27          256      0       0
    BANK28          256      0       0
    BANK29          256      0       0
    BANK30          256      0       0
    BANK31          256      0       0
    BANK32          256      0       0
    BANK33          256      0       0
    BANK34          256      0       0
    BANK35          256      0       0
    BANK36          256      0       0
    BANK37          256      0       0

Pointer List with Targets:

    memcpy@d1	PTR void  size(2) Largest target is 9727
		 -> RAM(DATA[9727]), rxMsgData(BANK6[8]), 

    memcpy@d	PTR unsigned char  size(2) Largest target is 9727
		 -> RAM(DATA[9727]), rxMsgData(BANK6[8]), 

    memcpy@s1	PTR const void  size(2) Largest target is 9727
		 -> CANDATAdata(BANK5[8]), RAM(DATA[9727]), rxMsgData(BANK6[8]), 

    memcpy@s	PTR const unsigned char  size(2) Largest target is 9727
		 -> CANDATAdata(BANK5[8]), RAM(DATA[9727]), rxMsgData(BANK6[8]), 

    TMR0_SetInterruptHandler@InterruptHandler	PTR FTN()void  size(2) Largest target is 1
		 -> TMR0_DefaultInterruptHandler(), 

    TMR0_InterruptHandler	PTR FTN()void  size(2) Largest target is 1
		 -> TMR0_DefaultInterruptHandler(), Absolute function(), 

    TMR2_SetInterruptHandler@InterruptHandler	PTR FTN()void  size(2) Largest target is 1
		 -> TMR2_DefaultInterruptHandler(), 

    TMR2_InterruptHandler	PTR FTN()void  size(2) Largest target is 1
		 -> TMR2_DefaultInterruptHandler(), Absolute function(), 

    TMR1_SetInterruptHandler@InterruptHandler	PTR FTN()void  size(2) Largest target is 1
		 -> TMR1_DefaultInterruptHandler(), 

    TMR1_InterruptHandler	PTR FTN()void  size(2) Largest target is 1
		 -> TMR1_DefaultInterruptHandler(), Absolute function(), 

    PWM2_16BIT_Period_SetInterruptHandler@InterruptHandler	PTR FTN()void  size(2) Largest target is 1
		 -> PWM2_16BIT_Period_DefaultInterruptHandler(), 

    PWM2_16BIT_Slice1Output2_SetInterruptHandler@InterruptHandler	PTR FTN()void  size(2) Largest target is 1
		 -> PWM2_16BIT_Slice1Output2_DefaultInterruptHandler(), 

    PWM2_16BIT_Slice1Output1_SetInterruptHandler@InterruptHandler	PTR FTN()void  size(2) Largest target is 1
		 -> PWM2_16BIT_Slice1Output1_DefaultInterruptHandler(), 

    PWM2_16BIT_Period_InterruptHandler	PTR FTN()void  size(2) Largest target is 1
		 -> PWM2_16BIT_Period_DefaultInterruptHandler(), Absolute function(), 

    PWM2_16BIT_Slice1Output2_InterruptHandler	PTR FTN()void  size(2) Largest target is 1
		 -> PWM2_16BIT_Slice1Output2_DefaultInterruptHandler(), Absolute function(), 

    PWM2_16BIT_Slice1Output1_InterruptHandler	PTR FTN()void  size(2) Largest target is 1
		 -> PWM2_16BIT_Slice1Output1_DefaultInterruptHandler(), Absolute function(), 

    CAN1_SetFIFO1NotEmptyHandler@handler	PTR FTN()void  size(2) Largest target is 1
		 -> DefaultFIFO1NotEmptyHandler(), 

    CAN1_FIFO1NotEmptyHandler	PTR FTN()void  size(2) Largest target is 1
		 -> DefaultFIFO1NotEmptyHandler(), Absolute function(), 

    CAN1_SetRxBufferOverFlowInterruptHandler@handler	PTR FTN()void  size(2) Largest target is 1
		 -> DefaultRxBufferOverflowHandler(), 

    CAN1_RxBufferOverflowHandler	PTR FTN()void  size(2) Largest target is 1
		 -> DefaultRxBufferOverflowHandler(), Absolute function(), 

    CAN1_SetTxAttemptInterruptHandler@handler	PTR FTN()void  size(2) Largest target is 1
		 -> DefaultTxAttemptHandler(), 

    CAN1_TxAttemptHandler	PTR FTN()void  size(2) Largest target is 1
		 -> DefaultTxAttemptHandler(), Absolute function(), 

    CAN1_SetSystemErrorInterruptHandler@handler	PTR FTN()void  size(2) Largest target is 1
		 -> DefaultSystemErrorHandler(), 

    CAN1_SystemErrorHandler	PTR FTN()void  size(2) Largest target is 1
		 -> DefaultSystemErrorHandler(), Absolute function(), 

    CAN1_SetModeChangeInterruptHandler@handler	PTR FTN()void  size(2) Largest target is 1
		 -> DefaultModeChangeHandler(), 

    CAN1_ModeChangeHandler	PTR FTN()void  size(2) Largest target is 1
		 -> DefaultModeChangeHandler(), Absolute function(), 

    CAN1_SetBusErrorInterruptHandler@handler	PTR FTN()void  size(2) Largest target is 1
		 -> DefaultBusErrorHandler(), 

    CAN1_BusErrorHandler	PTR FTN()void  size(2) Largest target is 1
		 -> DefaultBusErrorHandler(), Absolute function(), 

    CAN1_SetBusWakeUpActivityInterruptHandler@handler	PTR FTN()void  size(2) Largest target is 1
		 -> DefaultBusWakeUpActivityHandler(), 

    CAN1_BusWakeUpActivityHandler	PTR FTN()void  size(2) Largest target is 1
		 -> DefaultBusWakeUpActivityHandler(), Absolute function(), 

    CAN1_SetInvalidMessageInterruptHandler@handler	PTR FTN()void  size(2) Largest target is 1
		 -> DefaultInvalidMessageHandler(), 

    CAN1_InvalidMessageHandler	PTR FTN()void  size(2) Largest target is 1
		 -> DefaultInvalidMessageHandler(), Absolute function(), 

    ValidateTransmission@txCanMsg.data	PTR unsigned char  size(2) Largest target is 8
		 -> CANDATAdata(BANK5[8]), rxMsgData(BANK6[8]), 

    WriteMessageToFifo@txCanMsg.data	PTR unsigned char  size(2) Largest target is 8
		 -> CANDATAdata(BANK5[8]), rxMsgData(BANK6[8]), 

    CAN1_Receive@rxCanMsg	PTR struct . size(2) Largest target is 8
		 -> msgReceipt(BANK5[7]), 

    Receive@rxCanMsg	PTR struct . size(2) Largest target is 8
		 -> msgReceipt(BANK5[7]), 

    Receive@rxFifoObj	PTR unsigned char  size(2) Largest target is 9727
		 -> RAM(DATA[9727]), 

    sp__memcpy	PTR void  size(2) Largest target is 9727
		 -> RAM(DATA[9727]), rxMsgData(BANK6[8]), 

    ReadMessageFromFifo@rxCanMsg.data	PTR unsigned char  size(2) Largest target is 8
		 -> CANDATAdata(BANK5[8]), rxMsgData(BANK6[8]), 

    ReadMessageFromFifo@rxCanMsg	PTR struct . size(2) Largest target is 8
		 -> msgReceipt(BANK5[7]), 

    ReadMessageFromFifo@rxFifoObj	PTR unsigned char  size(2) Largest target is 9727
		 -> RAM(DATA[9727]), 

    FIFO	const PTR volatile struct CAN_FIFOREG size(2) Largest target is 1
		 -> C1TXQCONL(SFR_1[1]), 

    msgReceipt.data	PTR unsigned char  size(2) Largest target is 8
		 -> CANDATAdata(BANK5[8]), rxMsgData(BANK6[8]), 

    S1311$data	PTR unsigned char  size(2) Largest target is 8
		 -> CANDATAdata(BANK5[8]), rxMsgData(BANK6[8]), 

    msgTransmit.data	PTR unsigned char  size(2) Largest target is 8
		 -> CANDATAdata(BANK5[8]), rxMsgData(BANK6[8]), 

    ADC_SetActiveClockTuningInterruptHandler@InterruptHandler	PTR FTN()void  size(2) Largest target is 1
		 -> ADC_DefaultActiveClockTuning_ISR(), 

    ADC_SetContext4ThresholdInterruptHandler@InterruptHandler	PTR FTN()void  size(2) Largest target is 1
		 -> ADC_DefaultContext4Threshold_ISR(), 

    ADC_SetContext3ThresholdInterruptHandler@InterruptHandler	PTR FTN()void  size(2) Largest target is 1
		 -> ADC_DefaultContext3Threshold_ISR(), 

    ADC_SetContext2ThresholdInterruptHandler@InterruptHandler	PTR FTN()void  size(2) Largest target is 1
		 -> ADC_DefaultContext2Threshold_ISR(), 

    ADC_SetContext1ThresholdInterruptHandler@InterruptHandler	PTR FTN()void  size(2) Largest target is 1
		 -> ADC_DefaultContext1Threshold_ISR(), 

    ADC_SetADIInterruptHandler@InterruptHandler	PTR FTN()void  size(2) Largest target is 1
		 -> ADC_DefaultADI_ISR(), 

    ADC_Context4Thereshld_ISR	PTR FTN()void  size(2) Largest target is 1
		 -> ADC_DefaultContext4Threshold_ISR(), Absolute function(), 

    ADC_Context3Thereshld_ISR	PTR FTN()void  size(2) Largest target is 1
		 -> ADC_DefaultContext3Threshold_ISR(), Absolute function(), 

    ADC_Context2Thereshld_ISR	PTR FTN()void  size(2) Largest target is 1
		 -> ADC_DefaultContext2Threshold_ISR(), Absolute function(), 

    ADC_Context1Thereshld_ISR	PTR FTN()void  size(2) Largest target is 1
		 -> ADC_DefaultContext1Threshold_ISR(), Absolute function(), 

    ADC_ActiveClockTuning_ISR	PTR FTN()void  size(2) Largest target is 1
		 -> ADC_DefaultActiveClockTuning_ISR(), Absolute function(), 

    ADC_ConversionComplete_ISR	PTR FTN()void  size(2) Largest target is 1
		 -> ADC_DefaultADI_ISR(), Absolute function(), 

    PWM1_16BIT_Period_SetInterruptHandler@InterruptHandler	PTR FTN()void  size(2) Largest target is 1
		 -> PWM1_16BIT_Period_DefaultInterruptHandler(), 

    PWM1_16BIT_Slice1Output2_SetInterruptHandler@InterruptHandler	PTR FTN()void  size(2) Largest target is 1
		 -> PWM1_16BIT_Slice1Output2_DefaultInterruptHandler(), 

    PWM1_16BIT_Slice1Output1_SetInterruptHandler@InterruptHandler	PTR FTN()void  size(2) Largest target is 1
		 -> PWM1_16BIT_Slice1Output1_DefaultInterruptHandler(), 

    PWM1_16BIT_Period_InterruptHandler	PTR FTN()void  size(2) Largest target is 1
		 -> PWM1_16BIT_Period_DefaultInterruptHandler(), Absolute function(), 

    PWM1_16BIT_Slice1Output2_InterruptHandler	PTR FTN()void  size(2) Largest target is 1
		 -> PWM1_16BIT_Slice1Output2_DefaultInterruptHandler(), Absolute function(), 

    PWM1_16BIT_Slice1Output1_InterruptHandler	PTR FTN()void  size(2) Largest target is 1
		 -> PWM1_16BIT_Slice1Output1_DefaultInterruptHandler(), Absolute function(), 

    INT0_SetInterruptHandler@InterruptHandler	PTR FTN()void  size(2) Largest target is 1
		 -> INT0_DefaultInterruptHandler(), 

    INT0_InterruptHandler	PTR FTN()void  size(2) Largest target is 1
		 -> INT0_DefaultInterruptHandler(), Absolute function(), 


Critical Paths under _main in COMRAM

    None.

Critical Paths under _INTERRUPT_InterruptManager in COMRAM

    _TMR1_ISR->_TMR1_WriteTimer
    _GPIO_BrakePedalAtRest->_ANALOG_GetVoltage
    _ANALOG_GetVoltage->___fltol
    ___flmul->___xxtofl
    _DefaultFIFO1NotEmptyHandler->_CANReadMessage
    _CANReadMessage->_SERVICEBRAKE_Move
    _SERVICEBRAKE_Move->_GPIO_PWM1_Control
    _GPIO_PWM1_Control->___fltol
    ___fltol->___fladd
    ___fladd->___flmul
    _CAN1_ReceivedMessageCountGet->_GetRxFifoDepth
    _CAN1_Receive->_Receive
    _Receive->_ReadMessageFromFifo
    _ReadMessageFromFifo->_memcpy

Critical Paths under _main in BANK5

    None.

Critical Paths under _INTERRUPT_InterruptManager in BANK5

    _DefaultFIFO1NotEmptyHandler->_CANReadMessage

Critical Paths under _main in BANK6

    _SYSTEM_Initialize->_TMR1_Initialize
    _TMR2_Initialize->_TMR2_SetInterruptHandler
    _TMR1_Initialize->_TMR1_SetInterruptHandler
    _TMR0_Initialize->_TMR0_SetInterruptHandler
    _PWM2_16BIT_Initialize->_PWM2_16BIT_Period_SetInterruptHandler
    _PWM2_16BIT_Initialize->_PWM2_16BIT_Slice1Output1_SetInterruptHandler
    _PWM2_16BIT_Initialize->_PWM2_16BIT_Slice1Output2_SetInterruptHandler
    _PWM1_16BIT_Initialize->_PWM1_16BIT_Period_SetInterruptHandler
    _PWM1_16BIT_Initialize->_PWM1_16BIT_Slice1Output1_SetInterruptHandler
    _PWM1_16BIT_Initialize->_PWM1_16BIT_Slice1Output2_SetInterruptHandler
    _EXT_INT_Initialize->_INT0_SetInterruptHandler
    _CAN1_Initialize->_CAN1_OperationModeSet
    _CAN1_RX_FIFO_Configuration->_CAN1_SetFIFO1NotEmptyHandler
    _CAN1_ErrorNotificationInterruptEnable->_CAN1_SetBusErrorInterruptHandler
    _CAN1_ErrorNotificationInterruptEnable->_CAN1_SetBusWakeUpActivityInterruptHandler
    _CAN1_ErrorNotificationInterruptEnable->_CAN1_SetInvalidMessageInterruptHandler
    _CAN1_ErrorNotificationInterruptEnable->_CAN1_SetModeChangeInterruptHandler
    _CAN1_ErrorNotificationInterruptEnable->_CAN1_SetRxBufferOverFlowInterruptHandler
    _CAN1_ErrorNotificationInterruptEnable->_CAN1_SetSystemErrorInterruptHandler
    _CAN1_ErrorNotificationInterruptEnable->_CAN1_SetTxAttemptInterruptHandler
    _ADC_Initialize->_ADC_SetADIInterruptHandler
    _ADC_Initialize->_ADC_SetActiveClockTuningInterruptHandler
    _ADC_Initialize->_ADC_SetContext1ThresholdInterruptHandler
    _ADC_Initialize->_ADC_SetContext2ThresholdInterruptHandler
    _ADC_Initialize->_ADC_SetContext3ThresholdInterruptHandler
    _ADC_Initialize->_ADC_SetContext4ThresholdInterruptHandler

Critical Paths under _INTERRUPT_InterruptManager in BANK6

    None.

Critical Paths under _main in BANK7

    None.

Critical Paths under _INTERRUPT_InterruptManager in BANK7

    None.

Critical Paths under _main in BANK8

    None.

Critical Paths under _INTERRUPT_InterruptManager in BANK8

    None.

Critical Paths under _main in BANK9

    None.

Critical Paths under _INTERRUPT_InterruptManager in BANK9

    None.

Critical Paths under _main in BANK10

    None.

Critical Paths under _INTERRUPT_InterruptManager in BANK10

    None.

Critical Paths under _main in BANK11

    None.

Critical Paths under _INTERRUPT_InterruptManager in BANK11

    None.

Critical Paths under _main in BANK12

    None.

Critical Paths under _INTERRUPT_InterruptManager in BANK12

    None.

Critical Paths under _main in BANK13

    None.

Critical Paths under _INTERRUPT_InterruptManager in BANK13

    None.

Critical Paths under _main in BANK14

    None.

Critical Paths under _INTERRUPT_InterruptManager in BANK14

    None.

Critical Paths under _main in BANK15

    None.

Critical Paths under _INTERRUPT_InterruptManager in BANK15

    None.

Critical Paths under _main in BANK16

    None.

Critical Paths under _INTERRUPT_InterruptManager in BANK16

    None.

Critical Paths under _main in BANK17

    None.

Critical Paths under _INTERRUPT_InterruptManager in BANK17

    None.

Critical Paths under _main in BANK18

    None.

Critical Paths under _INTERRUPT_InterruptManager in BANK18

    None.

Critical Paths under _main in BANK19

    None.

Critical Paths under _INTERRUPT_InterruptManager in BANK19

    None.

Critical Paths under _main in BANK20

    None.

Critical Paths under _INTERRUPT_InterruptManager in BANK20

    None.

Critical Paths under _main in BANK21

    None.

Critical Paths under _INTERRUPT_InterruptManager in BANK21

    None.

Critical Paths under _main in BANK22

    None.

Critical Paths under _INTERRUPT_InterruptManager in BANK22

    None.

Critical Paths under _main in BANK23

    None.

Critical Paths under _INTERRUPT_InterruptManager in BANK23

    None.

Critical Paths under _main in BANK24

    None.

Critical Paths under _INTERRUPT_InterruptManager in BANK24

    None.

Critical Paths under _main in BANK25

    None.

Critical Paths under _INTERRUPT_InterruptManager in BANK25

    None.

Critical Paths under _main in BANK26

    None.

Critical Paths under _INTERRUPT_InterruptManager in BANK26

    None.

Critical Paths under _main in BANK27

    None.

Critical Paths under _INTERRUPT_InterruptManager in BANK27

    None.

Critical Paths under _main in BANK28

    None.

Critical Paths under _INTERRUPT_InterruptManager in BANK28

    None.

Critical Paths under _main in BANK29

    None.

Critical Paths under _INTERRUPT_InterruptManager in BANK29

    None.

Critical Paths under _main in BANK30

    None.

Critical Paths under _INTERRUPT_InterruptManager in BANK30

    None.

Critical Paths under _main in BANK31

    None.

Critical Paths under _INTERRUPT_InterruptManager in BANK31

    None.

Critical Paths under _main in BANK32

    None.

Critical Paths under _INTERRUPT_InterruptManager in BANK32

    None.

Critical Paths under _main in BANK33

    None.

Critical Paths under _INTERRUPT_InterruptManager in BANK33

    None.

Critical Paths under _main in BANK34

    None.

Critical Paths under _INTERRUPT_InterruptManager in BANK34

    None.

Critical Paths under _main in BANK35

    None.

Critical Paths under _INTERRUPT_InterruptManager in BANK35

    None.

Critical Paths under _main in BANK36

    None.

Critical Paths under _INTERRUPT_InterruptManager in BANK36

    None.

Critical Paths under _main in BANK37

    None.

Critical Paths under _INTERRUPT_InterruptManager in BANK37

    None.

Call Graph Tables:

 ---------------------------------------------------------------------------------
 (Depth) Function   	        Calls       Base Space   Used Autos Params    Refs
 ---------------------------------------------------------------------------------
 (0) _main                                                 0     0      0    3201
                          _GPIO_Init
                  _SYSTEM_Initialize
                     _TMR0_StopTimer
 ---------------------------------------------------------------------------------
 (1) _TMR0_StopTimer                                       0     0      0       0
 ---------------------------------------------------------------------------------
 (1) _SYSTEM_Initialize                                    0     0      0    3201
                     _ADC_Initialize
                    _CAN1_Initialize
                 _EXT_INT_Initialize
               _INTERRUPT_Initialize
              _OSCILLATOR_Initialize
             _PIN_MANAGER_Initialize
                     _PMD_Initialize
              _PWM1_16BIT_Initialize
              _PWM2_16BIT_Initialize
                    _TMR0_Initialize
                    _TMR1_Initialize
                    _TMR2_Initialize
 ---------------------------------------------------------------------------------
 (2) _TMR2_Initialize                                      0     0      0     121
           _TMR2_SetInterruptHandler
 ---------------------------------------------------------------------------------
 (3) _TMR2_SetInterruptHandler                             2     0      2     121
                                              0 BANK6      2     0      2
 ---------------------------------------------------------------------------------
 (2) _TMR1_Initialize                                      2     2      0     121
                                              2 BANK6      2     2      0
           _TMR1_SetInterruptHandler
 ---------------------------------------------------------------------------------
 (3) _TMR1_SetInterruptHandler                             2     0      2     121
                                              0 BANK6      2     0      2
 ---------------------------------------------------------------------------------
 (2) _TMR0_Initialize                                      0     0      0     121
           _TMR0_SetInterruptHandler
 ---------------------------------------------------------------------------------
 (3) _TMR0_SetInterruptHandler                             2     0      2     121
                                              0 BANK6      2     0      2
 ---------------------------------------------------------------------------------
 (2) _PWM2_16BIT_Initialize                                0     0      0     363
_PWM2_16BIT_Period_SetInterruptHandl
_PWM2_16BIT_Slice1Output1_SetInterru
_PWM2_16BIT_Slice1Output2_SetInterru
 ---------------------------------------------------------------------------------
 (3) _PWM2_16BIT_Slice1Output2_SetInterruptHandler         2     0      2     121
                                              0 BANK6      2     0      2
 ---------------------------------------------------------------------------------
 (3) _PWM2_16BIT_Slice1Output1_SetInterruptHandler         2     0      2     121
                                              0 BANK6      2     0      2
 ---------------------------------------------------------------------------------
 (3) _PWM2_16BIT_Period_SetInterruptHandler                2     0      2     121
                                              0 BANK6      2     0      2
 ---------------------------------------------------------------------------------
 (2) _PWM1_16BIT_Initialize                                0     0      0     363
_PWM1_16BIT_Period_SetInterruptHandl
_PWM1_16BIT_Slice1Output1_SetInterru
_PWM1_16BIT_Slice1Output2_SetInterru
 ---------------------------------------------------------------------------------
 (3) _PWM1_16BIT_Slice1Output2_SetInterruptHandler         2     0      2     121
                                              0 BANK6      2     0      2
 ---------------------------------------------------------------------------------
 (3) _PWM1_16BIT_Slice1Output1_SetInterruptHandler         2     0      2     121
                                              0 BANK6      2     0      2
 ---------------------------------------------------------------------------------
 (3) _PWM1_16BIT_Period_SetInterruptHandler                2     0      2     121
                                              0 BANK6      2     0      2
 ---------------------------------------------------------------------------------
 (2) _PMD_Initialize                                       0     0      0       0
 ---------------------------------------------------------------------------------
 (2) _PIN_MANAGER_Initialize                               0     0      0       0
 ---------------------------------------------------------------------------------
 (2) _OSCILLATOR_Initialize                                0     0      0       0
 ---------------------------------------------------------------------------------
 (2) _INTERRUPT_Initialize                                 0     0      0       0
 ---------------------------------------------------------------------------------
 (2) _EXT_INT_Initialize                                   0     0      0     121
           _INT0_SetInterruptHandler
 ---------------------------------------------------------------------------------
 (3) _INT0_SetInterruptHandler                             2     0      2     121
                                              0 BANK6      2     0      2
 ---------------------------------------------------------------------------------
 (2) _CAN1_Initialize                                      0     0      0    1265
          _CAN1_BitRateConfiguration
_CAN1_ErrorNotificationInterruptEnab
              _CAN1_OperationModeSet
         _CAN1_RX_FIFO_Configuration
_CAN1_RX_FIFO_FilterMaskConfiguratio
             _CAN1_RX_FIFO_ResetInfo
         _CAN1_TX_FIFO_Configuration
 ---------------------------------------------------------------------------------
 (3) _CAN1_TX_FIFO_Configuration                           0     0      0       0
 ---------------------------------------------------------------------------------
 (3) _CAN1_RX_FIFO_ResetInfo                               1     1      0      99
                                              0 BANK6      1     1      0
 ---------------------------------------------------------------------------------
 (3) _CAN1_RX_FIFO_FilterMaskConfiguration                 0     0      0       0
 ---------------------------------------------------------------------------------
 (3) _CAN1_RX_FIFO_Configuration                           0     0      0     121
       _CAN1_SetFIFO1NotEmptyHandler
 ---------------------------------------------------------------------------------
 (4) _CAN1_SetFIFO1NotEmptyHandler                         2     0      2     121
                                              0 BANK6      2     0      2
 ---------------------------------------------------------------------------------
 (3) _CAN1_OperationModeSet                                3     3      0     198
                                              0 BANK6      3     3      0
              _CAN1_OperationModeGet
 ---------------------------------------------------------------------------------
 (4) _CAN1_OperationModeGet                                0     0      0       0
 ---------------------------------------------------------------------------------
 (3) _CAN1_ErrorNotificationInterruptEnable                0     0      0     847
   _CAN1_SetBusErrorInterruptHandler
_CAN1_SetBusWakeUpActivityInterruptH
_CAN1_SetInvalidMessageInterruptHand
 _CAN1_SetModeChangeInterruptHandler
_CAN1_SetRxBufferOverFlowInterruptHa
_CAN1_SetSystemErrorInterruptHandler
  _CAN1_SetTxAttemptInterruptHandler
 ---------------------------------------------------------------------------------
 (4) _CAN1_SetTxAttemptInterruptHandler                    2     0      2     121
                                              0 BANK6      2     0      2
 ---------------------------------------------------------------------------------
 (4) _CAN1_SetSystemErrorInterruptHandler                  2     0      2     121
                                              0 BANK6      2     0      2
 ---------------------------------------------------------------------------------
 (4) _CAN1_SetRxBufferOverFlowInterruptHandler             2     0      2     121
                                              0 BANK6      2     0      2
 ---------------------------------------------------------------------------------
 (4) _CAN1_SetModeChangeInterruptHandler                   2     0      2     121
                                              0 BANK6      2     0      2
 ---------------------------------------------------------------------------------
 (4) _CAN1_SetInvalidMessageInterruptHandler               2     0      2     121
                                              0 BANK6      2     0      2
 ---------------------------------------------------------------------------------
 (4) _CAN1_SetBusWakeUpActivityInterruptHandler            2     0      2     121
                                              0 BANK6      2     0      2
 ---------------------------------------------------------------------------------
 (4) _CAN1_SetBusErrorInterruptHandler                     2     0      2     121
                                              0 BANK6      2     0      2
 ---------------------------------------------------------------------------------
 (3) _CAN1_BitRateConfiguration                            0     0      0       0
 ---------------------------------------------------------------------------------
 (2) _ADC_Initialize                                       0     0      0     726
         _ADC_SetADIInterruptHandler
_ADC_SetActiveClockTuningInterruptHa
_ADC_SetContext1ThresholdInterruptHa
_ADC_SetContext2ThresholdInterruptHa
_ADC_SetContext3ThresholdInterruptHa
_ADC_SetContext4ThresholdInterruptHa
 ---------------------------------------------------------------------------------
 (3) _ADC_SetContext4ThresholdInterruptHandler             2     0      2     121
                                              0 BANK6      2     0      2
 ---------------------------------------------------------------------------------
 (3) _ADC_SetContext3ThresholdInterruptHandler             2     0      2     121
                                              0 BANK6      2     0      2
 ---------------------------------------------------------------------------------
 (3) _ADC_SetContext2ThresholdInterruptHandler             2     0      2     121
                                              0 BANK6      2     0      2
 ---------------------------------------------------------------------------------
 (3) _ADC_SetContext1ThresholdInterruptHandler             2     0      2     121
                                              0 BANK6      2     0      2
 ---------------------------------------------------------------------------------
 (3) _ADC_SetActiveClockTuningInterruptHandler             2     0      2     121
                                              0 BANK6      2     0      2
 ---------------------------------------------------------------------------------
 (3) _ADC_SetADIInterruptHandler                           2     0      2     121
                                              0 BANK6      2     0      2
 ---------------------------------------------------------------------------------
 (1) _GPIO_Init                                            0     0      0       0
 ---------------------------------------------------------------------------------
 Estimated maximum stack depth 4
 ---------------------------------------------------------------------------------
 (Depth) Function   	        Calls       Base Space   Used Autos Params    Refs
 ---------------------------------------------------------------------------------
 (5) _INTERRUPT_InterruptManager                           4     4      0   20526
                                             81 COMRAM     4     4      0
                           _CAN1_ISR
                       _CAN1_RXI_ISR
                           _INT0_ISR
                           _TMR0_ISR
                           _TMR1_ISR
                           _TMR2_ISR
 ---------------------------------------------------------------------------------
 (6) _TMR2_ISR                                             0     0      0       0
                 _TEMPORIZATION_10ms
                      _TMR2_CallBack
 ---------------------------------------------------------------------------------
 (7) _TMR2_CallBack                                        0     0      0       0
                   Absolute function *
       _TMR2_DefaultInterruptHandler *
 ---------------------------------------------------------------------------------
 (8) _TMR2_DefaultInterruptHandler                         0     0      0       0
 ---------------------------------------------------------------------------------
 (7) _TEMPORIZATION_10ms                                   0     0      0       0
 ---------------------------------------------------------------------------------
 (6) _TMR1_ISR                                             0     0      0     240
                _TEMPORIZATION_100ms
                  _TEMPORIZATION_10s
                _TEMPORIZATION_1mins
                   _TEMPORIZATION_1s
                  _TEMPORIZATION_30s
                _TEMPORIZATION_500ms
                      _TMR1_CallBack
                    _TMR1_WriteTimer
 ---------------------------------------------------------------------------------
 (7) _TMR1_WriteTimer                                      2     0      2     240
                                              0 COMRAM     2     0      2
 ---------------------------------------------------------------------------------
 (7) _TMR1_CallBack                                        0     0      0       0
                   Absolute function *
       _TMR1_DefaultInterruptHandler *
 ---------------------------------------------------------------------------------
 (8) _TMR1_DefaultInterruptHandler                         0     0      0       0
 ---------------------------------------------------------------------------------
 (7) _TEMPORIZATION_500ms                                  0     0      0       0
 ---------------------------------------------------------------------------------
 (7) _TEMPORIZATION_30s                                    0     0      0       0
 ---------------------------------------------------------------------------------
 (7) _TEMPORIZATION_1s                                     1     1      0       0
                                              0 COMRAM     1     1      0
 ---------------------------------------------------------------------------------
 (7) _TEMPORIZATION_1mins                                  0     0      0       0
 ---------------------------------------------------------------------------------
 (7) _TEMPORIZATION_10s                                    0     0      0       0
 ---------------------------------------------------------------------------------
 (7) _TEMPORIZATION_100ms                                  0     0      0       0
 ---------------------------------------------------------------------------------
 (6) _TMR0_ISR                                             0     0      0       0
                      _TMR0_CallBack
 ---------------------------------------------------------------------------------
 (7) _TMR0_CallBack                                        0     0      0       0
                   Absolute function *
       _TMR0_DefaultInterruptHandler *
 ---------------------------------------------------------------------------------
 (8) _TMR0_DefaultInterruptHandler                         0     0      0       0
 ---------------------------------------------------------------------------------
 (6) _INT0_ISR                                             0     0      0    8121
                      _INT0_CallBack
 ---------------------------------------------------------------------------------
 (7) _INT0_CallBack                                        0     0      0    8121
                   Absolute function *
              _GPIO_BrakePedalAtRest
       _INT0_DefaultInterruptHandler *
 ---------------------------------------------------------------------------------
 (8) _INT0_DefaultInterruptHandler                         0     0      0       0
 ---------------------------------------------------------------------------------
 (8) _GPIO_BrakePedalAtRest                                0     0      0    8121
                  _ANALOG_GetVoltage
 ---------------------------------------------------------------------------------
 (9) _ANALOG_GetVoltage                                   11    11      0    8121
                                             65 COMRAM    11    11      0
        _ADC_DisableChannelSequencer
            _ADC_GetSingleConversion
                  _ADC_SelectContext
                 _ADC_StopConversion
                            ___fladd
                            ___flmul
                            ___fltol
                            ___lwdiv
                             ___wmul
                           ___xxtofl
 ---------------------------------------------------------------------------------
 (10) ___flmul                                            25    17      8    1744
                                             14 COMRAM    25    17      8
                           ___xxtofl (ARG)
 ---------------------------------------------------------------------------------
 (10) _ADC_StopConversion                                  0     0      0       0
 ---------------------------------------------------------------------------------
 (10) _ADC_SelectContext                                   1     1      0      22
                                              0 COMRAM     1     1      0
 ---------------------------------------------------------------------------------
 (10) _ADC_GetSingleConversion                             5     3      2      22
                                              0 COMRAM     5     3      2
 ---------------------------------------------------------------------------------
 (10) _ADC_DisableChannelSequencer                         0     0      0       0
 ---------------------------------------------------------------------------------
 (6) _CAN1_RXI_ISR                                         0     0      0   12165
                   Absolute function *
        _DefaultFIFO1NotEmptyHandler *
 ---------------------------------------------------------------------------------
 (7) _DefaultFIFO1NotEmptyHandler                          0     0      0   12165
                     _CANReadMessage
 ---------------------------------------------------------------------------------
 (8) _CANReadMessage                                      19    19      0   12165
                                             76 COMRAM     5     5      0
                                              0 BANK5     14    14      0
                       _CAN1_Receive
       _CAN1_ReceivedMessageCountGet
                  _SERVICEBRAKE_Move
 ---------------------------------------------------------------------------------
 (9) _SERVICEBRAKE_Move                                    1     1      0    8725
                                             75 COMRAM     1     1      0
                  _GPIO_PWM1_Control
                            ___lwdiv
 ---------------------------------------------------------------------------------
 (10) _GPIO_PWM1_Control                                  10     6      4    7173
                                             65 COMRAM    10     6      4
     _PWM1_16BIT_LoadBufferRegisters
_PWM1_16BIT_SetSlice1Output1DutyCycl
     _PWM1_16BIT_WritePeriodRegister
                            ___aldiv
                            ___fladd
                            ___fltol
                            ___lwdiv
                             ___wmul
                           ___xxtofl
 ---------------------------------------------------------------------------------
 (10) ___xxtofl                                           14    10      4     550
                                              0 COMRAM    14    10      4
 ---------------------------------------------------------------------------------
 (10) ___wmul                                              6     2      4     615
                                              0 COMRAM     6     2      4
 ---------------------------------------------------------------------------------
 (10) ___lwdiv                                             7     3      4    1530
                                              0 COMRAM     7     3      4
 ---------------------------------------------------------------------------------
 (10) ___fltol                                            10     6      4     457
                                             55 COMRAM    10     6      4
                            ___fladd (ARG)
                            ___flmul (ARG)
                           ___xxtofl (ARG)
 ---------------------------------------------------------------------------------
 (10) ___fladd                                            16     8      8    2692
                                             39 COMRAM    16     8      8
                            ___flmul (ARG)
                           ___xxtofl (ARG)
 ---------------------------------------------------------------------------------
 (11) ___aldiv                                            14     6      8     604
                                              0 COMRAM    14     6      8
 ---------------------------------------------------------------------------------
 (11) _PWM1_16BIT_WritePeriodRegister                      2     0      2     120
                                              0 COMRAM     2     0      2
 ---------------------------------------------------------------------------------
 (11) _PWM1_16BIT_SetSlice1Output1DutyCycleRegister        2     0      2     120
                                              0 COMRAM     2     0      2
 ---------------------------------------------------------------------------------
 (11) _PWM1_16BIT_LoadBufferRegisters                      0     0      0       0
 ---------------------------------------------------------------------------------
 (9) _CAN1_ReceivedMessageCountGet                         8     8      0     541
                                              2 COMRAM     8     8      0
                     _GetRxFifoDepth
                    _GetRxFifoStatus
 ---------------------------------------------------------------------------------
 (9) _CAN1_Receive                                         4     2      2    2162
                                             33 COMRAM     4     2      2
                            _Receive
 ---------------------------------------------------------------------------------
 (10) _Receive                                            10     7      3    1928
                                             23 COMRAM    10     7      3
                     _GetRxFifoDepth
                    _GetRxFifoStatus
                _ReadMessageFromFifo
 ---------------------------------------------------------------------------------
 (11) _ReadMessageFromFifo                                12     8      4    1268
                                             11 COMRAM    12     8      4
                             _memcpy
 ---------------------------------------------------------------------------------
 (12) _memcpy                                             11     5      6     599
                                              0 COMRAM    11     5      6
 ---------------------------------------------------------------------------------
 (10) _GetRxFifoStatus                                     1     1      0      22
                                              0 COMRAM     1     1      0
 ---------------------------------------------------------------------------------
 (10) _GetRxFifoDepth                                      2     2      0      22
                                              0 COMRAM     2     2      0
 ---------------------------------------------------------------------------------
 (6) _CAN1_ISR                                             0     0      0       0
                   Absolute function *
             _DefaultBusErrorHandler *
    _DefaultBusWakeUpActivityHandler *
       _DefaultInvalidMessageHandler *
           _DefaultModeChangeHandler *
     _DefaultRxBufferOverflowHandler *
          _DefaultSystemErrorHandler *
            _DefaultTxAttemptHandler *
 ---------------------------------------------------------------------------------
 (7) _DefaultTxAttemptHandler                              0     0      0       0
 ---------------------------------------------------------------------------------
 (7) _DefaultSystemErrorHandler                            0     0      0       0
 ---------------------------------------------------------------------------------
 (7) _DefaultRxBufferOverflowHandler                       0     0      0       0
 ---------------------------------------------------------------------------------
 (7) _DefaultModeChangeHandler                             0     0      0       0
 ---------------------------------------------------------------------------------
 (7) _DefaultInvalidMessageHandler                         0     0      0       0
 ---------------------------------------------------------------------------------
 (7) _DefaultBusWakeUpActivityHandler                      0     0      0       0
 ---------------------------------------------------------------------------------
 (7) _DefaultBusErrorHandler                               0     0      0       0
 ---------------------------------------------------------------------------------
 (8) Absolute function(Fake)                               0     0      0       0
 ---------------------------------------------------------------------------------
 Estimated maximum stack depth 12
 ---------------------------------------------------------------------------------

 Call Graph Graphs:

 _main (ROOT)
   _GPIO_Init
   _SYSTEM_Initialize
     _ADC_Initialize
       _ADC_SetADIInterruptHandler
       _ADC_SetActiveClockTuningInterruptHandler
       _ADC_SetContext1ThresholdInterruptHandler
       _ADC_SetContext2ThresholdInterruptHandler
       _ADC_SetContext3ThresholdInterruptHandler
       _ADC_SetContext4ThresholdInterruptHandler
     _CAN1_Initialize
       _CAN1_BitRateConfiguration
       _CAN1_ErrorNotificationInterruptEnable
         _CAN1_SetBusErrorInterruptHandler
         _CAN1_SetBusWakeUpActivityInterruptHandler
         _CAN1_SetInvalidMessageInterruptHandler
         _CAN1_SetModeChangeInterruptHandler
         _CAN1_SetRxBufferOverFlowInterruptHandler
         _CAN1_SetSystemErrorInterruptHandler
         _CAN1_SetTxAttemptInterruptHandler
       _CAN1_OperationModeSet
         _CAN1_OperationModeGet
       _CAN1_RX_FIFO_Configuration
         _CAN1_SetFIFO1NotEmptyHandler
       _CAN1_RX_FIFO_FilterMaskConfiguration
       _CAN1_RX_FIFO_ResetInfo
       _CAN1_TX_FIFO_Configuration
     _EXT_INT_Initialize
       _INT0_SetInterruptHandler
     _INTERRUPT_Initialize
     _OSCILLATOR_Initialize
     _PIN_MANAGER_Initialize
     _PMD_Initialize
     _PWM1_16BIT_Initialize
       _PWM1_16BIT_Period_SetInterruptHandler
       _PWM1_16BIT_Slice1Output1_SetInterruptHandler
       _PWM1_16BIT_Slice1Output2_SetInterruptHandler
     _PWM2_16BIT_Initialize
       _PWM2_16BIT_Period_SetInterruptHandler
       _PWM2_16BIT_Slice1Output1_SetInterruptHandler
       _PWM2_16BIT_Slice1Output2_SetInterruptHandler
     _TMR0_Initialize
       _TMR0_SetInterruptHandler
     _TMR1_Initialize
       _TMR1_SetInterruptHandler
     _TMR2_Initialize
       _TMR2_SetInterruptHandler
   _TMR0_StopTimer

 _INTERRUPT_InterruptManager (ROOT)
   _CAN1_ISR
     Absolute function(Fake) *
     _DefaultBusErrorHandler *
     _DefaultBusWakeUpActivityHandler *
     _DefaultInvalidMessageHandler *
     _DefaultModeChangeHandler *
     _DefaultRxBufferOverflowHandler *
     _DefaultSystemErrorHandler *
     _DefaultTxAttemptHandler *
   _CAN1_RXI_ISR
     Absolute function(Fake) *
     _DefaultFIFO1NotEmptyHandler *
       _CANReadMessage
         _CAN1_Receive
           _Receive
             _GetRxFifoDepth
             _GetRxFifoStatus
             _ReadMessageFromFifo
               _memcpy
         _CAN1_ReceivedMessageCountGet
           _GetRxFifoDepth
           _GetRxFifoStatus
         _SERVICEBRAKE_Move
           _GPIO_PWM1_Control
             _PWM1_16BIT_LoadBufferRegisters
             _PWM1_16BIT_SetSlice1Output1DutyCycleRegister
             _PWM1_16BIT_WritePeriodRegister
             ___aldiv
             ___fladd
               ___flmul (ARG)
                 ___xxtofl (ARG)
               ___xxtofl (ARG)
             ___fltol
               ___fladd (ARG)
                 ___flmul (ARG)
                   ___xxtofl (ARG)
                 ___xxtofl (ARG)
               ___flmul (ARG)
                 ___xxtofl (ARG)
               ___xxtofl (ARG)
             ___lwdiv
             ___wmul
             ___xxtofl
           ___lwdiv
   _INT0_ISR
     _INT0_CallBack
       Absolute function(Fake) *
       _GPIO_BrakePedalAtRest *
         _ANALOG_GetVoltage
           _ADC_DisableChannelSequencer
           _ADC_GetSingleConversion
           _ADC_SelectContext
           _ADC_StopConversion
           ___fladd
             ___flmul (ARG)
               ___xxtofl (ARG)
             ___xxtofl (ARG)
           ___flmul
             ___xxtofl (ARG)
           ___fltol
             ___fladd (ARG)
               ___flmul (ARG)
                 ___xxtofl (ARG)
               ___xxtofl (ARG)
             ___flmul (ARG)
               ___xxtofl (ARG)
             ___xxtofl (ARG)
           ___lwdiv
           ___wmul
           ___xxtofl
       _INT0_DefaultInterruptHandler *
   _TMR0_ISR
     _TMR0_CallBack
       Absolute function(Fake) *
       _TMR0_DefaultInterruptHandler *
   _TMR1_ISR
     _TEMPORIZATION_100ms
     _TEMPORIZATION_10s
     _TEMPORIZATION_1mins
     _TEMPORIZATION_1s
     _TEMPORIZATION_30s
     _TEMPORIZATION_500ms
     _TMR1_CallBack
       Absolute function(Fake) *
       _TMR1_DefaultInterruptHandler *
     _TMR1_WriteTimer
   _TMR2_ISR
     _TEMPORIZATION_10ms
     _TMR2_CallBack
       Absolute function(Fake) *
       _TMR2_DefaultInterruptHandler *

 Address spaces:
Name               Size   Autos  Total    Cost      Usage
BIGRAM            20FF      0       0      71        0.0%
EEDATA             400      0       0       0        0.0%
BITBANK37          100      0       0      70        0.0%
BANK37             100      0       0      68        0.0%
BITBANK36          100      0       0      66        0.0%
BANK36             100      0       0      67        0.0%
BITBANK35          100      0       0      64        0.0%
BANK35             100      0       0      65        0.0%
BITBANK34          100      0       0      62        0.0%
BANK34             100      0       0      63        0.0%
BITBANK33          100      0       0      60        0.0%
BANK33             100      0       0      61        0.0%
BITBANK32          100      0       0      58        0.0%
BANK32             100      0       0      59        0.0%
BITBANK31          100      0       0      56        0.0%
BANK31             100      0       0      57        0.0%
BITBANK30          100      0       0      54        0.0%
BANK30             100      0       0      55        0.0%
BITBANK29          100      0       0      52        0.0%
BANK29             100      0       0      53        0.0%
BITBANK28          100      0       0      50        0.0%
BANK28             100      0       0      51        0.0%
BITBANK27          100      0       0      48        0.0%
BANK27             100      0       0      49        0.0%
BITBANK26          100      0       0      46        0.0%
BANK26             100      0       0      47        0.0%
BITBANK25          100      0       0      44        0.0%
BANK25             100      0       0      45        0.0%
BITBANK24          100      0       0      42        0.0%
BANK24             100      0       0      43        0.0%
BITBANK23          100      0       0      40        0.0%
BANK23             100      0       0      41        0.0%
BITBANK22          100      0       0      38        0.0%
BANK22             100      0       0      39        0.0%
BITBANK21          100      0       0      36        0.0%
BANK21             100      0       0      37        0.0%
BITBANK20          100      0       0      34        0.0%
BANK20             100      0       0      35        0.0%
BITBANK19          100      0       0      32        0.0%
BANK19             100      0       0      33        0.0%
BITBANK18          100      0       0      30        0.0%
BANK18             100      0       0      31        0.0%
BITBANK17          100      0       0      28        0.0%
BANK17             100      0       0      29        0.0%
BITBANK16          100      0       0      26        0.0%
BANK16             100      0       0      27        0.0%
BITBANK15          100      0       0      24        0.0%
BANK15             100      0       0      25        0.0%
BITBANK14          100      0       0      22        0.0%
BANK14             100      0       0      23        0.0%
BITBANK13          100      0       0      20        0.0%
BANK13             100      0       0      21        0.0%
BITBANK12          100      0       0      18        0.0%
BANK12             100      0       0      19        0.0%
BITBANK11          100      0       0      16        0.0%
BANK11             100      0       0      17        0.0%
BITBANK10          100      0       0      14        0.0%
BANK10             100      0       0      15        0.0%
BITBANK9           100      0       0      12        0.0%
BANK9              100      0       0      13        0.0%
BITBANK8           100      0       0      10        0.0%
BANK8              100      0       0      11        0.0%
BITBANK7           100      0       0       8        0.0%
BANK7              100      0       0       9        0.0%
BITBANK6           100      0       0       6        0.0%
BANK6              100      4       C       7        4.7%
BITBANK5            A0      0       0       4        0.0%
BANK5               A0      E      95       5       93.1%
BITCOMRAM           5F      0       0       0        0.0%
COMRAM              5F     55      5D       1       97.9%
BITSFR_5             0      0       0     200        0.0%
SFR_5                0      0       0     200        0.0%
BITSFR_4             0      0       0     200        0.0%
SFR_4                0      0       0     200        0.0%
BITSFR_3             0      0       0     200        0.0%
SFR_3                0      0       0     200        0.0%
BITSFR_2             0      0       0     200        0.0%
SFR_2                0      0       0     200        0.0%
BITSFR_1             0      0       0     200        0.0%
SFR_1                0      0       0     200        0.0%
BITSFR               0      0       0     200        0.0%
SFR                  0      0       0     200        0.0%
STACK                0      0       0       2        0.0%
NULL                 0      0       0       0        0.0%
ABS                  0      0      FE      69        0.0%
DATA                 0      0      FE       3        0.0%
CODE                 0      0       0       0        0.0%


Microchip Technology PIC18 Macro Assembler V2.31 build 20201012212115 
Symbol Table                                                                                   Sat Feb 12 21:24:23 2022

                            __end_of_TMR2_SetInterruptHandler 4AFE  
                                                          l45 4AA6  
                                                          l39 4B56  
                                       __size_of_CAN1_Receive 0052  
                                         ___wmul@multiplicand 0503  
                                                         l211 4B4C  
                                                         l108 450E  
                                                         l205 4B42  
                                                         l208 4B38  
                                                         l172 4428  
                                                         l510 4BD8  
                                                         l513 4BCE  
                                                         l361 38A6  
                                                         l601 49C6  
                                                         l522 4BE2  
                                                         l507 4BEC  
                                                         l516 4BC4  
                                                         l519 4BBA  
                                                         l634 4C22  
                                                         l822 483E  
                                                         l831 4ABA  
                                                         l825 494C  
                                                         l834 4ACE  
                                                         l595 477C  
                                                         l852 428A  
                                                         l828 4A0C  
                                                         l837 4340  
                                                         l845 456A  
                                                         l598 4A78  
                                                         l855 42C4  
                                                         l960 4B9C  
                                                         l856 42C6  
                                                         l963 4BA6  
                                                         l859 4B6A  
                                                         l972 4B7E  
                                                         l966 4BB0  
                                                         l975 4B74  
                                                         l969 4B92  
                                                         l993 4B60  
                                                         l978 4B88  
                                                         _PR2 000323  
                                  ??_INT0_SetInterruptHandler 060A  
                                             _timer1ReloadVal 05CF  
                                    ?_DefaultTxAttemptHandler 0501  
                                     __size_of_PMD_Initialize 0028  
                                             _TMR2_Initialize 47E2  
                                                         prod 0004F3  
                                             ?_CANReadMessage 0501  
                                                         tosl 0004FD  
                                                         wreg 0004E8  
                                               _INT0_CallBack 477E  
                                                ___flmul@aexp 0520  
                                                ___flmul@bexp 0521  
                                  _CAN1_InvalidMessageHandler 058A  
                                                ___flmul@sign 051B  
                                                ___flmul@temp 0526  
                                                ___flmul@prod 0522  
                            ??_PWM1_16BIT_LoadBufferRegisters 0501  
                             ?_PWM1_16BIT_LoadBufferRegisters 0501  
                                                ___fltol@exp1 0541  
                                                        l1161 4716  
                                                        l1241 4810  
                                                        l1321 4C0C  
                                                        l1058 43B4  
                                                        l1091 4B24  
                                                        l1315 499E  
                                                        l1340 4B10  
                                                        l1094 4B1A  
                                                        l1520 4A16  
                                                        l1097 4B2E  
                                                        l1530 4A20  
                                                        l1522 4A18  
                                                        l1514 4A0E  
                                                        l1540 4A2A  
                                                        l1532 4A22  
                                                        l1524 4A1A  
                                                        l1516 4A12  
                                                        l1534 4A24  
                                                        l1526 4A1C  
                                                        l1518 4A14  
                                                        l1199 4B06  
                                                        l1287 4AFC  
                                                        l1536 4A26  
                                                        l1528 4A1E  
                                                        l1538 4A28  
                           CAN1_ReceivedMessageCountGet@index 050A  
                                                        l6520 4BA8  
                                                        l6600 4234  
                                                        l6522 4B8A  
                                                        l6530 4B62  
                                                        l6610 4276  
                                                        l6602 423A  
                                                        l6514 4B58  
                                                        l6516 4B94  
                                                        l6524 4B76  
                                                        l6612 429A  
                                                        l6604 4242  
                                                        l6540 4B44  
                                                        l6700 4408  
                                                        l6542 4BE4  
                                                        l6550 4BB2  
                                                        l6710 3842  
                                                        l6518 4B9E  
                                                        l6526 4B6C  
                                                        l6614 42A4  
                                                        l6606 4254  
                                                        l6534 4B4E  
                                                        l6702 4416  
                                                        _ADCP 0003D8  
                                                        l6552 4BDA  
                                                        l6544 4BD0  
                                                        l6720 384C  
                                                        l6712 3844  
                                                        l6528 4B80  
                                                        l6616 42C0  
                                                        l6608 4264  
                                                        l6560 482C  
                                                        l6800 454C  
                                                        l6536 4B3A  
                                                        l6704 4424  
                                                        l6546 4BC6  
                                                        l6730 3892  
                                                        l6722 385A  
                                                        l6714 3846  
                                                        l6706 3682  
                                                        l6570 4948  
                                                        l6562 482E  
                                                        l6554 4812  
                                                        l6810 4560  
                                                        l6802 4550  
                                                        l6538 4B30  
                                                        l6548 4BBC  
                                                        l6724 3868  
                                                        l6716 3848  
                                                        l6708 3840  
                                                        l6572 494A  
                                                        l6564 4924  
                                                        l6580 49F6  
                                                        l6812 4566  
                                                        l6804 4554  
                                                        l6732 4C20  
                                                        l6652 4B1C  
                                                        l6660 4AF4  
                                                        l6740 47F8  
                                                        l6900 4A4E  
                                                        l6726 3876  
                                                        l6718 384A  
                                                        l6590 432C  
                                                        l6566 4936  
                                                        l6574 49EC  
                                                        l6558 4818  
                                                        l6582 4AA8  
                                                        l6814 4568  
                                                        l6806 4558  
                                                        l6670 449E  
                                                        l6734 49A0  
                                                        l6654 4B12  
                                                        l6662 4B08  
                                                        l6750 46DE  
                                                        l6742 47FA  
                                                        l6902 4A50  
                                                        l6728 3884  
                                                        l6584 4ABC  
                                                        l6592 4332  
                                                        l6568 4944  
                                                        l6576 49F2  
                                                        l6808 455C  
                                                        l6664 4A92  
                                                        l6736 4A62  
                                                        l6680 44EC  
                                                        l6672 44E4  
                                                        l6656 4B26  
                                                        l6760 4978  
                                                        l6752 46E0  
                                                        l6744 47FC  
                                                        l6840 4758  
                                                        l6904 4A54  
                                                        l6594 4336  
                                                        l6586 42C8  
                                                        l6578 49F4  
                                                        l6666 4A96  
                                                        l6682 44EE  
                                                        l6674 44E6  
                                                        l6690 43F2  
                                                        l6770 4342  
                                                        l6762 4986  
                                                        l6658 4AFE  
                                                        l6754 4700  
                                                        l6746 480A  
                                                        l6738 47E2  
                                                        l6850 476C  
                                                        l6842 475C  
                                                        l6834 474C  
                                                        l6906 4A58  
                                                        l6596 433A  
                                                        l6588 432A  
                                                        l6668 4AA4  
                                                        l6676 44E8  
                                                        l6692 43F4  
                                                        l6684 43B6  
                                                        l6780 4382  
                                                        l6772 437A  
                                                        l6764 4988  
                                                        l6756 4702  
                                                        l6748 46C8  
                                                        l6852 4770  
                                                        l6844 4760  
                                                        l6836 4750  
                                                        l6598 433E  
                                                        l6678 44EA  
                                                        l6694 43F6  
                                                        l6686 43EE  
                                                        l6790 43B0  
                                                        l6782 4384  
                                                        l6774 437C  
                                                        l6766 498A  
                                                        l6758 4710  
                                                        l6854 4774  
                                                        l6846 4764  
                                                        l6838 4754  
                                                        l6792 4510  
                                                        l6696 43F8  
                                                        l6688 43F0  
                                                        l6784 4386  
                                                        l6776 437E  
                                                        l6768 4998  
                                                        l6856 4778  
                                                        l6848 4768  
                                                        l6794 4514  
                                                        l6698 43FA  
                                                        l6786 4394  
                                                        l6778 4380  
                                                        l6858 4C08  
                                                        l6796 452A  
                                                        l6788 43A2  
                                                        l6798 4548  
                                                        l6898 4A4A  
                                                        _FIFO 260A  
                              __size_of_GPIO_BrakePedalAtRest 0034  
                                                        _LATA 0004BE  
                                                        _LATB 0004BF  
                                                        _LATC 0004C0  
                                                        _T2PR 000323  
                                                _CAN1_RXI_ISR 48F8  
                                                        _PMD0 000060  
                                                        _PMD1 000061  
                                                        _PMD2 000062  
                                                        _PMD3 000063  
                                                        _PMD4 000064  
                                                        _PMD5 000065  
                                                        _PMD6 000066  
                                                        _PMD7 000067  
                                                        u5620 483E  
                                                        _PMD8 000068  
                                                        u5621 483A  
                                                        u5630 4254  
                                                        u5631 4250  
                                                        i2l32 4C06  
                                                        u5640 4264  
                                                        u5641 4260  
                                                        i2l42 4C3C  
                                                        u5650 4276  
                                                        u5651 4272  
                                                        i2l36 47AE  
                                                        u5660 429A  
                                                        u5661 4296  
                                                        u5670 42BC  
                                                        u5750 452A  
                                                        u5671 42B8  
                                                        u5751 4526  
                               __end_of_GPIO_BrakePedalAtRest 474C  
                                                        _TMR2 000322  
                                                        _WPUA 000401  
                                                        _WPUB 000409  
                                                        _WPUC 000411  
                                                        _WPUE 000421  
                                     __size_of_GetRxFifoDepth 001E  
                                            __end_of_CAN1_ISR 3BB2  
                   __end_of_CAN1_SetTxAttemptInterruptHandler 4B76  
                  __size_of_CAN1_SetTxAttemptInterruptHandler 000A  
                         ??_CAN1_SetTxAttemptInterruptHandler 060A  
                          ?_CAN1_SetTxAttemptInterruptHandler 0608  
                           _CAN1_SetTxAttemptInterruptHandler 4B6C  
                                                        _main 4A4A  
                                                        fsr2h 0004DA  
                                                        indf2 0004DF  
                                                        fsr2l 0004D9  
                                                        prodh 0004F4  
                                                        prodl 0004F3  
                                                        start 001A  
                                          __size_of_GPIO_Init 001E  
                                                _CAN1_Receive 4676  
                                  ??_TMR1_SetInterruptHandler 060A  
                                                ___param_bank 000000  
                        __end_of_DefaultInvalidMessageHandler 4C48  
                       __size_of_DefaultInvalidMessageHandler 0002  
                                _DefaultInvalidMessageHandler 4C46  
                  CAN1_SetSystemErrorInterruptHandler@handler 0608  
                                             __end_of_Receive 40A6  
                         CAN1_SetFIFO1NotEmptyHandler@handler 0608  
   PWM1_16BIT_SetSlice1Output1DutyCycleRegister@registerValue 0501  
                                     __end_of_TMR0_Initialize 49A0  
                                            __end_of_INT0_ISR 4C08  
                              ??_TMR0_DefaultInterruptHandler 0501  
                              __size_of_OSCILLATOR_Initialize 0018  
                               __end_of_OSCILLATOR_Initialize 4A7A  
                                               ___fltol@sign1 0540  
                                             __end_of___aldiv 3CBE  
                                ?_ADC_DisableChannelSequencer 0501  
                                                       _ADACT 0003F9  
                                                       _ADCAP 0003F0  
                                             __end_of___fladd 2ACE  
                                                       ?_main 0501  
                                                       _ADCLK 0003FA  
                                                       _ADCNT 0003E6  
                                                       _ADCTX 0003FB  
                                                       _ADPCH 0003EC  
                                                       _ADREF 0003F8  
                                                       _ADRPT 0003E7  
                                             __end_of___flmul 2F1C  
                                             __end_of___fltol 3ECE  
                    __end_of_CAN1_SetBusErrorInterruptHandler 4BB2  
                   __size_of_CAN1_SetBusErrorInterruptHandler 000A  
                          ??_CAN1_SetBusErrorInterruptHandler 060A  
                           ?_CAN1_SetBusErrorInterruptHandler 0608  
                                                       _T1CLK 000321  
                            _CAN1_SetBusErrorInterruptHandler 4BA8  
                                                       _T1CON 00031E  
                                                       _T2CON 000324  
                                                       _T2HLT 000325  
                                             __end_of___lwdiv 449E  
                                                       _T2TMR 000322  
                                                       _T2RST 000327  
                                                       i2l411 4C12  
                                                       i2l181 4AE6  
                                                       i2l405 47C0  
                                                       i2l190 4C26  
                                                       i2l184 4AF2  
                                                       i2l408 47E0  
                                                       i2l373 4BF6  
                                                       i2l367 4C18  
                                                       i2l641 3D1E  
                                                       i2l802 4C48  
                                                       i2l811 4C40  
                                                       i2l643 3D42  
                                                       i2l651 3DAE  
                                                       i2l900 416E  
                                                       i2l805 4C4A  
                                                       i2l645 3D66  
                                                       i2l814 4C3E  
                                                       i2l646 3DAE  
                                                       i2l647 3D8A  
                                                       i2l639 3CFA  
                                                       i2l808 4C44  
                                                       i2l817 4C42  
                                                       i2l862 4A48  
                                      ?_PWM1_16BIT_Initialize 0501  
                                                       i2l865 4A90  
                                                       i2l882 46C6  
                                                       i2l876 40A4  
                                                       i2l796 4C1E  
                                                       i2l869 3680  
                                                       i2l990 3BB0  
                                                       i2l799 4C46  
                                                       i2l986 3B74  
                                                       i2l988 3BAE  
                                                       i2l997 4922  
                                                       _OSCEN 0000B3  
                                                       _TMR0H 000319  
                                                       _TMR1H 00031D  
                                                       _TMR0L 000318  
                                                       _TMR1L 00031C  
                                                       _TRISA 0004C6  
                                                       _TRISB 0004C7  
                                              ?_INT0_CallBack 0501  
                                                       _TRISC 0004C8  
                                                       _TRISE 0004CA  
                                   ??_ADC_GetSingleConversion 0503  
                                __size_of_ReadMessageFromFifo 0240  
                                    ??_DefaultBusErrorHandler 0501  
                           __size_of_TMR0_SetInterruptHandler 000A  
                                     _ucSteering_angle_actual 05A3  
                                   ?_TMR0_SetInterruptHandler 0608  
                                         CANReadMessage@data1 05F2  
                                         CANReadMessage@data2 05F1  
                                         CANReadMessage@data3 05F0  
                                         CANReadMessage@data4 05EE  
                                         CANReadMessage@data5 05EF  
                                         CANReadMessage@data6 05ED  
                                         CANReadMessage@data7 05EB  
                                         CANReadMessage@data8 05EC  
                                   _ADC_Context3Thereshld_ISR 05DB  
                                    __size_of_CAN1_Initialize 005C  
                                            __end_of_TMR0_ISR 4C00  
                                            __end_of_TMR1_ISR 4230  
                                            __end_of_TMR2_ISR 4ADC  
            _PWM2_16BIT_Slice1Output1_DefaultInterruptHandler 000000  
            _PWM1_16BIT_Slice1Output1_DefaultInterruptHandler 000000  
                                                       _ucAN1 0562  
                                                       _ucAN2 0560  
                                     _ucSteering_angle_target 05A2  
                              GPIO_PWM1_Control@uiConvertedDC 054A  
                                    __size_of_GetRxFifoStatus 0018  
                                     __end_of_TMR1_Initialize 4718  
                                                       pclath 0004FA  
                                                       tablat 0004F5  
                                                       plusw2 0004DB  
                                 GetRxFifoStatus@validChannel 0501  
                                                       status 0004D8  
                            _ADC_DefaultContext2Threshold_ISR 000000  
                    CAN1_SetTxAttemptInterruptHandler@handler 0608  
                                    ReadMessageFromFifo@msgId 0513  
                                   __size_of_TEMPORIZATION_1s 0024  
                                               _uiAcc_lateral 0572  
                                             _TMR1_WriteTimer 486E  
                      __end_of_PWM1_16BIT_WritePeriodRegister 4AE8  
                     __size_of_PWM1_16BIT_WritePeriodRegister 000C  
                              _PWM1_16BIT_WritePeriodRegister 4ADC  
                                ??_CAN1_TX_FIFO_Configuration 0608  
                                                __end_of_FIFO 260C  
                                       _PWM2_16BIT_Initialize 4342  
                                             __initialization 4622  
                                           __end_of_DLC_BYTES 260A  
                     CAN1_ReceivedMessageCountGet@rxMsgStatus 0505  
                                                __end_of_main 4A62  
                                 CAN1_RX_FIFO_ResetInfo@index 0608  
                                               _ucLap_counter 05A7  
                                     __end_of_TMR2_Initialize 4812  
                             __end_of_DefaultTxAttemptHandler 4C40  
                                 ?_INTERRUPT_InterruptManager 0501  
                             fp__DefaultInvalidMessageHandler 0000  
                               ?_DefaultInvalidMessageHandler 0501  
                         __end_of_DefaultFIFO1NotEmptyHandler 4C20  
                                 _DefaultFIFO1NotEmptyHandler 4C1A  
                                             Receive@rxCanMsg 0519  
                                    _TMR2_SetInterruptHandler 4AF4  
                                                      ??_main 060C  
                                               __activetblptr 000003  
                                           _uiCones_count_all 0576  
               __end_of_PWM1_16BIT_Period_SetInterruptHandler 4B4E  
              __size_of_PWM1_16BIT_Period_SetInterruptHandler 000A  
               __end_of_PWM2_16BIT_Period_SetInterruptHandler 4B30  
              __size_of_PWM2_16BIT_Period_SetInterruptHandler 000A  
                     ??_PWM2_16BIT_Period_SetInterruptHandler 060A  
                     ??_PWM1_16BIT_Period_SetInterruptHandler 060A  
                      ?_PWM2_16BIT_Period_SetInterruptHandler 0608  
                      ?_PWM1_16BIT_Period_SetInterruptHandler 0608  
                       _PWM1_16BIT_Period_SetInterruptHandler 4B44  
                       _PWM2_16BIT_Period_SetInterruptHandler 4B26  
                                           __end_of_GPIO_Init 4A2C  
                                          _uiAcc_longitudinal 0574  
              __end_of_CAN1_SetInvalidMessageInterruptHandler 4B9E  
             __size_of_CAN1_SetInvalidMessageInterruptHandler 000A  
                    ??_CAN1_SetInvalidMessageInterruptHandler 060A  
                     ?_CAN1_SetInvalidMessageInterruptHandler 0608  
                      _CAN1_SetInvalidMessageInterruptHandler 4B94  
                                                      _C1CONH 000101  
                                                      _C1CONL 000100  
                                                      _C1CONU 000102  
                                                      _C1INTH 00011D  
                                                      _C1INTL 00011C  
                                                      _C1INTT 00011F  
                                                      _C1INTU 00011E  
                           __size_of_DefaultModeChangeHandler 0002  
               CAN1_SetInvalidMessageInterruptHandler@handler 0608  
                                  __end_of_ADC_StopConversion 4C14  
                                                      _ADACCH 0003E4  
                                                      _ADACCL 0003E3  
                                                      _ADACCU 0003E5  
                                   ?_DefaultModeChangeHandler 0501  
                                                      _ADACQH 0003EF  
                                                      _ADACQL 0003EE  
                                                      _ADCON0 0003F3  
                                                      _ADCON1 0003F4  
                                                      _ADCON2 0003F5  
                                                      _ADCON3 0003F6  
                                                      _ADERRH 0003DE  
                                                      _ADERRL 0003DD  
                                                      _ADLTHH 0003DA  
                                                      _ADLTHL 0003D9  
                                                      _ADRESH 0003EB  
                                                      _ADRESL 0003EA  
                                                      _ADPREH 0003F2  
                                                      _ADPREL 0003F1  
                                                      _ADSTAT 0003F7  
                                                      _ADUTHH 0003DC  
                                                      _ADUTHL 0003DB  
                         __size_of_CAN1_TX_FIFO_Configuration 0014  
                                                      _ANSELA 000400  
                                                      _ANSELB 000408  
                                                      _ANSELC 000410  
                                                      _T0CON0 00031A  
                                                      _T0CON1 00031B  
                                                      _T1GATE 000320  
                           fp__DefaultRxBufferOverflowHandler 0000  
                            ??_DefaultRxBufferOverflowHandler 0501  
                             ?_DefaultRxBufferOverflowHandler 0501  
                                                      _T1GCON 00031F  
                                                      _RC0PPS 000211  
                                                      _RC1PPS 000212  
                                                      _RB4PPS 00020D  
                                     TMR1_WriteTimer@timerVal 0501  
                                                      _ODCONA 000402  
                                                      _ODCONB 00040A  
                                                      _ODCONC 000412  
                                                      i2l1202 4C2E  
                                                      i2l1333 4BFE  
                                                      i2l1343 4C3A  
                                                      i2l1175 489A  
                                                      i2l1192 422E  
                                                      i2l1280 4ADA  
                                                      i2l2313 27FC  
                                                      i2l1337 48F6  
                                                      i2l2330 2916  
                                                      i2l2322 2ACC  
                                                      i2l2314 27EA  
                                                      i2l2082 3ECC  
                                                      i2l1610 306A  
                                                      i2l1602 3036  
                                                      i2l1290 4C2A  
                                                      i2l2315 27B0  
                                                      i2l2403 2F1A  
                                                      i2l1611 307E  
                                                      i2l2340 29D4  
                                                      i2l1196 48C8  
                                                      i2l1284 486C  
                                                      i2l1470 33AE  
                                                      i2l2406 2DAC  
                                                      i2l1614 31E2  
                                                      i2l1543 3FB8  
                                                      i2l1463 32AC  
                                                      i2l1471 3440  
                                                      i2l2440 38FE  
                                                      i2l5000 47BE  
                                                      i2l2416 2EDC  
                                                      i2l2408 2E24  
                                                      i2l1608 2FE6  
                                                      i2l2409 2E12  
                                                      i2l5010 3FC0  
                                                      i2l1466 3338  
                                                      i2l5002 47CE  
                                                      i2l2339 29E6  
                                                      i2l2283 449C  
                                                      i2l2443 3A5A  
                                                      i2l5020 4018  
                                                      i2l5012 3FC8  
                                                      i2l2276 4494  
                                                      i2l1644 45C6  
                                                      i2l1468 33A2  
                                                      i2l5100 2C06  
                                                      i2l1469 33A6  
                                                      i2l2462 4620  
                                                      i2l5030 408A  
                                                      i2l5022 402C  
                                                      i2l5014 3FD6  
                                                      i2l2454 39F2  
                                                      i2l5006 4C0E  
                                                      i2l5110 2C58  
                                                      i2l5102 2C22  
                                                      i2l2447 3996  
                                                      i2l1567 474A  
                                                      i2l5032 409E  
                                                      i2l5024 403E  
                                                      i2l5016 3FF2  
                                                      i2l5008 3FBC  
                                                      i2l5040 3F48  
                                                      i2l5120 2CB6  
                                                      i2l5112 2C68  
                                                      i2l5104 2C2E  
                                                      i2l5026 4068  
                                                      i2l5018 4004  
                                                      i2l5034 40A2  
                                                      i2l5202 4676  
                                                      i2l5050 3FB4  
                                                      i2l5042 3F64  
                                                      i2l5130 2D66  
                                                      i2l5122 2CD6  
                                                      i2l5114 2C78  
                                                      i2l5106 2C3A  
                                                      i2l1762 4C2C  
                                                      i2l1771 49C8  
                                                      i2l5028 407C  
                                                      i2l5212 46B2  
                                                      i2l5220 40A6  
                                                      i2l5044 3F80  
                                                      i2l5140 2DBC  
                                                      i2l5132 2D74  
                                                      i2l5124 2CE6  
                                                      i2l5116 2C88  
                                                      i2l5108 2C48  
                                                      i2l5060 2AFA  
                                                      i2l5052 2ACE  
                                                      i2l5300 2F7E  
                                                      i2l1765 4C38  
                                                      i2l1773 49EA  
                                                      i2l5214 46B4  
                                                      i2l5206 467A  
                                                      i2l5230 40D8  
                                                      i2l5046 3F9C  
                                                      i2l5038 3ECE  
                                                      i2l5142 2DCA  
                                                      i2l5134 2D92  
                                                      i2l5126 2D06  
                                                      i2l5118 2CA6  
                                                      i2l5070 2B36  
                                                      i2l5062 2B0A  
                                                      i2l5054 2ADA  
                                                      i2l5302 2F86  
                                                      i2l1782 4C34  
                                                      i2l2399 2B92  
                                                      i2l4600 3524  
                                                      i2l5216 46C4  
                                                      i2l5208 469E  
                                                      i2l5240 4132  
                                                      i2l5232 40E0  
                                                      i2l5224 40AE  
                                                      i2l1864 3CBC  
                                                      i2l5048 3FA8  
                                                      i2l5400 31F8  
                                                      i2l5152 2E34  
                                                      i2l5160 2E7C  
                                                      i2l5144 2DCE  
                                                      i2l5136 2D9C  
                                                      i2l5128 2D30  
                                                      i2l5080 2B6C  
                                                      i2l5072 2B3C  
                                                      i2l5064 2B1A  
                                                      i2l5056 2AE8  
                                                      i2l5320 3038  
                                                      i2l5312 2FA2  
                                                      i2l5304 2F8A  
                                                      i2l1776 4C36  
                                                      i2l1768 4C30  
                                                      i2l6120 3D16  
                                                      i2l6112 3CD6  
                                                      i2l1785 4976  
                                                      i2l4610 3590  
                                                      i2l4602 3542  
                                                      i2l5250 415C  
                                                      i2l5242 413E  
                                                      i2l5234 40EE  
                                                      i2l5226 40C2  
                                                      i2l5410 3238  
                                                      i2l5402 3214  
                                                      i2l5170 2EF0  
                                                      i2l5162 2E96  
                                                      i2l5154 2E40  
                                                      i2l5146 2DDC  
                                                      i2l5138 2DAA  
                                                      i2l5082 2B7C  
                                                      i2l5074 2B4A  
                                                      i2l5066 2B20  
                                                      i2l5058 2AEA  
                                                      i2l5330 3098  
                                                      i2l5322 3048  
                                                      i2l5314 2FC4  
                                                      i2l5306 2F90  
                                                      i2l6130 3D74  
                                                      i2l6122 3D2C  
                                                      i2l6114 3CE4  
                                                      i2l1779 4C32  
                                                      i2l4612 35A8  
                                                      i2l4620 3600  
                                                      i2l4604 3550  
                                                      i2l5252 416C  
                                                      i2l5244 4150  
                                                      i2l5236 40F6  
                                                      i2l5228 40CA  
                                                      i2l4700 268E  
                                                      i2l5260 456E  
                                                      i2l5420 3288  
                                                      i2l5412 3248  
                                                      i2l5404 3226  
                                                      i2l5172 2EFE  
                                                      i2l5164 2EAA  
                                                      i2l5156 2E4E  
                                                      i2l5148 2E0A  
                                                      i2l5092 2BC6  
                                                      i2l5084 2B82  
                                                      i2l5076 2B4C  
                                                      i2l5068 2B30  
                                                      i2l5340 30F8  
                                                      i2l5332 30B4  
                                                      i2l5324 305E  
                                                      i2l6132 3D82  
                                                      i2l6124 3D3A  
                                                      i2l6116 3CF2  
                                                      i2l4622 3624  
                                                      i2l4614 35B6  
                                                      i2l4606 3564  
                                                      i2l5238 4120  
                                                      i2l5246 4156  
                                                      i2l4710 26C4  
                                                      i2l4702 2694  
                                                      i2l5262 4580  
                                                      i2l5422 3298  
                                                      i2l5414 3258  
                                                      i2l5406 3226  
                                                      i2l5174 2F00  
                                                      i2l5166 2EC4  
                                                      i2l5158 2E78  
                                                      i2l5094 2BD6  
                                                      i2l5086 2BA2  
                                                      i2l5078 2B5C  
                                                      i2l5350 319E  
                                                      i2l5342 3110  
                                                      i2l5334 30C0  
                                                      i2l5326 3072  
                                                      i2l5318 2FEC  
                                                      i2l5270 2F1E  
                                                      i2l6134 3D98  
                                                      i2l6126 3D50  
                                                      i2l6118 3D08  
                                                      i2l4560 45EC  
                                                      i2l4624 366C  
                                                      i2l4616 35CA  
                                                      i2l4608 357E  
                                                      i2l5248 415A  
                                                      i2l4640 3BD8  
                                                      i2l4632 3BB2  
                                                      i2l4800 288A  
                                                      i2l4720 2700  
                                                      i2l4712 26D4  
                                                      i2l4704 26A2  
                                                      i2l5264 4590  
                                                      i2l5424 32C0  
                                                      i2l5432 33B4  
                                                      i2l5416 3268  
                                                      i2l5408 3226  
                                                      i2l5168 2EE0  
                                                      i2l5176 2F06  
                                                      i2l5096 2BE0  
                                                      i2l5088 2BB2  
                                                      i2l5336 30DC  
                                                      i2l5280 2F3E  
                                                      i2l5272 2F22  
                                                      i2l6136 3DA6  
                                                      i2l6128 3D5E  
                                                      _INLVLA 000404  
                                                      i2l4562 45F0  
                                                      i2l4618 35DC  
                                                      i2l4570 4AE2  
                                                      i2l4650 3C20  
                                                      i2l4642 3BE6  
                                                      i2l4634 3BB6  
                                                      i2l4802 28B0  
                                                      i2l4810 2906  
                                                      i2l4730 271E  
                                                      i2l4722 270E  
                                                      i2l4714 26D6  
                                                      i2l4706 26A4  
                                                      i2l4626 494E  
                                                      i2l5266 45AC  
                                                      i2l5426 32CA  
                                                      i2l5418 3278  
                                                      i2l5178 2F0A  
                                                      i2l5098 2BFA  
                                                      i2l5354 31B8  
                                                      i2l5338 30F8  
                                                      i2l5346 3116  
                                                      i2l5282 2F46  
                                                      i2l5274 2F26  
                                                      i2l5370 4718  
                                                      _INLVLB 00040C  
                                                      _INLVLC 000414  
                                                      i2l4564 4602  
                                                      i2l4556 45C8  
                                                      i2l4572 4AE8  
                                                      i2l4660 3C6A  
                                                      i2l4652 3C28  
                                                      i2l4644 3BF6  
                                                      i2l4636 3BC4  
                                                      i2l4820 295A  
                                                      i2l4812 292C  
                                                      i2l4804 28E4  
                                                      i2l4740 2732  
                                                      i2l4732 2722  
                                                      i2l4724 2712  
                                                      i2l4708 26B4  
                                                      i2l4716 26DE  
                                                      i2l4900 3E58  
                                                      i2l4628 496E  
                                                      i2l5268 45B2  
                                                      i2l5428 335C  
                                                      i2l5356 31C2  
                                                      i2l5348 3128  
                                                      i2l5292 2F62  
                                                      i2l5284 2F4A  
                                                      i2l5276 2F2C  
                                                      i2l5372 4722  
                                                      _INLVLE 000424  
                                                      i2l4582 4A7C  
                                                      i2l4558 45DC  
                                                      i2l4566 4606  
                                                      i2l4590 3452  
                                                      i2l4574 4AEE  
                                                      i2l4670 3C9C  
                                                      i2l4662 3C7A  
                                                      i2l4654 3C34  
                                                      i2l4646 3BFA  
                                                      i2l4638 3BD4  
                                                      i2l4830 2984  
                                                      i2l4822 2968  
                                                      i2l4814 293C  
                                                      i2l4806 28E6  
                                                      i2l4750 2746  
                                                      i2l4742 2736  
                                                      i2l4734 2726  
                                                      i2l4726 2716  
                                                      i2l4718 26EE  
                                                      i2l4910 3E80  
                                                      i2l4902 3E62  
                                                      i2l5294 2F66  
                                                      i2l5286 2F50  
                                                      i2l5278 2F3A  
                                                      i2l5374 4732  
                                                      i2l4592 3470  
                                                      i2l4576 4C24  
                                                      i2l4568 4ADC  
                                                      i2l4672 3CAC  
                                                      i2l4664 3C7C  
                                                      i2l4656 3C42  
                                                      i2l4648 3C0A  
                                                      i2l4840 29B6  
                                                      i2l4832 2994  
                                                      i2l4824 296A  
                                                      i2l4808 28F6  
                                                      i2l4760 2798  
                                                      i2l4752 274A  
                                                      i2l4744 273A  
                                                      i2l4736 272A  
                                                      i2l4728 271A  
                                                      i2l4680 2628  
                                                      i2l4912 3E8C  
                                                      i2l4904 3E6C  
                                                      i2l5296 2F6C  
                                                      i2l5376 4746  
                                                      i2l5632 477E  
                                                      i2l4578 4A2E  
                                                      i2l4594 349A  
                                                      i2l4586 3442  
                                                      i2l4666 3C86  
                                                      i2l4658 3C4C  
                                                      i2l4850 2A10  
                                                      i2l4842 29CC  
                                                      i2l4826 2978  
                                                      i2l4818 2950  
                                                      i2l4834 2996  
                                                      i2l4770 27DC  
                                                      i2l4762 27A8  
                                                      i2l4746 273E  
                                                      i2l4738 272E  
                                                      i2l4754 274E  
                                                      i2l4690 265C  
                                                      i2l4682 262A  
                                                      i2l4914 3E9C  
                                                      i2l4930 4454  
                                                      i2l4922 442A  
                                                      i2l7170 3432  
                                                      i2l5298 2F7A  
                                                      i2l5634 4782  
                                                      i2l4596 34C6  
                                                      i2l4588 3452  
                                                      i2l4668 3C8C  
                                                      i2l4860 2A8C  
                                                      i2l4852 2A4A  
                                                      i2l4828 2980  
                                                      i2l4836 29A4  
                                                      i2l4772 27DE  
                                                      i2l4764 27BE  
                                                      i2l4756 2752  
                                                      i2l4748 2742  
                                                      i2l4684 263A  
                                                      i2l4692 2664  
                                                      i2l4676 260E  
                                                      i2l4916 3EAC  
                                                      i2l4940 4488  
                                                      i2l4932 4462  
                                                      i2l4924 4432  
                                                      i2l7172 33F0  
                                                      i2l5636 4796  
                                                      i2l4598 34F4  
                                                      i2l4870 2AAC  
                                                      i2l4862 2A90  
                                                      i2l4846 29F6  
                                                      i2l4854 2A4C  
                                                      i2l4838 29A8  
                                                      i2l4790 2866  
                                                      i2l4782 282E  
                                                      i2l4774 27E8  
                                                      i2l4766 27CA  
                                                      i2l4758 277C  
                                                      i2l4694 2674  
                                                      i2l4686 264A  
                                                      i2l4678 261A  
                                                      i2l4918 3EBC  
                                                      i2l4942 448E  
                                                      i2l4934 4468  
                                                      i2l4926 4444  
                                                      i2l4950 390E  
                                                      i2l7174 3406  
                                                      i2l5398 31E4  
                                                      i2l7166 3000  
                                                      i2l5910 4AD2  
                                                      i2l5920 3A8A  
                                                      i2l4872 2ABA  
                                                      i2l4864 2A9E  
                                                      i2l4856 2A5C  
                                                      i2l4848 2A02  
                                                      i2l4792 286A  
                                                      i2l4784 283E  
                                                      i2l4776 280A  
                                                      i2l4768 27CE  
                                                      i2l4696 267A  
                                                      i2l4688 265A  
                                                      i2l4880 3DDE  
                                                      i2l4936 447E  
                                                      i2l4928 444C  
                                                      i2l4960 394C  
                                                      i2l4952 3924  
                                                      i2l4944 38AA  
                                                      i2l7176 3414  
                                                      i2l7168 33D2  
                                                      i2l5904 4BF8  
                                                      i2l5912 4AD6  
                                                      i2l5930 3ADE  
                                                      i2l5922 3A98  
                                                      i2l5914 3A5C  
                                                      i2l4874 2ABC  
                                                      i2l4866 2AA4  
                                                      i2l4858 2A6C  
                                                      i2l4794 2878  
                                                      i2l4786 284C  
                                                      i2l4778 281A  
                                                      i2l4698 268C  
                                                      i2l4890 3E2E  
                                                      i2l4938 4486  
                                                      i2l4970 39D4  
                                                      i2l4962 397E  
                                                      i2l4946 38BA  
                                                      i2l5906 4BFA  
                                                      i2l5850 488A  
                                                      i2l5842 486E  
                                                      i2l5940 3B1C  
                                                      i2l5932 3AE2  
                                                      i2l5924 3AB2  
                                                      i2l5916 3A6C  
                                                      i2l4868 2AA6  
                                                      i2l4796 287A  
                                                      i2l4788 285A  
                                                      i2l4892 3E32  
                                                      i2l4884 3DF2  
                                                      i2l4980 3A2A  
                                                      i2l4972 39E2  
                                                      i2l4964 3980  
                                                      i2l4956 3938  
                                                      i2l4948 38C8  
                                                      i2l5860 49C8  
                                                      i2l5844 487E  
                                                      i2l5852 4890  
                                                      i2l5908 4AD0  
                                                      i2l5950 3B72  
                                                      i2l5942 3B36  
                                                      i2l5934 3AF0  
                                                      i2l5926 3AB6  
                                                      i2l5918 3A86  
                                                      i2l4798 2884  
                                                      i2l4894 3E40  
                                                      i2l4886 3E1C  
                                                      i2l4878 3DC8  
                                                      i2l4982 3A3A  
                                                      i2l4974 3A00  
                                                      i2l4966 398C  
                                                      i2l4958 3940  
                                                      i2l5790 4C1A  
                                                      i2l4990 4C14  
                                                      i2l5854 4894  
                                                      i2l5846 4880  
                                                      i2l5862 4840  
                                                      i2l5952 3B82  
                                                      i2l5944 3B3A  
                                                      i2l5936 3B0A  
                                                      i2l5928 3AC4  
                                                      i2l4888 3E1E  
                                                      i2l4984 3A48  
                                                      i2l4976 3A02  
                                                      i2l4968 39C8  
                                                      i2l5960 4908  
                                                      i2l4992 4BF0  
                                                      i2l5856 489C  
                                                      i2l5848 4884  
                                                      i2l5864 4854  
                                                      i2l5954 3B9C  
                                                      i2l5946 3B48  
                                                      i2l5938 3B0E  
                                                      i2l4986 3A4A  
                                                      i2l4978 3A06  
                                                      i2l4994 47B2  
                                                      i2l5866 48CA  
                                                      i2l5858 48B0  
                                                      i2l5970 4186  
                                                      i2l5962 4170  
                                                      i2l5956 3BAC  
                                                      i2l5948 3B62  
                                                      i2l4996 47B8  
                                                      i2l5876 4C00  
                                                      i2l5868 48DE  
                                                      i2l5980 41BA  
                                                      i2l5972 419A  
                                                      i2l5964 4172  
                                                      i2l5958 48F8  
                                                      i2l4998 47BC  
                                                      i2l5878 4C02  
                                                      i2l5990 41F8  
                                                      i2l5982 41BE  
                                                      i2l5974 419E  
                                                      i2l5966 417E  
                                                      i2l5992 4200  
                                                      i2l5984 41D4  
                                                      i2l5976 41A2  
                                                      i2l5968 4182  
                                                      i2l5994 4204  
                                                      i2l5986 41D8  
                                                      i2l5978 41B6  
                                                      i2l5996 4222  
                                                      i2l5988 41DC  
                                                      i2l5998 422A  
                                     ??_CAN1_OperationModeGet 0608  
                                                      _OSCFRQ 0000B1  
                              ??_CAN1_ReceivedMessageCountGet 0503  
                                     ??_CAN1_OperationModeSet 0608  
                                            __end_of___xxtofl 3A5C  
                                          _ADC_DefaultADI_ISR 000000  
                                            _ucSteering_state 05A9  
                                                   ??_Receive 051B  
                                 ??_CAN1_BitRateConfiguration 0608  
                        __end_of_TMR1_DefaultInterruptHandler 4C30  
                       __size_of_TMR1_DefaultInterruptHandler 0002  
                                _TMR1_DefaultInterruptHandler 4C2E  
                                                   ??___aldiv 0509  
                                     ANALOG_GetVoltage@ucFlag 0546  
                                                   ??___fladd 0530  
                                                      ___wmul 494E  
                          __size_of_DefaultSystemErrorHandler 0002  
                                                   ??___flmul 0517  
                                                   ??___fltol 053C  
                                                   ??___lwdiv 0505  
                                                      _memcpy 45C8  
                                            ?_TMR0_Initialize 0501  
                                                      clear_0 4644  
                                                      clear_1 4650  
                                                      clear_2 465C  
                                    ??_CAN1_RX_FIFO_ResetInfo 0608  
                                             ??_INT0_CallBack 054D  
                   CAN1_SetModeChangeInterruptHandler@handler 0608  
                     CAN1_ReceivedMessageCountGet@totalMsgObj 0503  
                                                   ?_CAN1_ISR 0501  
                                              _PMD_Initialize 49A0  
                                                __mediumconst 0000  
                             __size_of_DefaultBusErrorHandler 0002  
                                                      tblptrh 0004F7  
                                                      tblptrl 0004F6  
                                                      tblptru 0004F8  
                                   _ADC_Context4Thereshld_ISR 05D9  
                                       __end_of_TMR0_CallBack 48F8  
                    TMR0_SetInterruptHandler@InterruptHandler 0608  
                    TMR2_SetInterruptHandler@InterruptHandler 0608  
                    TMR1_SetInterruptHandler@InterruptHandler 0608  
       PWM2_16BIT_Period_SetInterruptHandler@InterruptHandler 0608  
PWM2_16BIT_Slice1Output2_SetInterruptHandler@InterruptHandler 0608  
PWM2_16BIT_Slice1Output1_SetInterruptHandler@InterruptHandler 0608  
    ADC_SetActiveClockTuningInterruptHandler@InterruptHandler 0608  
    ADC_SetContext4ThresholdInterruptHandler@InterruptHandler 0608  
    ADC_SetContext3ThresholdInterruptHandler@InterruptHandler 0608  
    ADC_SetContext2ThresholdInterruptHandler@InterruptHandler 0608  
    ADC_SetContext1ThresholdInterruptHandler@InterruptHandler 0608  
                  ADC_SetADIInterruptHandler@InterruptHandler 0608  
       PWM1_16BIT_Period_SetInterruptHandler@InterruptHandler 0608  
PWM1_16BIT_Slice1Output2_SetInterruptHandler@InterruptHandler 0608  
PWM1_16BIT_Slice1Output1_SetInterruptHandler@InterruptHandler 0608  
                    INT0_SetInterruptHandler@InterruptHandler 0608  
                                     __end_of_TMR1_WriteTimer 489C  
                               __size_of_INTERRUPT_Initialize 0004  
                                              _GetRxFifoDepth 4A2C  
                                       __end_of_TMR1_CallBack 48CA  
                                            ?_TMR1_Initialize 0501  
                                           _ANALOG_GetVoltage 2F1C  
                                                ___xxtofl@arg 050B  
                                                ___xxtofl@exp 050A  
                                           _SYSTEM_Initialize 474C  
                                                ___xxtofl@val 0501  
                                                  __accesstop 0560  
                                     __end_of__initialization 4670  
                                           ??_CAN1_Initialize 060B  
                                                   ?_INT0_ISR 0501  
                        __size_of_ADC_DisableChannelSequencer 0006  
                                       __end_of_TMR2_CallBack 486E  
                                        _CAN1_BusErrorHandler 0586  
                                          ?_ANALOG_GetVoltage 0501  
                                          ?_SYSTEM_Initialize 0501  
                            _ADC_DefaultContext3Threshold_ISR 000000  
                                           ??_GetRxFifoStatus 0501  
                                      ?_PWM2_16BIT_Initialize 0501  
                                               ___rparam_used 000001  
                                                  ___fltol@f1 0538  
                                      _CAN1_ModeChangeHandler 0584  
                                        _ucCones_count_actual 05A6  
                                              __pcstackCOMRAM 0501  
                                         ??_ANALOG_GetVoltage 0542  
                                                __pidataBANK5 4C28  
                                         ??_SYSTEM_Initialize 060C  
                                                   ?_TMR0_ISR 0501  
                                                   ?_TMR1_ISR 0501  
                                                   ?_TMR2_ISR 0501  
                             fp__TMR1_DefaultInterruptHandler 0000  
                               ?_TMR1_DefaultInterruptHandler 0501  
            __end_of_CAN1_SetRxBufferOverFlowInterruptHandler 4B8A  
           __size_of_CAN1_SetRxBufferOverFlowInterruptHandler 000A  
                  ??_CAN1_SetRxBufferOverFlowInterruptHandler 060A  
                   ?_CAN1_SetRxBufferOverFlowInterruptHandler 0608  
                    _CAN1_SetRxBufferOverFlowInterruptHandler 4B80  
                                            ?_TMR2_Initialize 0501  
                                            ??_CANReadMessage 054D  
                                      __end_of_PMD_Initialize 49C8  
                                          _TEMPORIZATION_10ms 4C2C  
                             ANALOG_GetVoltage@uiValorVoltage 054B  
                                                  ??_CAN1_ISR 0501  
                                 __size_of_EXT_INT_Initialize 0016  
            __end_of_ADC_SetContext2ThresholdInterruptHandler 4BD0  
           __size_of_ADC_SetContext2ThresholdInterruptHandler 000A  
                  ??_ADC_SetContext2ThresholdInterruptHandler 060A  
                   ?_ADC_SetContext2ThresholdInterruptHandler 0608  
                    _ADC_SetContext2ThresholdInterruptHandler 4BC6  
                                   _CAN1_BitRateConfiguration 4ABC  
            __end_of_ADC_SetActiveClockTuningInterruptHandler 4BE4  
           __size_of_ADC_SetActiveClockTuningInterruptHandler 000A  
                  ??_ADC_SetActiveClockTuningInterruptHandler 060A  
                   ?_ADC_SetActiveClockTuningInterruptHandler 0608  
                    _ADC_SetActiveClockTuningInterruptHandler 4BDA  
                                          Receive@rxMsgStatus 0520  
                                               _ucTargetBrake 05AF  
                        __end_of_CAN1_SetFIFO1NotEmptyHandler 4B62  
                       __size_of_CAN1_SetFIFO1NotEmptyHandler 000A  
                                _CAN1_SetFIFO1NotEmptyHandler 4B58  
                                ??_ADC_SetADIInterruptHandler 060A  
                 __end_of_CAN1_SetSystemErrorInterruptHandler 4B80  
                __size_of_CAN1_SetSystemErrorInterruptHandler 000A  
                       ??_CAN1_SetSystemErrorInterruptHandler 060A  
                        ?_CAN1_SetSystemErrorInterruptHandler 0608  
                         _CAN1_SetSystemErrorInterruptHandler 4B76  
                                         ?_TEMPORIZATION_10ms 0501  
                                      __end_of_GetRxFifoDepth 4A4A  
                                   __end_of_ANALOG_GetVoltage 31E4  
                                   __end_of_SYSTEM_Initialize 477E  
                                            Receive@rxFifoObj 051E  
                                                  __pbssBANK5 0560  
                                                  __pbssBANK6 0600  
                         ANALOG_GetVoltage@ucEntradaAnalogica 0544  
                                       _INT0_InterruptHandler 05E3  
                                                  ??_INT0_ISR 054D  
                            __size_of_DefaultTxAttemptHandler 0002  
                                            _TEMPORIZATION_1s 49C8  
                          __end_of_CAN1_TX_FIFO_Configuration 4ABC  
                                  _CAN1_TX_FIFO_Configuration 4AA8  
                                                     IVTBASEH 00045E  
                                                     IVTBASEL 00045D  
                                                     IVTBASEU 00045F  
                                         _ReadMessageFromFifo 3442  
                                                  _ucASBState 059D  
                                      _DefaultBusErrorHandler 4C4A  
                                __size_of_TEMPORIZATION_100ms 0002  
                                        ??_TEMPORIZATION_10ms 0501  
                                __size_of_TEMPORIZATION_500ms 0002  
                            __end_of_TMR0_SetInterruptHandler 4B12  
                                     __size_of_TMR0_StopTimer 0006  
                   PWM1_16BIT_WritePeriodRegister@periodCount 0501  
                                                  _ucLEDState 055B  
                                                     ?___wmul 0501  
                               _CAN1_BusWakeUpActivityHandler 0588  
                                                  ??_TMR0_ISR 0501  
                                                  ??_TMR1_ISR 0503  
                                                  ??_TMR2_ISR 0501  
                         CAN1_ReceivedMessageCountGet@channel 0506  
                                                     _ADCSEL1 0003FC  
                                                     _ADCSEL2 0003FD  
                                                     _ADCSEL3 0003FE  
                                                     _ADCSEL4 0003FF  
                                __size_of_TEMPORIZATION_1mins 0002  
                                                     _ADFLTRH 0003E2  
                                                     _ADFLTRL 0003E1  
                                                     ?_memcpy 0501  
                                     ??_PWM1_16BIT_Initialize 060A  
                         __size_of_ADC_SetADIInterruptHandler 000A  
                                                     _ADPREVH 0003E9  
                                                     _ADPREVL 0003E8  
                                                   _C1NBTCFGH 000105  
                                                   _C1NBTCFGL 000104  
                                                     _ADSTPTH 0003E0  
                                                     _ADSTPTL 0003DF  
                                                   _C1NBTCFGT 000107  
                                                   _C1NBTCFGU 000106  
                                             ?_PMD_Initialize 0501  
                                                  _ucAS_state 05AC  
                             __size_of_CAN1_RX_FIFO_ResetInfo 002E  
                                     __size_of_ADC_Initialize 0226  
                                                     _INT0PPS 00023E  
                                        ?_ReadMessageFromFifo 050C  
                                                   ?___xxtofl 0501  
                                                     _OSCCON1 0000AD  
                                                     _OSCCON3 0000AF  
                                                   _C1TXQCONH 000151  
                                                   _C1TXQCONL 000150  
                                       _CAN1_TxAttemptHandler 0580  
                                                   _C1TXQCONT 000153  
                                                   _C1TXQCONU 000152  
                                                     _OSCTUNE 0000B0  
                                                     _PWM1CLK 000461  
                                                     _PWM1GIE 000468  
                                                     _PWM2CLK 000470  
                                                     _PWM1CON 000469  
                                                     _PWM2GIE 000477  
                                                     _PWM1GIR 000467  
                                                     _PWM2CON 000478  
                                                     _PWM2GIR 000476  
                                                     _PWM1ERS 000460  
                                                     _PWM1LDS 000462  
                                                     _PWM2ERS 00046F  
                                                     _PWM2LDS 000471  
                                                     _PWM1PRH 000464  
                                                     _PWM1PRL 000463  
                                                 _C1FIFOCON1H 00015D  
                                                     _PWM2PRH 000473  
                                                 _C1FIFOCON1L 00015C  
                                                     _PWM2PRL 000472  
                                                 _C1FIFOCON1T 00015F  
                                                 _C1FIFOCON1U 00015E  
                                           CAN1_Receive@index 0525  
                                                     _SLRCONA 000403  
                               ?_CAN1_SetFIFO1NotEmptyHandler 0608  
                                                     _SLRCONB 00040B  
                                                     _SLRCONC 000413  
                                             ?_GetRxFifoDepth 0501  
                                            ?_TMR1_WriteTimer 0501  
                                  _ADC_ConversionComplete_ISR 05E1  
                                            CANReadMessage@id 05E7  
                                             _ucService_brake 05A8  
                           __size_of_INT0_SetInterruptHandler 000A  
                                       _GPIO_BrakePedalAtRest 4718  
                                   ?_INT0_SetInterruptHandler 0608  
                                                  _ucCount10s 05B2  
                            _ADC_DefaultContext4Threshold_ISR 000000  
                                                Receive@index 0521  
                                                     _Receive 3FBA  
                                                     __Hparam 0000  
                                                     __Lparam 0000  
                                fp__DefaultSystemErrorHandler 0000  
                                                  _ucPedalPos 0599  
                                  ??_TMR2_SetInterruptHandler 060A  
                                                     ___aldiv 3BB2  
                                                     ___fladd 260E  
                                                     ___flmul 2ACE  
                                                     ___fltol 3DC8  
                                             __size_of___wmul 002A  
                                                     ___lwdiv 442A  
                                                __psmallconst 2600  
                            __end_of_DefaultModeChangeHandler 4C46  
                                                   _DLC_BYTES 2601  
                                                     __pcinit 4622  
                                    ANALOG_GetVoltage@ucValor 0545  
                                             __size_of_memcpy 005A  
                                                     __ramtop 2600  
                                                  _uiCount30s 057C  
                                                     __ptext0 4A4A  
                                                     __ptext1 4C08  
                                                     __ptext2 474C  
                                                     __ptext3 47E2  
                                                     __ptext4 4AF4  
                                                     __ptext5 46C8  
                                                     __ptext6 4AFE  
                                                     __ptext7 4978  
                                                     __ptext8 4B08  
                                                     __ptext9 4342  
                              ??_TMR1_DefaultInterruptHandler 0501  
                            ??_PWM1_16BIT_WritePeriodRegister 0503  
                             ?_PWM1_16BIT_WritePeriodRegister 0501  
        __end_of_PWM1_16BIT_Slice1Output1_SetInterruptHandler 4B44  
       __size_of_PWM1_16BIT_Slice1Output1_SetInterruptHandler 000A  
        __end_of_PWM2_16BIT_Slice1Output1_SetInterruptHandler 4B26  
       __size_of_PWM2_16BIT_Slice1Output1_SetInterruptHandler 000A  
              ??_PWM2_16BIT_Slice1Output1_SetInterruptHandler 060A  
              ??_PWM1_16BIT_Slice1Output1_SetInterruptHandler 060A  
               ?_PWM2_16BIT_Slice1Output1_SetInterruptHandler 0608  
               ?_PWM1_16BIT_Slice1Output1_SetInterruptHandler 0608  
                _PWM1_16BIT_Slice1Output1_SetInterruptHandler 4B3A  
                _PWM2_16BIT_Slice1Output1_SetInterruptHandler 4B1C  
                                                   _T1CONbits 00031E  
                                       ??_ReadMessageFromFifo 0510  
                                           _GPIO_PWM1_Control 3ECE  
                                       _OSCILLATOR_Initialize 4A62  
                                   _CAN1_FIFO1NotEmptyHandler 058C  
                                                   _T2CONbits 000324  
                                                     _uiIndex 0578  
                                                  ??___xxtofl 0505  
                                                  _msgReceipt 05BB  
                           __size_of_TMR1_SetInterruptHandler 000A  
                                            ___aldiv@dividend 0501  
                                    ??_PIN_MANAGER_Initialize 0608  
                                   ?_TMR1_SetInterruptHandler 0608  
                                                   _T2HLTbits 000325  
                                                     _rxFifos 05F3  
                                          ?_GPIO_PWM1_Control 0542  
                                  __size_of_ANALOG_GetVoltage 02C8  
            CAN1_SetBusWakeUpActivityInterruptHandler@handler 0608  
                                  __size_of_SYSTEM_Initialize 0032  
                                                   _GPIO_Init 4A0E  
           __end_of_CAN1_SetBusWakeUpActivityInterruptHandler 4BA8  
          __size_of_CAN1_SetBusWakeUpActivityInterruptHandler 000A  
                 ??_CAN1_SetBusWakeUpActivityInterruptHandler 060A  
                  ?_CAN1_SetBusWakeUpActivityInterruptHandler 0608  
                   _CAN1_SetBusWakeUpActivityInterruptHandler 4B9E  
                                        end_of_initialization 4670  
            _PWM2_16BIT_Slice1Output2_DefaultInterruptHandler 000000  
            _PWM1_16BIT_Slice1Output2_DefaultInterruptHandler 000000  
                          GPIO_PWM1_Control@uiConvertedPeriod 0548  
                                                   _T2RSTbits 000327  
                        __size_of_DefaultFIFO1NotEmptyHandler 0006  
                                         ??_GPIO_PWM1_Control 0546  
                                                     memcpy@d 0507  
                                                     memcpy@n 0505  
                                                     memcpy@s 0509  
                                      _CAN1_RX_FIFO_ResetInfo 4812  
                                                  _uiYaw_rate 0570  
                                  GetRxFifoDepth@validChannel 0502  
                                                 _C1TRECUbits 000136  
                                            _uiDutyServomotor 0556  
                              __size_of_CAN1_OperationModeGet 000A  
                              __size_of_CAN1_OperationModeSet 0098  
                               __end_of_CAN1_OperationModeGet 4B6C  
                               __end_of_CAN1_OperationModeSet 42C8  
                                ??_CAN1_RX_FIFO_Configuration 060A  
                                          _ADC_StopConversion 4C0E  
                                ReadMessageFromFifo@rxFifoObj 050C  
                                            ___aldiv@quotient 050B  
                                                     postdec2 0004DD  
                                                   _PWM1S1CFG 00046A  
                                                   _PWM1S1P1H 00046C  
                      __end_of_DefaultRxBufferOverflowHandler 4C44  
                     __size_of_DefaultRxBufferOverflowHandler 0002  
                              _DefaultRxBufferOverflowHandler 4C42  
                                                   _PWM1S1P2H 00046E  
                                                   _PWM1S1P1L 00046B  
                                                   _PWM1S1P2L 00046D  
                                                   _PWM2S1CFG 000479  
                                                   _PWM2S1P1H 00047B  
                                                     postinc0 0004EE  
                                                   _PWM2S1P2H 00047D  
                                                     postinc2 0004DE  
                                                   _PWM2S1P1L 00047A  
                                                   _PWM2S1P2L 00047C  
                                                   _NPRES_max 0594  
                                                   _NPRES_min 0558  
                                                   _PWM1PIPOS 000466  
                                                   _PWM2PIPOS 000475  
                                         ?_ADC_StopConversion 0501  
                                    ?_ADC_GetSingleConversion 0501  
                                   __end_of_GPIO_PWM1_Control 3FBA  
                                    _TMR0_SetInterruptHandler 4B08  
                                                   _PORTAbits 0004CE  
                                                   _PORTCbits 0004D0  
                          fp__DefaultBusWakeUpActivityHandler 0000  
                     __end_of_DefaultBusWakeUpActivityHandler 4C4A  
                    __size_of_DefaultBusWakeUpActivityHandler 0002  
                           ??_DefaultBusWakeUpActivityHandler 0501  
                            ?_DefaultBusWakeUpActivityHandler 0501  
                             _DefaultBusWakeUpActivityHandler 4C48  
                                                 ___fladd@grs 0537  
                          __end_of_ADC_SetADIInterruptHandler 4BEE  
                                  _ADC_SetADIInterruptHandler 4BE4  
                                             _CAN1_Initialize 4510  
                                               ___xxtofl@sign 0509  
                                                   _TRISAbits 0004C6  
                                                   _TRISBbits 0004C7  
                                                   _TRISCbits 0004C8  
                                           __size_of_CAN1_ISR 0156  
                                             _GetRxFifoStatus 4A7A  
                                                 _ADCSEL1bits 0003FC  
                                                 _ADCSEL2bits 0003FD  
                                                 _ADCSEL3bits 0003FE  
                                                 _ADCSEL4bits 0003FF  
                         __size_of_CAN1_RX_FIFO_Configuration 002A  
                                                  ?_GPIO_Init 0501  
                __end_of_CAN1_RX_FIFO_FilterMaskConfiguration 4A0E  
               __size_of_CAN1_RX_FIFO_FilterMaskConfiguration 0022  
                       ?_CAN1_RX_FIFO_FilterMaskConfiguration 0501  
                      ??_CAN1_RX_FIFO_FilterMaskConfiguration 0608  
                        _CAN1_RX_FIFO_FilterMaskConfiguration 49EC  
                                        ??_ADC_StopConversion 0501  
                                     ??_PWM2_16BIT_Initialize 060A  
                                     _DefaultTxAttemptHandler 4C3E  
                                  fp__DefaultTxAttemptHandler 0000  
                                      ?_GPIO_BrakePedalAtRest 0501  
                                                 ___flmul@grs 051C  
                                           __size_of_INT0_ISR 0008  
                                                 _CANDATAdata 05B3  
                                   fp__DefaultBusErrorHandler 0000  
                                              _TMR0_StopTimer 4C08  
                                __end_of_INTERRUPT_Initialize 4C24  
                        __end_of_TMR2_DefaultInterruptHandler 4C2C  
                       __size_of_TMR2_DefaultInterruptHandler 0002  
                                _TMR2_DefaultInterruptHandler 4C2A  
                        __end_of_INT0_DefaultInterruptHandler 4C3E  
                       __size_of_INT0_DefaultInterruptHandler 0002  
                                _INT0_DefaultInterruptHandler 4C3C  
                                              __end_of___wmul 4978  
                         __end_of_ADC_DisableChannelSequencer 4C1A  
                                 _ADC_DisableChannelSequencer 4C14  
                                           __size_of_TMR0_ISR 0008  
                                           __size_of_TMR1_ISR 00C0  
                                           __size_of_TMR2_ISR 000C  
                                              _ADC_Initialize 3682  
                        __end_of_CAN1_ReceivedMessageCountGet 4170  
                       __size_of_CAN1_ReceivedMessageCountGet 00CA  
                                _CAN1_ReceivedMessageCountGet 40A6  
                                              __end_of_memcpy 4622  
                                      ?_OSCILLATOR_Initialize 0501  
                                    __end_of_TEMPORIZATION_1s 49EC  
               __end_of_CAN1_ErrorNotificationInterruptEnable 4342  
              __size_of_CAN1_ErrorNotificationInterruptEnable 007A  
                      ?_CAN1_ErrorNotificationInterruptEnable 0501  
                     ??_CAN1_ErrorNotificationInterruptEnable 060A  
                       _CAN1_ErrorNotificationInterruptEnable 42C8  
                                    _DefaultModeChangeHandler 4C44  
                                       __end_of_INT0_CallBack 47B0  
                                 fp__DefaultModeChangeHandler 0000  
                                              Receive@channel 0518  
                                                _ucCount500ms 055D  
                                         start_initialization 4622  
                                    __size_of_TMR0_Initialize 0028  
                                         _TEMPORIZATION_100ms 4C38  
                             __size_of_PIN_MANAGER_Initialize 0072  
                                         _TEMPORIZATION_500ms 4C30  
                               ??_ADC_DisableChannelSequencer 0501  
                                                  ivt0x8_base 0008  
                                               ?_CAN1_RXI_ISR 0501  
                                           _SERVICEBRAKE_Move 456C  
                                         _TEMPORIZATION_1mins 4C34  
                                     ?_DefaultBusErrorHandler 0501  
                  __end_of_CAN1_SetModeChangeInterruptHandler 4B94  
                 __size_of_CAN1_SetModeChangeInterruptHandler 000A  
                        ??_CAN1_SetModeChangeInterruptHandler 060A  
                         ?_CAN1_SetModeChangeInterruptHandler 0608  
                          _CAN1_SetModeChangeInterruptHandler 4B8A  
                                          ?_SERVICEBRAKE_Move 0501  
                                 ?_CAN1_TX_FIFO_Configuration 0501  
                                      __end_of_TMR0_StopTimer 4C0E  
                                              _ucTargetClutch 05B0  
                                               ?_CAN1_Receive 0522  
                                        ?_TEMPORIZATION_100ms 0501  
                                        ?_TEMPORIZATION_500ms 0501  
                                    __size_of_TMR1_Initialize 0050  
                                         ??_SERVICEBRAKE_Move 054C  
                             __end_of_ADC_GetSingleConversion 47E2  
                                            ??_PMD_Initialize 0608  
                                         _ucBrake_hydr_actual 05A1  
                                                    ??___wmul 0505  
            __end_of_ADC_SetContext1ThresholdInterruptHandler 4BDA  
           __size_of_ADC_SetContext1ThresholdInterruptHandler 000A  
                  ??_ADC_SetContext1ThresholdInterruptHandler 060A  
                   ?_ADC_SetContext1ThresholdInterruptHandler 0608  
                    _ADC_SetContext1ThresholdInterruptHandler 4BD0  
                                      __size_of_TMR0_CallBack 002E  
                                      __end_of_ADC_Initialize 38A8  
                                        ?_TEMPORIZATION_1mins 0501  
                                                 __pdataBANK5 05F3  
                                     __end_of_CAN1_Initialize 456C  
                                                    ??_memcpy 0507  
                                         _ucBrake_hydr_target 05A0  
                                  __end_of_EXT_INT_Initialize 4AA8  
                             fp__TMR2_DefaultInterruptHandler 0000  
                               ?_TMR2_DefaultInterruptHandler 0501  
                                  __size_of_GPIO_PWM1_Control 00EC  
                             fp__INT0_DefaultInterruptHandler 0000  
                               ?_INT0_DefaultInterruptHandler 0501  
                                      __size_of_TMR1_CallBack 002E  
                                     __end_of_GetRxFifoStatus 4A92  
                              __size_of_PWM1_16BIT_Initialize 0074  
                                  ?_DefaultSystemErrorHandler 0501  
                               __end_of_PWM1_16BIT_Initialize 442A  
                                                   ___fladd@a 052C  
                                                   ___fladd@b 0528  
                                            ??_GetRxFifoDepth 0501  
                                      __size_of_TMR2_CallBack 002E  
                               ?_CAN1_ReceivedMessageCountGet 0501  
                                                   ___flmul@a 0513  
                                                   ___flmul@b 050F  
                                                 __pbssCOMRAM 0556  
                            __end_of_INT0_SetInterruptHandler 4B58  
                                            _ucPICHDRPRES1min 0598  
                                            _ucPICHDRPRES2min 0597  
                                               __pcstackBANK5 05E5  
                                               __pcstackBANK6 0608  
                     CAN1_SetBusErrorInterruptHandler@handler 0608  
                                    __size_of_TMR2_Initialize 0030  
                                   __end_of_SERVICEBRAKE_Move 45C8  
                                           __size_of___xxtofl 01B4  
                                   ??_DefaultTxAttemptHandler 0501  
                                              ??_CAN1_RXI_ISR 0552  
                                                 ??_GPIO_Init 0608  
                                           _TEMPORIZATION_10s 4C36  
                                           _TEMPORIZATION_30s 4C32  
                              __end_of_DefaultBusErrorHandler 4C4C  
                                GPIO_PWM1_Control@uiDutyCycle 0542  
                                                _ucTargetGear 05AD  
                                          ?_TEMPORIZATION_10s 0501  
                                          ?_TEMPORIZATION_30s 0501  
                          __end_of_CAN1_RX_FIFO_Configuration 494E  
                                  _CAN1_RX_FIFO_Configuration 4924  
            __end_of_ADC_SetContext4ThresholdInterruptHandler 4BBC  
           __size_of_ADC_SetContext4ThresholdInterruptHandler 000A  
                  ??_ADC_SetContext4ThresholdInterruptHandler 060A  
                   ?_ADC_SetContext4ThresholdInterruptHandler 0608  
                    _ADC_SetContext4ThresholdInterruptHandler 4BB2  
                                       _TMR0_InterruptHandler 05C9  
                                              ??_CAN1_Receive 0524  
                                                   __pnvBANK5 05C9  
                                                 _ucAMI_state 05AA  
                                             ?_TMR0_StopTimer 0501  
                                                    ?_Receive 0518  
                                       ??_TEMPORIZATION_100ms 0501  
                                       ??_TEMPORIZATION_500ms 0501  
                                                 _ucEBS_state 05AB  
                                            ___lwdiv@dividend 0501  
                                      _PIN_MANAGER_Initialize 449E  
                                         ??_TEMPORIZATION_10s 0501  
                                         ??_TEMPORIZATION_30s 0501  
                                 __size_of_TEMPORIZATION_10ms 0002  
                                                    _C1FIFOBA 00014C  
                            __end_of_TMR1_SetInterruptHandler 4B08  
                                                    ?___aldiv 0501  
                                                    ?___fladd 0528  
                                                   __ptext100 4C42  
                                                   __ptext101 4C44  
                                                   __ptext102 4C46  
                                                   __ptext103 4C48  
                                                   __ptext104 4C4A  
                                                   __ptext105 0000  
                                                    _C1MASK1H 000199  
                                                    _C1MASK1L 000198  
                                                    ?___flmul 050F  
                                                    _C1MASK1T 00019B  
                                                    _C1MASK1U 00019A  
                                       ??_TEMPORIZATION_1mins 0501  
                                                    ?___fltol 0538  
                                                    ?___lwdiv 0501  
                                             ?_ADC_Initialize 0501  
                                           _ADC_SelectContext 4BEE  
                               SERVICEBRAKE_Move@ucTargetMove 054C  
                                                 _ucPICNPRES1 056A  
                                                 _ucPICNPRES2 0568  
                                                 _ucPICNPRES3 0566  
                                                 _ucPICNPRES4 0564  
                                ??_INTERRUPT_InterruptManager 0552  
                                              _ucSpeed_actual 05A5  
                                                    _ADACTPPS 000269  
                                          ?_ADC_SelectContext 0501  
                                ?_DefaultFIFO1NotEmptyHandler 0501  
                        CAN1_ReceivedMessageCountGet@fifoHead 0509  
                                                    _CAN1_ISR 3A5C  
                           __end_of_DefaultSystemErrorHandler 4C42  
                        CAN1_ReceivedMessageCountGet@fifoTail 0508  
                                                 __smallconst 2600  
                                                  _C1FLTCON0H 000181  
                                              _ucSpeed_target 05A4  
                                                  _C1FLTOBJ1H 000195  
                                                  _C1FLTOBJ1L 000194  
                                                  _C1FLTOBJ1T 000197  
                                                  _C1FLTOBJ1U 000196  
                                                    _ADCPbits 0003D8  
                                                  _C1CONHbits 000101  
                                                   _ucCount1s 055C  
                            CAN1_OperationModeSet@requestMode 060A  
                                                    _CANRXPPS 00023D  
                                                  _C1CONTbits 000103  
                                                 _HDRPRES_max 0559  
                                                 _HDRPRES_min 055A  
                                                  _C1CONUbits 000102  
                                   __end_of_TEMPORIZATION_10s 4C38  
                                   __end_of_TEMPORIZATION_30s 4C34  
                                         ??_ADC_SelectContext 0501  
                                               _ucPICHDRPRES1 056E  
                                               _ucPICHDRPRES2 056C  
                                            ___lwdiv@quotient 0505  
                              ??_DefaultInvalidMessageHandler 0501  
                                     ?_CAN1_RX_FIFO_ResetInfo 0501  
                                     __size_of_CANReadMessage 025E  
                                               _TMR0_CallBack 48CA  
                                                    _T2CLKCON 000326  
                                                  _C1INTHbits 00011D  
                                                  _C1INTLbits 00011C  
                                        _INTERRUPT_Initialize 4C20  
                   _PWM2_16BIT_Period_DefaultInterruptHandler 000000  
                   _PWM1_16BIT_Period_DefaultInterruptHandler 000000  
                                                  _C1INTTbits 00011F  
                                                  _C1INTUbits 00011E  
                                               _TMR1_CallBack 489C  
                                             ___aldiv@divisor 0505  
                        CAN1_ReceivedMessageCountGet@numOfMsg 0504  
                                           ??_TMR0_Initialize 060A  
                                             ___aldiv@counter 0509  
                                                    _INT0_ISR 4C00  
                                              ___wmul@product 0505  
                                                    _LATAbits 0004BE  
                                                    _LATBbits 0004BF  
                                               _TMR2_CallBack 4840  
                                                    _PIE0bits 00049E  
                          _PWM2_16BIT_Period_InterruptHandler 05D1  
                                                    _PIE1bits 00049F  
                                                    _PIE3bits 0004A1  
                                                    _PIE4bits 0004A2  
                                                    _PIE5bits 0004A3  
                                    __size_of_TMR1_WriteTimer 002E  
                                                    i2u300_40 3C9C  
                                                    i2u300_41 3C98  
                                                    i2u301_40 2628  
                                                    i2u301_41 2624  
                                                    i2u310_40 277C  
                                                    i2u302_40 263A  
                                                    i2u310_41 2778  
                                                    i2u302_41 2636  
                                                    i2u311_40 2794  
                                                    i2u303_40 264A  
                                                    i2u311_41 278E  
                                                    i2u303_41 2646  
                         __size_of_INTERRUPT_InterruptManager 010A  
                                                    i2u320_40 2878  
                                                    i2u312_40 2796  
                                                    i2u304_40 268C  
                                                    i2u400_40 31F8  
                                                    i2u320_41 2874  
                                                    i2u304_41 2688  
                                                    i2u400_41 31F4  
                                                    i2u321_40 28B0  
                                                    i2u313_40 27BE  
                                                    i2u305_40 26A2  
                                                    i2u401_40 3214  
                                                    i2u321_41 28AC  
                                                    i2u313_41 27BA  
                                                    i2u305_41 269E  
                                                    i2u401_41 3210  
                                                    i2u330_40 29CC  
                                                    i2u322_40 28F6  
                                                    i2u314_40 27DC  
                                                    i2u306_40 26B4  
                                                    i2u330_41 29C8  
                                                    i2u322_41 28F2  
                                                    i2u314_41 27D8  
                                                    i2u306_41 26B0  
                                                    i2u402_45 32FE  
                                                    i2u331_40 29E2  
                                                    i2u323_40 292C  
                                                    i2u315_40 27FC  
                                                    i2u307_40 26C4  
                                                    i2u331_41 29DE  
                                                    i2u323_41 2928  
                                                    i2u315_41 27F8  
                                                    i2u307_41 26C0  
                                                    i2u403_45 3326  
                                                    i2u332_40 29F6  
                                                    i2u324_40 293C  
                                                    i2u316_40 280A  
                                                    i2u308_40 2700  
                                                    i2u340_40 3DDE  
                                                    i2u332_41 29F2  
                                                    i2u324_41 2938  
                                                    i2u316_41 2806  
                                                    i2u308_41 26FC  
                                                    i2u340_41 3DDA  
                                                    i2u333_40 2A10  
                                                    i2u325_40 2968  
                                                    i2u317_40 281A  
                                                    i2u309_40 270E  
                                                    i2u341_40 3E12  
                                                    i2u501_40 3CE4  
                                  ??_TMR0_SetInterruptHandler 060A  
                                                    i2u333_41 2A0C  
                                                    i2u325_41 2964  
                                                    i2u317_41 2816  
                                                    i2u309_41 270A  
                                                    i2u501_41 3CE0  
                                                    i2u341_45 3E08  
                                                    i2u334_40 2A4A  
                                                    i2u326_40 2978  
                                                    i2u318_40 284C  
                                                    i2u342_40 3E40  
                                                    i2u350_40 38BA  
                                                    i2u510_40 3D82  
                                                    i2u502_40 3CF2  
                                                    i2u334_41 2A46  
                                                    i2u326_41 2974  
                                                    i2u318_41 2848  
                                                    i2u342_41 3E3C  
                                                    i2u350_41 38B6  
                                                    i2u510_41 3D7E  
                                                    i2u502_41 3CEE  
                                                    i2u335_40 2A5C  
                                                    i2u327_40 2994  
                                                    i2u319_40 285A  
                                                    i2u343_40 3E54  
                                                    i2u351_40 38C8  
                                                    i2u431_40 4796  
                                                    i2u511_40 3D98  
                                                    i2u503_40 3D08  
                                                    i2u335_41 2A58  
                                                    i2u327_41 2990  
                                                    i2u319_41 2856  
                                                    i2u343_41 3E50  
                                                    i2u351_41 38C4  
                                                    i2u431_41 4792  
                                                    i2u511_41 3D94  
                                                    i2u503_41 3D04  
                                                    _PIR0bits 0004AE  
                                                    i2u336_40 2A6C  
                                                    i2u328_40 29A4  
                                                    i2u344_40 3E7C  
                                                    i2u352_40 3924  
                                                    i2u360_40 47CE  
                                                    i2u512_40 3DA6  
                                                    i2u504_40 3D16  
                                                    i2u336_41 2A68  
                                                    i2u328_41 29A0  
                                                    i2u344_41 3E78  
                                                    i2u352_41 3920  
                                                    i2u360_41 47CA  
                                                    i2u512_41 3DA2  
                                                    i2u504_41 3D12  
                                                    i2u361_40 3FD6  
                                                    i2u337_40 2A8C  
                                                    i2u329_40 29B6  
                                                    i2u345_40 3E9C  
                                                    i2u353_40 397A  
                                                    i2u432_48 479C  
                                                    i2u505_40 3D2C  
                                                    i2u361_41 3FD2  
                                                    i2u337_41 2A88  
                                                    i2u329_41 29B2  
                                                    i2u345_41 3E98  
                                                    i2u353_41 3976  
                                                    i2u432_49 47AE  
                                                    i2u505_41 3D28  
                                                    _PIR1bits 0004AF  
                                                    i2u290_40 3506  
                                                    i2u362_40 4004  
                                                    i2u338_40 2A9E  
                                                    i2u346_40 3EAC  
                                                    i2u354_40 39C4  
                                                    i2u370_40 2B6C  
                                                    i2u442_40 487E  
                                                    i2u506_40 3D3A  
                                                    i2u290_41 34FE  
                                                    i2u362_41 4000  
                                                    i2u338_41 2A9A  
                                                    i2u346_41 3EA8  
                                                    i2u354_41 39C0  
                                                    i2u370_41 2B68  
                                                    i2u442_41 487A  
                                                    i2u506_41 3D36  
                                                    i2u451_40 3A6C  
                                                    i2u283_40 4620  
                                                    i2u363_40 4068  
                                                    i2u339_40 2ABA  
                                                    i2u347_40 4444  
                                                    i2u355_40 39E2  
                                                    i2u371_40 2BA2  
                                                    i2u443_40 48B0  
                                                    i2u507_40 3D50  
                                                    i2u451_41 3A68  
                                                    i2u283_41 461C  
                                                    i2u363_41 4064  
                                                    i2u339_41 2AB6  
                                                    i2u347_41 4440  
                                                    i2u355_41 39DE  
                                                    i2u371_41 2B9E  
                                                    i2u443_41 48AC  
                                                    i2u507_41 3D4C  
                                                    _PIR2bits 0004B0  
                                                   _rxMsgData 0600  
                                                    i2u292_40 357E  
                                                    i2u291_48 3508  
                                                    i2u284_40 3482  
                                                    i2u364_40 408A  
                                                    i2u348_40 4462  
                                                    i2u356_40 39F2  
                                                    i2u380_40 2E4E  
                                                    i2u372_40 2BB2  
                                                    i2u508_40 3D5E  
                                                    i2u292_41 357A  
                                                    i2u284_41 347A  
                                                    i2u364_41 4086  
                                                    i2u348_41 445E  
                                                    i2u356_41 39EE  
                                                    i2u380_41 2E4A  
                                                    i2u372_41 2BAE  
                                                    i2u508_41 3D5A  
                                                    i2u461_40 3B48  
                                                    i2u460_48 3B22  
                                                    i2u453_40 3A98  
                                                    i2u452_48 3A72  
                                                    i2u349_40 447E  
                                                    i2u357_40 3A00  
                                                    i2u381_40 2E96  
                                                    i2u373_40 2D50  
                                                    i2u365_40 2AE8  
                                                    i2u445_40 49D8  
                                                    i2u444_48 48B6  
                                                    i2u509_40 3D74  
                                                    i2u461_41 3B44  
                                                    i2u460_49 3B36  
                                                    i2u453_41 3A94  
                                                    i2u452_49 3A86  
                                                    i2u349_41 447A  
                                                    i2u357_41 39FC  
                                                    i2u381_41 2E92  
                                                    i2u365_41 2AE4  
                                                    i2u445_41 49D2  
                                                    i2u444_49 48C8  
                                                    i2u509_41 3D70  
                                                    _PIR3bits 0004B1  
                                                    i2u293_45 3580  
                                                    i2u373_45 2D46  
                                                    i2u445_46 49DA  
                                                    i2u286_40 34AC  
                                                    i2u285_48 3484  
                                                    i2u390_40 416C  
                                                    i2u358_40 3A3A  
                                                    i2u382_40 2EC4  
                                                    i2u374_40 2DAA  
                                                    i2u366_40 2AFA  
                                                    i2u470_40 41B6  
                                                    i2u446_40 4854  
                                                    i2u286_41 34A4  
                                                    i2u390_41 4168  
                                                    i2u358_41 3A36  
                                                    i2u382_41 2EC0  
                                                    i2u374_41 2DA6  
                                                    i2u366_41 2AF6  
                                                    i2u470_41 41B2  
                                                    i2u446_41 4850  
                                                    i2u294_45 35CC  
                                                    i2u463_40 3B72  
                                                    i2u462_48 3B4E  
                                                    i2u455_40 3AC4  
                                                    i2u454_48 3A9E  
                                                    i2u295_40 3BC4  
                                                    i2u359_40 3A48  
                                                    i2u391_40 4580  
                                                    i2u383_40 2EFE  
                                                    i2u375_40 2DCA  
                                                    i2u367_40 2B0A  
                                                    i2u471_40 41D4  
                                                    i2u463_41 3B6E  
                                                    i2u462_49 3B62  
                                                    i2u455_41 3AC0  
                                                    i2u454_49 3AB2  
                                                    i2u295_41 3BC0  
                                                    i2u359_41 3A44  
                                                    i2u391_41 457C  
                                                    i2u383_41 2EFA  
                                                    i2u375_41 2DC6  
                                                    i2u367_41 2B06  
                                                    i2u471_41 41D0  
                                                    _PIR4bits 0004B2  
                                                    i2u464_40 3B82  
                                                    i2u288_40 34D8  
                                                    i2u287_48 34AE  
                                                    i2u384_40 46AE  
                                                    i2u296_40 3BE6  
                                                    i2u376_40 2DDC  
                                                    i2u368_40 2B4A  
                                                    i2u392_40 2FB4  
                                                    i2u448_40 48DE  
                                                    i2u472_40 41F8  
                                                    i2u447_48 485A  
                                                    i2u464_41 3B7E  
                                                    i2u288_41 34D0  
                                                    i2u384_41 46AA  
                                                    i2u296_41 3BE2  
                                                    i2u376_41 2DD8  
                                                    i2u368_41 2B46  
                                                    i2u392_41 2FAC  
                                                    i2u448_41 48DA  
                                                    i2u472_41 41F4  
                                                    i2u447_49 486C  
                                                    i2u457_40 3AF0  
                                                    i2u456_48 3ACA  
                                                    i2u385_40 46C4  
                                                    i2u297_40 3C20  
                                                    i2u377_40 2E0A  
                                                    i2u369_40 2B5C  
                                                    i2u393_40 2FD6  
                                                    i2u392_48 2FB6  
                                                    i2u473_40 4222  
                                                    i2u457_41 3AEC  
                                                    i2u456_49 3ADE  
                                                    i2u385_41 46C0  
                                                    i2u297_41 3C1C  
                                                    i2u377_41 2E06  
                                                    i2u369_41 2B58  
                                                    i2u393_41 2FCE  
                                                    i2u473_41 421E  
                                                    _PIR5bits 0004B3  
                                                    i2u466_40 3BAC  
                                                    i2u465_48 3B88  
                                                    i2u289_48 34DA  
                                                    i2u386_40 40D8  
                                                    i2u298_40 3C42  
                                                    i2u378_40 2E20  
                                                    i2u394_40 3048  
                                                    i2u393_48 2FD8  
                                                    i2u449_48 48E4  
                                                    i2u466_41 3BA8  
                                                    i2u465_49 3B9C  
                                                    i2u386_41 40D4  
                                                    i2u298_41 3C3E  
                                                    i2u378_41 2E1C  
                                                    i2u394_41 3044  
                                                    i2u449_49 48F6  
                                                    i2u459_40 3B1C  
                                                    i2u458_48 3AF6  
                                                    i2u387_40 40EE  
                                                    i2u299_40 3C6A  
                                                    i2u467_40 4908  
                                                    i2u379_40 2E34  
                                                    i2u395_40 305E  
                                                    i2u459_41 3B18  
                                                    i2u458_49 3B0A  
                                                    i2u387_41 40EA  
                                                    i2u299_41 3C66  
                                                    i2u467_41 4904  
                                                    i2u379_41 2E30  
                                                    i2u395_41 305A  
                                                    i2u388_40 4132  
                                                    i2u396_40 3094  
                                                    i2u388_41 412E  
                                                    i2u396_41 3090  
                                                    i2u389_40 4150  
                                                    i2u468_48 490E  
                                                    i2u397_40 3128  
                                                    i2u469_40 419A  
                                                    i2u389_41 414C  
                                                    i2u468_49 4922  
                                                    i2u397_41 3124  
                                                    i2u469_41 4196  
                                                    i2u398_40 31B4  
                                                    i2u398_41 31B0  
                                                    i2u399_40 4732  
                                                    i2u399_41 472E  
                                   _ADC_ActiveClockTuning_ISR 05D7  
                                                    _PWM1CPRE 000465  
                                                    _PWM2CPRE 000474  
                                   __end_of_ADC_SelectContext 4BF8  
        __end_of_PWM1_16BIT_SetSlice1Output1DutyCycleRegister 4AF4  
       __size_of_PWM1_16BIT_SetSlice1Output1DutyCycleRegister 000C  
              ??_PWM1_16BIT_SetSlice1Output1DutyCycleRegister 0503  
               ?_PWM1_16BIT_SetSlice1Output1DutyCycleRegister 0501  
                _PWM1_16BIT_SetSlice1Output1DutyCycleRegister 4AE8  
                            _ADC_DefaultActiveClockTuning_ISR 000000  
                                                    _TMR0_ISR 4BF8  
                                                    _TMR1_ISR 4170  
                                                    _TMR2_ISR 4AD0  
                                 __end_of_ReadMessageFromFifo 3682  
                                           _ucTargetDirection 05AE  
                      __end_of_PWM1_16BIT_LoadBufferRegisters 4C28  
                     __size_of_PWM1_16BIT_LoadBufferRegisters 0004  
                              _PWM1_16BIT_LoadBufferRegisters 4C24  
                              ADC_GetSingleConversion@channel 0505  
                                            ?_CAN1_Initialize 0501  
                                          CAN1_Receive@status 0524  
                                           ??_TMR1_Initialize 060A  
                                                  _ADCON0bits 0003F3  
                                                  _ADCON1bits 0003F4  
                                                  _ADCON2bits 0003F5  
                                                  _ADCON3bits 0003F6  
                                            ?_GetRxFifoStatus 0501  
                                           ___wmul@multiplier 0501  
        __end_of_PWM1_16BIT_Slice1Output2_SetInterruptHandler 4B3A  
       __size_of_PWM1_16BIT_Slice1Output2_SetInterruptHandler 000A  
        __end_of_PWM2_16BIT_Slice1Output2_SetInterruptHandler 4B1C  
       __size_of_PWM2_16BIT_Slice1Output2_SetInterruptHandler 000A  
              ??_PWM2_16BIT_Slice1Output2_SetInterruptHandler 060A  
              ??_PWM1_16BIT_Slice1Output2_SetInterruptHandler 060A  
               ?_PWM2_16BIT_Slice1Output2_SetInterruptHandler 0608  
               ?_PWM1_16BIT_Slice1Output2_SetInterruptHandler 0608  
                _PWM1_16BIT_Slice1Output2_SetInterruptHandler 4B30  
                _PWM2_16BIT_Slice1Output2_SetInterruptHandler 4B12  
                               ??_DefaultFIFO1NotEmptyHandler 0552  
                              ??_TMR2_DefaultInterruptHandler 0501  
                                 ?_ADC_SetADIInterruptHandler 0608  
                           __size_of_TMR2_SetInterruptHandler 000A  
                              ??_INT0_DefaultInterruptHandler 0501  
                                   ?_TMR2_SetInterruptHandler 0608  
                              __end_of_CAN1_RX_FIFO_ResetInfo 4840  
                                  __size_of_SERVICEBRAKE_Move 005C  
                                              ?_TMR0_CallBack 0501  
                                     ??_GPIO_BrakePedalAtRest 054D  
                                                 _INTCON0bits 0004D6  
                   _PWM2_16BIT_Slice1Output1_InterruptHandler 05D5  
                   _PWM1_16BIT_Slice1Output1_InterruptHandler 0592  
                                       ?_INTERRUPT_Initialize 0501  
                            __size_of_ADC_GetSingleConversion 0032  
                                    _INT0_SetInterruptHandler 4B4E  
                                              ?_TMR1_CallBack 0501  
                                           ??_TMR2_Initialize 060A  
                              __size_of_PWM2_16BIT_Initialize 0074  
                                              ?_TMR2_CallBack 0501  
                               __end_of_PWM2_16BIT_Initialize 43B6  
                                               Receive@status 051D  
                                                  _ADSTATbits 0003F7  
                                                    __Hrparam 0000  
                                            __size_of_Receive 00EC  
                                                   memcpy@tmp 050B  
                                       _CAN1_OperationModeGet 4B62  
                                                    __Lrparam 0000  
                                       _CAN1_OperationModeSet 4230  
                                     _CAN1_SystemErrorHandler 0582  
                                  ??_DefaultModeChangeHandler 0501  
                           ANALOG_GetVoltage@uiValorCalculado 0549  
                                     ??_OSCILLATOR_Initialize 0608  
                                        __end_of_CAN1_RXI_ISR 4924  
                                            __size_of___aldiv 010C  
                                            __size_of___fladd 04C0  
                                         _ucTargetAccelerator 05B1  
                                            __size_of___flmul 044E  
                                            __size_of___fltol 0106  
                                            __size_of___lwdiv 0074  
                                    _TMR1_SetInterruptHandler 4AFE  
                                                  _ANSELAbits 000400  
                                                  _ANSELCbits 000410  
                                       _TMR1_InterruptHandler 05CD  
                                           ?_TEMPORIZATION_1s 0501  
                                        __end_of_CAN1_Receive 46C8  
                                                    ___xxtofl 38A8  
                                                  _T0CON0bits 00031A  
                                   _ADC_Context1Thereshld_ISR 05DF  
                                                    __pivt0x8 0008  
                                                 _ucServoLDif 0595  
                                             ___lwdiv@divisor 0503  
                                  __size_of_TEMPORIZATION_10s 0002  
                                          ??_TEMPORIZATION_1s 0501  
                                  __size_of_TEMPORIZATION_30s 0002  
                                                    _ucASMode 059B  
                              ANALOG_GetVoltage@uiValorAnalog 0547  
                                             ___lwdiv@counter 0507  
                                                 _ucServoLmax 0596  
                                                 _ucServoLmin 059A  
                                                 _uiCount1min 057A  
                                                    __ptext10 4B12  
                                                    __ptext11 4B1C  
                                                    __ptext20 4C20  
                                                    __ptext12 4B26  
                                                    __ptext21 4A92  
                                                    __ptext13 43B6  
                                                  _T1GCONbits 00031F  
                                                    __ptext30 4B62  
                                                    __ptext22 4B4E  
                                                    __ptext14 4B30  
                                                    __ptext31 42C8  
                                                    __ptext23 4510  
                                                    __ptext15 4B3A  
                                                    __ptext40 3682  
                                                    __ptext32 4B6C  
                                                    __ptext24 4AA8  
                                                    __ptext16 4B44  
                                                    __ptext41 4BB2  
                                                    __ptext33 4B76  
                                                    __ptext25 4812  
                                                    __ptext17 49A0  
                                                    __ptext50 4840  
                                                    __ptext42 4BBC  
                                                    __ptext34 4B80  
                                                    __ptext26 49EC  
                                                    __ptext18 449E  
                                                    __ptext51 4C2A  
                                                    __ptext43 4BC6  
                                                    __ptext35 4B8A  
                                                    __ptext27 4924  
                                                    __ptext19 4A62  
                                                    __ptext60 4C34  
                                                    __ptext52 4C2C  
                                                    __ptext44 4BD0  
                                                    __ptext36 4B94  
                                                    __ptext28 4B58  
                                                    __ptext61 4C36  
                                                    __ptext53 4170  
                                                    __ptext45 4BDA  
                                                    __ptext37 4B9E  
                                                    __ptext29 4230  
                                                    __ptext70 2F1C  
                                                    __ptext62 4C38  
                                                    __ptext54 486E  
                                                    __ptext46 4BE4  
                                                    __ptext38 4BA8  
                                                    __ptext71 2ACE  
                                                    __ptext63 4BF8  
                                                    __ptext55 489C  
                                                    __ptext47 4A0E  
                                                    __ptext39 4ABC  
                                                    __ptext80 3ECE  
                                                    __ptext72 4C0E  
                                                    __ptext64 48CA  
                                                    __ptext56 4C2E  
                                                    __ptext48 3CBE  
                                                    __ptext81 38A8  
                                                    __ptext73 4BEE  
                                                    __ptext65 4C3A  
                                                    __ptext57 4C30  
                                                    __ptext49 4AD0  
                                                    __ptext90 40A6  
                                                    __ptext82 494E  
                                                    __ptext74 47B0  
                                                    __ptext66 4C00  
                                                    __ptext58 4C32  
                                                    __ptext91 4676  
                                                    __ptext83 442A  
                                                    __ptext75 4C14  
                                                    __ptext67 477E  
                                                    __ptext59 49C8  
                                                    __ptext92 3FBA  
                                                    __ptext84 3DC8  
                                                    __ptext76 48F8  
                                                    __ptext68 4C3C  
                                                    __ptext93 3442  
                                                    __ptext85 260E  
                                                    __ptext77 4C1A  
                                                    __ptext69 4718  
                                                    __ptext94 45C8  
                                                    __ptext86 3BB2  
                                                    __ptext78 31E4  
                                                    __ptext95 4A7A  
                                                    __ptext87 4ADC  
                                                    __ptext79 456C  
                                                    __ptext96 4A2C  
                                                    __ptext88 4AE8  
                                                    __ptext97 3A5C  
                                                    __ptext89 4C24  
                                                    __ptext98 4C3E  
                                                    __ptext99 4C40  
                                    ADC_SelectContext@context 0501  
                                 CAN1_OperationModeSet@opMode 0608  
                                   ReadMessageFromFifo@status 0517  
                                 CAN1_OperationModeSet@status 0609  
                                 __size_of_ADC_StopConversion 0006  
                                               __size_of_main 0018  
                        __end_of_TMR0_DefaultInterruptHandler 4C3C  
                       __size_of_TMR0_DefaultInterruptHandler 0002  
                                _TMR0_DefaultInterruptHandler 4C3A  
                                  __size_of_ADC_SelectContext 000A  
                          _PWM1_16BIT_Period_InterruptHandler 058E  
                          __end_of_INTERRUPT_InterruptManager 3DC8  
                                  _INTERRUPT_InterruptManager 3CBE  
                                                 _msgTransmit 05C2  
                                           ??_TMR1_WriteTimer 0503  
                                 ??_DefaultSystemErrorHandler 0501  
                                                 _PWM1GIEbits 000468  
                                             ??_TMR0_CallBack 0501  
                                                 _PWM1CONbits 000469  
                                                 _PWM2GIEbits 000477  
                                _CAN1_RxBufferOverflowHandler 057E  
                                                    memcpy@d1 0501  
                                                    memcpy@s1 0503  
                                                 _PWM1GIRbits 000467  
                                                 _PWM2CONbits 000478  
                                                 _PWM2GIRbits 000476  
                                      ??_INTERRUPT_Initialize 0608  
                                              _CANReadMessage 31E4  
                                             ??_TMR1_CallBack 0501  
                                          _EXT_INT_Initialize 4A92  
                                                    intlevel2 0000  
                                            ??_TMR0_StopTimer 0608  
                                             ??_TMR2_CallBack 0501  
                                               _C1TXQSTALbits 000154  
                                     GPIO_PWM1_Control@uiFreq 0544  
                                     ?_PIN_MANAGER_Initialize 0501  
                                         ?_EXT_INT_Initialize 0501  
                                 ?_CAN1_RX_FIFO_Configuration 0501  
                          __size_of_CAN1_BitRateConfiguration 0014  
                              ??_CAN1_SetFIFO1NotEmptyHandler 060A  
                                      ?_CAN1_OperationModeGet 0501  
                                  ?_CAN1_BitRateConfiguration 0501  
                                      ?_CAN1_OperationModeSet 0501  
                                            ??_ADC_Initialize 060A  
                                      __size_of_INT0_CallBack 0032  
                             fp__TMR0_DefaultInterruptHandler 0000  
                               ?_TMR0_DefaultInterruptHandler 0501  
                                 ReadMessageFromFifo@rxCanMsg 050E  
                   _PWM2_16BIT_Slice1Output2_InterruptHandler 05D3  
                   _PWM1_16BIT_Slice1Output2_InterruptHandler 0590  
                                             _ucASRequesState 059C  
                                        ??_EXT_INT_Initialize 060A  
                                             _TMR0_Initialize 4978  
                                      __end_of_CANReadMessage 3442  
                                       _PWM1_16BIT_Initialize 43B6  
                                   _ADC_Context2Thereshld_ISR 05DD  
                                                ___aldiv@sign 050A  
                                        CAN1_Receive@rxCanMsg 0522  
                       CAN1_ReceivedMessageCountGet@fifoDepth 0507  
                                     _ADC_GetSingleConversion 47B0  
            __end_of_ADC_SetContext3ThresholdInterruptHandler 4BC6  
           __size_of_ADC_SetContext3ThresholdInterruptHandler 000A  
                  ??_ADC_SetContext3ThresholdInterruptHandler 060A  
                   ?_ADC_SetContext3ThresholdInterruptHandler 0608  
                    _ADC_SetContext3ThresholdInterruptHandler 4BBC  
                                               ___fladd@signs 0534  
             CAN1_SetRxBufferOverFlowInterruptHandler@handler 0608  
                                             _C1FIFOSTA1Lbits 000160  
                              __end_of_PIN_MANAGER_Initialize 4510  
                                 __end_of_TEMPORIZATION_100ms 4C3A  
                                 __end_of_TEMPORIZATION_500ms 4C32  
                              fp__DefaultFIFO1NotEmptyHandler 0000  
                                                ___fladd@aexp 0535  
                                                ___fladd@bexp 0536  
                                   _DefaultSystemErrorHandler 4C40  
                            _ADC_DefaultContext1Threshold_ISR 000000  
                                       _TMR2_InterruptHandler 05CB  
                                       _ucMotor_moment_actual 059F  
                                  __end_of_TEMPORIZATION_10ms 4C2E  
                                 __end_of_TEMPORIZATION_1mins 4C36  
                                             _TMR1_Initialize 46C8  
                                       __size_of_CAN1_RXI_ISR 002C  
                           __end_of_CAN1_BitRateConfiguration 4AD0  
                                       _ucMotor_moment_target 059E  
