

Microchip MPLAB XC8 Assembler V2.32 build 20210201212658 
                                                                                               Mon Sep 20 12:56:16 2021

Microchip MPLAB XC8 C Compiler v2.32 (Free license) build 20210201212658 Og1 
     1                           	processor	18F26Q84
     2                           	fnconf	rparam,??,?,0
     3                           	pagewidth 120
     4                           	opt	flic
     5                           	psect	idataBANK5,global,class=CODE,delta=1,noexec
     6                           	psect	smallconst,global,reloc=2,class=SMALLCONST,delta=1,noexec
     7                           	psect	nvCOMRAM,global,class=COMRAM,space=1,delta=1,lowdata,noexec
     8                           	psect	nvBANK5,global,class=BANK5,space=1,delta=1,lowdata,noexec
     9                           	psect	cinit,global,reloc=2,class=CODE,delta=1
    10                           	psect	bssCOMRAM,global,class=COMRAM,space=1,delta=1,lowdata,noexec
    11                           	psect	dataBANK5,global,class=BANK5,space=1,delta=1,lowdata,noexec
    12                           	psect	cstackBANK5,global,class=BANK5,space=1,delta=1,lowdata,noexec
    13                           	psect	cstackCOMRAM,global,class=COMRAM,space=1,delta=1,lowdata,noexec
    14                           	psect	text0,global,reloc=2,class=CODE,delta=1
    15                           	psect	text1,global,reloc=2,class=CODE,delta=1
    16                           	psect	text2,global,reloc=2,class=CODE,delta=1
    17                           	psect	text3,global,reloc=2,class=CODE,delta=1
    18                           	psect	text4,global,reloc=2,class=CODE,delta=1
    19                           	psect	text5,global,reloc=2,class=CODE,delta=1
    20                           	psect	text6,global,reloc=2,class=CODE,delta=1
    21                           	psect	text7,global,reloc=2,class=CODE,delta=1
    22                           	psect	text8,global,reloc=2,class=CODE,delta=1
    23                           	psect	text9,global,reloc=2,class=CODE,delta=1
    24                           	psect	text10,global,reloc=2,class=CODE,delta=1
    25                           	psect	text11,global,reloc=2,class=CODE,delta=1
    26                           	psect	text12,global,reloc=2,class=CODE,delta=1
    27                           	psect	text13,global,reloc=2,class=CODE,delta=1
    28                           	psect	text14,global,reloc=2,class=CODE,delta=1
    29                           	psect	text15,global,reloc=2,class=CODE,delta=1
    30                           	psect	text16,global,reloc=2,class=CODE,delta=1
    31                           	psect	text17,global,reloc=2,class=CODE,delta=1
    32                           	psect	text18,global,reloc=2,class=CODE,delta=1
    33                           	psect	text19,global,reloc=2,class=CODE,delta=1
    34                           	psect	text20,global,reloc=2,class=CODE,delta=1
    35                           	psect	text21,global,reloc=2,class=CODE,delta=1
    36                           	psect	text22,global,reloc=2,class=CODE,delta=1
    37                           	psect	text23,global,reloc=2,class=CODE,delta=1
    38                           	psect	text24,global,reloc=2,class=CODE,delta=1
    39                           	psect	text25,global,reloc=2,class=CODE,delta=1
    40                           	psect	text26,global,reloc=2,class=CODE,delta=1
    41                           	psect	text27,global,reloc=2,class=CODE,delta=1
    42                           	psect	text28,global,reloc=2,class=CODE,delta=1
    43                           	psect	text29,global,reloc=2,class=CODE,delta=1
    44                           	psect	text30,global,reloc=2,class=CODE,delta=1
    45                           	psect	text31,global,reloc=2,class=CODE,delta=1
    46                           	psect	text32,global,reloc=2,class=CODE,delta=1
    47                           	psect	text33,global,reloc=2,class=CODE,delta=1
    48                           	psect	text34,global,reloc=2,class=CODE,delta=1
    49                           	psect	text35,global,reloc=2,class=CODE,delta=1
    50                           	psect	text36,global,reloc=2,class=CODE,delta=1
    51                           	psect	text37,global,reloc=2,class=CODE,delta=1
    52                           	psect	text38,global,reloc=2,class=CODE,delta=1
    53                           	psect	text39,global,reloc=2,class=CODE,delta=1
    54                           	psect	text40,global,reloc=2,class=CODE,delta=1
    55                           	psect	text41,global,reloc=2,class=CODE,delta=1
    56                           	psect	text42,global,reloc=2,class=CODE,delta=1,group=2
    57                           	psect	text43,global,reloc=2,class=CODE,delta=1
    58                           	psect	text44,global,reloc=2,class=CODE,delta=1
    59                           	psect	text45,global,reloc=2,class=CODE,delta=1
    60                           	psect	text46,global,reloc=2,class=CODE,delta=1
    61                           	psect	text47,global,reloc=2,class=CODE,delta=1
    62                           	psect	text48,global,reloc=2,class=CODE,delta=1
    63                           	psect	text49,global,reloc=2,class=CODE,delta=1
    64                           	psect	text50,global,reloc=2,class=CODE,delta=1
    65                           	psect	text51,global,reloc=2,class=CODE,delta=1
    66                           	psect	text52,global,reloc=2,class=CODE,delta=1
    67                           	psect	text53,global,reloc=2,class=CODE,delta=1
    68                           	psect	text54,global,reloc=2,class=CODE,delta=1
    69                           	psect	text55,global,reloc=2,class=CODE,delta=1
    70                           	psect	text56,global,reloc=2,class=CODE,delta=1
    71                           	psect	text57,global,reloc=2,class=CODE,delta=1
    72                           	psect	text58,global,reloc=2,class=CODE,delta=1
    73                           	psect	text59,global,reloc=2,class=CODE,delta=1
    74                           	psect	text60,global,reloc=2,class=CODE,delta=1
    75                           	psect	text61,global,reloc=2,class=CODE,delta=1
    76                           	psect	text62,global,reloc=2,class=CODE,delta=1
    77                           	psect	text63,global,reloc=2,class=CODE,delta=1
    78                           	psect	text64,global,reloc=2,class=CODE,delta=1
    79                           	psect	text65,global,reloc=2,class=CODE,delta=1
    80                           	psect	text66,global,reloc=2,class=CODE,delta=1
    81                           	psect	text67,global,reloc=2,class=CODE,delta=1
    82                           	psect	ivt0x8,global,reloc=2,class=CODE,delta=1,noexec,keep,optim=
    83                           	psect	intsave_regs,global,class=BIGRAM,space=1,delta=1,noexec
    84                           	psect	text68,global,reloc=2,class=CODE,delta=1
    85                           	psect	rparam,global,class=COMRAM,space=1,delta=1,noexec
    86                           	psect	idloc,global,abs,ovrld,class=IDLOC,space=5,delta=1,noexec
    87                           	psect	config,global,abs,ovrld,class=CONFIG,space=4,delta=1,noexec
    88  0000                     
    89                           ; Version 2.35
    90                           ; Generated 04/06/2021 GMT
    91                           ; 
    92                           ; Copyright © 2021, Microchip Technology Inc. and its subsidiaries ("Microchip")
    93                           ; All rights reserved.
    94                           ; 
    95                           ; This software is developed by Microchip Technology Inc. and its subsidiaries ("Microch
      +                          ip").
    96                           ; 
    97                           ; Redistribution and use in source and binary forms, with or without modification, are
    98                           ; permitted provided that the following conditions are met:
    99                           ; 
   100                           ;     1. Redistributions of source code must retain the above copyright notice, this lis
      +                          t of
   101                           ;        conditions and the following disclaimer.
   102                           ; 
   103                           ;     2. Redistributions in binary form must reproduce the above copyright notice, this 
      +                          list
   104                           ;        of conditions and the following disclaimer in the documentation and/or other
   105                           ;        materials provided with the distribution. Publication is not required when
   106                           ;        this file is used in an embedded application.
   107                           ; 
   108                           ;     3. Microchip's name may not be used to endorse or promote products derived from th
      +                          is
   109                           ;        software without specific prior written permission.
   110                           ; 
   111                           ; THIS SOFTWARE IS PROVIDED BY MICROCHIP "AS IS" AND ANY EXPRESS OR IMPLIED WARRANTIES,
   112                           ; INCLUDING, BUT NOT LIMITED TO, THE IMPLIED WARRANTIES OF MERCHANTABILITY AND FITNESS F
      +                          OR
   113                           ; PURPOSE ARE DISCLAIMED.  IN NO EVENT SHALL MICROCHIP BE LIABLE FOR ANY DIRECT, INDIREC
      +                          T,
   114                           ; INCIDENTAL, SPECIAL, EXEMPLARY, OR CONSEQUENTIAL DAMAGES (INCLUDING BUT NOT LIMITED TO
   115                           ; PROCUREMENT OF SUBSTITUTE GOODS OR SERVICES; LOSS OF USE, DATA OR PROFITS; OR BUSINESS
   116                           ; INTERRUPTION) HOWSOEVER CAUSED AND ON ANY THEORY OF LIABILITY, WHETHER IN CONTRACT, ST
      +                          RICT
   117                           ; LIABILITY, OR TORT (INCLUDING NEGLIGENCE OR OTHERWISE) ARISING IN ANY WAY OUT OF THE U
      +                          SE OF
   118                           ; THIS SOFTWARE, EVEN IF ADVISED OF THE POSSIBILITY OF SUCH DAMAGE.
   119                           ; 
   120                           ; 
   121                           ; Code-generator required, PIC18F26Q84 Definitions
   122                           ; 
   123                           ; SFR Addresses
   124  0000                     
   125 ;; Function _PWM1_16BIT_Slice1Output1_DefaultInterruptHandler is unused but had its address taken
   126  0000                     
   127 ;; Function _PWM1_16BIT_Slice1Output2_DefaultInterruptHandler is unused but had its address taken
   128  0000                     
   129 ;; Function _PWM1_16BIT_Period_DefaultInterruptHandler is unused but had its address taken
   130  0000                     
   131 ;; Function _ADC_DefaultADI_ISR is unused but had its address taken
   132  0000                     
   133 ;; Function _ADC_DefaultContext1Threshold_ISR is unused but had its address taken
   134  0000                     
   135 ;; Function _ADC_DefaultActiveClockTuning_ISR is unused but had its address taken
   136  0000                     
   137 ;; Function _PWM2_16BIT_Slice1Output1_DefaultInterruptHandler is unused but had its address taken
   138  0000                     
   139 ;; Function _PWM2_16BIT_Slice1Output2_DefaultInterruptHandler is unused but had its address taken
   140  0000                     
   141 ;; Function _PWM2_16BIT_Period_DefaultInterruptHandler is unused but had its address taken
   142  0000                     
   143                           	psect	idataBANK5
   144  0033C0                     __pidataBANK5:
   145                           	callstack 0
   146                           
   147                           ;initializer for _CANDATAdata
   148  0033C0  42                 	db	66
   149  0033C1  55                 	db	85
   150  0033C2  46                 	db	70
   151  0033C3  46                 	db	70
   152  0033C4  45                 	db	69
   153  0033C5  52                 	db	82
   154  0033C6  43                 	db	67
   155  0033C7  41                 	db	65
   156  0033C8  4E                 	db	78
   157  0033C9  00                 	db	0
   158  0033CA  00                 	db	0
   159  0033CB  00                 	db	0
   160  0033CC  00                 	db	0
   161  0033CD  00                 	db	0
   162  0033CE  00                 	db	0
   163  0033CF  00                 	db	0
   164  0033D0  00                 	db	0
   165  0033D1  00                 	db	0
   166  0033D2  00                 	db	0
   167  0033D3  00                 	db	0
   168  0033D4  00                 	db	0
   169  0033D5  00                 	db	0
   170  0033D6  00                 	db	0
   171  0033D7  00                 	db	0
   172  0033D8  00                 	db	0
   173  0033D9  00                 	db	0
   174  0033DA  00                 	db	0
   175  0033DB  00                 	db	0
   176  0033DC  00                 	db	0
   177  0033DD  00                 	db	0
   178  0033DE  00                 	db	0
   179  0033DF  00                 	db	0
   180                           
   181                           	psect	smallconst
   182  002600                     __psmallconst:
   183                           	callstack 0
   184  002600  00                 	db	0
   185  002601                     _DLC_BYTES:
   186                           	callstack 0
   187  002601  00                 	db	0
   188  002602  01                 	db	1
   189  002603  02                 	db	2
   190  002604  03                 	db	3
   191  002605  04                 	db	4
   192  002606  05                 	db	5
   193  002607  06                 	db	6
   194  002608  07                 	db	7
   195  002609  08                 	db	8
   196  00260A                     __end_of_DLC_BYTES:
   197                           	callstack 0
   198  00260A  50                 	db	80
   199  00260B  01                 	db	1
   200  00260C                     __end_of_FIFO:
   201                           	callstack 0
   202  00260C  00                 	db	0	; dummy byte at the end
   203  0000                     
   204                           	psect	nvCOMRAM
   205  00054A                     __pnvCOMRAM:
   206                           	callstack 0
   207  00054A                     _timer1ReloadVal:
   208                           	callstack 0
   209  00054A                     	ds	2
   210  00054C                     _PWM2_16BIT_Slice1Output2_InterruptHandler:
   211                           	callstack 0
   212  00054C                     	ds	2
   213  00054E                     _PWM2_16BIT_Slice1Output1_InterruptHandler:
   214                           	callstack 0
   215  00054E                     	ds	2
   216  000550                     _ADC_ActiveClockTuning_ISR:
   217                           	callstack 0
   218  000550                     	ds	2
   219  000552                     _ADC_Context1Thereshld_ISR:
   220                           	callstack 0
   221  000552                     	ds	2
   222  000554                     _ADC_ConversionComplete_ISR:
   223                           	callstack 0
   224  000554                     	ds	2
   225  000556                     _INT0_InterruptHandler:
   226                           	callstack 0
   227  000556                     	ds	2
   228                           
   229                           	psect	nvBANK5
   230  000580                     __pnvBANK5:
   231                           	callstack 0
   232  000580                     _TMR0_InterruptHandler:
   233                           	callstack 0
   234  000580                     	ds	2
   235  000582                     _TMR2_InterruptHandler:
   236                           	callstack 0
   237  000582                     	ds	2
   238  000584                     _TMR1_InterruptHandler:
   239                           	callstack 0
   240  000584                     	ds	2
   241  000586                     _PWM2_16BIT_Period_InterruptHandler:
   242                           	callstack 0
   243  000586                     	ds	2
   244  0000                     _PMD8	set	104
   245  0000                     _PMD7	set	103
   246  0000                     _PMD6	set	102
   247  0000                     _PMD5	set	101
   248  0000                     _PMD4	set	100
   249  0000                     _PMD3	set	99
   250  0000                     _PMD2	set	98
   251  0000                     _PMD1	set	97
   252  0000                     _PMD0	set	96
   253  0000                     _OSCTUNE	set	176
   254  0000                     _OSCFRQ	set	177
   255  0000                     _OSCEN	set	179
   256  0000                     _OSCCON3	set	175
   257  0000                     _OSCCON1	set	173
   258  0000                     _C1FIFOBA	set	332
   259  0000                     _C1TXQSTALbits	set	340
   260  0000                     _C1INTLbits	set	284
   261  0000                     _C1INTTbits	set	287
   262  0000                     _C1TRECUbits	set	310
   263  0000                     _C1CONUbits	set	258
   264  0000                     _C1INTHbits	set	285
   265  0000                     _C1CONTbits	set	259
   266  0000                     _C1CONU	set	258
   267  0000                     _C1CONH	set	257
   268  0000                     _C1CONL	set	256
   269  0000                     _C1CONHbits	set	257
   270  0000                     _C1INTT	set	287
   271  0000                     _C1INTU	set	286
   272  0000                     _C1INTH	set	285
   273  0000                     _C1INTL	set	284
   274  0000                     _C1NBTCFGT	set	263
   275  0000                     _C1NBTCFGU	set	262
   276  0000                     _C1NBTCFGH	set	261
   277  0000                     _C1NBTCFGL	set	260
   278  0000                     _C1TXQCONT	set	339
   279  0000                     _C1TXQCONU	set	338
   280  0000                     _C1TXQCONH	set	337
   281  0000                     _C1TXQCONL	set	336
   282  0000                     _RB4PPS	set	525
   283  0000                     _CANRXPPS	set	573
   284  0000                     _RC1PPS	set	530
   285  0000                     _INT0PPS	set	574
   286  0000                     _ADACTPPS	set	617
   287  0000                     _RC0PPS	set	529
   288  0000                     _T0CON0bits	set	794
   289  0000                     _T0CON0	set	794
   290  0000                     _TMR0L	set	792
   291  0000                     _TMR0H	set	793
   292  0000                     _T0CON1	set	795
   293  0000                     _PR2	set	803
   294  0000                     _TMR2	set	802
   295  0000                     _T2CONbits	set	804
   296  0000                     _T2RSTbits	set	807
   297  0000                     _T2HLTbits	set	805
   298  0000                     _T2CON	set	804
   299  0000                     _T2TMR	set	802
   300  0000                     _T2PR	set	803
   301  0000                     _T2RST	set	807
   302  0000                     _T2HLT	set	805
   303  0000                     _T2CLKCON	set	806
   304  0000                     _T1GCONbits	set	799
   305  0000                     _T1CONbits	set	798
   306  0000                     _T1CON	set	798
   307  0000                     _TMR1L	set	796
   308  0000                     _TMR1H	set	797
   309  0000                     _T1CLK	set	801
   310  0000                     _T1GATE	set	800
   311  0000                     _T1GCON	set	799
   312  0000                     _ADCPbits	set	984
   313  0000                     _ADCON1bits	set	1012
   314  0000                     _ADERRL	set	989
   315  0000                     _ADERRH	set	990
   316  0000                     _ADPREVL	set	1000
   317  0000                     _ADPREVH	set	1001
   318  0000                     _ADFLTRL	set	993
   319  0000                     _ADFLTRH	set	994
   320  0000                     _ADSTATbits	set	1015
   321  0000                     _ADCON2bits	set	1013
   322  0000                     _ADCON3bits	set	1014
   323  0000                     _ADCSEL1bits	set	1020
   324  0000                     _ADCON0bits	set	1011
   325  0000                     _ADCSEL1	set	1020
   326  0000                     _ADREF	set	1016
   327  0000                     _ADSTAT	set	1015
   328  0000                     _ADCON3	set	1014
   329  0000                     _ADCON2	set	1013
   330  0000                     _ADCON1	set	1012
   331  0000                     _ADCON0	set	1011
   332  0000                     _ADPREH	set	1010
   333  0000                     _ADPREL	set	1009
   334  0000                     _ADCAP	set	1008
   335  0000                     _ADACQH	set	1007
   336  0000                     _ADACQL	set	1006
   337  0000                     _ADPCH	set	1004
   338  0000                     _ADRESH	set	1003
   339  0000                     _ADRESL	set	1002
   340  0000                     _ADRPT	set	999
   341  0000                     _ADCNT	set	998
   342  0000                     _ADACCU	set	997
   343  0000                     _ADACCH	set	996
   344  0000                     _ADACCL	set	995
   345  0000                     _ADSTPTH	set	992
   346  0000                     _ADSTPTL	set	991
   347  0000                     _ADUTHH	set	988
   348  0000                     _ADUTHL	set	987
   349  0000                     _ADLTHH	set	986
   350  0000                     _ADLTHL	set	985
   351  0000                     _ADCTX	set	1019
   352  0000                     _ADCP	set	984
   353  0000                     _ADCLK	set	1018
   354  0000                     _ADACT	set	1017
   355  0000                     _INLVLE	set	1060
   356  0000                     _INLVLC	set	1044
   357  0000                     _INLVLB	set	1036
   358  0000                     _INLVLA	set	1028
   359  0000                     _SLRCONC	set	1043
   360  0000                     _SLRCONB	set	1035
   361  0000                     _SLRCONA	set	1027
   362  0000                     _ODCONC	set	1042
   363  0000                     _ODCONB	set	1034
   364  0000                     _ODCONA	set	1026
   365  0000                     _WPUC	set	1041
   366  0000                     _WPUA	set	1025
   367  0000                     _WPUB	set	1033
   368  0000                     _WPUE	set	1057
   369  0000                     _ANSELA	set	1024
   370  0000                     _ANSELB	set	1032
   371  0000                     _ANSELC	set	1040
   372  0000                     _LATCbits	set	1216
   373  0000                     _LATBbits	set	1215
   374  0000                     _LATAbits	set	1214
   375  0000                     _PWM2GIEbits	set	1143
   376  0000                     _PWM2CONbits	set	1144
   377  0000                     _PWM2CON	set	1144
   378  0000                     _PIE5bits	set	1187
   379  0000                     _PWM2GIRbits	set	1142
   380  0000                     _PIR5bits	set	1203
   381  0000                     _PWM2S1P2H	set	1149
   382  0000                     _PWM2S1P2L	set	1148
   383  0000                     _PWM2S1P1H	set	1147
   384  0000                     _PWM2S1P1L	set	1146
   385  0000                     _PWM2S1CFG	set	1145
   386  0000                     _PWM2GIE	set	1143
   387  0000                     _PWM2GIR	set	1142
   388  0000                     _PWM2PIPOS	set	1141
   389  0000                     _PWM2CPRE	set	1140
   390  0000                     _PWM2PRH	set	1139
   391  0000                     _PWM2PRL	set	1138
   392  0000                     _PWM2LDS	set	1137
   393  0000                     _PWM2CLK	set	1136
   394  0000                     _PWM2ERS	set	1135
   395  0000                     _PIR0bits	set	1198
   396  0000                     _PIE0bits	set	1182
   397  0000                     _PIR3bits	set	1201
   398  0000                     _PIE3bits	set	1185
   399  0000                     _PIR2bits	set	1200
   400  0000                     _PWM1GIEbits	set	1128
   401  0000                     _PWM1CONbits	set	1129
   402  0000                     _PWM1CON	set	1129
   403  0000                     _PIE4bits	set	1186
   404  0000                     _PWM1GIRbits	set	1127
   405  0000                     _PIR4bits	set	1202
   406  0000                     _PWM1S1P2H	set	1134
   407  0000                     _PWM1S1P2L	set	1133
   408  0000                     _PWM1S1P1H	set	1132
   409  0000                     _PWM1S1P1L	set	1131
   410  0000                     _PWM1S1CFG	set	1130
   411  0000                     _PWM1GIE	set	1128
   412  0000                     _PWM1GIR	set	1127
   413  0000                     _PWM1PIPOS	set	1126
   414  0000                     _PWM1CPRE	set	1125
   415  0000                     _PWM1PRH	set	1124
   416  0000                     _PWM1PRL	set	1123
   417  0000                     _PWM1LDS	set	1122
   418  0000                     _PWM1CLK	set	1121
   419  0000                     _PWM1ERS	set	1120
   420  0000                     _TRISC	set	1224
   421  0000                     _TRISB	set	1223
   422  0000                     _TRISA	set	1222
   423  0000                     _TRISE	set	1226
   424  0000                     _LATC	set	1216
   425  0000                     _LATB	set	1215
   426  0000                     _LATA	set	1214
   427  0000                     _PIE1bits	set	1183
   428  0000                     _INTCON0bits	set	1238
   429  0000                     _PIR1bits	set	1199
   430                           
   431                           ; #config settings
   432                           
   433                           	psect	cinit
   434  003130                     __pcinit:
   435                           	callstack 0
   436  003130                     start_initialization:
   437                           	callstack 0
   438  003130                     __initialization:
   439                           	callstack 0
   440                           
   441                           ; Initialize objects allocated to BANK5 (32 bytes)
   442                           ; load TBLPTR registers with __pidataBANK5
   443  003130  0EC0               	movlw	low __pidataBANK5
   444  003132  6EF6               	movwf	tblptrl,c
   445  003134  0E33               	movlw	high __pidataBANK5
   446  003136  6EF7               	movwf	tblptrh,c
   447  003138  0E00               	movlw	low (__pidataBANK5 shr (0+16))
   448  00313A  6EF8               	movwf	tblptru,c
   449  00313C  EE01  F160         	lfsr	0,__pdataBANK5
   450  003140  EE10 F020          	lfsr	1,32
   451  003144                     copy_data0:
   452  003144  0009               	tblrd		*+
   453  003146  C4F5 F4EE          	movff	tablat,postinc0
   454  00314A  50E5               	movf	postdec1,w,c
   455  00314C  50E1               	movf	fsr1l,w,c
   456  00314E  E1FA               	bnz	copy_data0
   457                           
   458                           ; Clear objects allocated to COMRAM (27 bytes)
   459  003150  EE01  F12F         	lfsr	0,__pbssCOMRAM
   460  003154  0E1B               	movlw	27
   461  003156                     clear_0:
   462  003156  6AEE               	clrf	postinc0,c
   463  003158  06E8               	decf	wreg,f,c
   464  00315A  E1FD               	bnz	clear_0
   465                           
   466                           ;
   467                           ; Setup IVTBASE
   468                           ;
   469  00315C  0104               	movlb	4
   470  00315E  0E08               	movlw	(ivt0x8_base shr 0)& (0+255)
   471  003160  6F5D               	movwf	93,b
   472  003162  0E00               	movlw	(ivt0x8_base shr (0+8))& (0+255)
   473  003164  6F5E               	movwf	94,b
   474  003166  0E00               	movlw	(ivt0x8_base shr (0+16))& (0+255)
   475  003168  6F5F               	movwf	95,b
   476  00316A                     end_of_initialization:
   477                           	callstack 0
   478  00316A                     __end_of__initialization:
   479                           	callstack 0
   480  00316A  0100               	movlb	0
   481  00316C  EF30  F015         	goto	_main	;jump to C main() function
   482                           
   483                           	psect	bssCOMRAM
   484  00052F                     __pbssCOMRAM:
   485                           	callstack 0
   486  00052F                     TMR2_ISR@CountCallBack:
   487                           	callstack 0
   488  00052F                     	ds	2
   489  000531                     _CAN1_TxAttemptHandler:
   490                           	callstack 0
   491  000531                     	ds	2
   492  000533                     _CAN1_SystemErrorHandler:
   493                           	callstack 0
   494  000533                     	ds	2
   495  000535                     _CAN1_ModeChangeHandler:
   496                           	callstack 0
   497  000535                     	ds	2
   498  000537                     _CAN1_BusErrorHandler:
   499                           	callstack 0
   500  000537                     	ds	2
   501  000539                     _CAN1_BusWakeUpActivityHandler:
   502                           	callstack 0
   503  000539                     	ds	2
   504  00053B                     _CAN1_InvalidMessageHandler:
   505                           	callstack 0
   506  00053B                     	ds	2
   507  00053D                     _PWM1_16BIT_Period_InterruptHandler:
   508                           	callstack 0
   509  00053D                     	ds	2
   510  00053F                     _PWM1_16BIT_Slice1Output2_InterruptHandler:
   511                           	callstack 0
   512  00053F                     	ds	2
   513  000541                     _PWM1_16BIT_Slice1Output1_InterruptHandler:
   514                           	callstack 0
   515  000541                     	ds	2
   516  000543                     _msg:
   517                           	callstack 0
   518  000543                     	ds	7
   519                           
   520                           	psect	dataBANK5
   521  000560                     __pdataBANK5:
   522                           	callstack 0
   523  000560                     _CANDATAdata:
   524                           	callstack 0
   525  000560                     	ds	32
   526                           
   527                           	psect	cstackBANK5
   528  000588                     __pcstackBANK5:
   529                           	callstack 0
   530  000588                     CANWriteMessage@uiData1:
   531                           	callstack 0
   532                           
   533                           ; 2 bytes @ 0x0
   534  000588                     	ds	2
   535  00058A                     CANWriteMessage@uiData2:
   536                           	callstack 0
   537                           
   538                           ; 2 bytes @ 0x2
   539  00058A                     	ds	2
   540  00058C                     CANWriteMessage@uiData3:
   541                           	callstack 0
   542                           
   543                           ; 2 bytes @ 0x4
   544  00058C                     	ds	2
   545  00058E                     CANWriteMessage@uiData4:
   546                           	callstack 0
   547                           
   548                           ; 2 bytes @ 0x6
   549  00058E                     	ds	2
   550                           
   551                           	psect	cstackCOMRAM
   552  000501                     __pcstackCOMRAM:
   553                           	callstack 0
   554  000501                     TMR1_WriteTimer@timerVal:
   555                           	callstack 0
   556                           
   557                           ; 2 bytes @ 0x0
   558  000501                     	ds	2
   559  000503                     CAN1_OperationModeSet@opMode:
   560                           	callstack 0
   561  000503                     _isTxChannel$1577:
   562                           	callstack 0
   563  000503                     GetTxFifoStatus@validChannel:
   564                           	callstack 0
   565  000503                     DELAY_milliseconds@milliseconds:
   566                           	callstack 0
   567  000503                     INT0_SetInterruptHandler@InterruptHandler:
   568                           	callstack 0
   569  000503                     PWM1_16BIT_Slice1Output1_SetInterruptHandler@InterruptHandler:
   570                           	callstack 0
   571  000503                     PWM1_16BIT_Slice1Output2_SetInterruptHandler@InterruptHandler:
   572                           	callstack 0
   573  000503                     PWM1_16BIT_Period_SetInterruptHandler@InterruptHandler:
   574                           	callstack 0
   575  000503                     ADC_SetADIInterruptHandler@InterruptHandler:
   576                           	callstack 0
   577  000503                     ADC_SetContext1ThresholdInterruptHandler@InterruptHandler:
   578                           	callstack 0
   579  000503                     ADC_SetActiveClockTuningInterruptHandler@InterruptHandler:
   580                           	callstack 0
   581  000503                     CAN1_SetInvalidMessageInterruptHandler@handler:
   582                           	callstack 0
   583  000503                     CAN1_SetBusWakeUpActivityInterruptHandler@handler:
   584                           	callstack 0
   585  000503                     CAN1_SetBusErrorInterruptHandler@handler:
   586                           	callstack 0
   587  000503                     CAN1_SetModeChangeInterruptHandler@handler:
   588                           	callstack 0
   589  000503                     CAN1_SetSystemErrorInterruptHandler@handler:
   590                           	callstack 0
   591  000503                     CAN1_SetTxAttemptInterruptHandler@handler:
   592                           	callstack 0
   593  000503                     PWM2_16BIT_Slice1Output1_SetInterruptHandler@InterruptHandler:
   594                           	callstack 0
   595  000503                     PWM2_16BIT_Slice1Output2_SetInterruptHandler@InterruptHandler:
   596                           	callstack 0
   597  000503                     PWM2_16BIT_Period_SetInterruptHandler@InterruptHandler:
   598                           	callstack 0
   599  000503                     TMR1_SetInterruptHandler@InterruptHandler:
   600                           	callstack 0
   601  000503                     TMR2_SetInterruptHandler@InterruptHandler:
   602                           	callstack 0
   603  000503                     TMR0_SetInterruptHandler@InterruptHandler:
   604                           	callstack 0
   605  000503                     memcpy@d1:
   606                           	callstack 0
   607                           
   608                           ; 2 bytes @ 0x2
   609  000503                     	ds	1
   610  000504                     CAN1_OperationModeSet@status:
   611                           	callstack 0
   612  000504                     isTxChannel@channel:
   613                           	callstack 0
   614  000504                     ValidateTransmission@txCanMsg:
   615                           	callstack 0
   616                           
   617                           ; 2 bytes @ 0x3
   618  000504                     	ds	1
   619  000505                     ??_TMR1_Initialize:
   620  000505                     ??_DELAY_milliseconds:
   621  000505                     CAN1_OperationModeSet@requestMode:
   622                           	callstack 0
   623  000505                     CAN1_TransmitFIFOStatusGet@status:
   624                           	callstack 0
   625  000505                     memcpy@s1:
   626                           	callstack 0
   627                           
   628                           ; 2 bytes @ 0x4
   629  000505                     	ds	1
   630  000506                     ??_ValidateTransmission:
   631  000506                     CAN1_TransmitFIFOStatusGet@fifoChannel:
   632                           	callstack 0
   633                           
   634                           ; 1 bytes @ 0x5
   635  000506                     	ds	1
   636  000507                     memcpy@n:
   637                           	callstack 0
   638                           
   639                           ; 2 bytes @ 0x6
   640  000507                     	ds	2
   641  000509                     ValidateTransmission@validChannel:
   642                           	callstack 0
   643  000509                     memcpy@tmp:
   644                           	callstack 0
   645                           
   646                           ; 1 bytes @ 0x8
   647  000509                     	ds	1
   648  00050A                     ValidateTransmission@txMsgStatus:
   649                           	callstack 0
   650  00050A                     memcpy@d:
   651                           	callstack 0
   652                           
   653                           ; 2 bytes @ 0x9
   654  00050A                     	ds	1
   655  00050B                     ValidateTransmission@field:
   656                           	callstack 0
   657                           
   658                           ; 1 bytes @ 0xA
   659  00050B                     	ds	1
   660  00050C                     memcpy@s:
   661                           	callstack 0
   662                           
   663                           ; 2 bytes @ 0xB
   664  00050C                     	ds	2
   665  00050E                     WriteMessageToFifo@txFifoObj:
   666                           	callstack 0
   667                           
   668                           ; 2 bytes @ 0xD
   669  00050E                     	ds	2
   670  000510                     WriteMessageToFifo@txCanMsg:
   671                           	callstack 0
   672                           
   673                           ; 2 bytes @ 0xF
   674  000510                     	ds	2
   675  000512                     ??_WriteMessageToFifo:
   676                           
   677                           ; 1 bytes @ 0x11
   678  000512                     	ds	2
   679  000514                     WriteMessageToFifo@status:
   680                           	callstack 0
   681                           
   682                           ; 1 bytes @ 0x13
   683  000514                     	ds	1
   684  000515                     WriteMessageToFifo@msgId:
   685                           	callstack 0
   686                           
   687                           ; 4 bytes @ 0x14
   688  000515                     	ds	4
   689  000519                     CAN1_Transmit@txCanMsg:
   690                           	callstack 0
   691                           
   692                           ; 2 bytes @ 0x18
   693  000519                     	ds	2
   694  00051B                     CAN1_Transmit@status:
   695                           	callstack 0
   696                           
   697                           ; 1 bytes @ 0x1A
   698  00051B                     	ds	1
   699  00051C                     CAN1_Transmit@txFifoObj:
   700                           	callstack 0
   701                           
   702                           ; 2 bytes @ 0x1B
   703  00051C                     	ds	2
   704  00051E                     CAN1_Transmit@fifoChannel:
   705                           	callstack 0
   706                           
   707                           ; 1 bytes @ 0x1D
   708  00051E                     	ds	1
   709  00051F                     CANWriteMessage@id:
   710                           	callstack 0
   711                           
   712                           ; 4 bytes @ 0x1E
   713  00051F                     	ds	4
   714  000523                     CANWriteMessage@dataLength:
   715                           	callstack 0
   716                           
   717                           ; 1 bytes @ 0x22
   718  000523                     	ds	1
   719  000524                     CANWriteMessage@data1:
   720                           	callstack 0
   721                           
   722                           ; 1 bytes @ 0x23
   723  000524                     	ds	1
   724  000525                     CANWriteMessage@data2:
   725                           	callstack 0
   726                           
   727                           ; 1 bytes @ 0x24
   728  000525                     	ds	1
   729  000526                     CANWriteMessage@data3:
   730                           	callstack 0
   731                           
   732                           ; 1 bytes @ 0x25
   733  000526                     	ds	1
   734  000527                     CANWriteMessage@data4:
   735                           	callstack 0
   736                           
   737                           ; 1 bytes @ 0x26
   738  000527                     	ds	1
   739  000528                     CANWriteMessage@data5:
   740                           	callstack 0
   741                           
   742                           ; 1 bytes @ 0x27
   743  000528                     	ds	1
   744  000529                     CANWriteMessage@data6:
   745                           	callstack 0
   746                           
   747                           ; 1 bytes @ 0x28
   748  000529                     	ds	1
   749  00052A                     CANWriteMessage@data7:
   750                           	callstack 0
   751                           
   752                           ; 1 bytes @ 0x29
   753  00052A                     	ds	1
   754  00052B                     CANWriteMessage@data8:
   755                           	callstack 0
   756                           
   757                           ; 1 bytes @ 0x2A
   758  00052B                     	ds	1
   759  00052C                     ??_CANWriteMessage:
   760                           
   761                           ; 1 bytes @ 0x2B
   762  00052C                     	ds	2
   763  00052E                     ??_main:
   764                           
   765                           ; 1 bytes @ 0x2D
   766  00052E                     	ds	1
   767                           
   768 ;;
   769 ;;Main: autosize = 0, tempsize = 1, incstack = 0, save=0
   770 ;;
   771 ;; *************** function _main *****************
   772 ;; Defined at:
   773 ;;		line 50 in file "main.c"
   774 ;; Parameters:    Size  Location     Type
   775 ;;		None
   776 ;; Auto vars:     Size  Location     Type
   777 ;;		None
   778 ;; Return value:  Size  Location     Type
   779 ;;                  1    wreg      void 
   780 ;; Registers used:
   781 ;;		wreg, fsr1l, fsr1h, fsr2l, fsr2h, status,2, status,0, tblptrl, tblptrh, tblptru, prodl, prodh, cstack
   782 ;; Tracked objects:
   783 ;;		On entry : 0/0
   784 ;;		On exit  : 0/0
   785 ;;		Unchanged: 0/0
   786 ;; Data sizes:     COMRAM   BANK5   BANK6   BANK7   BANK8   BANK9  BANK10  BANK11  BANK12  BANK13  BANK14  BANK15  BANK1
      +6  BANK17  BANK18  BANK19  BANK20  BANK21  BANK22  BANK23  BANK24  BANK25  BANK26  BANK27  BANK28  BANK29  BANK30  BANK3
      +1  BANK32  BANK33  BANK34  BANK35  BANK36  BANK37
   787 ;;      Params:         0       0       0       0       0       0       0       0       0       0       0       0       
      +0       0       0       0       0       0       0       0       0       0       0       0       0       0       0       
      +0       0       0       0       0       0       0
   788 ;;      Locals:         0       0       0       0       0       0       0       0       0       0       0       0       
      +0       0       0       0       0       0       0       0       0       0       0       0       0       0       0       
      +0       0       0       0       0       0       0
   789 ;;      Temps:          1       0       0       0       0       0       0       0       0       0       0       0       
      +0       0       0       0       0       0       0       0       0       0       0       0       0       0       0       
      +0       0       0       0       0       0       0
   790 ;;      Totals:         1       0       0       0       0       0       0       0       0       0       0       0       
      +0       0       0       0       0       0       0       0       0       0       0       0       0       0       0       
      +0       0       0       0       0       0       0
   791 ;;Total ram usage:        1 bytes
   792 ;; Hardware stack levels required when called: 8
   793 ;; This function calls:
   794 ;;		_CANWriteMessage
   795 ;;		_DELAY_milliseconds
   796 ;;		_SYSTEM_Initialize
   797 ;; This function is called by:
   798 ;;		Startup code after reset
   799 ;; This function uses a non-reentrant model
   800 ;;
   801                           
   802                           	psect	text0
   803  002A60                     __ptext0:
   804                           	callstack 0
   805  002A60                     _main:
   806                           	callstack 119
   807  002A60                     
   808                           ;main.c: 53:     SYSTEM_Initialize();
   809  002A60  ECD7  F018         	call	_SYSTEM_Initialize	;wreg free
   810  002A64                     
   811                           ;main.c: 60:     (INTCON0bits.GIE = 1);
   812  002A64  8ED6               	bsf	214,7,c	;volatile
   813  002A66                     l3401:
   814  002A66  B8BE               	btfsc	190,4,c	;volatile
   815  002A68  EF38  F015         	goto	u1971
   816  002A6C  EF3B  F015         	goto	u1970
   817  002A70                     u1971:
   818  002A70  0E01               	movlw	1
   819  002A72  EF3C  F015         	goto	u1976
   820  002A76                     u1970:
   821  002A76  0E00               	movlw	0
   822  002A78                     u1976:
   823  002A78  0AFF               	xorlw	255
   824  002A7A  6E2E               	movwf	??_main^(0+1280),c
   825  002A7C  3A2E               	swapf	??_main^(0+1280),f,c
   826  002A7E  50BE               	movf	190,w,c	;volatile
   827  002A80  182E               	xorwf	??_main^(0+1280),w,c
   828  002A82  0BEF               	andlw	-17
   829  002A84  182E               	xorwf	??_main^(0+1280),w,c
   830  002A86  6EBE               	movwf	190,c	;volatile
   831  002A88  B4BF               	btfsc	191,2,c	;volatile
   832  002A8A  EF49  F015         	goto	u1981
   833  002A8E  EF4C  F015         	goto	u1980
   834  002A92                     u1981:
   835  002A92  0E01               	movlw	1
   836  002A94  EF4D  F015         	goto	u1986
   837  002A98                     u1980:
   838  002A98  0E00               	movlw	0
   839  002A9A                     u1986:
   840  002A9A  0AFF               	xorlw	255
   841  002A9C  6E2E               	movwf	??_main^(0+1280),c
   842  002A9E  462E               	rlncf	??_main^(0+1280),f,c
   843  002AA0  462E               	rlncf	??_main^(0+1280),f,c
   844  002AA2  50BF               	movf	191,w,c	;volatile
   845  002AA4  182E               	xorwf	??_main^(0+1280),w,c
   846  002AA6  0BFB               	andlw	-5
   847  002AA8  182E               	xorwf	??_main^(0+1280),w,c
   848  002AAA  6EBF               	movwf	191,c	;volatile
   849  002AAC  B2BF               	btfsc	191,1,c	;volatile
   850  002AAE  EF5B  F015         	goto	u1991
   851  002AB2  EF5E  F015         	goto	u1990
   852  002AB6                     u1991:
   853  002AB6  0E01               	movlw	1
   854  002AB8  EF5F  F015         	goto	u1996
   855  002ABC                     u1990:
   856  002ABC  0E00               	movlw	0
   857  002ABE                     u1996:
   858  002ABE  0AFF               	xorlw	255
   859  002AC0  6E2E               	movwf	??_main^(0+1280),c
   860  002AC2  462E               	rlncf	??_main^(0+1280),f,c
   861  002AC4  50BF               	movf	191,w,c	;volatile
   862  002AC6  182E               	xorwf	??_main^(0+1280),w,c
   863  002AC8  0BFD               	andlw	-3
   864  002ACA  182E               	xorwf	??_main^(0+1280),w,c
   865  002ACC  6EBF               	movwf	191,c	;volatile
   866  002ACE  BAC0               	btfsc	192,5,c	;volatile
   867  002AD0  EF6C  F015         	goto	u2001
   868  002AD4  EF6F  F015         	goto	u2000
   869  002AD8                     u2001:
   870  002AD8  0E01               	movlw	1
   871  002ADA  EF70  F015         	goto	u2006
   872  002ADE                     u2000:
   873  002ADE  0E00               	movlw	0
   874  002AE0                     u2006:
   875  002AE0  0AFF               	xorlw	255
   876  002AE2  6E2E               	movwf	??_main^(0+1280),c
   877  002AE4  3A2E               	swapf	??_main^(0+1280),f,c
   878  002AE6  462E               	rlncf	??_main^(0+1280),f,c
   879  002AE8  50C0               	movf	192,w,c	;volatile
   880  002AEA  182E               	xorwf	??_main^(0+1280),w,c
   881  002AEC  0BDF               	andlw	-33
   882  002AEE  182E               	xorwf	??_main^(0+1280),w,c
   883  002AF0  6EC0               	movwf	192,c	;volatile
   884  002AF2                     
   885                           ;main.c: 72:         DELAY_milliseconds(1000);
   886  002AF2  0E03               	movlw	3
   887  002AF4  6E04               	movwf	(DELAY_milliseconds@milliseconds+1)^(0+1280),c
   888  002AF6  0EE8               	movlw	232
   889  002AF8  6E03               	movwf	DELAY_milliseconds@milliseconds^(0+1280),c
   890  002AFA  EC07  F019         	call	_DELAY_milliseconds	;wreg free
   891  002AFE                     
   892                           ;main.c: 73:         __nop();
   893  002AFE  F000               	nop	
   894  002B00                     
   895                           ;main.c: 74:         CANWriteMessage ( 0x158, 0x08, 0x01, 0x02, 0x03, 0x04, 0x05, 0x06, 
      +                          0x07, 0x08 );
   896  002B00  0E58               	movlw	88
   897  002B02  6E1F               	movwf	CANWriteMessage@id^(0+1280),c
   898  002B04  0E01               	movlw	1
   899  002B06  6E20               	movwf	(CANWriteMessage@id+1)^(0+1280),c
   900  002B08  0E00               	movlw	0
   901  002B0A  6E21               	movwf	(CANWriteMessage@id+2)^(0+1280),c
   902  002B0C  0E00               	movlw	0
   903  002B0E  6E22               	movwf	(CANWriteMessage@id+3)^(0+1280),c
   904  002B10  0E08               	movlw	8
   905  002B12  6E23               	movwf	CANWriteMessage@dataLength^(0+1280),c
   906  002B14  0E01               	movlw	1
   907  002B16  6E24               	movwf	CANWriteMessage@data1^(0+1280),c
   908  002B18  0E02               	movlw	2
   909  002B1A  6E25               	movwf	CANWriteMessage@data2^(0+1280),c
   910  002B1C  0E03               	movlw	3
   911  002B1E  6E26               	movwf	CANWriteMessage@data3^(0+1280),c
   912  002B20  0E04               	movlw	4
   913  002B22  6E27               	movwf	CANWriteMessage@data4^(0+1280),c
   914  002B24  0E05               	movlw	5
   915  002B26  6E28               	movwf	CANWriteMessage@data5^(0+1280),c
   916  002B28  0E06               	movlw	6
   917  002B2A  6E29               	movwf	CANWriteMessage@data6^(0+1280),c
   918  002B2C  0E07               	movlw	7
   919  002B2E  6E2A               	movwf	CANWriteMessage@data7^(0+1280),c
   920  002B30  0E08               	movlw	8
   921  002B32  6E2B               	movwf	CANWriteMessage@data8^(0+1280),c
   922  002B34  ECB2  F014         	call	_CANWriteMessage	;wreg free
   923  002B38  EF33  F015         	goto	l3401
   924  002B3C  EF0D  F000         	goto	start
   925  002B40                     __end_of_main:
   926                           	callstack 0
   927                           
   928 ;; *************** function _SYSTEM_Initialize *****************
   929 ;; Defined at:
   930 ;;		line 50 in file "mcc_generated_files/mcc.c"
   931 ;; Parameters:    Size  Location     Type
   932 ;;		None
   933 ;; Auto vars:     Size  Location     Type
   934 ;;		None
   935 ;; Return value:  Size  Location     Type
   936 ;;                  1    wreg      void 
   937 ;; Registers used:
   938 ;;		wreg, status,2, status,0, cstack
   939 ;; Tracked objects:
   940 ;;		On entry : 0/0
   941 ;;		On exit  : 0/0
   942 ;;		Unchanged: 0/0
   943 ;; Data sizes:     COMRAM   BANK5   BANK6   BANK7   BANK8   BANK9  BANK10  BANK11  BANK12  BANK13  BANK14  BANK15  BANK1
      +6  BANK17  BANK18  BANK19  BANK20  BANK21  BANK22  BANK23  BANK24  BANK25  BANK26  BANK27  BANK28  BANK29  BANK30  BANK3
      +1  BANK32  BANK33  BANK34  BANK35  BANK36  BANK37
   944 ;;      Params:         0       0       0       0       0       0       0       0       0       0       0       0       
      +0       0       0       0       0       0       0       0       0       0       0       0       0       0       0       
      +0       0       0       0       0       0       0
   945 ;;      Locals:         0       0       0       0       0       0       0       0       0       0       0       0       
      +0       0       0       0       0       0       0       0       0       0       0       0       0       0       0       
      +0       0       0       0       0       0       0
   946 ;;      Temps:          0       0       0       0       0       0       0       0       0       0       0       0       
      +0       0       0       0       0       0       0       0       0       0       0       0       0       0       0       
      +0       0       0       0       0       0       0
   947 ;;      Totals:         0       0       0       0       0       0       0       0       0       0       0       0       
      +0       0       0       0       0       0       0       0       0       0       0       0       0       0       0       
      +0       0       0       0       0       0       0
   948 ;;Total ram usage:        0 bytes
   949 ;; Hardware stack levels used: 1
   950 ;; Hardware stack levels required when called: 7
   951 ;; This function calls:
   952 ;;		_ADC_Initialize
   953 ;;		_CAN1_Initialize
   954 ;;		_EXT_INT_Initialize
   955 ;;		_INTERRUPT_Initialize
   956 ;;		_OSCILLATOR_Initialize
   957 ;;		_PIN_MANAGER_Initialize
   958 ;;		_PMD_Initialize
   959 ;;		_PWM1_16BIT_Initialize
   960 ;;		_PWM2_16BIT_Initialize
   961 ;;		_TMR0_Initialize
   962 ;;		_TMR1_Initialize
   963 ;;		_TMR2_Initialize
   964 ;; This function is called by:
   965 ;;		_main
   966 ;; This function uses a non-reentrant model
   967 ;;
   968                           
   969                           	psect	text1
   970  0031AE                     __ptext1:
   971                           	callstack 0
   972  0031AE                     _SYSTEM_Initialize:
   973                           	callstack 119
   974  0031AE                     
   975                           ;mcc_generated_files/mcc.c: 52:     INTERRUPT_Initialize();
   976  0031AE  EC9C  F01A         	call	_INTERRUPT_Initialize	;wreg free
   977  0031B2                     
   978                           ;mcc_generated_files/mcc.c: 53:     PMD_Initialize();
   979  0031B2  ECA5  F019         	call	_PMD_Initialize	;wreg free
   980  0031B6                     
   981                           ;mcc_generated_files/mcc.c: 54:     ADC_Initialize();
   982  0031B6  EC67  F016         	call	_ADC_Initialize	;wreg free
   983  0031BA                     
   984                           ;mcc_generated_files/mcc.c: 55:     PIN_MANAGER_Initialize();
   985  0031BA  EC4B  F017         	call	_PIN_MANAGER_Initialize	;wreg free
   986  0031BE                     
   987                           ;mcc_generated_files/mcc.c: 56:     OSCILLATOR_Initialize();
   988  0031BE  ECF0  F019         	call	_OSCILLATOR_Initialize	;wreg free
   989  0031C2                     
   990                           ;mcc_generated_files/mcc.c: 57:     TMR2_Initialize();
   991  0031C2  ECF0  F018         	call	_TMR2_Initialize	;wreg free
   992  0031C6                     
   993                           ;mcc_generated_files/mcc.c: 58:     TMR1_Initialize();
   994  0031C6  EC75  F018         	call	_TMR1_Initialize	;wreg free
   995  0031CA                     
   996                           ;mcc_generated_files/mcc.c: 59:     EXT_INT_Initialize();
   997  0031CA  EC08  F01A         	call	_EXT_INT_Initialize	;wreg free
   998  0031CE                     
   999                           ;mcc_generated_files/mcc.c: 60:     TMR0_Initialize();
  1000  0031CE  ECCD  F019         	call	_TMR0_Initialize	;wreg free
  1001  0031D2                     
  1002                           ;mcc_generated_files/mcc.c: 61:     PWM2_16BIT_Initialize();
  1003  0031D2  EC84  F017         	call	_PWM2_16BIT_Initialize	;wreg free
  1004  0031D6                     
  1005                           ;mcc_generated_files/mcc.c: 62:     CAN1_Initialize();
  1006  0031D6  EC4F  F018         	call	_CAN1_Initialize	;wreg free
  1007  0031DA                     
  1008                           ;mcc_generated_files/mcc.c: 63:     PWM1_16BIT_Initialize();
  1009  0031DA  ECBB  F017         	call	_PWM1_16BIT_Initialize	;wreg free
  1010  0031DE  0012               	return		;funcret
  1011  0031E0                     __end_of_SYSTEM_Initialize:
  1012                           	callstack 0
  1013                           
  1014 ;; *************** function _TMR2_Initialize *****************
  1015 ;; Defined at:
  1016 ;;		line 64 in file "mcc_generated_files/tmr2.c"
  1017 ;; Parameters:    Size  Location     Type
  1018 ;;		None
  1019 ;; Auto vars:     Size  Location     Type
  1020 ;;		None
  1021 ;; Return value:  Size  Location     Type
  1022 ;;                  1    wreg      void 
  1023 ;; Registers used:
  1024 ;;		wreg, status,2, status,0, cstack
  1025 ;; Tracked objects:
  1026 ;;		On entry : 0/0
  1027 ;;		On exit  : 0/0
  1028 ;;		Unchanged: 0/0
  1029 ;; Data sizes:     COMRAM   BANK5   BANK6   BANK7   BANK8   BANK9  BANK10  BANK11  BANK12  BANK13  BANK14  BANK15  BANK1
      +6  BANK17  BANK18  BANK19  BANK20  BANK21  BANK22  BANK23  BANK24  BANK25  BANK26  BANK27  BANK28  BANK29  BANK30  BANK3
      +1  BANK32  BANK33  BANK34  BANK35  BANK36  BANK37
  1030 ;;      Params:         0       0       0       0       0       0       0       0       0       0       0       0       
      +0       0       0       0       0       0       0       0       0       0       0       0       0       0       0       
      +0       0       0       0       0       0       0
  1031 ;;      Locals:         0       0       0       0       0       0       0       0       0       0       0       0       
      +0       0       0       0       0       0       0       0       0       0       0       0       0       0       0       
      +0       0       0       0       0       0       0
  1032 ;;      Temps:          0       0       0       0       0       0       0       0       0       0       0       0       
      +0       0       0       0       0       0       0       0       0       0       0       0       0       0       0       
      +0       0       0       0       0       0       0
  1033 ;;      Totals:         0       0       0       0       0       0       0       0       0       0       0       0       
      +0       0       0       0       0       0       0       0       0       0       0       0       0       0       0       
      +0       0       0       0       0       0       0
  1034 ;;Total ram usage:        0 bytes
  1035 ;; Hardware stack levels used: 1
  1036 ;; Hardware stack levels required when called: 5
  1037 ;; This function calls:
  1038 ;;		_TMR2_SetInterruptHandler
  1039 ;; This function is called by:
  1040 ;;		_SYSTEM_Initialize
  1041 ;; This function uses a non-reentrant model
  1042 ;;
  1043                           
  1044                           	psect	text2
  1045  0031E0                     __ptext2:
  1046                           	callstack 0
  1047  0031E0                     _TMR2_Initialize:
  1048                           	callstack 120
  1049  0031E0                     
  1050                           ;mcc_generated_files/tmr2.c: 69:     T2CLKCON = 0x01;
  1051  0031E0  0E01               	movlw	1
  1052  0031E2  0103               	movlb	3	; () banked
  1053  0031E4  6F26               	movwf	38,b	;volatile
  1054                           
  1055                           ;mcc_generated_files/tmr2.c: 72:     T2HLT = 0x00;
  1056  0031E6  0E00               	movlw	0
  1057  0031E8  6F25               	movwf	37,b	;volatile
  1058                           
  1059                           ;mcc_generated_files/tmr2.c: 75:     T2RST = 0x00;
  1060  0031EA  0E00               	movlw	0
  1061  0031EC  6F27               	movwf	39,b	;volatile
  1062                           
  1063                           ;mcc_generated_files/tmr2.c: 78:     T2PR = 0xC2;
  1064  0031EE  0EC2               	movlw	194
  1065  0031F0  6F23               	movwf	35,b	;volatile
  1066                           
  1067                           ;mcc_generated_files/tmr2.c: 81:     T2TMR = 0x00;
  1068  0031F2  0E00               	movlw	0
  1069  0031F4  6F22               	movwf	34,b	;volatile
  1070  0031F6                     
  1071                           ; BSR set to: 3
  1072                           ;mcc_generated_files/tmr2.c: 84:     PIR3bits.TMR2IF = 0;
  1073  0031F6  96B1               	bcf	177,3,c	;volatile
  1074  0031F8                     
  1075                           ; BSR set to: 3
  1076                           ;mcc_generated_files/tmr2.c: 87:     PIE3bits.TMR2IE = 1;
  1077  0031F8  86A1               	bsf	161,3,c	;volatile
  1078  0031FA                     
  1079                           ; BSR set to: 3
  1080                           ;mcc_generated_files/tmr2.c: 90:     TMR2_SetInterruptHandler(TMR2_DefaultInterruptHandl
      +                          er);
  1081  0031FA  0E3C               	movlw	low _TMR2_DefaultInterruptHandler
  1082  0031FC  6E03               	movwf	TMR2_SetInterruptHandler@InterruptHandler^(0+1280),c
  1083  0031FE  0E35               	movlw	high _TMR2_DefaultInterruptHandler
  1084  003200  6E04               	movwf	(TMR2_SetInterruptHandler@InterruptHandler+1)^(0+1280),c
  1085  003202  EC30  F01A         	call	_TMR2_SetInterruptHandler	;wreg free
  1086  003206                     
  1087                           ;mcc_generated_files/tmr2.c: 93:     T2CON = 0xF0;
  1088  003206  0EF0               	movlw	240
  1089  003208  0103               	movlb	3	; () banked
  1090  00320A  6F24               	movwf	36,b	;volatile
  1091  00320C                     
  1092                           ; BSR set to: 3
  1093  00320C  0012               	return		;funcret
  1094  00320E                     __end_of_TMR2_Initialize:
  1095                           	callstack 0
  1096                           
  1097 ;; *************** function _TMR2_SetInterruptHandler *****************
  1098 ;; Defined at:
  1099 ;;		line 193 in file "mcc_generated_files/tmr2.c"
  1100 ;; Parameters:    Size  Location     Type
  1101 ;;  InterruptHan    2    2[COMRAM] PTR FTN()void 
  1102 ;;		 -> TMR2_DefaultInterruptHandler(1), 
  1103 ;; Auto vars:     Size  Location     Type
  1104 ;;		None
  1105 ;; Return value:  Size  Location     Type
  1106 ;;                  1    wreg      void 
  1107 ;; Registers used:
  1108 ;;		wreg, status,2, status,0
  1109 ;; Tracked objects:
  1110 ;;		On entry : 0/0
  1111 ;;		On exit  : 0/0
  1112 ;;		Unchanged: 0/0
  1113 ;; Data sizes:     COMRAM   BANK5   BANK6   BANK7   BANK8   BANK9  BANK10  BANK11  BANK12  BANK13  BANK14  BANK15  BANK1
      +6  BANK17  BANK18  BANK19  BANK20  BANK21  BANK22  BANK23  BANK24  BANK25  BANK26  BANK27  BANK28  BANK29  BANK30  BANK3
      +1  BANK32  BANK33  BANK34  BANK35  BANK36  BANK37
  1114 ;;      Params:         2       0       0       0       0       0       0       0       0       0       0       0       
      +0       0       0       0       0       0       0       0       0       0       0       0       0       0       0       
      +0       0       0       0       0       0       0
  1115 ;;      Locals:         0       0       0       0       0       0       0       0       0       0       0       0       
      +0       0       0       0       0       0       0       0       0       0       0       0       0       0       0       
      +0       0       0       0       0       0       0
  1116 ;;      Temps:          0       0       0       0       0       0       0       0       0       0       0       0       
      +0       0       0       0       0       0       0       0       0       0       0       0       0       0       0       
      +0       0       0       0       0       0       0
  1117 ;;      Totals:         2       0       0       0       0       0       0       0       0       0       0       0       
      +0       0       0       0       0       0       0       0       0       0       0       0       0       0       0       
      +0       0       0       0       0       0       0
  1118 ;;Total ram usage:        2 bytes
  1119 ;; Hardware stack levels used: 1
  1120 ;; Hardware stack levels required when called: 4
  1121 ;; This function calls:
  1122 ;;		Nothing
  1123 ;; This function is called by:
  1124 ;;		_TMR2_Initialize
  1125 ;; This function uses a non-reentrant model
  1126 ;;
  1127                           
  1128                           	psect	text3
  1129  003460                     __ptext3:
  1130                           	callstack 0
  1131  003460                     _TMR2_SetInterruptHandler:
  1132                           	callstack 120
  1133  003460                     
  1134                           ;mcc_generated_files/tmr2.c: 194:     TMR2_InterruptHandler = InterruptHandler;
  1135  003460  C503  F582         	movff	TMR2_SetInterruptHandler@InterruptHandler,_TMR2_InterruptHandler
  1136  003464  C504  F583         	movff	TMR2_SetInterruptHandler@InterruptHandler+1,_TMR2_InterruptHandler+1
  1137  003468  0012               	return		;funcret
  1138  00346A                     __end_of_TMR2_SetInterruptHandler:
  1139                           	callstack 0
  1140                           
  1141 ;; *************** function _TMR1_Initialize *****************
  1142 ;; Defined at:
  1143 ;;		line 64 in file "mcc_generated_files/tmr1.c"
  1144 ;; Parameters:    Size  Location     Type
  1145 ;;		None
  1146 ;; Auto vars:     Size  Location     Type
  1147 ;;		None
  1148 ;; Return value:  Size  Location     Type
  1149 ;;                  1    wreg      void 
  1150 ;; Registers used:
  1151 ;;		wreg, status,2, status,0, cstack
  1152 ;; Tracked objects:
  1153 ;;		On entry : 0/0
  1154 ;;		On exit  : 0/0
  1155 ;;		Unchanged: 0/0
  1156 ;; Data sizes:     COMRAM   BANK5   BANK6   BANK7   BANK8   BANK9  BANK10  BANK11  BANK12  BANK13  BANK14  BANK15  BANK1
      +6  BANK17  BANK18  BANK19  BANK20  BANK21  BANK22  BANK23  BANK24  BANK25  BANK26  BANK27  BANK28  BANK29  BANK30  BANK3
      +1  BANK32  BANK33  BANK34  BANK35  BANK36  BANK37
  1157 ;;      Params:         0       0       0       0       0       0       0       0       0       0       0       0       
      +0       0       0       0       0       0       0       0       0       0       0       0       0       0       0       
      +0       0       0       0       0       0       0
  1158 ;;      Locals:         0       0       0       0       0       0       0       0       0       0       0       0       
      +0       0       0       0       0       0       0       0       0       0       0       0       0       0       0       
      +0       0       0       0       0       0       0
  1159 ;;      Temps:          2       0       0       0       0       0       0       0       0       0       0       0       
      +0       0       0       0       0       0       0       0       0       0       0       0       0       0       0       
      +0       0       0       0       0       0       0
  1160 ;;      Totals:         2       0       0       0       0       0       0       0       0       0       0       0       
      +0       0       0       0       0       0       0       0       0       0       0       0       0       0       0       
      +0       0       0       0       0       0       0
  1161 ;;Total ram usage:        2 bytes
  1162 ;; Hardware stack levels used: 1
  1163 ;; Hardware stack levels required when called: 5
  1164 ;; This function calls:
  1165 ;;		_TMR1_SetInterruptHandler
  1166 ;; This function is called by:
  1167 ;;		_SYSTEM_Initialize
  1168 ;; This function uses a non-reentrant model
  1169 ;;
  1170                           
  1171                           	psect	text4
  1172  0030EA                     __ptext4:
  1173                           	callstack 0
  1174  0030EA                     _TMR1_Initialize:
  1175                           	callstack 120
  1176  0030EA                     
  1177                           ;mcc_generated_files/tmr1.c: 69:     T1GCON = 0x00;
  1178  0030EA  0E00               	movlw	0
  1179  0030EC  0103               	movlb	3	; () banked
  1180  0030EE  6F1F               	movwf	31,b	;volatile
  1181                           
  1182                           ;mcc_generated_files/tmr1.c: 72:     T1GATE = 0x00;
  1183  0030F0  0E00               	movlw	0
  1184  0030F2  6F20               	movwf	32,b	;volatile
  1185                           
  1186                           ;mcc_generated_files/tmr1.c: 75:     T1CLK = 0x01;
  1187  0030F4  0E01               	movlw	1
  1188  0030F6  6F21               	movwf	33,b	;volatile
  1189                           
  1190                           ;mcc_generated_files/tmr1.c: 78:     TMR1H = 0xCF;
  1191  0030F8  0ECF               	movlw	207
  1192  0030FA  6F1D               	movwf	29,b	;volatile
  1193                           
  1194                           ;mcc_generated_files/tmr1.c: 81:     TMR1L = 0x2C;
  1195  0030FC  0E2C               	movlw	44
  1196  0030FE  6F1C               	movwf	28,b	;volatile
  1197  003100                     
  1198                           ; BSR set to: 3
  1199                           ;mcc_generated_files/tmr1.c: 84:     PIR3bits.TMR1IF = 0;
  1200  003100  98B1               	bcf	177,4,c	;volatile
  1201  003102                     
  1202                           ; BSR set to: 3
  1203                           ;mcc_generated_files/tmr1.c: 87:     timer1ReloadVal=(uint16_t)((TMR1H << 8) | TMR1L);
  1204  003102  511C               	movf	28,w,b	;volatile
  1205  003104  0060 FC74  F505    	movff	797,??_TMR1_Initialize	;volatile
  1206  00310A  6A06               	clrf	(??_TMR1_Initialize+1)^(0+1280),c
  1207  00310C  C505  F506         	movff	??_TMR1_Initialize,??_TMR1_Initialize+1
  1208  003110  6A05               	clrf	??_TMR1_Initialize^(0+1280),c
  1209  003112  1005               	iorwf	??_TMR1_Initialize^(0+1280),w,c
  1210  003114  6E4A               	movwf	_timer1ReloadVal^(0+1280),c	;volatile
  1211  003116  5006               	movf	(??_TMR1_Initialize+1)^(0+1280),w,c
  1212  003118  6E4B               	movwf	(_timer1ReloadVal+1)^(0+1280),c	;volatile
  1213  00311A                     
  1214                           ; BSR set to: 3
  1215                           ;mcc_generated_files/tmr1.c: 90:     PIE3bits.TMR1IE = 1;
  1216  00311A  88A1               	bsf	161,4,c	;volatile
  1217  00311C                     
  1218                           ; BSR set to: 3
  1219                           ;mcc_generated_files/tmr1.c: 93:     TMR1_SetInterruptHandler(TMR1_DefaultInterruptHandl
      +                          er);
  1220  00311C  0E3E               	movlw	low _TMR1_DefaultInterruptHandler
  1221  00311E  6E03               	movwf	TMR1_SetInterruptHandler@InterruptHandler^(0+1280),c
  1222  003120  0E35               	movlw	high _TMR1_DefaultInterruptHandler
  1223  003122  6E04               	movwf	(TMR1_SetInterruptHandler@InterruptHandler+1)^(0+1280),c
  1224  003124  EC35  F01A         	call	_TMR1_SetInterruptHandler	;wreg free
  1225  003128                     
  1226                           ;mcc_generated_files/tmr1.c: 96:     T1CON = 0x11;
  1227  003128  0E11               	movlw	17
  1228  00312A  0103               	movlb	3	; () banked
  1229  00312C  6F1E               	movwf	30,b	;volatile
  1230  00312E                     
  1231                           ; BSR set to: 3
  1232  00312E  0012               	return		;funcret
  1233  003130                     __end_of_TMR1_Initialize:
  1234                           	callstack 0
  1235                           
  1236 ;; *************** function _TMR1_SetInterruptHandler *****************
  1237 ;; Defined at:
  1238 ;;		line 185 in file "mcc_generated_files/tmr1.c"
  1239 ;; Parameters:    Size  Location     Type
  1240 ;;  InterruptHan    2    2[COMRAM] PTR FTN()void 
  1241 ;;		 -> TMR1_DefaultInterruptHandler(1), 
  1242 ;; Auto vars:     Size  Location     Type
  1243 ;;		None
  1244 ;; Return value:  Size  Location     Type
  1245 ;;                  1    wreg      void 
  1246 ;; Registers used:
  1247 ;;		wreg, status,2, status,0
  1248 ;; Tracked objects:
  1249 ;;		On entry : 0/0
  1250 ;;		On exit  : 0/0
  1251 ;;		Unchanged: 0/0
  1252 ;; Data sizes:     COMRAM   BANK5   BANK6   BANK7   BANK8   BANK9  BANK10  BANK11  BANK12  BANK13  BANK14  BANK15  BANK1
      +6  BANK17  BANK18  BANK19  BANK20  BANK21  BANK22  BANK23  BANK24  BANK25  BANK26  BANK27  BANK28  BANK29  BANK30  BANK3
      +1  BANK32  BANK33  BANK34  BANK35  BANK36  BANK37
  1253 ;;      Params:         2       0       0       0       0       0       0       0       0       0       0       0       
      +0       0       0       0       0       0       0       0       0       0       0       0       0       0       0       
      +0       0       0       0       0       0       0
  1254 ;;      Locals:         0       0       0       0       0       0       0       0       0       0       0       0       
      +0       0       0       0       0       0       0       0       0       0       0       0       0       0       0       
      +0       0       0       0       0       0       0
  1255 ;;      Temps:          0       0       0       0       0       0       0       0       0       0       0       0       
      +0       0       0       0       0       0       0       0       0       0       0       0       0       0       0       
      +0       0       0       0       0       0       0
  1256 ;;      Totals:         2       0       0       0       0       0       0       0       0       0       0       0       
      +0       0       0       0       0       0       0       0       0       0       0       0       0       0       0       
      +0       0       0       0       0       0       0
  1257 ;;Total ram usage:        2 bytes
  1258 ;; Hardware stack levels used: 1
  1259 ;; Hardware stack levels required when called: 4
  1260 ;; This function calls:
  1261 ;;		Nothing
  1262 ;; This function is called by:
  1263 ;;		_TMR1_Initialize
  1264 ;; This function uses a non-reentrant model
  1265 ;;
  1266                           
  1267                           	psect	text5
  1268  00346A                     __ptext5:
  1269                           	callstack 0
  1270  00346A                     _TMR1_SetInterruptHandler:
  1271                           	callstack 120
  1272  00346A                     
  1273                           ;mcc_generated_files/tmr1.c: 186:     TMR1_InterruptHandler = InterruptHandler;
  1274  00346A  C503  F584         	movff	TMR1_SetInterruptHandler@InterruptHandler,_TMR1_InterruptHandler
  1275  00346E  C504  F585         	movff	TMR1_SetInterruptHandler@InterruptHandler+1,_TMR1_InterruptHandler+1
  1276  003472  0012               	return		;funcret
  1277  003474                     __end_of_TMR1_SetInterruptHandler:
  1278                           	callstack 0
  1279                           
  1280 ;; *************** function _TMR0_Initialize *****************
  1281 ;; Defined at:
  1282 ;;		line 61 in file "mcc_generated_files/tmr0.c"
  1283 ;; Parameters:    Size  Location     Type
  1284 ;;		None
  1285 ;; Auto vars:     Size  Location     Type
  1286 ;;		None
  1287 ;; Return value:  Size  Location     Type
  1288 ;;                  1    wreg      void 
  1289 ;; Registers used:
  1290 ;;		wreg, status,2, status,0, cstack
  1291 ;; Tracked objects:
  1292 ;;		On entry : 0/0
  1293 ;;		On exit  : 0/0
  1294 ;;		Unchanged: 0/0
  1295 ;; Data sizes:     COMRAM   BANK5   BANK6   BANK7   BANK8   BANK9  BANK10  BANK11  BANK12  BANK13  BANK14  BANK15  BANK1
      +6  BANK17  BANK18  BANK19  BANK20  BANK21  BANK22  BANK23  BANK24  BANK25  BANK26  BANK27  BANK28  BANK29  BANK30  BANK3
      +1  BANK32  BANK33  BANK34  BANK35  BANK36  BANK37
  1296 ;;      Params:         0       0       0       0       0       0       0       0       0       0       0       0       
      +0       0       0       0       0       0       0       0       0       0       0       0       0       0       0       
      +0       0       0       0       0       0       0
  1297 ;;      Locals:         0       0       0       0       0       0       0       0       0       0       0       0       
      +0       0       0       0       0       0       0       0       0       0       0       0       0       0       0       
      +0       0       0       0       0       0       0
  1298 ;;      Temps:          0       0       0       0       0       0       0       0       0       0       0       0       
      +0       0       0       0       0       0       0       0       0       0       0       0       0       0       0       
      +0       0       0       0       0       0       0
  1299 ;;      Totals:         0       0       0       0       0       0       0       0       0       0       0       0       
      +0       0       0       0       0       0       0       0       0       0       0       0       0       0       0       
      +0       0       0       0       0       0       0
  1300 ;;Total ram usage:        0 bytes
  1301 ;; Hardware stack levels used: 1
  1302 ;; Hardware stack levels required when called: 5
  1303 ;; This function calls:
  1304 ;;		_TMR0_SetInterruptHandler
  1305 ;; This function is called by:
  1306 ;;		_SYSTEM_Initialize
  1307 ;; This function uses a non-reentrant model
  1308 ;;
  1309                           
  1310                           	psect	text6
  1311  00339A                     __ptext6:
  1312                           	callstack 0
  1313  00339A                     _TMR0_Initialize:
  1314                           	callstack 120
  1315  00339A                     
  1316                           ;mcc_generated_files/tmr0.c: 66:     T0CON1 = 0x44;
  1317  00339A  0E44               	movlw	68
  1318  00339C  0103               	movlb	3	; () banked
  1319  00339E  6F1B               	movwf	27,b	;volatile
  1320                           
  1321                           ;mcc_generated_files/tmr0.c: 69:     TMR0H = 0x9B;
  1322  0033A0  0E9B               	movlw	155
  1323  0033A2  6F19               	movwf	25,b	;volatile
  1324                           
  1325                           ;mcc_generated_files/tmr0.c: 72:     TMR0L = 0x00;
  1326  0033A4  0E00               	movlw	0
  1327  0033A6  6F18               	movwf	24,b	;volatile
  1328  0033A8                     
  1329                           ; BSR set to: 3
  1330                           ;mcc_generated_files/tmr0.c: 75:     PIR3bits.TMR0IF = 0;
  1331  0033A8  9EB1               	bcf	177,7,c	;volatile
  1332  0033AA                     
  1333                           ; BSR set to: 3
  1334                           ;mcc_generated_files/tmr0.c: 78:     PIE3bits.TMR0IE = 1;
  1335  0033AA  8EA1               	bsf	161,7,c	;volatile
  1336  0033AC                     
  1337                           ; BSR set to: 3
  1338                           ;mcc_generated_files/tmr0.c: 81:     TMR0_SetInterruptHandler(TMR0_DefaultInterruptHandl
      +                          er);
  1339  0033AC  0E40               	movlw	low _TMR0_DefaultInterruptHandler
  1340  0033AE  6E03               	movwf	TMR0_SetInterruptHandler@InterruptHandler^(0+1280),c
  1341  0033B0  0E35               	movlw	high _TMR0_DefaultInterruptHandler
  1342  0033B2  6E04               	movwf	(TMR0_SetInterruptHandler@InterruptHandler+1)^(0+1280),c
  1343  0033B4  EC3A  F01A         	call	_TMR0_SetInterruptHandler	;wreg free
  1344  0033B8                     
  1345                           ;mcc_generated_files/tmr0.c: 84:     T0CON0 = 0x80;
  1346  0033B8  0E80               	movlw	128
  1347  0033BA  0103               	movlb	3	; () banked
  1348  0033BC  6F1A               	movwf	26,b	;volatile
  1349  0033BE                     
  1350                           ; BSR set to: 3
  1351  0033BE  0012               	return		;funcret
  1352  0033C0                     __end_of_TMR0_Initialize:
  1353                           	callstack 0
  1354                           
  1355 ;; *************** function _TMR0_SetInterruptHandler *****************
  1356 ;; Defined at:
  1357 ;;		line 142 in file "mcc_generated_files/tmr0.c"
  1358 ;; Parameters:    Size  Location     Type
  1359 ;;  InterruptHan    2    2[COMRAM] PTR FTN()void 
  1360 ;;		 -> TMR0_DefaultInterruptHandler(1), 
  1361 ;; Auto vars:     Size  Location     Type
  1362 ;;		None
  1363 ;; Return value:  Size  Location     Type
  1364 ;;                  1    wreg      void 
  1365 ;; Registers used:
  1366 ;;		wreg, status,2, status,0
  1367 ;; Tracked objects:
  1368 ;;		On entry : 0/0
  1369 ;;		On exit  : 0/0
  1370 ;;		Unchanged: 0/0
  1371 ;; Data sizes:     COMRAM   BANK5   BANK6   BANK7   BANK8   BANK9  BANK10  BANK11  BANK12  BANK13  BANK14  BANK15  BANK1
      +6  BANK17  BANK18  BANK19  BANK20  BANK21  BANK22  BANK23  BANK24  BANK25  BANK26  BANK27  BANK28  BANK29  BANK30  BANK3
      +1  BANK32  BANK33  BANK34  BANK35  BANK36  BANK37
  1372 ;;      Params:         2       0       0       0       0       0       0       0       0       0       0       0       
      +0       0       0       0       0       0       0       0       0       0       0       0       0       0       0       
      +0       0       0       0       0       0       0
  1373 ;;      Locals:         0       0       0       0       0       0       0       0       0       0       0       0       
      +0       0       0       0       0       0       0       0       0       0       0       0       0       0       0       
      +0       0       0       0       0       0       0
  1374 ;;      Temps:          0       0       0       0       0       0       0       0       0       0       0       0       
      +0       0       0       0       0       0       0       0       0       0       0       0       0       0       0       
      +0       0       0       0       0       0       0
  1375 ;;      Totals:         2       0       0       0       0       0       0       0       0       0       0       0       
      +0       0       0       0       0       0       0       0       0       0       0       0       0       0       0       
      +0       0       0       0       0       0       0
  1376 ;;Total ram usage:        2 bytes
  1377 ;; Hardware stack levels used: 1
  1378 ;; Hardware stack levels required when called: 4
  1379 ;; This function calls:
  1380 ;;		Nothing
  1381 ;; This function is called by:
  1382 ;;		_TMR0_Initialize
  1383 ;; This function uses a non-reentrant model
  1384 ;;
  1385                           
  1386                           	psect	text7
  1387  003474                     __ptext7:
  1388                           	callstack 0
  1389  003474                     _TMR0_SetInterruptHandler:
  1390                           	callstack 120
  1391  003474                     
  1392                           ;mcc_generated_files/tmr0.c: 143:     TMR0_InterruptHandler = InterruptHandler;
  1393  003474  C503  F580         	movff	TMR0_SetInterruptHandler@InterruptHandler,_TMR0_InterruptHandler
  1394  003478  C504  F581         	movff	TMR0_SetInterruptHandler@InterruptHandler+1,_TMR0_InterruptHandler+1
  1395  00347C  0012               	return		;funcret
  1396  00347E                     __end_of_TMR0_SetInterruptHandler:
  1397                           	callstack 0
  1398                           
  1399 ;; *************** function _PWM2_16BIT_Initialize *****************
  1400 ;; Defined at:
  1401 ;;		line 63 in file "mcc_generated_files/pwm2_16bit.c"
  1402 ;; Parameters:    Size  Location     Type
  1403 ;;		None
  1404 ;; Auto vars:     Size  Location     Type
  1405 ;;		None
  1406 ;; Return value:  Size  Location     Type
  1407 ;;                  1    wreg      void 
  1408 ;; Registers used:
  1409 ;;		wreg, status,2, status,0, cstack
  1410 ;; Tracked objects:
  1411 ;;		On entry : 0/0
  1412 ;;		On exit  : 0/0
  1413 ;;		Unchanged: 0/0
  1414 ;; Data sizes:     COMRAM   BANK5   BANK6   BANK7   BANK8   BANK9  BANK10  BANK11  BANK12  BANK13  BANK14  BANK15  BANK1
      +6  BANK17  BANK18  BANK19  BANK20  BANK21  BANK22  BANK23  BANK24  BANK25  BANK26  BANK27  BANK28  BANK29  BANK30  BANK3
      +1  BANK32  BANK33  BANK34  BANK35  BANK36  BANK37
  1415 ;;      Params:         0       0       0       0       0       0       0       0       0       0       0       0       
      +0       0       0       0       0       0       0       0       0       0       0       0       0       0       0       
      +0       0       0       0       0       0       0
  1416 ;;      Locals:         0       0       0       0       0       0       0       0       0       0       0       0       
      +0       0       0       0       0       0       0       0       0       0       0       0       0       0       0       
      +0       0       0       0       0       0       0
  1417 ;;      Temps:          0       0       0       0       0       0       0       0       0       0       0       0       
      +0       0       0       0       0       0       0       0       0       0       0       0       0       0       0       
      +0       0       0       0       0       0       0
  1418 ;;      Totals:         0       0       0       0       0       0       0       0       0       0       0       0       
      +0       0       0       0       0       0       0       0       0       0       0       0       0       0       0       
      +0       0       0       0       0       0       0
  1419 ;;Total ram usage:        0 bytes
  1420 ;; Hardware stack levels used: 1
  1421 ;; Hardware stack levels required when called: 5
  1422 ;; This function calls:
  1423 ;;		_PWM2_16BIT_Period_SetInterruptHandler
  1424 ;;		_PWM2_16BIT_Slice1Output1_SetInterruptHandler
  1425 ;;		_PWM2_16BIT_Slice1Output2_SetInterruptHandler
  1426 ;; This function is called by:
  1427 ;;		_SYSTEM_Initialize
  1428 ;; This function uses a non-reentrant model
  1429 ;;
  1430                           
  1431                           	psect	text8
  1432  002F08                     __ptext8:
  1433                           	callstack 0
  1434  002F08                     _PWM2_16BIT_Initialize:
  1435                           	callstack 120
  1436  002F08                     
  1437                           ;mcc_generated_files/pwm2_16bit.c: 66:     PWM2ERS = 0x00;
  1438  002F08  0E00               	movlw	0
  1439  002F0A  6E6F               	movwf	111,c	;volatile
  1440                           
  1441                           ;mcc_generated_files/pwm2_16bit.c: 69:     PWM2CLK = 0x02;
  1442  002F0C  0E02               	movlw	2
  1443  002F0E  6E70               	movwf	112,c	;volatile
  1444                           
  1445                           ;mcc_generated_files/pwm2_16bit.c: 72:     PWM2LDS = 0x00;
  1446  002F10  0E00               	movlw	0
  1447  002F12  6E71               	movwf	113,c	;volatile
  1448                           
  1449                           ;mcc_generated_files/pwm2_16bit.c: 75:     PWM2PRL = 0x50;
  1450  002F14  0E50               	movlw	80
  1451  002F16  6E72               	movwf	114,c	;volatile
  1452                           
  1453                           ;mcc_generated_files/pwm2_16bit.c: 78:     PWM2PRH = 0x0F;
  1454  002F18  0E0F               	movlw	15
  1455  002F1A  6E73               	movwf	115,c	;volatile
  1456                           
  1457                           ;mcc_generated_files/pwm2_16bit.c: 81:     PWM2CPRE = 0xFE;
  1458  002F1C  0EFE               	movlw	254
  1459  002F1E  6E74               	movwf	116,c	;volatile
  1460                           
  1461                           ;mcc_generated_files/pwm2_16bit.c: 84:     PWM2PIPOS = 0x00;
  1462  002F20  0E00               	movlw	0
  1463  002F22  6E75               	movwf	117,c	;volatile
  1464                           
  1465                           ;mcc_generated_files/pwm2_16bit.c: 87:     PWM2GIR = 0x00;
  1466  002F24  0E00               	movlw	0
  1467  002F26  6E76               	movwf	118,c	;volatile
  1468                           
  1469                           ;mcc_generated_files/pwm2_16bit.c: 90:     PWM2GIE = 0x00;
  1470  002F28  0E00               	movlw	0
  1471  002F2A  6E77               	movwf	119,c	;volatile
  1472                           
  1473                           ;mcc_generated_files/pwm2_16bit.c: 93:     PWM2S1CFG = 0x00;
  1474  002F2C  0E00               	movlw	0
  1475  002F2E  6E79               	movwf	121,c	;volatile
  1476                           
  1477                           ;mcc_generated_files/pwm2_16bit.c: 96:     PWM2S1P1L = 0x0D;
  1478  002F30  0E0D               	movlw	13
  1479  002F32  6E7A               	movwf	122,c	;volatile
  1480                           
  1481                           ;mcc_generated_files/pwm2_16bit.c: 99:     PWM2S1P1H = 0x05;
  1482  002F34  0E05               	movlw	5
  1483  002F36  6E7B               	movwf	123,c	;volatile
  1484                           
  1485                           ;mcc_generated_files/pwm2_16bit.c: 102:     PWM2S1P2L = 0xA8;
  1486  002F38  0EA8               	movlw	168
  1487  002F3A  6E7C               	movwf	124,c	;volatile
  1488                           
  1489                           ;mcc_generated_files/pwm2_16bit.c: 105:     PWM2S1P2H = 0x07;
  1490  002F3C  0E07               	movlw	7
  1491  002F3E  6E7D               	movwf	125,c	;volatile
  1492  002F40                     
  1493                           ;mcc_generated_files/pwm2_16bit.c: 108:     PIR5bits.PWM2PIF = 0;
  1494  002F40  9CB3               	bcf	179,6,c	;volatile
  1495  002F42                     
  1496                           ;mcc_generated_files/pwm2_16bit.c: 111:     PIR5bits.PWM2IF = 0;
  1497  002F42  9EB3               	bcf	179,7,c	;volatile
  1498  002F44                     
  1499                           ;mcc_generated_files/pwm2_16bit.c: 114:     PWM2GIRbits.S1P1IF = 0;
  1500  002F44  9076               	bcf	118,0,c	;volatile
  1501  002F46                     
  1502                           ;mcc_generated_files/pwm2_16bit.c: 117:     PWM2GIRbits.S1P2IF = 0;
  1503  002F46  9276               	bcf	118,1,c	;volatile
  1504  002F48                     
  1505                           ;mcc_generated_files/pwm2_16bit.c: 120:     PIE5bits.PWM2IE = 0;
  1506  002F48  9EA3               	bcf	163,7,c	;volatile
  1507  002F4A                     
  1508                           ;mcc_generated_files/pwm2_16bit.c: 123:     PIE5bits.PWM2PIE = 0;
  1509  002F4A  9CA3               	bcf	163,6,c	;volatile
  1510  002F4C                     
  1511                           ;mcc_generated_files/pwm2_16bit.c: 126:     PWM2_16BIT_Slice1Output1_SetInterruptHandler
      +                          (PWM2_16BIT_Slice1Output1_DefaultInterruptHandler);
  1512  002F4C  0E00               	movlw	0
  1513  002F4E  6E03               	movwf	PWM2_16BIT_Slice1Output1_SetInterruptHandler@InterruptHandler^(0+1280),c
  1514  002F50  0E00               	movlw	0
  1515  002F52  6E04               	movwf	(PWM2_16BIT_Slice1Output1_SetInterruptHandler@InterruptHandler+1)^(0+1280),c
  1516  002F54  EC44  F01A         	call	_PWM2_16BIT_Slice1Output1_SetInterruptHandler	;wreg free
  1517  002F58                     
  1518                           ;mcc_generated_files/pwm2_16bit.c: 127:     PWM2_16BIT_Slice1Output2_SetInterruptHandler
      +                          (PWM2_16BIT_Slice1Output2_DefaultInterruptHandler);
  1519  002F58  0E00               	movlw	0
  1520  002F5A  6E03               	movwf	PWM2_16BIT_Slice1Output2_SetInterruptHandler@InterruptHandler^(0+1280),c
  1521  002F5C  0E00               	movlw	0
  1522  002F5E  6E04               	movwf	(PWM2_16BIT_Slice1Output2_SetInterruptHandler@InterruptHandler+1)^(0+1280),c
  1523  002F60  EC3F  F01A         	call	_PWM2_16BIT_Slice1Output2_SetInterruptHandler	;wreg free
  1524  002F64                     
  1525                           ;mcc_generated_files/pwm2_16bit.c: 128:     PWM2_16BIT_Period_SetInterruptHandler(PWM2_1
      +                          6BIT_Period_DefaultInterruptHandler);
  1526  002F64  0E00               	movlw	0
  1527  002F66  6E03               	movwf	PWM2_16BIT_Period_SetInterruptHandler@InterruptHandler^(0+1280),c
  1528  002F68  0E00               	movlw	0
  1529  002F6A  6E04               	movwf	(PWM2_16BIT_Period_SetInterruptHandler@InterruptHandler+1)^(0+1280),c
  1530  002F6C  EC49  F01A         	call	_PWM2_16BIT_Period_SetInterruptHandler	;wreg free
  1531  002F70                     
  1532                           ;mcc_generated_files/pwm2_16bit.c: 131:     PWM2CON = 0x80;
  1533  002F70  0E80               	movlw	128
  1534  002F72  6E78               	movwf	120,c	;volatile
  1535  002F74  0012               	return		;funcret
  1536  002F76                     __end_of_PWM2_16BIT_Initialize:
  1537                           	callstack 0
  1538                           
  1539 ;; *************** function _PWM2_16BIT_Slice1Output2_SetInterruptHandler *****************
  1540 ;; Defined at:
  1541 ;;		line 197 in file "mcc_generated_files/pwm2_16bit.c"
  1542 ;; Parameters:    Size  Location     Type
  1543 ;;  InterruptHan    2    2[COMRAM] PTR FTN()void 
  1544 ;;		 -> PWM2_16BIT_Slice1Output2_DefaultInterruptHandler(1), 
  1545 ;; Auto vars:     Size  Location     Type
  1546 ;;		None
  1547 ;; Return value:  Size  Location     Type
  1548 ;;                  1    wreg      void 
  1549 ;; Registers used:
  1550 ;;		wreg, status,2, status,0
  1551 ;; Tracked objects:
  1552 ;;		On entry : 0/0
  1553 ;;		On exit  : 0/0
  1554 ;;		Unchanged: 0/0
  1555 ;; Data sizes:     COMRAM   BANK5   BANK6   BANK7   BANK8   BANK9  BANK10  BANK11  BANK12  BANK13  BANK14  BANK15  BANK1
      +6  BANK17  BANK18  BANK19  BANK20  BANK21  BANK22  BANK23  BANK24  BANK25  BANK26  BANK27  BANK28  BANK29  BANK30  BANK3
      +1  BANK32  BANK33  BANK34  BANK35  BANK36  BANK37
  1556 ;;      Params:         2       0       0       0       0       0       0       0       0       0       0       0       
      +0       0       0       0       0       0       0       0       0       0       0       0       0       0       0       
      +0       0       0       0       0       0       0
  1557 ;;      Locals:         0       0       0       0       0       0       0       0       0       0       0       0       
      +0       0       0       0       0       0       0       0       0       0       0       0       0       0       0       
      +0       0       0       0       0       0       0
  1558 ;;      Temps:          0       0       0       0       0       0       0       0       0       0       0       0       
      +0       0       0       0       0       0       0       0       0       0       0       0       0       0       0       
      +0       0       0       0       0       0       0
  1559 ;;      Totals:         2       0       0       0       0       0       0       0       0       0       0       0       
      +0       0       0       0       0       0       0       0       0       0       0       0       0       0       0       
      +0       0       0       0       0       0       0
  1560 ;;Total ram usage:        2 bytes
  1561 ;; Hardware stack levels used: 1
  1562 ;; Hardware stack levels required when called: 4
  1563 ;; This function calls:
  1564 ;;		Nothing
  1565 ;; This function is called by:
  1566 ;;		_PWM2_16BIT_Initialize
  1567 ;; This function uses a non-reentrant model
  1568 ;;
  1569                           
  1570                           	psect	text9
  1571  00347E                     __ptext9:
  1572                           	callstack 0
  1573  00347E                     _PWM2_16BIT_Slice1Output2_SetInterruptHandler:
  1574                           	callstack 120
  1575  00347E                     
  1576                           ;mcc_generated_files/pwm2_16bit.c: 197: void PWM2_16BIT_Slice1Output2_SetInterruptHandle
      +                          r(void (* InterruptHandler)(void));mcc_generated_files/pwm2_16bit.c: 198: {;mcc_generate
      +                          d_files/pwm2_16bit.c: 199:     PWM2_16BIT_Slice1Output2_InterruptHandler = InterruptHand
      +                          ler;
  1577  00347E  C503  F54C         	movff	PWM2_16BIT_Slice1Output2_SetInterruptHandler@InterruptHandler,_PWM2_16BIT_Slice1O
      +                          utput2_InterruptHandler
  1578  003482  C504  F54D         	movff	PWM2_16BIT_Slice1Output2_SetInterruptHandler@InterruptHandler+1,_PWM2_16BIT_Slice
      +                          1Output2_InterruptHandler+1
  1579  003486  0012               	return		;funcret
  1580  003488                     __end_of_PWM2_16BIT_Slice1Output2_SetInterruptHandler:
  1581                           	callstack 0
  1582                           
  1583 ;; *************** function _PWM2_16BIT_Slice1Output1_SetInterruptHandler *****************
  1584 ;; Defined at:
  1585 ;;		line 192 in file "mcc_generated_files/pwm2_16bit.c"
  1586 ;; Parameters:    Size  Location     Type
  1587 ;;  InterruptHan    2    2[COMRAM] PTR FTN()void 
  1588 ;;		 -> PWM2_16BIT_Slice1Output1_DefaultInterruptHandler(1), 
  1589 ;; Auto vars:     Size  Location     Type
  1590 ;;		None
  1591 ;; Return value:  Size  Location     Type
  1592 ;;                  1    wreg      void 
  1593 ;; Registers used:
  1594 ;;		wreg, status,2, status,0
  1595 ;; Tracked objects:
  1596 ;;		On entry : 0/0
  1597 ;;		On exit  : 0/0
  1598 ;;		Unchanged: 0/0
  1599 ;; Data sizes:     COMRAM   BANK5   BANK6   BANK7   BANK8   BANK9  BANK10  BANK11  BANK12  BANK13  BANK14  BANK15  BANK1
      +6  BANK17  BANK18  BANK19  BANK20  BANK21  BANK22  BANK23  BANK24  BANK25  BANK26  BANK27  BANK28  BANK29  BANK30  BANK3
      +1  BANK32  BANK33  BANK34  BANK35  BANK36  BANK37
  1600 ;;      Params:         2       0       0       0       0       0       0       0       0       0       0       0       
      +0       0       0       0       0       0       0       0       0       0       0       0       0       0       0       
      +0       0       0       0       0       0       0
  1601 ;;      Locals:         0       0       0       0       0       0       0       0       0       0       0       0       
      +0       0       0       0       0       0       0       0       0       0       0       0       0       0       0       
      +0       0       0       0       0       0       0
  1602 ;;      Temps:          0       0       0       0       0       0       0       0       0       0       0       0       
      +0       0       0       0       0       0       0       0       0       0       0       0       0       0       0       
      +0       0       0       0       0       0       0
  1603 ;;      Totals:         2       0       0       0       0       0       0       0       0       0       0       0       
      +0       0       0       0       0       0       0       0       0       0       0       0       0       0       0       
      +0       0       0       0       0       0       0
  1604 ;;Total ram usage:        2 bytes
  1605 ;; Hardware stack levels used: 1
  1606 ;; Hardware stack levels required when called: 4
  1607 ;; This function calls:
  1608 ;;		Nothing
  1609 ;; This function is called by:
  1610 ;;		_PWM2_16BIT_Initialize
  1611 ;; This function uses a non-reentrant model
  1612 ;;
  1613                           
  1614                           	psect	text10
  1615  003488                     __ptext10:
  1616                           	callstack 0
  1617  003488                     _PWM2_16BIT_Slice1Output1_SetInterruptHandler:
  1618                           	callstack 120
  1619  003488                     
  1620                           ;mcc_generated_files/pwm2_16bit.c: 192: void PWM2_16BIT_Slice1Output1_SetInterruptHandle
      +                          r(void (* InterruptHandler)(void));mcc_generated_files/pwm2_16bit.c: 193: {;mcc_generate
      +                          d_files/pwm2_16bit.c: 194:     PWM2_16BIT_Slice1Output1_InterruptHandler = InterruptHand
      +                          ler;
  1621  003488  C503  F54E         	movff	PWM2_16BIT_Slice1Output1_SetInterruptHandler@InterruptHandler,_PWM2_16BIT_Slice1O
      +                          utput1_InterruptHandler
  1622  00348C  C504  F54F         	movff	PWM2_16BIT_Slice1Output1_SetInterruptHandler@InterruptHandler+1,_PWM2_16BIT_Slice
      +                          1Output1_InterruptHandler+1
  1623  003490  0012               	return		;funcret
  1624  003492                     __end_of_PWM2_16BIT_Slice1Output1_SetInterruptHandler:
  1625                           	callstack 0
  1626                           
  1627 ;; *************** function _PWM2_16BIT_Period_SetInterruptHandler *****************
  1628 ;; Defined at:
  1629 ;;		line 202 in file "mcc_generated_files/pwm2_16bit.c"
  1630 ;; Parameters:    Size  Location     Type
  1631 ;;  InterruptHan    2    2[COMRAM] PTR FTN()void 
  1632 ;;		 -> PWM2_16BIT_Period_DefaultInterruptHandler(1), 
  1633 ;; Auto vars:     Size  Location     Type
  1634 ;;		None
  1635 ;; Return value:  Size  Location     Type
  1636 ;;                  1    wreg      void 
  1637 ;; Registers used:
  1638 ;;		wreg, status,2, status,0
  1639 ;; Tracked objects:
  1640 ;;		On entry : 0/0
  1641 ;;		On exit  : 0/0
  1642 ;;		Unchanged: 0/0
  1643 ;; Data sizes:     COMRAM   BANK5   BANK6   BANK7   BANK8   BANK9  BANK10  BANK11  BANK12  BANK13  BANK14  BANK15  BANK1
      +6  BANK17  BANK18  BANK19  BANK20  BANK21  BANK22  BANK23  BANK24  BANK25  BANK26  BANK27  BANK28  BANK29  BANK30  BANK3
      +1  BANK32  BANK33  BANK34  BANK35  BANK36  BANK37
  1644 ;;      Params:         2       0       0       0       0       0       0       0       0       0       0       0       
      +0       0       0       0       0       0       0       0       0       0       0       0       0       0       0       
      +0       0       0       0       0       0       0
  1645 ;;      Locals:         0       0       0       0       0       0       0       0       0       0       0       0       
      +0       0       0       0       0       0       0       0       0       0       0       0       0       0       0       
      +0       0       0       0       0       0       0
  1646 ;;      Temps:          0       0       0       0       0       0       0       0       0       0       0       0       
      +0       0       0       0       0       0       0       0       0       0       0       0       0       0       0       
      +0       0       0       0       0       0       0
  1647 ;;      Totals:         2       0       0       0       0       0       0       0       0       0       0       0       
      +0       0       0       0       0       0       0       0       0       0       0       0       0       0       0       
      +0       0       0       0       0       0       0
  1648 ;;Total ram usage:        2 bytes
  1649 ;; Hardware stack levels used: 1
  1650 ;; Hardware stack levels required when called: 4
  1651 ;; This function calls:
  1652 ;;		Nothing
  1653 ;; This function is called by:
  1654 ;;		_PWM2_16BIT_Initialize
  1655 ;; This function uses a non-reentrant model
  1656 ;;
  1657                           
  1658                           	psect	text11
  1659  003492                     __ptext11:
  1660                           	callstack 0
  1661  003492                     _PWM2_16BIT_Period_SetInterruptHandler:
  1662                           	callstack 120
  1663  003492                     
  1664                           ;mcc_generated_files/pwm2_16bit.c: 202: void PWM2_16BIT_Period_SetInterruptHandler(void 
      +                          (* InterruptHandler)(void));mcc_generated_files/pwm2_16bit.c: 203: {;mcc_generated_files
      +                          /pwm2_16bit.c: 204:     PWM2_16BIT_Period_InterruptHandler = InterruptHandler;
  1665  003492  C503  F586         	movff	PWM2_16BIT_Period_SetInterruptHandler@InterruptHandler,_PWM2_16BIT_Period_Interru
      +                          ptHandler
  1666  003496  C504  F587         	movff	PWM2_16BIT_Period_SetInterruptHandler@InterruptHandler+1,_PWM2_16BIT_Period_Inter
      +                          ruptHandler+1
  1667  00349A  0012               	return		;funcret
  1668  00349C                     __end_of_PWM2_16BIT_Period_SetInterruptHandler:
  1669                           	callstack 0
  1670                           
  1671 ;; *************** function _PWM1_16BIT_Initialize *****************
  1672 ;; Defined at:
  1673 ;;		line 63 in file "mcc_generated_files/pwm1_16bit.c"
  1674 ;; Parameters:    Size  Location     Type
  1675 ;;		None
  1676 ;; Auto vars:     Size  Location     Type
  1677 ;;		None
  1678 ;; Return value:  Size  Location     Type
  1679 ;;                  1    wreg      void 
  1680 ;; Registers used:
  1681 ;;		wreg, status,2, status,0, cstack
  1682 ;; Tracked objects:
  1683 ;;		On entry : 0/0
  1684 ;;		On exit  : 0/0
  1685 ;;		Unchanged: 0/0
  1686 ;; Data sizes:     COMRAM   BANK5   BANK6   BANK7   BANK8   BANK9  BANK10  BANK11  BANK12  BANK13  BANK14  BANK15  BANK1
      +6  BANK17  BANK18  BANK19  BANK20  BANK21  BANK22  BANK23  BANK24  BANK25  BANK26  BANK27  BANK28  BANK29  BANK30  BANK3
      +1  BANK32  BANK33  BANK34  BANK35  BANK36  BANK37
  1687 ;;      Params:         0       0       0       0       0       0       0       0       0       0       0       0       
      +0       0       0       0       0       0       0       0       0       0       0       0       0       0       0       
      +0       0       0       0       0       0       0
  1688 ;;      Locals:         0       0       0       0       0       0       0       0       0       0       0       0       
      +0       0       0       0       0       0       0       0       0       0       0       0       0       0       0       
      +0       0       0       0       0       0       0
  1689 ;;      Temps:          0       0       0       0       0       0       0       0       0       0       0       0       
      +0       0       0       0       0       0       0       0       0       0       0       0       0       0       0       
      +0       0       0       0       0       0       0
  1690 ;;      Totals:         0       0       0       0       0       0       0       0       0       0       0       0       
      +0       0       0       0       0       0       0       0       0       0       0       0       0       0       0       
      +0       0       0       0       0       0       0
  1691 ;;Total ram usage:        0 bytes
  1692 ;; Hardware stack levels used: 1
  1693 ;; Hardware stack levels required when called: 5
  1694 ;; This function calls:
  1695 ;;		_PWM1_16BIT_Period_SetInterruptHandler
  1696 ;;		_PWM1_16BIT_Slice1Output1_SetInterruptHandler
  1697 ;;		_PWM1_16BIT_Slice1Output2_SetInterruptHandler
  1698 ;; This function is called by:
  1699 ;;		_SYSTEM_Initialize
  1700 ;; This function uses a non-reentrant model
  1701 ;;
  1702                           
  1703                           	psect	text12
  1704  002F76                     __ptext12:
  1705                           	callstack 0
  1706  002F76                     _PWM1_16BIT_Initialize:
  1707                           	callstack 120
  1708  002F76                     
  1709                           ;mcc_generated_files/pwm1_16bit.c: 66:     PWM1ERS = 0x00;
  1710  002F76  0E00               	movlw	0
  1711  002F78  6E60               	movwf	96,c	;volatile
  1712                           
  1713                           ;mcc_generated_files/pwm1_16bit.c: 69:     PWM1CLK = 0x02;
  1714  002F7A  0E02               	movlw	2
  1715  002F7C  6E61               	movwf	97,c	;volatile
  1716                           
  1717                           ;mcc_generated_files/pwm1_16bit.c: 72:     PWM1LDS = 0x00;
  1718  002F7E  0E00               	movlw	0
  1719  002F80  6E62               	movwf	98,c	;volatile
  1720                           
  1721                           ;mcc_generated_files/pwm1_16bit.c: 75:     PWM1PRL = 0x3D;
  1722  002F82  0E3D               	movlw	61
  1723  002F84  6E63               	movwf	99,c	;volatile
  1724                           
  1725                           ;mcc_generated_files/pwm1_16bit.c: 78:     PWM1PRH = 0x00;
  1726  002F86  0E00               	movlw	0
  1727  002F88  6E64               	movwf	100,c	;volatile
  1728                           
  1729                           ;mcc_generated_files/pwm1_16bit.c: 81:     PWM1CPRE = 0xFE;
  1730  002F8A  0EFE               	movlw	254
  1731  002F8C  6E65               	movwf	101,c	;volatile
  1732                           
  1733                           ;mcc_generated_files/pwm1_16bit.c: 84:     PWM1PIPOS = 0x00;
  1734  002F8E  0E00               	movlw	0
  1735  002F90  6E66               	movwf	102,c	;volatile
  1736                           
  1737                           ;mcc_generated_files/pwm1_16bit.c: 87:     PWM1GIR = 0x00;
  1738  002F92  0E00               	movlw	0
  1739  002F94  6E67               	movwf	103,c	;volatile
  1740                           
  1741                           ;mcc_generated_files/pwm1_16bit.c: 90:     PWM1GIE = 0x00;
  1742  002F96  0E00               	movlw	0
  1743  002F98  6E68               	movwf	104,c	;volatile
  1744                           
  1745                           ;mcc_generated_files/pwm1_16bit.c: 93:     PWM1S1CFG = 0x00;
  1746  002F9A  0E00               	movlw	0
  1747  002F9C  6E6A               	movwf	106,c	;volatile
  1748                           
  1749                           ;mcc_generated_files/pwm1_16bit.c: 96:     PWM1S1P1L = 0x1F;
  1750  002F9E  0E1F               	movlw	31
  1751  002FA0  6E6B               	movwf	107,c	;volatile
  1752                           
  1753                           ;mcc_generated_files/pwm1_16bit.c: 99:     PWM1S1P1H = 0x00;
  1754  002FA2  0E00               	movlw	0
  1755  002FA4  6E6C               	movwf	108,c	;volatile
  1756                           
  1757                           ;mcc_generated_files/pwm1_16bit.c: 102:     PWM1S1P2L = 0x1F;
  1758  002FA6  0E1F               	movlw	31
  1759  002FA8  6E6D               	movwf	109,c	;volatile
  1760                           
  1761                           ;mcc_generated_files/pwm1_16bit.c: 105:     PWM1S1P2H = 0x00;
  1762  002FAA  0E00               	movlw	0
  1763  002FAC  6E6E               	movwf	110,c	;volatile
  1764  002FAE                     
  1765                           ;mcc_generated_files/pwm1_16bit.c: 108:     PIR4bits.PWM1PIF = 0;
  1766  002FAE  9CB2               	bcf	178,6,c	;volatile
  1767  002FB0                     
  1768                           ;mcc_generated_files/pwm1_16bit.c: 111:     PIR4bits.PWM1IF = 0;
  1769  002FB0  9EB2               	bcf	178,7,c	;volatile
  1770  002FB2                     
  1771                           ;mcc_generated_files/pwm1_16bit.c: 114:     PWM1GIRbits.S1P1IF = 0;
  1772  002FB2  9067               	bcf	103,0,c	;volatile
  1773  002FB4                     
  1774                           ;mcc_generated_files/pwm1_16bit.c: 117:     PWM1GIRbits.S1P2IF = 0;
  1775  002FB4  9267               	bcf	103,1,c	;volatile
  1776  002FB6                     
  1777                           ;mcc_generated_files/pwm1_16bit.c: 120:     PIE4bits.PWM1IE = 0;
  1778  002FB6  9EA2               	bcf	162,7,c	;volatile
  1779  002FB8                     
  1780                           ;mcc_generated_files/pwm1_16bit.c: 123:     PIE4bits.PWM1PIE = 0;
  1781  002FB8  9CA2               	bcf	162,6,c	;volatile
  1782  002FBA                     
  1783                           ;mcc_generated_files/pwm1_16bit.c: 126:     PWM1_16BIT_Slice1Output1_SetInterruptHandler
      +                          (PWM1_16BIT_Slice1Output1_DefaultInterruptHandler);
  1784  002FBA  0E00               	movlw	0
  1785  002FBC  6E03               	movwf	PWM1_16BIT_Slice1Output1_SetInterruptHandler@InterruptHandler^(0+1280),c
  1786  002FBE  0E00               	movlw	0
  1787  002FC0  6E04               	movwf	(PWM1_16BIT_Slice1Output1_SetInterruptHandler@InterruptHandler+1)^(0+1280),c
  1788  002FC2  EC53  F01A         	call	_PWM1_16BIT_Slice1Output1_SetInterruptHandler	;wreg free
  1789  002FC6                     
  1790                           ;mcc_generated_files/pwm1_16bit.c: 127:     PWM1_16BIT_Slice1Output2_SetInterruptHandler
      +                          (PWM1_16BIT_Slice1Output2_DefaultInterruptHandler);
  1791  002FC6  0E00               	movlw	0
  1792  002FC8  6E03               	movwf	PWM1_16BIT_Slice1Output2_SetInterruptHandler@InterruptHandler^(0+1280),c
  1793  002FCA  0E00               	movlw	0
  1794  002FCC  6E04               	movwf	(PWM1_16BIT_Slice1Output2_SetInterruptHandler@InterruptHandler+1)^(0+1280),c
  1795  002FCE  EC4E  F01A         	call	_PWM1_16BIT_Slice1Output2_SetInterruptHandler	;wreg free
  1796  002FD2                     
  1797                           ;mcc_generated_files/pwm1_16bit.c: 128:     PWM1_16BIT_Period_SetInterruptHandler(PWM1_1
      +                          6BIT_Period_DefaultInterruptHandler);
  1798  002FD2  0E00               	movlw	0
  1799  002FD4  6E03               	movwf	PWM1_16BIT_Period_SetInterruptHandler@InterruptHandler^(0+1280),c
  1800  002FD6  0E00               	movlw	0
  1801  002FD8  6E04               	movwf	(PWM1_16BIT_Period_SetInterruptHandler@InterruptHandler+1)^(0+1280),c
  1802  002FDA  EC58  F01A         	call	_PWM1_16BIT_Period_SetInterruptHandler	;wreg free
  1803  002FDE                     
  1804                           ;mcc_generated_files/pwm1_16bit.c: 131:     PWM1CON = 0x80;
  1805  002FDE  0E80               	movlw	128
  1806  002FE0  6E69               	movwf	105,c	;volatile
  1807  002FE2  0012               	return		;funcret
  1808  002FE4                     __end_of_PWM1_16BIT_Initialize:
  1809                           	callstack 0
  1810                           
  1811 ;; *************** function _PWM1_16BIT_Slice1Output2_SetInterruptHandler *****************
  1812 ;; Defined at:
  1813 ;;		line 197 in file "mcc_generated_files/pwm1_16bit.c"
  1814 ;; Parameters:    Size  Location     Type
  1815 ;;  InterruptHan    2    2[COMRAM] PTR FTN()void 
  1816 ;;		 -> PWM1_16BIT_Slice1Output2_DefaultInterruptHandler(1), 
  1817 ;; Auto vars:     Size  Location     Type
  1818 ;;		None
  1819 ;; Return value:  Size  Location     Type
  1820 ;;                  1    wreg      void 
  1821 ;; Registers used:
  1822 ;;		wreg, status,2, status,0
  1823 ;; Tracked objects:
  1824 ;;		On entry : 0/0
  1825 ;;		On exit  : 0/0
  1826 ;;		Unchanged: 0/0
  1827 ;; Data sizes:     COMRAM   BANK5   BANK6   BANK7   BANK8   BANK9  BANK10  BANK11  BANK12  BANK13  BANK14  BANK15  BANK1
      +6  BANK17  BANK18  BANK19  BANK20  BANK21  BANK22  BANK23  BANK24  BANK25  BANK26  BANK27  BANK28  BANK29  BANK30  BANK3
      +1  BANK32  BANK33  BANK34  BANK35  BANK36  BANK37
  1828 ;;      Params:         2       0       0       0       0       0       0       0       0       0       0       0       
      +0       0       0       0       0       0       0       0       0       0       0       0       0       0       0       
      +0       0       0       0       0       0       0
  1829 ;;      Locals:         0       0       0       0       0       0       0       0       0       0       0       0       
      +0       0       0       0       0       0       0       0       0       0       0       0       0       0       0       
      +0       0       0       0       0       0       0
  1830 ;;      Temps:          0       0       0       0       0       0       0       0       0       0       0       0       
      +0       0       0       0       0       0       0       0       0       0       0       0       0       0       0       
      +0       0       0       0       0       0       0
  1831 ;;      Totals:         2       0       0       0       0       0       0       0       0       0       0       0       
      +0       0       0       0       0       0       0       0       0       0       0       0       0       0       0       
      +0       0       0       0       0       0       0
  1832 ;;Total ram usage:        2 bytes
  1833 ;; Hardware stack levels used: 1
  1834 ;; Hardware stack levels required when called: 4
  1835 ;; This function calls:
  1836 ;;		Nothing
  1837 ;; This function is called by:
  1838 ;;		_PWM1_16BIT_Initialize
  1839 ;; This function uses a non-reentrant model
  1840 ;;
  1841                           
  1842                           	psect	text13
  1843  00349C                     __ptext13:
  1844                           	callstack 0
  1845  00349C                     _PWM1_16BIT_Slice1Output2_SetInterruptHandler:
  1846                           	callstack 120
  1847  00349C                     
  1848                           ;mcc_generated_files/pwm1_16bit.c: 197: void PWM1_16BIT_Slice1Output2_SetInterruptHandle
      +                          r(void (* InterruptHandler)(void));mcc_generated_files/pwm1_16bit.c: 198: {;mcc_generate
      +                          d_files/pwm1_16bit.c: 199:     PWM1_16BIT_Slice1Output2_InterruptHandler = InterruptHand
      +                          ler;
  1849  00349C  C503  F53F         	movff	PWM1_16BIT_Slice1Output2_SetInterruptHandler@InterruptHandler,_PWM1_16BIT_Slice1O
      +                          utput2_InterruptHandler
  1850  0034A0  C504  F540         	movff	PWM1_16BIT_Slice1Output2_SetInterruptHandler@InterruptHandler+1,_PWM1_16BIT_Slice
      +                          1Output2_InterruptHandler+1
  1851  0034A4  0012               	return		;funcret
  1852  0034A6                     __end_of_PWM1_16BIT_Slice1Output2_SetInterruptHandler:
  1853                           	callstack 0
  1854                           
  1855 ;; *************** function _PWM1_16BIT_Slice1Output1_SetInterruptHandler *****************
  1856 ;; Defined at:
  1857 ;;		line 192 in file "mcc_generated_files/pwm1_16bit.c"
  1858 ;; Parameters:    Size  Location     Type
  1859 ;;  InterruptHan    2    2[COMRAM] PTR FTN()void 
  1860 ;;		 -> PWM1_16BIT_Slice1Output1_DefaultInterruptHandler(1), 
  1861 ;; Auto vars:     Size  Location     Type
  1862 ;;		None
  1863 ;; Return value:  Size  Location     Type
  1864 ;;                  1    wreg      void 
  1865 ;; Registers used:
  1866 ;;		wreg, status,2, status,0
  1867 ;; Tracked objects:
  1868 ;;		On entry : 0/0
  1869 ;;		On exit  : 0/0
  1870 ;;		Unchanged: 0/0
  1871 ;; Data sizes:     COMRAM   BANK5   BANK6   BANK7   BANK8   BANK9  BANK10  BANK11  BANK12  BANK13  BANK14  BANK15  BANK1
      +6  BANK17  BANK18  BANK19  BANK20  BANK21  BANK22  BANK23  BANK24  BANK25  BANK26  BANK27  BANK28  BANK29  BANK30  BANK3
      +1  BANK32  BANK33  BANK34  BANK35  BANK36  BANK37
  1872 ;;      Params:         2       0       0       0       0       0       0       0       0       0       0       0       
      +0       0       0       0       0       0       0       0       0       0       0       0       0       0       0       
      +0       0       0       0       0       0       0
  1873 ;;      Locals:         0       0       0       0       0       0       0       0       0       0       0       0       
      +0       0       0       0       0       0       0       0       0       0       0       0       0       0       0       
      +0       0       0       0       0       0       0
  1874 ;;      Temps:          0       0       0       0       0       0       0       0       0       0       0       0       
      +0       0       0       0       0       0       0       0       0       0       0       0       0       0       0       
      +0       0       0       0       0       0       0
  1875 ;;      Totals:         2       0       0       0       0       0       0       0       0       0       0       0       
      +0       0       0       0       0       0       0       0       0       0       0       0       0       0       0       
      +0       0       0       0       0       0       0
  1876 ;;Total ram usage:        2 bytes
  1877 ;; Hardware stack levels used: 1
  1878 ;; Hardware stack levels required when called: 4
  1879 ;; This function calls:
  1880 ;;		Nothing
  1881 ;; This function is called by:
  1882 ;;		_PWM1_16BIT_Initialize
  1883 ;; This function uses a non-reentrant model
  1884 ;;
  1885                           
  1886                           	psect	text14
  1887  0034A6                     __ptext14:
  1888                           	callstack 0
  1889  0034A6                     _PWM1_16BIT_Slice1Output1_SetInterruptHandler:
  1890                           	callstack 120
  1891  0034A6                     
  1892                           ;mcc_generated_files/pwm1_16bit.c: 192: void PWM1_16BIT_Slice1Output1_SetInterruptHandle
      +                          r(void (* InterruptHandler)(void));mcc_generated_files/pwm1_16bit.c: 193: {;mcc_generate
      +                          d_files/pwm1_16bit.c: 194:     PWM1_16BIT_Slice1Output1_InterruptHandler = InterruptHand
      +                          ler;
  1893  0034A6  C503  F541         	movff	PWM1_16BIT_Slice1Output1_SetInterruptHandler@InterruptHandler,_PWM1_16BIT_Slice1O
      +                          utput1_InterruptHandler
  1894  0034AA  C504  F542         	movff	PWM1_16BIT_Slice1Output1_SetInterruptHandler@InterruptHandler+1,_PWM1_16BIT_Slice
      +                          1Output1_InterruptHandler+1
  1895  0034AE  0012               	return		;funcret
  1896  0034B0                     __end_of_PWM1_16BIT_Slice1Output1_SetInterruptHandler:
  1897                           	callstack 0
  1898                           
  1899 ;; *************** function _PWM1_16BIT_Period_SetInterruptHandler *****************
  1900 ;; Defined at:
  1901 ;;		line 202 in file "mcc_generated_files/pwm1_16bit.c"
  1902 ;; Parameters:    Size  Location     Type
  1903 ;;  InterruptHan    2    2[COMRAM] PTR FTN()void 
  1904 ;;		 -> PWM1_16BIT_Period_DefaultInterruptHandler(1), 
  1905 ;; Auto vars:     Size  Location     Type
  1906 ;;		None
  1907 ;; Return value:  Size  Location     Type
  1908 ;;                  1    wreg      void 
  1909 ;; Registers used:
  1910 ;;		wreg, status,2, status,0
  1911 ;; Tracked objects:
  1912 ;;		On entry : 0/0
  1913 ;;		On exit  : 0/0
  1914 ;;		Unchanged: 0/0
  1915 ;; Data sizes:     COMRAM   BANK5   BANK6   BANK7   BANK8   BANK9  BANK10  BANK11  BANK12  BANK13  BANK14  BANK15  BANK1
      +6  BANK17  BANK18  BANK19  BANK20  BANK21  BANK22  BANK23  BANK24  BANK25  BANK26  BANK27  BANK28  BANK29  BANK30  BANK3
      +1  BANK32  BANK33  BANK34  BANK35  BANK36  BANK37
  1916 ;;      Params:         2       0       0       0       0       0       0       0       0       0       0       0       
      +0       0       0       0       0       0       0       0       0       0       0       0       0       0       0       
      +0       0       0       0       0       0       0
  1917 ;;      Locals:         0       0       0       0       0       0       0       0       0       0       0       0       
      +0       0       0       0       0       0       0       0       0       0       0       0       0       0       0       
      +0       0       0       0       0       0       0
  1918 ;;      Temps:          0       0       0       0       0       0       0       0       0       0       0       0       
      +0       0       0       0       0       0       0       0       0       0       0       0       0       0       0       
      +0       0       0       0       0       0       0
  1919 ;;      Totals:         2       0       0       0       0       0       0       0       0       0       0       0       
      +0       0       0       0       0       0       0       0       0       0       0       0       0       0       0       
      +0       0       0       0       0       0       0
  1920 ;;Total ram usage:        2 bytes
  1921 ;; Hardware stack levels used: 1
  1922 ;; Hardware stack levels required when called: 4
  1923 ;; This function calls:
  1924 ;;		Nothing
  1925 ;; This function is called by:
  1926 ;;		_PWM1_16BIT_Initialize
  1927 ;; This function uses a non-reentrant model
  1928 ;;
  1929                           
  1930                           	psect	text15
  1931  0034B0                     __ptext15:
  1932                           	callstack 0
  1933  0034B0                     _PWM1_16BIT_Period_SetInterruptHandler:
  1934                           	callstack 120
  1935  0034B0                     
  1936                           ;mcc_generated_files/pwm1_16bit.c: 202: void PWM1_16BIT_Period_SetInterruptHandler(void 
      +                          (* InterruptHandler)(void));mcc_generated_files/pwm1_16bit.c: 203: {;mcc_generated_files
      +                          /pwm1_16bit.c: 204:     PWM1_16BIT_Period_InterruptHandler = InterruptHandler;
  1937  0034B0  C503  F53D         	movff	PWM1_16BIT_Period_SetInterruptHandler@InterruptHandler,_PWM1_16BIT_Period_Interru
      +                          ptHandler
  1938  0034B4  C504  F53E         	movff	PWM1_16BIT_Period_SetInterruptHandler@InterruptHandler+1,_PWM1_16BIT_Period_Inter
      +                          ruptHandler+1
  1939  0034B8  0012               	return		;funcret
  1940  0034BA                     __end_of_PWM1_16BIT_Period_SetInterruptHandler:
  1941                           	callstack 0
  1942                           
  1943 ;; *************** function _PMD_Initialize *****************
  1944 ;; Defined at:
  1945 ;;		line 80 in file "mcc_generated_files/mcc.c"
  1946 ;; Parameters:    Size  Location     Type
  1947 ;;		None
  1948 ;; Auto vars:     Size  Location     Type
  1949 ;;		None
  1950 ;; Return value:  Size  Location     Type
  1951 ;;                  1    wreg      void 
  1952 ;; Registers used:
  1953 ;;		wreg, status,2
  1954 ;; Tracked objects:
  1955 ;;		On entry : 0/0
  1956 ;;		On exit  : 0/0
  1957 ;;		Unchanged: 0/0
  1958 ;; Data sizes:     COMRAM   BANK5   BANK6   BANK7   BANK8   BANK9  BANK10  BANK11  BANK12  BANK13  BANK14  BANK15  BANK1
      +6  BANK17  BANK18  BANK19  BANK20  BANK21  BANK22  BANK23  BANK24  BANK25  BANK26  BANK27  BANK28  BANK29  BANK30  BANK3
      +1  BANK32  BANK33  BANK34  BANK35  BANK36  BANK37
  1959 ;;      Params:         0       0       0       0       0       0       0       0       0       0       0       0       
      +0       0       0       0       0       0       0       0       0       0       0       0       0       0       0       
      +0       0       0       0       0       0       0
  1960 ;;      Locals:         0       0       0       0       0       0       0       0       0       0       0       0       
      +0       0       0       0       0       0       0       0       0       0       0       0       0       0       0       
      +0       0       0       0       0       0       0
  1961 ;;      Temps:          0       0       0       0       0       0       0       0       0       0       0       0       
      +0       0       0       0       0       0       0       0       0       0       0       0       0       0       0       
      +0       0       0       0       0       0       0
  1962 ;;      Totals:         0       0       0       0       0       0       0       0       0       0       0       0       
      +0       0       0       0       0       0       0       0       0       0       0       0       0       0       0       
      +0       0       0       0       0       0       0
  1963 ;;Total ram usage:        0 bytes
  1964 ;; Hardware stack levels used: 1
  1965 ;; Hardware stack levels required when called: 4
  1966 ;; This function calls:
  1967 ;;		Nothing
  1968 ;; This function is called by:
  1969 ;;		_SYSTEM_Initialize
  1970 ;; This function uses a non-reentrant model
  1971 ;;
  1972                           
  1973                           	psect	text16
  1974  00334A                     __ptext16:
  1975                           	callstack 0
  1976  00334A                     _PMD_Initialize:
  1977                           	callstack 121
  1978  00334A                     
  1979                           ;mcc_generated_files/mcc.c: 83:     PMD0 = 0x00;
  1980  00334A  0E00               	movlw	0
  1981  00334C  0100               	movlb	0	; () banked
  1982  00334E  6F60               	movwf	96,b	;volatile
  1983                           
  1984                           ;mcc_generated_files/mcc.c: 85:     PMD1 = 0x00;
  1985  003350  0E00               	movlw	0
  1986  003352  6F61               	movwf	97,b	;volatile
  1987                           
  1988                           ;mcc_generated_files/mcc.c: 87:     PMD2 = 0x00;
  1989  003354  0E00               	movlw	0
  1990  003356  6F62               	movwf	98,b	;volatile
  1991                           
  1992                           ;mcc_generated_files/mcc.c: 89:     PMD3 = 0x00;
  1993  003358  0E00               	movlw	0
  1994  00335A  6F63               	movwf	99,b	;volatile
  1995                           
  1996                           ;mcc_generated_files/mcc.c: 91:     PMD4 = 0x00;
  1997  00335C  0E00               	movlw	0
  1998  00335E  6F64               	movwf	100,b	;volatile
  1999                           
  2000                           ;mcc_generated_files/mcc.c: 93:     PMD5 = 0x00;
  2001  003360  0E00               	movlw	0
  2002  003362  6F65               	movwf	101,b	;volatile
  2003                           
  2004                           ;mcc_generated_files/mcc.c: 95:     PMD6 = 0x00;
  2005  003364  0E00               	movlw	0
  2006  003366  6F66               	movwf	102,b	;volatile
  2007                           
  2008                           ;mcc_generated_files/mcc.c: 97:     PMD7 = 0x00;
  2009  003368  0E00               	movlw	0
  2010  00336A  6F67               	movwf	103,b	;volatile
  2011                           
  2012                           ;mcc_generated_files/mcc.c: 99:     PMD8 = 0x00;
  2013  00336C  0E00               	movlw	0
  2014  00336E  6F68               	movwf	104,b	;volatile
  2015  003370                     
  2016                           ; BSR set to: 0
  2017  003370  0012               	return		;funcret
  2018  003372                     __end_of_PMD_Initialize:
  2019                           	callstack 0
  2020                           
  2021 ;; *************** function _PIN_MANAGER_Initialize *****************
  2022 ;; Defined at:
  2023 ;;		line 55 in file "mcc_generated_files/pin_manager.c"
  2024 ;; Parameters:    Size  Location     Type
  2025 ;;		None
  2026 ;; Auto vars:     Size  Location     Type
  2027 ;;		None
  2028 ;; Return value:  Size  Location     Type
  2029 ;;                  1    wreg      void 
  2030 ;; Registers used:
  2031 ;;		wreg, status,2
  2032 ;; Tracked objects:
  2033 ;;		On entry : 0/0
  2034 ;;		On exit  : 0/0
  2035 ;;		Unchanged: 0/0
  2036 ;; Data sizes:     COMRAM   BANK5   BANK6   BANK7   BANK8   BANK9  BANK10  BANK11  BANK12  BANK13  BANK14  BANK15  BANK1
      +6  BANK17  BANK18  BANK19  BANK20  BANK21  BANK22  BANK23  BANK24  BANK25  BANK26  BANK27  BANK28  BANK29  BANK30  BANK3
      +1  BANK32  BANK33  BANK34  BANK35  BANK36  BANK37
  2037 ;;      Params:         0       0       0       0       0       0       0       0       0       0       0       0       
      +0       0       0       0       0       0       0       0       0       0       0       0       0       0       0       
      +0       0       0       0       0       0       0
  2038 ;;      Locals:         0       0       0       0       0       0       0       0       0       0       0       0       
      +0       0       0       0       0       0       0       0       0       0       0       0       0       0       0       
      +0       0       0       0       0       0       0
  2039 ;;      Temps:          0       0       0       0       0       0       0       0       0       0       0       0       
      +0       0       0       0       0       0       0       0       0       0       0       0       0       0       0       
      +0       0       0       0       0       0       0
  2040 ;;      Totals:         0       0       0       0       0       0       0       0       0       0       0       0       
      +0       0       0       0       0       0       0       0       0       0       0       0       0       0       0       
      +0       0       0       0       0       0       0
  2041 ;;Total ram usage:        0 bytes
  2042 ;; Hardware stack levels used: 1
  2043 ;; Hardware stack levels required when called: 4
  2044 ;; This function calls:
  2045 ;;		Nothing
  2046 ;; This function is called by:
  2047 ;;		_SYSTEM_Initialize
  2048 ;; This function uses a non-reentrant model
  2049 ;;
  2050                           
  2051                           	psect	text17
  2052  002E96                     __ptext17:
  2053                           	callstack 0
  2054  002E96                     _PIN_MANAGER_Initialize:
  2055                           	callstack 121
  2056  002E96                     
  2057                           ;mcc_generated_files/pin_manager.c: 60:     LATA = 0x00;
  2058  002E96  0E00               	movlw	0
  2059  002E98  6EBE               	movwf	190,c	;volatile
  2060                           
  2061                           ;mcc_generated_files/pin_manager.c: 61:     LATB = 0x00;
  2062  002E9A  0E00               	movlw	0
  2063  002E9C  6EBF               	movwf	191,c	;volatile
  2064                           
  2065                           ;mcc_generated_files/pin_manager.c: 62:     LATC = 0x00;
  2066  002E9E  0E00               	movlw	0
  2067  002EA0  6EC0               	movwf	192,c	;volatile
  2068                           
  2069                           ;mcc_generated_files/pin_manager.c: 67:     TRISE = 0x08;
  2070  002EA2  0E08               	movlw	8
  2071  002EA4  6ECA               	movwf	202,c	;volatile
  2072                           
  2073                           ;mcc_generated_files/pin_manager.c: 68:     TRISA = 0xEF;
  2074  002EA6  0EEF               	movlw	239
  2075  002EA8  6EC6               	movwf	198,c	;volatile
  2076                           
  2077                           ;mcc_generated_files/pin_manager.c: 69:     TRISB = 0xC9;
  2078  002EAA  0EC9               	movlw	201
  2079  002EAC  6EC7               	movwf	199,c	;volatile
  2080                           
  2081                           ;mcc_generated_files/pin_manager.c: 70:     TRISC = 0xDC;
  2082  002EAE  0EDC               	movlw	220
  2083  002EB0  6EC8               	movwf	200,c	;volatile
  2084                           
  2085                           ;mcc_generated_files/pin_manager.c: 75:     ANSELC = 0xFB;
  2086  002EB2  0EFB               	movlw	251
  2087  002EB4  0104               	movlb	4	; () banked
  2088  002EB6  6F10               	movwf	16,b	;volatile
  2089                           
  2090                           ;mcc_generated_files/pin_manager.c: 76:     ANSELB = 0x77;
  2091  002EB8  0E77               	movlw	119
  2092  002EBA  6F08               	movwf	8,b	;volatile
  2093                           
  2094                           ;mcc_generated_files/pin_manager.c: 77:     ANSELA = 0xDF;
  2095  002EBC  0EDF               	movlw	223
  2096  002EBE  6F00               	movwf	0,b	;volatile
  2097                           
  2098                           ;mcc_generated_files/pin_manager.c: 82:     WPUE = 0x00;
  2099  002EC0  0E00               	movlw	0
  2100  002EC2  6F21               	movwf	33,b	;volatile
  2101                           
  2102                           ;mcc_generated_files/pin_manager.c: 83:     WPUB = 0x00;
  2103  002EC4  0E00               	movlw	0
  2104  002EC6  6F09               	movwf	9,b	;volatile
  2105                           
  2106                           ;mcc_generated_files/pin_manager.c: 84:     WPUA = 0x00;
  2107  002EC8  0E00               	movlw	0
  2108  002ECA  6F01               	movwf	1,b	;volatile
  2109                           
  2110                           ;mcc_generated_files/pin_manager.c: 85:     WPUC = 0x00;
  2111  002ECC  0E00               	movlw	0
  2112  002ECE  6F11               	movwf	17,b	;volatile
  2113                           
  2114                           ;mcc_generated_files/pin_manager.c: 90:     ODCONA = 0x00;
  2115  002ED0  0E00               	movlw	0
  2116  002ED2  6F02               	movwf	2,b	;volatile
  2117                           
  2118                           ;mcc_generated_files/pin_manager.c: 91:     ODCONB = 0x00;
  2119  002ED4  0E00               	movlw	0
  2120  002ED6  6F0A               	movwf	10,b	;volatile
  2121                           
  2122                           ;mcc_generated_files/pin_manager.c: 92:     ODCONC = 0x10;
  2123  002ED8  0E10               	movlw	16
  2124  002EDA  6F12               	movwf	18,b	;volatile
  2125  002EDC                     
  2126                           ; BSR set to: 4
  2127                           ;mcc_generated_files/pin_manager.c: 97:     SLRCONA = 0xFF;
  2128  002EDC  6903               	setf	3,b	;volatile
  2129  002EDE                     
  2130                           ; BSR set to: 4
  2131                           ;mcc_generated_files/pin_manager.c: 98:     SLRCONB = 0xFF;
  2132  002EDE  690B               	setf	11,b	;volatile
  2133  002EE0                     
  2134                           ; BSR set to: 4
  2135                           ;mcc_generated_files/pin_manager.c: 99:     SLRCONC = 0xFF;
  2136  002EE0  6913               	setf	19,b	;volatile
  2137  002EE2                     
  2138                           ; BSR set to: 4
  2139                           ;mcc_generated_files/pin_manager.c: 104:     INLVLA = 0xFF;
  2140  002EE2  6904               	setf	4,b	;volatile
  2141  002EE4                     
  2142                           ; BSR set to: 4
  2143                           ;mcc_generated_files/pin_manager.c: 105:     INLVLB = 0xFF;
  2144  002EE4  690C               	setf	12,b	;volatile
  2145  002EE6                     
  2146                           ; BSR set to: 4
  2147                           ;mcc_generated_files/pin_manager.c: 106:     INLVLC = 0xFF;
  2148  002EE6  6914               	setf	20,b	;volatile
  2149                           
  2150                           ;mcc_generated_files/pin_manager.c: 107:     INLVLE = 0x08;
  2151  002EE8  0E08               	movlw	8
  2152  002EEA  6F24               	movwf	36,b	;volatile
  2153                           
  2154                           ;mcc_generated_files/pin_manager.c: 116:     RC0PPS = 0x18;
  2155  002EEC  0E18               	movlw	24
  2156  002EEE  0102               	movlb	2	; () banked
  2157  002EF0  6F11               	movwf	17,b	;volatile
  2158                           
  2159                           ;mcc_generated_files/pin_manager.c: 117:     ADACTPPS = 0x0F;
  2160  002EF2  0E0F               	movlw	15
  2161  002EF4  6F69               	movwf	105,b	;volatile
  2162                           
  2163                           ;mcc_generated_files/pin_manager.c: 118:     INT0PPS = 0x05;
  2164  002EF6  0E05               	movlw	5
  2165  002EF8  6F3E               	movwf	62,b	;volatile
  2166                           
  2167                           ;mcc_generated_files/pin_manager.c: 119:     RC1PPS = 0x1A;
  2168  002EFA  0E1A               	movlw	26
  2169  002EFC  6F12               	movwf	18,b	;volatile
  2170                           
  2171                           ;mcc_generated_files/pin_manager.c: 120:     CANRXPPS = 0x0B;
  2172  002EFE  0E0B               	movlw	11
  2173  002F00  6F3D               	movwf	61,b	;volatile
  2174                           
  2175                           ;mcc_generated_files/pin_manager.c: 121:     RB4PPS = 0x46;
  2176  002F02  0E46               	movlw	70
  2177  002F04  6F0D               	movwf	13,b	;volatile
  2178  002F06                     
  2179                           ; BSR set to: 2
  2180  002F06  0012               	return		;funcret
  2181  002F08                     __end_of_PIN_MANAGER_Initialize:
  2182                           	callstack 0
  2183                           
  2184 ;; *************** function _OSCILLATOR_Initialize *****************
  2185 ;; Defined at:
  2186 ;;		line 66 in file "mcc_generated_files/mcc.c"
  2187 ;; Parameters:    Size  Location     Type
  2188 ;;		None
  2189 ;; Auto vars:     Size  Location     Type
  2190 ;;		None
  2191 ;; Return value:  Size  Location     Type
  2192 ;;                  1    wreg      void 
  2193 ;; Registers used:
  2194 ;;		wreg, status,2
  2195 ;; Tracked objects:
  2196 ;;		On entry : 0/0
  2197 ;;		On exit  : 0/0
  2198 ;;		Unchanged: 0/0
  2199 ;; Data sizes:     COMRAM   BANK5   BANK6   BANK7   BANK8   BANK9  BANK10  BANK11  BANK12  BANK13  BANK14  BANK15  BANK1
      +6  BANK17  BANK18  BANK19  BANK20  BANK21  BANK22  BANK23  BANK24  BANK25  BANK26  BANK27  BANK28  BANK29  BANK30  BANK3
      +1  BANK32  BANK33  BANK34  BANK35  BANK36  BANK37
  2200 ;;      Params:         0       0       0       0       0       0       0       0       0       0       0       0       
      +0       0       0       0       0       0       0       0       0       0       0       0       0       0       0       
      +0       0       0       0       0       0       0
  2201 ;;      Locals:         0       0       0       0       0       0       0       0       0       0       0       0       
      +0       0       0       0       0       0       0       0       0       0       0       0       0       0       0       
      +0       0       0       0       0       0       0
  2202 ;;      Temps:          0       0       0       0       0       0       0       0       0       0       0       0       
      +0       0       0       0       0       0       0       0       0       0       0       0       0       0       0       
      +0       0       0       0       0       0       0
  2203 ;;      Totals:         0       0       0       0       0       0       0       0       0       0       0       0       
      +0       0       0       0       0       0       0       0       0       0       0       0       0       0       0       
      +0       0       0       0       0       0       0
  2204 ;;Total ram usage:        0 bytes
  2205 ;; Hardware stack levels used: 1
  2206 ;; Hardware stack levels required when called: 4
  2207 ;; This function calls:
  2208 ;;		Nothing
  2209 ;; This function is called by:
  2210 ;;		_SYSTEM_Initialize
  2211 ;; This function uses a non-reentrant model
  2212 ;;
  2213                           
  2214                           	psect	text18
  2215  0033E0                     __ptext18:
  2216                           	callstack 0
  2217  0033E0                     _OSCILLATOR_Initialize:
  2218                           	callstack 121
  2219  0033E0                     
  2220                           ;mcc_generated_files/mcc.c: 69:     OSCCON1 = 0x70;
  2221  0033E0  0E70               	movlw	112
  2222  0033E2  0100               	movlb	0	; () banked
  2223  0033E4  6FAD               	movwf	173,b	;volatile
  2224                           
  2225                           ;mcc_generated_files/mcc.c: 71:     OSCCON3 = 0x00;
  2226  0033E6  0E00               	movlw	0
  2227  0033E8  6FAF               	movwf	175,b	;volatile
  2228                           
  2229                           ;mcc_generated_files/mcc.c: 73:     OSCEN = 0x00;
  2230  0033EA  0E00               	movlw	0
  2231  0033EC  6FB3               	movwf	179,b	;volatile
  2232                           
  2233                           ;mcc_generated_files/mcc.c: 75:     OSCFRQ = 0x02;
  2234  0033EE  0E02               	movlw	2
  2235  0033F0  6FB1               	movwf	177,b	;volatile
  2236                           
  2237                           ;mcc_generated_files/mcc.c: 77:     OSCTUNE = 0x00;
  2238  0033F2  0E00               	movlw	0
  2239  0033F4  6FB0               	movwf	176,b	;volatile
  2240  0033F6                     
  2241                           ; BSR set to: 0
  2242  0033F6  0012               	return		;funcret
  2243  0033F8                     __end_of_OSCILLATOR_Initialize:
  2244                           	callstack 0
  2245                           
  2246 ;; *************** function _INTERRUPT_Initialize *****************
  2247 ;; Defined at:
  2248 ;;		line 52 in file "mcc_generated_files/interrupt_manager.c"
  2249 ;; Parameters:    Size  Location     Type
  2250 ;;		None
  2251 ;; Auto vars:     Size  Location     Type
  2252 ;;		None
  2253 ;; Return value:  Size  Location     Type
  2254 ;;                  1    wreg      void 
  2255 ;; Registers used:
  2256 ;;		None
  2257 ;; Tracked objects:
  2258 ;;		On entry : 0/0
  2259 ;;		On exit  : 0/0
  2260 ;;		Unchanged: 0/0
  2261 ;; Data sizes:     COMRAM   BANK5   BANK6   BANK7   BANK8   BANK9  BANK10  BANK11  BANK12  BANK13  BANK14  BANK15  BANK1
      +6  BANK17  BANK18  BANK19  BANK20  BANK21  BANK22  BANK23  BANK24  BANK25  BANK26  BANK27  BANK28  BANK29  BANK30  BANK3
      +1  BANK32  BANK33  BANK34  BANK35  BANK36  BANK37
  2262 ;;      Params:         0       0       0       0       0       0       0       0       0       0       0       0       
      +0       0       0       0       0       0       0       0       0       0       0       0       0       0       0       
      +0       0       0       0       0       0       0
  2263 ;;      Locals:         0       0       0       0       0       0       0       0       0       0       0       0       
      +0       0       0       0       0       0       0       0       0       0       0       0       0       0       0       
      +0       0       0       0       0       0       0
  2264 ;;      Temps:          0       0       0       0       0       0       0       0       0       0       0       0       
      +0       0       0       0       0       0       0       0       0       0       0       0       0       0       0       
      +0       0       0       0       0       0       0
  2265 ;;      Totals:         0       0       0       0       0       0       0       0       0       0       0       0       
      +0       0       0       0       0       0       0       0       0       0       0       0       0       0       0       
      +0       0       0       0       0       0       0
  2266 ;;Total ram usage:        0 bytes
  2267 ;; Hardware stack levels used: 1
  2268 ;; Hardware stack levels required when called: 4
  2269 ;; This function calls:
  2270 ;;		Nothing
  2271 ;; This function is called by:
  2272 ;;		_SYSTEM_Initialize
  2273 ;; This function uses a non-reentrant model
  2274 ;;
  2275                           
  2276                           	psect	text19
  2277  003538                     __ptext19:
  2278                           	callstack 0
  2279  003538                     _INTERRUPT_Initialize:
  2280                           	callstack 121
  2281  003538                     
  2282                           ;mcc_generated_files/interrupt_manager.c: 55:     INTCON0bits.IPEN = 0;
  2283  003538  9AD6               	bcf	214,5,c	;volatile
  2284  00353A  0012               	return		;funcret
  2285  00353C                     __end_of_INTERRUPT_Initialize:
  2286                           	callstack 0
  2287                           
  2288 ;; *************** function _EXT_INT_Initialize *****************
  2289 ;; Defined at:
  2290 ;;		line 59 in file "mcc_generated_files/ext_int.c"
  2291 ;; Parameters:    Size  Location     Type
  2292 ;;		None
  2293 ;; Auto vars:     Size  Location     Type
  2294 ;;		None
  2295 ;; Return value:  Size  Location     Type
  2296 ;;                  1    wreg      void 
  2297 ;; Registers used:
  2298 ;;		wreg, status,2, status,0, cstack
  2299 ;; Tracked objects:
  2300 ;;		On entry : 0/0
  2301 ;;		On exit  : 0/0
  2302 ;;		Unchanged: 0/0
  2303 ;; Data sizes:     COMRAM   BANK5   BANK6   BANK7   BANK8   BANK9  BANK10  BANK11  BANK12  BANK13  BANK14  BANK15  BANK1
      +6  BANK17  BANK18  BANK19  BANK20  BANK21  BANK22  BANK23  BANK24  BANK25  BANK26  BANK27  BANK28  BANK29  BANK30  BANK3
      +1  BANK32  BANK33  BANK34  BANK35  BANK36  BANK37
  2304 ;;      Params:         0       0       0       0       0       0       0       0       0       0       0       0       
      +0       0       0       0       0       0       0       0       0       0       0       0       0       0       0       
      +0       0       0       0       0       0       0
  2305 ;;      Locals:         0       0       0       0       0       0       0       0       0       0       0       0       
      +0       0       0       0       0       0       0       0       0       0       0       0       0       0       0       
      +0       0       0       0       0       0       0
  2306 ;;      Temps:          0       0       0       0       0       0       0       0       0       0       0       0       
      +0       0       0       0       0       0       0       0       0       0       0       0       0       0       0       
      +0       0       0       0       0       0       0
  2307 ;;      Totals:         0       0       0       0       0       0       0       0       0       0       0       0       
      +0       0       0       0       0       0       0       0       0       0       0       0       0       0       0       
      +0       0       0       0       0       0       0
  2308 ;;Total ram usage:        0 bytes
  2309 ;; Hardware stack levels used: 1
  2310 ;; Hardware stack levels required when called: 5
  2311 ;; This function calls:
  2312 ;;		_INT0_SetInterruptHandler
  2313 ;; This function is called by:
  2314 ;;		_SYSTEM_Initialize
  2315 ;; This function uses a non-reentrant model
  2316 ;;
  2317                           
  2318                           	psect	text20
  2319  003410                     __ptext20:
  2320                           	callstack 0
  2321  003410                     _EXT_INT_Initialize:
  2322                           	callstack 120
  2323  003410                     
  2324                           ;mcc_generated_files/ext_int.c: 64:     (PIR1bits.INT0IF = 0);
  2325  003410  90AF               	bcf	175,0,c	;volatile
  2326                           
  2327                           ;mcc_generated_files/ext_int.c: 65:     (INTCON0bits.INT0EDG = 1);
  2328  003412  80D6               	bsf	214,0,c	;volatile
  2329  003414                     
  2330                           ;mcc_generated_files/ext_int.c: 67:     INT0_SetInterruptHandler(INT0_DefaultInterruptHa
      +                          ndler);
  2331  003414  0E42               	movlw	low _INT0_DefaultInterruptHandler
  2332  003416  6E03               	movwf	INT0_SetInterruptHandler@InterruptHandler^(0+1280),c
  2333  003418  0E35               	movlw	high _INT0_DefaultInterruptHandler
  2334  00341A  6E04               	movwf	(INT0_SetInterruptHandler@InterruptHandler+1)^(0+1280),c
  2335  00341C  EC5D  F01A         	call	_INT0_SetInterruptHandler	;wreg free
  2336  003420                     
  2337                           ;mcc_generated_files/ext_int.c: 68:     (PIE1bits.INT0IE = 1);
  2338  003420  809F               	bsf	159,0,c	;volatile
  2339  003422  0012               	return		;funcret
  2340  003424                     __end_of_EXT_INT_Initialize:
  2341                           	callstack 0
  2342                           
  2343 ;; *************** function _INT0_SetInterruptHandler *****************
  2344 ;; Defined at:
  2345 ;;		line 50 in file "mcc_generated_files/ext_int.c"
  2346 ;; Parameters:    Size  Location     Type
  2347 ;;  InterruptHan    2    2[COMRAM] PTR FTN()void 
  2348 ;;		 -> INT0_DefaultInterruptHandler(1), 
  2349 ;; Auto vars:     Size  Location     Type
  2350 ;;		None
  2351 ;; Return value:  Size  Location     Type
  2352 ;;                  1    wreg      void 
  2353 ;; Registers used:
  2354 ;;		wreg, status,2, status,0
  2355 ;; Tracked objects:
  2356 ;;		On entry : 0/0
  2357 ;;		On exit  : 0/0
  2358 ;;		Unchanged: 0/0
  2359 ;; Data sizes:     COMRAM   BANK5   BANK6   BANK7   BANK8   BANK9  BANK10  BANK11  BANK12  BANK13  BANK14  BANK15  BANK1
      +6  BANK17  BANK18  BANK19  BANK20  BANK21  BANK22  BANK23  BANK24  BANK25  BANK26  BANK27  BANK28  BANK29  BANK30  BANK3
      +1  BANK32  BANK33  BANK34  BANK35  BANK36  BANK37
  2360 ;;      Params:         2       0       0       0       0       0       0       0       0       0       0       0       
      +0       0       0       0       0       0       0       0       0       0       0       0       0       0       0       
      +0       0       0       0       0       0       0
  2361 ;;      Locals:         0       0       0       0       0       0       0       0       0       0       0       0       
      +0       0       0       0       0       0       0       0       0       0       0       0       0       0       0       
      +0       0       0       0       0       0       0
  2362 ;;      Temps:          0       0       0       0       0       0       0       0       0       0       0       0       
      +0       0       0       0       0       0       0       0       0       0       0       0       0       0       0       
      +0       0       0       0       0       0       0
  2363 ;;      Totals:         2       0       0       0       0       0       0       0       0       0       0       0       
      +0       0       0       0       0       0       0       0       0       0       0       0       0       0       0       
      +0       0       0       0       0       0       0
  2364 ;;Total ram usage:        2 bytes
  2365 ;; Hardware stack levels used: 1
  2366 ;; Hardware stack levels required when called: 4
  2367 ;; This function calls:
  2368 ;;		Nothing
  2369 ;; This function is called by:
  2370 ;;		_EXT_INT_Initialize
  2371 ;; This function uses a non-reentrant model
  2372 ;;
  2373                           
  2374                           	psect	text21
  2375  0034BA                     __ptext21:
  2376                           	callstack 0
  2377  0034BA                     _INT0_SetInterruptHandler:
  2378                           	callstack 120
  2379  0034BA                     
  2380                           ;mcc_generated_files/ext_int.c: 51:     INT0_InterruptHandler = InterruptHandler;
  2381  0034BA  C503  F556         	movff	INT0_SetInterruptHandler@InterruptHandler,_INT0_InterruptHandler
  2382  0034BE  C504  F557         	movff	INT0_SetInterruptHandler@InterruptHandler+1,_INT0_InterruptHandler+1
  2383  0034C2  0012               	return		;funcret
  2384  0034C4                     __end_of_INT0_SetInterruptHandler:
  2385                           	callstack 0
  2386                           
  2387 ;; *************** function _CAN1_Initialize *****************
  2388 ;; Defined at:
  2389 ;;		line 174 in file "mcc_generated_files/can1.c"
  2390 ;; Parameters:    Size  Location     Type
  2391 ;;		None
  2392 ;; Auto vars:     Size  Location     Type
  2393 ;;		None
  2394 ;; Return value:  Size  Location     Type
  2395 ;;                  1    wreg      void 
  2396 ;; Registers used:
  2397 ;;		wreg, status,2, status,0, cstack
  2398 ;; Tracked objects:
  2399 ;;		On entry : 0/0
  2400 ;;		On exit  : 0/0
  2401 ;;		Unchanged: 0/0
  2402 ;; Data sizes:     COMRAM   BANK5   BANK6   BANK7   BANK8   BANK9  BANK10  BANK11  BANK12  BANK13  BANK14  BANK15  BANK1
      +6  BANK17  BANK18  BANK19  BANK20  BANK21  BANK22  BANK23  BANK24  BANK25  BANK26  BANK27  BANK28  BANK29  BANK30  BANK3
      +1  BANK32  BANK33  BANK34  BANK35  BANK36  BANK37
  2403 ;;      Params:         0       0       0       0       0       0       0       0       0       0       0       0       
      +0       0       0       0       0       0       0       0       0       0       0       0       0       0       0       
      +0       0       0       0       0       0       0
  2404 ;;      Locals:         0       0       0       0       0       0       0       0       0       0       0       0       
      +0       0       0       0       0       0       0       0       0       0       0       0       0       0       0       
      +0       0       0       0       0       0       0
  2405 ;;      Temps:          0       0       0       0       0       0       0       0       0       0       0       0       
      +0       0       0       0       0       0       0       0       0       0       0       0       0       0       0       
      +0       0       0       0       0       0       0
  2406 ;;      Totals:         0       0       0       0       0       0       0       0       0       0       0       0       
      +0       0       0       0       0       0       0       0       0       0       0       0       0       0       0       
      +0       0       0       0       0       0       0
  2407 ;;Total ram usage:        0 bytes
  2408 ;; Hardware stack levels used: 1
  2409 ;; Hardware stack levels required when called: 6
  2410 ;; This function calls:
  2411 ;;		_CAN1_BitRateConfiguration
  2412 ;;		_CAN1_ErrorNotificationInterruptEnable
  2413 ;;		_CAN1_OperationModeSet
  2414 ;;		_CAN1_TX_FIFO_Configuration
  2415 ;; This function is called by:
  2416 ;;		_SYSTEM_Initialize
  2417 ;; This function uses a non-reentrant model
  2418 ;;
  2419                           
  2420                           	psect	text22
  2421  00309E                     __ptext22:
  2422                           	callstack 0
  2423  00309E                     _CAN1_Initialize:
  2424                           	callstack 119
  2425  00309E                     
  2426                           ;mcc_generated_files/can1.c: 177:     C1CONHbits.ON = 1;
  2427  00309E  0101               	movlb	1	; () banked
  2428  0030A0  8F01               	bsf	1,7,b	;volatile
  2429  0030A2                     
  2430                           ; BSR set to: 1
  2431                           ;mcc_generated_files/can1.c: 179:     if (CAN_OP_MODE_REQUEST_SUCCESS == CAN1_OperationM
      +                          odeSet(CAN_CONFIGURATION_MODE))
  2432  0030A2  0E04               	movlw	4
  2433  0030A4  EC07  F017         	call	_CAN1_OperationModeSet
  2434  0030A8  0900               	iorlw	0
  2435  0030AA  A4D8               	btfss	status,2,c
  2436  0030AC  EF5A  F018         	goto	u1891
  2437  0030B0  EF5C  F018         	goto	u1890
  2438  0030B4                     u1891:
  2439  0030B4  EF74  F018         	goto	l692
  2440  0030B8                     u1890:
  2441  0030B8                     
  2442                           ;mcc_generated_files/can1.c: 180:     {;mcc_generated_files/can1.c: 182:         C1FIFOB
      +                          A = 0x3800;
  2443  0030B8  0E00               	movlw	0
  2444  0030BA  0101               	movlb	1	; () banked
  2445  0030BC  6F4C               	movwf	76,b	;volatile
  2446  0030BE  0E38               	movlw	56
  2447  0030C0  6F4D               	movwf	77,b	;volatile
  2448  0030C2  0E00               	movlw	0
  2449  0030C4  6F4E               	movwf	78,b	;volatile
  2450  0030C6  0E00               	movlw	0
  2451  0030C8  6F4F               	movwf	79,b	;volatile
  2452                           
  2453                           ;mcc_generated_files/can1.c: 185:         C1CONL = 0x60;
  2454  0030CA  0E60               	movlw	96
  2455  0030CC  6F00               	movwf	0,b	;volatile
  2456                           
  2457                           ;mcc_generated_files/can1.c: 188:         C1CONH = 0x97;
  2458  0030CE  0E97               	movlw	151
  2459  0030D0  6F01               	movwf	1,b	;volatile
  2460                           
  2461                           ;mcc_generated_files/can1.c: 191:         C1CONU = 0x10;
  2462  0030D2  0E10               	movlw	16
  2463  0030D4  6F02               	movwf	2,b	;volatile
  2464  0030D6                     
  2465                           ; BSR set to: 1
  2466                           ;mcc_generated_files/can1.c: 193:         CAN1_BitRateConfiguration();
  2467  0030D6  EC1C  F01A         	call	_CAN1_BitRateConfiguration	;wreg free
  2468  0030DA                     
  2469                           ;mcc_generated_files/can1.c: 194:         CAN1_TX_FIFO_Configuration();
  2470  0030DA  EC12  F01A         	call	_CAN1_TX_FIFO_Configuration	;wreg free
  2471  0030DE                     
  2472                           ;mcc_generated_files/can1.c: 195:         CAN1_ErrorNotificationInterruptEnable();
  2473  0030DE  ECF2  F017         	call	_CAN1_ErrorNotificationInterruptEnable	;wreg free
  2474  0030E2                     
  2475                           ;mcc_generated_files/can1.c: 196:         CAN1_OperationModeSet(CAN_NORMAL_2_0_MODE);
  2476  0030E2  0E06               	movlw	6
  2477  0030E4  EC07  F017         	call	_CAN1_OperationModeSet
  2478  0030E8                     l692:
  2479  0030E8  0012               	return		;funcret
  2480  0030EA                     __end_of_CAN1_Initialize:
  2481                           	callstack 0
  2482                           
  2483 ;; *************** function _CAN1_TX_FIFO_Configuration *****************
  2484 ;; Defined at:
  2485 ;;		line 117 in file "mcc_generated_files/can1.c"
  2486 ;; Parameters:    Size  Location     Type
  2487 ;;		None
  2488 ;; Auto vars:     Size  Location     Type
  2489 ;;		None
  2490 ;; Return value:  Size  Location     Type
  2491 ;;                  1    wreg      void 
  2492 ;; Registers used:
  2493 ;;		wreg, status,2
  2494 ;; Tracked objects:
  2495 ;;		On entry : 0/0
  2496 ;;		On exit  : 0/0
  2497 ;;		Unchanged: 0/0
  2498 ;; Data sizes:     COMRAM   BANK5   BANK6   BANK7   BANK8   BANK9  BANK10  BANK11  BANK12  BANK13  BANK14  BANK15  BANK1
      +6  BANK17  BANK18  BANK19  BANK20  BANK21  BANK22  BANK23  BANK24  BANK25  BANK26  BANK27  BANK28  BANK29  BANK30  BANK3
      +1  BANK32  BANK33  BANK34  BANK35  BANK36  BANK37
  2499 ;;      Params:         0       0       0       0       0       0       0       0       0       0       0       0       
      +0       0       0       0       0       0       0       0       0       0       0       0       0       0       0       
      +0       0       0       0       0       0       0
  2500 ;;      Locals:         0       0       0       0       0       0       0       0       0       0       0       0       
      +0       0       0       0       0       0       0       0       0       0       0       0       0       0       0       
      +0       0       0       0       0       0       0
  2501 ;;      Temps:          0       0       0       0       0       0       0       0       0       0       0       0       
      +0       0       0       0       0       0       0       0       0       0       0       0       0       0       0       
      +0       0       0       0       0       0       0
  2502 ;;      Totals:         0       0       0       0       0       0       0       0       0       0       0       0       
      +0       0       0       0       0       0       0       0       0       0       0       0       0       0       0       
      +0       0       0       0       0       0       0
  2503 ;;Total ram usage:        0 bytes
  2504 ;; Hardware stack levels used: 1
  2505 ;; Hardware stack levels required when called: 4
  2506 ;; This function calls:
  2507 ;;		Nothing
  2508 ;; This function is called by:
  2509 ;;		_CAN1_Initialize
  2510 ;; This function uses a non-reentrant model
  2511 ;;
  2512                           
  2513                           	psect	text23
  2514  003424                     __ptext23:
  2515                           	callstack 0
  2516  003424                     _CAN1_TX_FIFO_Configuration:
  2517                           	callstack 120
  2518  003424                     
  2519                           ;mcc_generated_files/can1.c: 120:     C1TXQCONL = 0x10;
  2520  003424  0E10               	movlw	16
  2521  003426  0101               	movlb	1	; () banked
  2522  003428  6F50               	movwf	80,b	;volatile
  2523                           
  2524                           ;mcc_generated_files/can1.c: 123:     C1TXQCONH = 0x04;
  2525  00342A  0E04               	movlw	4
  2526  00342C  6F51               	movwf	81,b	;volatile
  2527                           
  2528                           ;mcc_generated_files/can1.c: 126:     C1TXQCONU = 0x60;
  2529  00342E  0E60               	movlw	96
  2530  003430  6F52               	movwf	82,b	;volatile
  2531                           
  2532                           ;mcc_generated_files/can1.c: 129:     C1TXQCONT = 0x05;
  2533  003432  0E05               	movlw	5
  2534  003434  6F53               	movwf	83,b	;volatile
  2535  003436                     
  2536                           ; BSR set to: 1
  2537  003436  0012               	return		;funcret
  2538  003438                     __end_of_CAN1_TX_FIFO_Configuration:
  2539                           	callstack 0
  2540                           
  2541 ;; *************** function _CAN1_ErrorNotificationInterruptEnable *****************
  2542 ;; Defined at:
  2543 ;;		line 149 in file "mcc_generated_files/can1.c"
  2544 ;; Parameters:    Size  Location     Type
  2545 ;;		None
  2546 ;; Auto vars:     Size  Location     Type
  2547 ;;		None
  2548 ;; Return value:  Size  Location     Type
  2549 ;;                  1    wreg      void 
  2550 ;; Registers used:
  2551 ;;		wreg, status,2, status,0, cstack
  2552 ;; Tracked objects:
  2553 ;;		On entry : 0/0
  2554 ;;		On exit  : 0/0
  2555 ;;		Unchanged: 0/0
  2556 ;; Data sizes:     COMRAM   BANK5   BANK6   BANK7   BANK8   BANK9  BANK10  BANK11  BANK12  BANK13  BANK14  BANK15  BANK1
      +6  BANK17  BANK18  BANK19  BANK20  BANK21  BANK22  BANK23  BANK24  BANK25  BANK26  BANK27  BANK28  BANK29  BANK30  BANK3
      +1  BANK32  BANK33  BANK34  BANK35  BANK36  BANK37
  2557 ;;      Params:         0       0       0       0       0       0       0       0       0       0       0       0       
      +0       0       0       0       0       0       0       0       0       0       0       0       0       0       0       
      +0       0       0       0       0       0       0
  2558 ;;      Locals:         0       0       0       0       0       0       0       0       0       0       0       0       
      +0       0       0       0       0       0       0       0       0       0       0       0       0       0       0       
      +0       0       0       0       0       0       0
  2559 ;;      Temps:          0       0       0       0       0       0       0       0       0       0       0       0       
      +0       0       0       0       0       0       0       0       0       0       0       0       0       0       0       
      +0       0       0       0       0       0       0
  2560 ;;      Totals:         0       0       0       0       0       0       0       0       0       0       0       0       
      +0       0       0       0       0       0       0       0       0       0       0       0       0       0       0       
      +0       0       0       0       0       0       0
  2561 ;;Total ram usage:        0 bytes
  2562 ;; Hardware stack levels used: 1
  2563 ;; Hardware stack levels required when called: 5
  2564 ;; This function calls:
  2565 ;;		_CAN1_SetBusErrorInterruptHandler
  2566 ;;		_CAN1_SetBusWakeUpActivityInterruptHandler
  2567 ;;		_CAN1_SetInvalidMessageInterruptHandler
  2568 ;;		_CAN1_SetModeChangeInterruptHandler
  2569 ;;		_CAN1_SetSystemErrorInterruptHandler
  2570 ;;		_CAN1_SetTxAttemptInterruptHandler
  2571 ;; This function is called by:
  2572 ;;		_CAN1_Initialize
  2573 ;; This function uses a non-reentrant model
  2574 ;;
  2575                           
  2576                           	psect	text24
  2577  002FE4                     __ptext24:
  2578                           	callstack 0
  2579  002FE4                     _CAN1_ErrorNotificationInterruptEnable:
  2580                           	callstack 119
  2581  002FE4                     
  2582                           ;mcc_generated_files/can1.c: 151:     CAN1_SetInvalidMessageInterruptHandler(DefaultInva
      +                          lidMessageHandler);
  2583  002FE4  0E4A               	movlw	low _DefaultInvalidMessageHandler
  2584  002FE6  6E03               	movwf	CAN1_SetInvalidMessageInterruptHandler@handler^(0+1280),c
  2585  002FE8  0E35               	movlw	high _DefaultInvalidMessageHandler
  2586  002FEA  6E04               	movwf	(CAN1_SetInvalidMessageInterruptHandler@handler+1)^(0+1280),c
  2587  002FEC  EC71  F01A         	call	_CAN1_SetInvalidMessageInterruptHandler	;wreg free
  2588                           
  2589                           ;mcc_generated_files/can1.c: 152:     CAN1_SetBusWakeUpActivityInterruptHandler(DefaultB
      +                          usWakeUpActivityHandler);
  2590  002FF0  0E4C               	movlw	low _DefaultBusWakeUpActivityHandler
  2591  002FF2  6E03               	movwf	CAN1_SetBusWakeUpActivityInterruptHandler@handler^(0+1280),c
  2592  002FF4  0E35               	movlw	high _DefaultBusWakeUpActivityHandler
  2593  002FF6  6E04               	movwf	(CAN1_SetBusWakeUpActivityInterruptHandler@handler+1)^(0+1280),c
  2594  002FF8  EC76  F01A         	call	_CAN1_SetBusWakeUpActivityInterruptHandler	;wreg free
  2595                           
  2596                           ;mcc_generated_files/can1.c: 153:     CAN1_SetBusErrorInterruptHandler(DefaultBusErrorHa
      +                          ndler);
  2597  002FFC  0E4E               	movlw	low _DefaultBusErrorHandler
  2598  002FFE  6E03               	movwf	CAN1_SetBusErrorInterruptHandler@handler^(0+1280),c
  2599  003000  0E35               	movlw	high _DefaultBusErrorHandler
  2600  003002  6E04               	movwf	(CAN1_SetBusErrorInterruptHandler@handler+1)^(0+1280),c
  2601  003004  EC7B  F01A         	call	_CAN1_SetBusErrorInterruptHandler	;wreg free
  2602                           
  2603                           ;mcc_generated_files/can1.c: 154:     CAN1_SetModeChangeInterruptHandler(DefaultModeChan
      +                          geHandler);
  2604  003008  0E48               	movlw	low _DefaultModeChangeHandler
  2605  00300A  6E03               	movwf	CAN1_SetModeChangeInterruptHandler@handler^(0+1280),c
  2606  00300C  0E35               	movlw	high _DefaultModeChangeHandler
  2607  00300E  6E04               	movwf	(CAN1_SetModeChangeInterruptHandler@handler+1)^(0+1280),c
  2608  003010  EC6C  F01A         	call	_CAN1_SetModeChangeInterruptHandler	;wreg free
  2609                           
  2610                           ;mcc_generated_files/can1.c: 155:     CAN1_SetSystemErrorInterruptHandler(DefaultSystemE
      +                          rrorHandler);
  2611  003014  0E46               	movlw	low _DefaultSystemErrorHandler
  2612  003016  6E03               	movwf	CAN1_SetSystemErrorInterruptHandler@handler^(0+1280),c
  2613  003018  0E35               	movlw	high _DefaultSystemErrorHandler
  2614  00301A  6E04               	movwf	(CAN1_SetSystemErrorInterruptHandler@handler+1)^(0+1280),c
  2615  00301C  EC67  F01A         	call	_CAN1_SetSystemErrorInterruptHandler	;wreg free
  2616                           
  2617                           ;mcc_generated_files/can1.c: 156:     CAN1_SetTxAttemptInterruptHandler(DefaultTxAttempt
      +                          Handler);
  2618  003020  0E44               	movlw	low _DefaultTxAttemptHandler
  2619  003022  6E03               	movwf	CAN1_SetTxAttemptInterruptHandler@handler^(0+1280),c
  2620  003024  0E35               	movlw	high _DefaultTxAttemptHandler
  2621  003026  6E04               	movwf	(CAN1_SetTxAttemptInterruptHandler@handler+1)^(0+1280),c
  2622  003028  EC62  F01A         	call	_CAN1_SetTxAttemptInterruptHandler	;wreg free
  2623  00302C                     
  2624                           ;mcc_generated_files/can1.c: 157:     PIR0bits.CANIF = 0;
  2625  00302C  9CAE               	bcf	174,6,c	;volatile
  2626  00302E                     
  2627                           ;mcc_generated_files/can1.c: 160:     C1INTL = 0x00;
  2628  00302E  0E00               	movlw	0
  2629  003030  0101               	movlb	1	; () banked
  2630  003032  6F1C               	movwf	28,b	;volatile
  2631  003034                     
  2632                           ; BSR set to: 1
  2633                           ;mcc_generated_files/can1.c: 163:     C1INTH = 0x00;
  2634  003034  0E00               	movlw	0
  2635  003036  6F1D               	movwf	29,b	;volatile
  2636  003038                     
  2637                           ; BSR set to: 1
  2638                           ;mcc_generated_files/can1.c: 166:     C1INTU = 0x08;
  2639  003038  0E08               	movlw	8
  2640  00303A  6F1E               	movwf	30,b	;volatile
  2641  00303C                     
  2642                           ; BSR set to: 1
  2643                           ;mcc_generated_files/can1.c: 169:     C1INTT = 0xFC;
  2644  00303C  0EFC               	movlw	252
  2645  00303E  6F1F               	movwf	31,b	;volatile
  2646  003040                     
  2647                           ; BSR set to: 1
  2648                           ;mcc_generated_files/can1.c: 171:     PIE0bits.CANIE = 1;
  2649  003040  8C9E               	bsf	158,6,c	;volatile
  2650  003042                     
  2651                           ; BSR set to: 1
  2652  003042  0012               	return		;funcret
  2653  003044                     __end_of_CAN1_ErrorNotificationInterruptEnable:
  2654                           	callstack 0
  2655                           
  2656 ;; *************** function _CAN1_SetTxAttemptInterruptHandler *****************
  2657 ;; Defined at:
  2658 ;;		line 417 in file "mcc_generated_files/can1.c"
  2659 ;; Parameters:    Size  Location     Type
  2660 ;;  handler         2    2[COMRAM] PTR FTN()void 
  2661 ;;		 -> DefaultTxAttemptHandler(1), 
  2662 ;; Auto vars:     Size  Location     Type
  2663 ;;		None
  2664 ;; Return value:  Size  Location     Type
  2665 ;;                  1    wreg      void 
  2666 ;; Registers used:
  2667 ;;		wreg, status,2, status,0
  2668 ;; Tracked objects:
  2669 ;;		On entry : 0/0
  2670 ;;		On exit  : 0/0
  2671 ;;		Unchanged: 0/0
  2672 ;; Data sizes:     COMRAM   BANK5   BANK6   BANK7   BANK8   BANK9  BANK10  BANK11  BANK12  BANK13  BANK14  BANK15  BANK1
      +6  BANK17  BANK18  BANK19  BANK20  BANK21  BANK22  BANK23  BANK24  BANK25  BANK26  BANK27  BANK28  BANK29  BANK30  BANK3
      +1  BANK32  BANK33  BANK34  BANK35  BANK36  BANK37
  2673 ;;      Params:         2       0       0       0       0       0       0       0       0       0       0       0       
      +0       0       0       0       0       0       0       0       0       0       0       0       0       0       0       
      +0       0       0       0       0       0       0
  2674 ;;      Locals:         0       0       0       0       0       0       0       0       0       0       0       0       
      +0       0       0       0       0       0       0       0       0       0       0       0       0       0       0       
      +0       0       0       0       0       0       0
  2675 ;;      Temps:          0       0       0       0       0       0       0       0       0       0       0       0       
      +0       0       0       0       0       0       0       0       0       0       0       0       0       0       0       
      +0       0       0       0       0       0       0
  2676 ;;      Totals:         2       0       0       0       0       0       0       0       0       0       0       0       
      +0       0       0       0       0       0       0       0       0       0       0       0       0       0       0       
      +0       0       0       0       0       0       0
  2677 ;;Total ram usage:        2 bytes
  2678 ;; Hardware stack levels used: 1
  2679 ;; Hardware stack levels required when called: 4
  2680 ;; This function calls:
  2681 ;;		Nothing
  2682 ;; This function is called by:
  2683 ;;		_CAN1_ErrorNotificationInterruptEnable
  2684 ;; This function uses a non-reentrant model
  2685 ;;
  2686                           
  2687                           	psect	text25
  2688  0034C4                     __ptext25:
  2689                           	callstack 0
  2690  0034C4                     _CAN1_SetTxAttemptInterruptHandler:
  2691                           	callstack 119
  2692  0034C4                     
  2693                           ;mcc_generated_files/can1.c: 417: void CAN1_SetTxAttemptInterruptHandler(void (*handler)
      +                          (void));mcc_generated_files/can1.c: 418: {;mcc_generated_files/can1.c: 419:     CAN1_TxA
      +                          ttemptHandler = handler;
  2694  0034C4  C503  F531         	movff	CAN1_SetTxAttemptInterruptHandler@handler,_CAN1_TxAttemptHandler
  2695  0034C8  C504  F532         	movff	CAN1_SetTxAttemptInterruptHandler@handler+1,_CAN1_TxAttemptHandler+1
  2696  0034CC  0012               	return		;funcret
  2697  0034CE                     __end_of_CAN1_SetTxAttemptInterruptHandler:
  2698                           	callstack 0
  2699                           
  2700 ;; *************** function _CAN1_SetSystemErrorInterruptHandler *****************
  2701 ;; Defined at:
  2702 ;;		line 412 in file "mcc_generated_files/can1.c"
  2703 ;; Parameters:    Size  Location     Type
  2704 ;;  handler         2    2[COMRAM] PTR FTN()void 
  2705 ;;		 -> DefaultSystemErrorHandler(1), 
  2706 ;; Auto vars:     Size  Location     Type
  2707 ;;		None
  2708 ;; Return value:  Size  Location     Type
  2709 ;;                  1    wreg      void 
  2710 ;; Registers used:
  2711 ;;		wreg, status,2, status,0
  2712 ;; Tracked objects:
  2713 ;;		On entry : 0/0
  2714 ;;		On exit  : 0/0
  2715 ;;		Unchanged: 0/0
  2716 ;; Data sizes:     COMRAM   BANK5   BANK6   BANK7   BANK8   BANK9  BANK10  BANK11  BANK12  BANK13  BANK14  BANK15  BANK1
      +6  BANK17  BANK18  BANK19  BANK20  BANK21  BANK22  BANK23  BANK24  BANK25  BANK26  BANK27  BANK28  BANK29  BANK30  BANK3
      +1  BANK32  BANK33  BANK34  BANK35  BANK36  BANK37
  2717 ;;      Params:         2       0       0       0       0       0       0       0       0       0       0       0       
      +0       0       0       0       0       0       0       0       0       0       0       0       0       0       0       
      +0       0       0       0       0       0       0
  2718 ;;      Locals:         0       0       0       0       0       0       0       0       0       0       0       0       
      +0       0       0       0       0       0       0       0       0       0       0       0       0       0       0       
      +0       0       0       0       0       0       0
  2719 ;;      Temps:          0       0       0       0       0       0       0       0       0       0       0       0       
      +0       0       0       0       0       0       0       0       0       0       0       0       0       0       0       
      +0       0       0       0       0       0       0
  2720 ;;      Totals:         2       0       0       0       0       0       0       0       0       0       0       0       
      +0       0       0       0       0       0       0       0       0       0       0       0       0       0       0       
      +0       0       0       0       0       0       0
  2721 ;;Total ram usage:        2 bytes
  2722 ;; Hardware stack levels used: 1
  2723 ;; Hardware stack levels required when called: 4
  2724 ;; This function calls:
  2725 ;;		Nothing
  2726 ;; This function is called by:
  2727 ;;		_CAN1_ErrorNotificationInterruptEnable
  2728 ;; This function uses a non-reentrant model
  2729 ;;
  2730                           
  2731                           	psect	text26
  2732  0034CE                     __ptext26:
  2733                           	callstack 0
  2734  0034CE                     _CAN1_SetSystemErrorInterruptHandler:
  2735                           	callstack 119
  2736  0034CE                     
  2737                           ;mcc_generated_files/can1.c: 412: void CAN1_SetSystemErrorInterruptHandler(void (*handle
      +                          r)(void));mcc_generated_files/can1.c: 413: {;mcc_generated_files/can1.c: 414:     CAN1_S
      +                          ystemErrorHandler = handler;
  2738  0034CE  C503  F533         	movff	CAN1_SetSystemErrorInterruptHandler@handler,_CAN1_SystemErrorHandler
  2739  0034D2  C504  F534         	movff	CAN1_SetSystemErrorInterruptHandler@handler+1,_CAN1_SystemErrorHandler+1
  2740  0034D6  0012               	return		;funcret
  2741  0034D8                     __end_of_CAN1_SetSystemErrorInterruptHandler:
  2742                           	callstack 0
  2743                           
  2744 ;; *************** function _CAN1_SetModeChangeInterruptHandler *****************
  2745 ;; Defined at:
  2746 ;;		line 407 in file "mcc_generated_files/can1.c"
  2747 ;; Parameters:    Size  Location     Type
  2748 ;;  handler         2    2[COMRAM] PTR FTN()void 
  2749 ;;		 -> DefaultModeChangeHandler(1), 
  2750 ;; Auto vars:     Size  Location     Type
  2751 ;;		None
  2752 ;; Return value:  Size  Location     Type
  2753 ;;                  1    wreg      void 
  2754 ;; Registers used:
  2755 ;;		wreg, status,2, status,0
  2756 ;; Tracked objects:
  2757 ;;		On entry : 0/0
  2758 ;;		On exit  : 0/0
  2759 ;;		Unchanged: 0/0
  2760 ;; Data sizes:     COMRAM   BANK5   BANK6   BANK7   BANK8   BANK9  BANK10  BANK11  BANK12  BANK13  BANK14  BANK15  BANK1
      +6  BANK17  BANK18  BANK19  BANK20  BANK21  BANK22  BANK23  BANK24  BANK25  BANK26  BANK27  BANK28  BANK29  BANK30  BANK3
      +1  BANK32  BANK33  BANK34  BANK35  BANK36  BANK37
  2761 ;;      Params:         2       0       0       0       0       0       0       0       0       0       0       0       
      +0       0       0       0       0       0       0       0       0       0       0       0       0       0       0       
      +0       0       0       0       0       0       0
  2762 ;;      Locals:         0       0       0       0       0       0       0       0       0       0       0       0       
      +0       0       0       0       0       0       0       0       0       0       0       0       0       0       0       
      +0       0       0       0       0       0       0
  2763 ;;      Temps:          0       0       0       0       0       0       0       0       0       0       0       0       
      +0       0       0       0       0       0       0       0       0       0       0       0       0       0       0       
      +0       0       0       0       0       0       0
  2764 ;;      Totals:         2       0       0       0       0       0       0       0       0       0       0       0       
      +0       0       0       0       0       0       0       0       0       0       0       0       0       0       0       
      +0       0       0       0       0       0       0
  2765 ;;Total ram usage:        2 bytes
  2766 ;; Hardware stack levels used: 1
  2767 ;; Hardware stack levels required when called: 4
  2768 ;; This function calls:
  2769 ;;		Nothing
  2770 ;; This function is called by:
  2771 ;;		_CAN1_ErrorNotificationInterruptEnable
  2772 ;; This function uses a non-reentrant model
  2773 ;;
  2774                           
  2775                           	psect	text27
  2776  0034D8                     __ptext27:
  2777                           	callstack 0
  2778  0034D8                     _CAN1_SetModeChangeInterruptHandler:
  2779                           	callstack 119
  2780  0034D8                     
  2781                           ;mcc_generated_files/can1.c: 407: void CAN1_SetModeChangeInterruptHandler(void (*handler
      +                          )(void));mcc_generated_files/can1.c: 408: {;mcc_generated_files/can1.c: 409:     CAN1_Mo
      +                          deChangeHandler = handler;
  2782  0034D8  C503  F535         	movff	CAN1_SetModeChangeInterruptHandler@handler,_CAN1_ModeChangeHandler
  2783  0034DC  C504  F536         	movff	CAN1_SetModeChangeInterruptHandler@handler+1,_CAN1_ModeChangeHandler+1
  2784  0034E0  0012               	return		;funcret
  2785  0034E2                     __end_of_CAN1_SetModeChangeInterruptHandler:
  2786                           	callstack 0
  2787                           
  2788 ;; *************** function _CAN1_SetInvalidMessageInterruptHandler *****************
  2789 ;; Defined at:
  2790 ;;		line 392 in file "mcc_generated_files/can1.c"
  2791 ;; Parameters:    Size  Location     Type
  2792 ;;  handler         2    2[COMRAM] PTR FTN()void 
  2793 ;;		 -> DefaultInvalidMessageHandler(1), 
  2794 ;; Auto vars:     Size  Location     Type
  2795 ;;		None
  2796 ;; Return value:  Size  Location     Type
  2797 ;;                  1    wreg      void 
  2798 ;; Registers used:
  2799 ;;		wreg, status,2, status,0
  2800 ;; Tracked objects:
  2801 ;;		On entry : 0/0
  2802 ;;		On exit  : 0/0
  2803 ;;		Unchanged: 0/0
  2804 ;; Data sizes:     COMRAM   BANK5   BANK6   BANK7   BANK8   BANK9  BANK10  BANK11  BANK12  BANK13  BANK14  BANK15  BANK1
      +6  BANK17  BANK18  BANK19  BANK20  BANK21  BANK22  BANK23  BANK24  BANK25  BANK26  BANK27  BANK28  BANK29  BANK30  BANK3
      +1  BANK32  BANK33  BANK34  BANK35  BANK36  BANK37
  2805 ;;      Params:         2       0       0       0       0       0       0       0       0       0       0       0       
      +0       0       0       0       0       0       0       0       0       0       0       0       0       0       0       
      +0       0       0       0       0       0       0
  2806 ;;      Locals:         0       0       0       0       0       0       0       0       0       0       0       0       
      +0       0       0       0       0       0       0       0       0       0       0       0       0       0       0       
      +0       0       0       0       0       0       0
  2807 ;;      Temps:          0       0       0       0       0       0       0       0       0       0       0       0       
      +0       0       0       0       0       0       0       0       0       0       0       0       0       0       0       
      +0       0       0       0       0       0       0
  2808 ;;      Totals:         2       0       0       0       0       0       0       0       0       0       0       0       
      +0       0       0       0       0       0       0       0       0       0       0       0       0       0       0       
      +0       0       0       0       0       0       0
  2809 ;;Total ram usage:        2 bytes
  2810 ;; Hardware stack levels used: 1
  2811 ;; Hardware stack levels required when called: 4
  2812 ;; This function calls:
  2813 ;;		Nothing
  2814 ;; This function is called by:
  2815 ;;		_CAN1_ErrorNotificationInterruptEnable
  2816 ;; This function uses a non-reentrant model
  2817 ;;
  2818                           
  2819                           	psect	text28
  2820  0034E2                     __ptext28:
  2821                           	callstack 0
  2822  0034E2                     _CAN1_SetInvalidMessageInterruptHandler:
  2823                           	callstack 119
  2824  0034E2                     
  2825                           ;mcc_generated_files/can1.c: 392: void CAN1_SetInvalidMessageInterruptHandler(void (*han
      +                          dler)(void));mcc_generated_files/can1.c: 393: {;mcc_generated_files/can1.c: 394:     CAN
      +                          1_InvalidMessageHandler = handler;
  2826  0034E2  C503  F53B         	movff	CAN1_SetInvalidMessageInterruptHandler@handler,_CAN1_InvalidMessageHandler
  2827  0034E6  C504  F53C         	movff	CAN1_SetInvalidMessageInterruptHandler@handler+1,_CAN1_InvalidMessageHandler+1
  2828  0034EA  0012               	return		;funcret
  2829  0034EC                     __end_of_CAN1_SetInvalidMessageInterruptHandler:
  2830                           	callstack 0
  2831                           
  2832 ;; *************** function _CAN1_SetBusWakeUpActivityInterruptHandler *****************
  2833 ;; Defined at:
  2834 ;;		line 397 in file "mcc_generated_files/can1.c"
  2835 ;; Parameters:    Size  Location     Type
  2836 ;;  handler         2    2[COMRAM] PTR FTN()void 
  2837 ;;		 -> DefaultBusWakeUpActivityHandler(1), 
  2838 ;; Auto vars:     Size  Location     Type
  2839 ;;		None
  2840 ;; Return value:  Size  Location     Type
  2841 ;;                  1    wreg      void 
  2842 ;; Registers used:
  2843 ;;		wreg, status,2, status,0
  2844 ;; Tracked objects:
  2845 ;;		On entry : 0/0
  2846 ;;		On exit  : 0/0
  2847 ;;		Unchanged: 0/0
  2848 ;; Data sizes:     COMRAM   BANK5   BANK6   BANK7   BANK8   BANK9  BANK10  BANK11  BANK12  BANK13  BANK14  BANK15  BANK1
      +6  BANK17  BANK18  BANK19  BANK20  BANK21  BANK22  BANK23  BANK24  BANK25  BANK26  BANK27  BANK28  BANK29  BANK30  BANK3
      +1  BANK32  BANK33  BANK34  BANK35  BANK36  BANK37
  2849 ;;      Params:         2       0       0       0       0       0       0       0       0       0       0       0       
      +0       0       0       0       0       0       0       0       0       0       0       0       0       0       0       
      +0       0       0       0       0       0       0
  2850 ;;      Locals:         0       0       0       0       0       0       0       0       0       0       0       0       
      +0       0       0       0       0       0       0       0       0       0       0       0       0       0       0       
      +0       0       0       0       0       0       0
  2851 ;;      Temps:          0       0       0       0       0       0       0       0       0       0       0       0       
      +0       0       0       0       0       0       0       0       0       0       0       0       0       0       0       
      +0       0       0       0       0       0       0
  2852 ;;      Totals:         2       0       0       0       0       0       0       0       0       0       0       0       
      +0       0       0       0       0       0       0       0       0       0       0       0       0       0       0       
      +0       0       0       0       0       0       0
  2853 ;;Total ram usage:        2 bytes
  2854 ;; Hardware stack levels used: 1
  2855 ;; Hardware stack levels required when called: 4
  2856 ;; This function calls:
  2857 ;;		Nothing
  2858 ;; This function is called by:
  2859 ;;		_CAN1_ErrorNotificationInterruptEnable
  2860 ;; This function uses a non-reentrant model
  2861 ;;
  2862                           
  2863                           	psect	text29
  2864  0034EC                     __ptext29:
  2865                           	callstack 0
  2866  0034EC                     _CAN1_SetBusWakeUpActivityInterruptHandler:
  2867                           	callstack 119
  2868  0034EC                     
  2869                           ;mcc_generated_files/can1.c: 397: void CAN1_SetBusWakeUpActivityInterruptHandler(void (*
      +                          handler)(void));mcc_generated_files/can1.c: 398: {;mcc_generated_files/can1.c: 399:     
      +                          CAN1_BusWakeUpActivityHandler = handler;
  2870  0034EC  C503  F539         	movff	CAN1_SetBusWakeUpActivityInterruptHandler@handler,_CAN1_BusWakeUpActivityHandler
  2871  0034F0  C504  F53A         	movff	CAN1_SetBusWakeUpActivityInterruptHandler@handler+1,_CAN1_BusWakeUpActivityHandle
      +                          r+1
  2872  0034F4  0012               	return		;funcret
  2873  0034F6                     __end_of_CAN1_SetBusWakeUpActivityInterruptHandler:
  2874                           	callstack 0
  2875                           
  2876 ;; *************** function _CAN1_SetBusErrorInterruptHandler *****************
  2877 ;; Defined at:
  2878 ;;		line 402 in file "mcc_generated_files/can1.c"
  2879 ;; Parameters:    Size  Location     Type
  2880 ;;  handler         2    2[COMRAM] PTR FTN()void 
  2881 ;;		 -> DefaultBusErrorHandler(1), 
  2882 ;; Auto vars:     Size  Location     Type
  2883 ;;		None
  2884 ;; Return value:  Size  Location     Type
  2885 ;;                  1    wreg      void 
  2886 ;; Registers used:
  2887 ;;		wreg, status,2, status,0
  2888 ;; Tracked objects:
  2889 ;;		On entry : 0/0
  2890 ;;		On exit  : 0/0
  2891 ;;		Unchanged: 0/0
  2892 ;; Data sizes:     COMRAM   BANK5   BANK6   BANK7   BANK8   BANK9  BANK10  BANK11  BANK12  BANK13  BANK14  BANK15  BANK1
      +6  BANK17  BANK18  BANK19  BANK20  BANK21  BANK22  BANK23  BANK24  BANK25  BANK26  BANK27  BANK28  BANK29  BANK30  BANK3
      +1  BANK32  BANK33  BANK34  BANK35  BANK36  BANK37
  2893 ;;      Params:         2       0       0       0       0       0       0       0       0       0       0       0       
      +0       0       0       0       0       0       0       0       0       0       0       0       0       0       0       
      +0       0       0       0       0       0       0
  2894 ;;      Locals:         0       0       0       0       0       0       0       0       0       0       0       0       
      +0       0       0       0       0       0       0       0       0       0       0       0       0       0       0       
      +0       0       0       0       0       0       0
  2895 ;;      Temps:          0       0       0       0       0       0       0       0       0       0       0       0       
      +0       0       0       0       0       0       0       0       0       0       0       0       0       0       0       
      +0       0       0       0       0       0       0
  2896 ;;      Totals:         2       0       0       0       0       0       0       0       0       0       0       0       
      +0       0       0       0       0       0       0       0       0       0       0       0       0       0       0       
      +0       0       0       0       0       0       0
  2897 ;;Total ram usage:        2 bytes
  2898 ;; Hardware stack levels used: 1
  2899 ;; Hardware stack levels required when called: 4
  2900 ;; This function calls:
  2901 ;;		Nothing
  2902 ;; This function is called by:
  2903 ;;		_CAN1_ErrorNotificationInterruptEnable
  2904 ;; This function uses a non-reentrant model
  2905 ;;
  2906                           
  2907                           	psect	text30
  2908  0034F6                     __ptext30:
  2909                           	callstack 0
  2910  0034F6                     _CAN1_SetBusErrorInterruptHandler:
  2911                           	callstack 119
  2912  0034F6                     
  2913                           ;mcc_generated_files/can1.c: 402: void CAN1_SetBusErrorInterruptHandler(void (*handler)(
      +                          void));mcc_generated_files/can1.c: 403: {;mcc_generated_files/can1.c: 404:     CAN1_BusE
      +                          rrorHandler = handler;
  2914  0034F6  C503  F537         	movff	CAN1_SetBusErrorInterruptHandler@handler,_CAN1_BusErrorHandler
  2915  0034FA  C504  F538         	movff	CAN1_SetBusErrorInterruptHandler@handler+1,_CAN1_BusErrorHandler+1
  2916  0034FE  0012               	return		;funcret
  2917  003500                     __end_of_CAN1_SetBusErrorInterruptHandler:
  2918                           	callstack 0
  2919                           
  2920 ;; *************** function _CAN1_BitRateConfiguration *****************
  2921 ;; Defined at:
  2922 ;;		line 133 in file "mcc_generated_files/can1.c"
  2923 ;; Parameters:    Size  Location     Type
  2924 ;;		None
  2925 ;; Auto vars:     Size  Location     Type
  2926 ;;		None
  2927 ;; Return value:  Size  Location     Type
  2928 ;;                  1    wreg      void 
  2929 ;; Registers used:
  2930 ;;		wreg, status,2
  2931 ;; Tracked objects:
  2932 ;;		On entry : 0/0
  2933 ;;		On exit  : 0/0
  2934 ;;		Unchanged: 0/0
  2935 ;; Data sizes:     COMRAM   BANK5   BANK6   BANK7   BANK8   BANK9  BANK10  BANK11  BANK12  BANK13  BANK14  BANK15  BANK1
      +6  BANK17  BANK18  BANK19  BANK20  BANK21  BANK22  BANK23  BANK24  BANK25  BANK26  BANK27  BANK28  BANK29  BANK30  BANK3
      +1  BANK32  BANK33  BANK34  BANK35  BANK36  BANK37
  2936 ;;      Params:         0       0       0       0       0       0       0       0       0       0       0       0       
      +0       0       0       0       0       0       0       0       0       0       0       0       0       0       0       
      +0       0       0       0       0       0       0
  2937 ;;      Locals:         0       0       0       0       0       0       0       0       0       0       0       0       
      +0       0       0       0       0       0       0       0       0       0       0       0       0       0       0       
      +0       0       0       0       0       0       0
  2938 ;;      Temps:          0       0       0       0       0       0       0       0       0       0       0       0       
      +0       0       0       0       0       0       0       0       0       0       0       0       0       0       0       
      +0       0       0       0       0       0       0
  2939 ;;      Totals:         0       0       0       0       0       0       0       0       0       0       0       0       
      +0       0       0       0       0       0       0       0       0       0       0       0       0       0       0       
      +0       0       0       0       0       0       0
  2940 ;;Total ram usage:        0 bytes
  2941 ;; Hardware stack levels used: 1
  2942 ;; Hardware stack levels required when called: 4
  2943 ;; This function calls:
  2944 ;;		Nothing
  2945 ;; This function is called by:
  2946 ;;		_CAN1_Initialize
  2947 ;; This function uses a non-reentrant model
  2948 ;;
  2949                           
  2950                           	psect	text31
  2951  003438                     __ptext31:
  2952                           	callstack 0
  2953  003438                     _CAN1_BitRateConfiguration:
  2954                           	callstack 120
  2955  003438                     
  2956                           ;mcc_generated_files/can1.c: 136:     C1NBTCFGL = 0x01;
  2957  003438  0E01               	movlw	1
  2958  00343A  0101               	movlb	1	; () banked
  2959  00343C  6F04               	movwf	4,b	;volatile
  2960                           
  2961                           ;mcc_generated_files/can1.c: 139:     C1NBTCFGH = 0x01;
  2962  00343E  0E01               	movlw	1
  2963  003440  6F05               	movwf	5,b	;volatile
  2964                           
  2965                           ;mcc_generated_files/can1.c: 142:     C1NBTCFGU = 0x06;
  2966  003442  0E06               	movlw	6
  2967  003444  6F06               	movwf	6,b	;volatile
  2968                           
  2969                           ;mcc_generated_files/can1.c: 145:     C1NBTCFGT = 0x00;
  2970  003446  0E00               	movlw	0
  2971  003448  6F07               	movwf	7,b	;volatile
  2972  00344A                     
  2973                           ; BSR set to: 1
  2974  00344A  0012               	return		;funcret
  2975  00344C                     __end_of_CAN1_BitRateConfiguration:
  2976                           	callstack 0
  2977                           
  2978 ;; *************** function _ADC_Initialize *****************
  2979 ;; Defined at:
  2980 ;;		line 65 in file "mcc_generated_files/adc.c"
  2981 ;; Parameters:    Size  Location     Type
  2982 ;;		None
  2983 ;; Auto vars:     Size  Location     Type
  2984 ;;		None
  2985 ;; Return value:  Size  Location     Type
  2986 ;;                  1    wreg      void 
  2987 ;; Registers used:
  2988 ;;		wreg, status,2, status,0, cstack
  2989 ;; Tracked objects:
  2990 ;;		On entry : 0/0
  2991 ;;		On exit  : 0/0
  2992 ;;		Unchanged: 0/0
  2993 ;; Data sizes:     COMRAM   BANK5   BANK6   BANK7   BANK8   BANK9  BANK10  BANK11  BANK12  BANK13  BANK14  BANK15  BANK1
      +6  BANK17  BANK18  BANK19  BANK20  BANK21  BANK22  BANK23  BANK24  BANK25  BANK26  BANK27  BANK28  BANK29  BANK30  BANK3
      +1  BANK32  BANK33  BANK34  BANK35  BANK36  BANK37
  2994 ;;      Params:         0       0       0       0       0       0       0       0       0       0       0       0       
      +0       0       0       0       0       0       0       0       0       0       0       0       0       0       0       
      +0       0       0       0       0       0       0
  2995 ;;      Locals:         0       0       0       0       0       0       0       0       0       0       0       0       
      +0       0       0       0       0       0       0       0       0       0       0       0       0       0       0       
      +0       0       0       0       0       0       0
  2996 ;;      Temps:          0       0       0       0       0       0       0       0       0       0       0       0       
      +0       0       0       0       0       0       0       0       0       0       0       0       0       0       0       
      +0       0       0       0       0       0       0
  2997 ;;      Totals:         0       0       0       0       0       0       0       0       0       0       0       0       
      +0       0       0       0       0       0       0       0       0       0       0       0       0       0       0       
      +0       0       0       0       0       0       0
  2998 ;;Total ram usage:        0 bytes
  2999 ;; Hardware stack levels used: 1
  3000 ;; Hardware stack levels required when called: 5
  3001 ;; This function calls:
  3002 ;;		_ADC_SetADIInterruptHandler
  3003 ;;		_ADC_SetActiveClockTuningInterruptHandler
  3004 ;;		_ADC_SetContext1ThresholdInterruptHandler
  3005 ;; This function is called by:
  3006 ;;		_SYSTEM_Initialize
  3007 ;; This function uses a non-reentrant model
  3008 ;;
  3009                           
  3010                           	psect	text32
  3011  002CCE                     __ptext32:
  3012                           	callstack 0
  3013  002CCE                     _ADC_Initialize:
  3014                           	callstack 120
  3015  002CCE                     
  3016                           ;mcc_generated_files/adc.c: 68:     ADACT = 0x04;
  3017  002CCE  0E04               	movlw	4
  3018  002CD0  0103               	movlb	3	; () banked
  3019  002CD2  6FF9               	movwf	249,b	;volatile
  3020                           
  3021                           ;mcc_generated_files/adc.c: 71:     ADCLK = 0x00;
  3022  002CD4  0E00               	movlw	0
  3023  002CD6  6FFA               	movwf	250,b	;volatile
  3024                           
  3025                           ;mcc_generated_files/adc.c: 74:     ADCP = 0x00;
  3026  002CD8  0E00               	movlw	0
  3027  002CDA  6FD8               	movwf	216,b	;volatile
  3028                           
  3029                           ;mcc_generated_files/adc.c: 80:     ADCTX = 0x0;
  3030  002CDC  0E00               	movlw	0
  3031  002CDE  6FFB               	movwf	251,b	;volatile
  3032                           
  3033                           ;mcc_generated_files/adc.c: 83:     ADLTHL = 0x00;
  3034  002CE0  0E00               	movlw	0
  3035  002CE2  6FD9               	movwf	217,b	;volatile
  3036                           
  3037                           ;mcc_generated_files/adc.c: 86:     ADLTHH = 0x00;
  3038  002CE4  0E00               	movlw	0
  3039  002CE6  6FDA               	movwf	218,b	;volatile
  3040                           
  3041                           ;mcc_generated_files/adc.c: 89:     ADUTHL = 0x00;
  3042  002CE8  0E00               	movlw	0
  3043  002CEA  6FDB               	movwf	219,b	;volatile
  3044                           
  3045                           ;mcc_generated_files/adc.c: 92:     ADUTHH = 0x00;
  3046  002CEC  0E00               	movlw	0
  3047  002CEE  6FDC               	movwf	220,b	;volatile
  3048                           
  3049                           ;mcc_generated_files/adc.c: 95:     ADSTPTL = 0x00;
  3050  002CF0  0E00               	movlw	0
  3051  002CF2  6FDF               	movwf	223,b	;volatile
  3052                           
  3053                           ;mcc_generated_files/adc.c: 98:     ADSTPTH = 0x00;
  3054  002CF4  0E00               	movlw	0
  3055  002CF6  6FE0               	movwf	224,b	;volatile
  3056                           
  3057                           ;mcc_generated_files/adc.c: 101:     ADACCL = 0x00;
  3058  002CF8  0E00               	movlw	0
  3059  002CFA  6FE3               	movwf	227,b	;volatile
  3060                           
  3061                           ;mcc_generated_files/adc.c: 104:     ADACCH = 0x00;
  3062  002CFC  0E00               	movlw	0
  3063  002CFE  6FE4               	movwf	228,b	;volatile
  3064                           
  3065                           ;mcc_generated_files/adc.c: 107:     ADACCU = 0x00;
  3066  002D00  0E00               	movlw	0
  3067  002D02  6FE5               	movwf	229,b	;volatile
  3068                           
  3069                           ;mcc_generated_files/adc.c: 110:     ADCNT = 0x00;
  3070  002D04  0E00               	movlw	0
  3071  002D06  6FE6               	movwf	230,b	;volatile
  3072                           
  3073                           ;mcc_generated_files/adc.c: 113:     ADRPT = 0x00;
  3074  002D08  0E00               	movlw	0
  3075  002D0A  6FE7               	movwf	231,b	;volatile
  3076                           
  3077                           ;mcc_generated_files/adc.c: 116:     ADRESL = 0x00;
  3078  002D0C  0E00               	movlw	0
  3079  002D0E  6FEA               	movwf	234,b	;volatile
  3080                           
  3081                           ;mcc_generated_files/adc.c: 119:     ADRESH = 0x00;
  3082  002D10  0E00               	movlw	0
  3083  002D12  6FEB               	movwf	235,b	;volatile
  3084                           
  3085                           ;mcc_generated_files/adc.c: 122:     ADPCH = 0x00;
  3086  002D14  0E00               	movlw	0
  3087  002D16  6FEC               	movwf	236,b	;volatile
  3088                           
  3089                           ;mcc_generated_files/adc.c: 125:     ADACQL = 0x00;
  3090  002D18  0E00               	movlw	0
  3091  002D1A  6FEE               	movwf	238,b	;volatile
  3092                           
  3093                           ;mcc_generated_files/adc.c: 128:     ADACQH = 0x00;
  3094  002D1C  0E00               	movlw	0
  3095  002D1E  6FEF               	movwf	239,b	;volatile
  3096                           
  3097                           ;mcc_generated_files/adc.c: 131:     ADCAP = 0x00;
  3098  002D20  0E00               	movlw	0
  3099  002D22  6FF0               	movwf	240,b	;volatile
  3100                           
  3101                           ;mcc_generated_files/adc.c: 134:     ADPREL = 0x00;
  3102  002D24  0E00               	movlw	0
  3103  002D26  6FF1               	movwf	241,b	;volatile
  3104                           
  3105                           ;mcc_generated_files/adc.c: 137:     ADPREH = 0x00;
  3106  002D28  0E00               	movlw	0
  3107  002D2A  6FF2               	movwf	242,b	;volatile
  3108                           
  3109                           ;mcc_generated_files/adc.c: 140:     ADCON0 = 0x00;
  3110  002D2C  0E00               	movlw	0
  3111  002D2E  6FF3               	movwf	243,b	;volatile
  3112                           
  3113                           ;mcc_generated_files/adc.c: 143:     ADCON1 = 0x00;
  3114  002D30  0E00               	movlw	0
  3115  002D32  6FF4               	movwf	244,b	;volatile
  3116                           
  3117                           ;mcc_generated_files/adc.c: 146:     ADCON2 = 0x10;
  3118  002D34  0E10               	movlw	16
  3119  002D36  6FF5               	movwf	245,b	;volatile
  3120                           
  3121                           ;mcc_generated_files/adc.c: 149:     ADCON3 = 0x00;
  3122  002D38  0E00               	movlw	0
  3123  002D3A  6FF6               	movwf	246,b	;volatile
  3124                           
  3125                           ;mcc_generated_files/adc.c: 152:     ADSTAT = 0x00;
  3126  002D3C  0E00               	movlw	0
  3127  002D3E  6FF7               	movwf	247,b	;volatile
  3128                           
  3129                           ;mcc_generated_files/adc.c: 155:     ADREF = 0x12;
  3130  002D40  0E12               	movlw	18
  3131  002D42  6FF8               	movwf	248,b	;volatile
  3132                           
  3133                           ;mcc_generated_files/adc.c: 158:     ADCSEL1 = 0x00;
  3134  002D44  0E00               	movlw	0
  3135  002D46  6FFC               	movwf	252,b	;volatile
  3136  002D48                     
  3137                           ; BSR set to: 3
  3138                           ;mcc_generated_files/adc.c: 161:     PIR1bits.ADIF = 0;
  3139  002D48  94AF               	bcf	175,2,c	;volatile
  3140  002D4A                     
  3141                           ; BSR set to: 3
  3142                           ;mcc_generated_files/adc.c: 164:     PIR1bits.ACTIF = 0;
  3143  002D4A  96AF               	bcf	175,3,c	;volatile
  3144  002D4C                     
  3145                           ; BSR set to: 3
  3146                           ;mcc_generated_files/adc.c: 167:     PIR2bits.ADCH1IF = 0;
  3147  002D4C  90B0               	bcf	176,0,c	;volatile
  3148  002D4E                     
  3149                           ; BSR set to: 3
  3150                           ;mcc_generated_files/adc.c: 171:     ADC_SetADIInterruptHandler(ADC_DefaultADI_ISR);
  3151  002D4E  0E00               	movlw	0
  3152  002D50  6E03               	movwf	ADC_SetADIInterruptHandler@InterruptHandler^(0+1280),c
  3153  002D52  0E00               	movlw	0
  3154  002D54  6E04               	movwf	(ADC_SetADIInterruptHandler@InterruptHandler+1)^(0+1280),c
  3155  002D56  EC8A  F01A         	call	_ADC_SetADIInterruptHandler	;wreg free
  3156  002D5A                     
  3157                           ;mcc_generated_files/adc.c: 172:     ADC_SetContext1ThresholdInterruptHandler(ADC_Defaul
      +                          tContext1Threshold_ISR);
  3158  002D5A  0E00               	movlw	0
  3159  002D5C  6E03               	movwf	ADC_SetContext1ThresholdInterruptHandler@InterruptHandler^(0+1280),c
  3160  002D5E  0E00               	movlw	0
  3161  002D60  6E04               	movwf	(ADC_SetContext1ThresholdInterruptHandler@InterruptHandler+1)^(0+1280),c
  3162  002D62  EC80  F01A         	call	_ADC_SetContext1ThresholdInterruptHandler	;wreg free
  3163  002D66                     
  3164                           ;mcc_generated_files/adc.c: 173:     ADC_SetActiveClockTuningInterruptHandler(ADC_Defaul
      +                          tActiveClockTuning_ISR);
  3165  002D66  0E00               	movlw	0
  3166  002D68  6E03               	movwf	ADC_SetActiveClockTuningInterruptHandler@InterruptHandler^(0+1280),c
  3167  002D6A  0E00               	movlw	0
  3168  002D6C  6E04               	movwf	(ADC_SetActiveClockTuningInterruptHandler@InterruptHandler+1)^(0+1280),c
  3169  002D6E  EC85  F01A         	call	_ADC_SetActiveClockTuningInterruptHandler	;wreg free
  3170  002D72                     
  3171                           ;mcc_generated_files/adc.c: 176:     ADCON0 = 0x84;
  3172  002D72  0E84               	movlw	132
  3173  002D74  0103               	movlb	3	; () banked
  3174  002D76  6FF3               	movwf	243,b	;volatile
  3175  002D78                     
  3176                           ; BSR set to: 3
  3177  002D78  0012               	return		;funcret
  3178  002D7A                     __end_of_ADC_Initialize:
  3179                           	callstack 0
  3180                           
  3181 ;; *************** function _ADC_SetContext1ThresholdInterruptHandler *****************
  3182 ;; Defined at:
  3183 ;;		line 423 in file "mcc_generated_files/adc.c"
  3184 ;; Parameters:    Size  Location     Type
  3185 ;;  InterruptHan    2    2[COMRAM] PTR FTN()void 
  3186 ;;		 -> ADC_DefaultContext1Threshold_ISR(1), 
  3187 ;; Auto vars:     Size  Location     Type
  3188 ;;		None
  3189 ;; Return value:  Size  Location     Type
  3190 ;;                  1    wreg      void 
  3191 ;; Registers used:
  3192 ;;		wreg, status,2, status,0
  3193 ;; Tracked objects:
  3194 ;;		On entry : 0/0
  3195 ;;		On exit  : 0/0
  3196 ;;		Unchanged: 0/0
  3197 ;; Data sizes:     COMRAM   BANK5   BANK6   BANK7   BANK8   BANK9  BANK10  BANK11  BANK12  BANK13  BANK14  BANK15  BANK1
      +6  BANK17  BANK18  BANK19  BANK20  BANK21  BANK22  BANK23  BANK24  BANK25  BANK26  BANK27  BANK28  BANK29  BANK30  BANK3
      +1  BANK32  BANK33  BANK34  BANK35  BANK36  BANK37
  3198 ;;      Params:         2       0       0       0       0       0       0       0       0       0       0       0       
      +0       0       0       0       0       0       0       0       0       0       0       0       0       0       0       
      +0       0       0       0       0       0       0
  3199 ;;      Locals:         0       0       0       0       0       0       0       0       0       0       0       0       
      +0       0       0       0       0       0       0       0       0       0       0       0       0       0       0       
      +0       0       0       0       0       0       0
  3200 ;;      Temps:          0       0       0       0       0       0       0       0       0       0       0       0       
      +0       0       0       0       0       0       0       0       0       0       0       0       0       0       0       
      +0       0       0       0       0       0       0
  3201 ;;      Totals:         2       0       0       0       0       0       0       0       0       0       0       0       
      +0       0       0       0       0       0       0       0       0       0       0       0       0       0       0       
      +0       0       0       0       0       0       0
  3202 ;;Total ram usage:        2 bytes
  3203 ;; Hardware stack levels used: 1
  3204 ;; Hardware stack levels required when called: 4
  3205 ;; This function calls:
  3206 ;;		Nothing
  3207 ;; This function is called by:
  3208 ;;		_ADC_Initialize
  3209 ;; This function uses a non-reentrant model
  3210 ;;
  3211                           
  3212                           	psect	text33
  3213  003500                     __ptext33:
  3214                           	callstack 0
  3215  003500                     _ADC_SetContext1ThresholdInterruptHandler:
  3216                           	callstack 120
  3217  003500                     
  3218                           ;mcc_generated_files/adc.c: 423: void ADC_SetContext1ThresholdInterruptHandler(void (* I
      +                          nterruptHandler)(void));mcc_generated_files/adc.c: 424: {;mcc_generated_files/adc.c: 425
      +                          :     ADC_Context1Thereshld_ISR = InterruptHandler;
  3219  003500  C503  F552         	movff	ADC_SetContext1ThresholdInterruptHandler@InterruptHandler,_ADC_Context1Thereshld_
      +                          ISR
  3220  003504  C504  F553         	movff	ADC_SetContext1ThresholdInterruptHandler@InterruptHandler+1,_ADC_Context1Thereshl
      +                          d_ISR+1
  3221  003508  0012               	return		;funcret
  3222  00350A                     __end_of_ADC_SetContext1ThresholdInterruptHandler:
  3223                           	callstack 0
  3224                           
  3225 ;; *************** function _ADC_SetActiveClockTuningInterruptHandler *****************
  3226 ;; Defined at:
  3227 ;;		line 428 in file "mcc_generated_files/adc.c"
  3228 ;; Parameters:    Size  Location     Type
  3229 ;;  InterruptHan    2    2[COMRAM] PTR FTN()void 
  3230 ;;		 -> ADC_DefaultActiveClockTuning_ISR(1), 
  3231 ;; Auto vars:     Size  Location     Type
  3232 ;;		None
  3233 ;; Return value:  Size  Location     Type
  3234 ;;                  1    wreg      void 
  3235 ;; Registers used:
  3236 ;;		wreg, status,2, status,0
  3237 ;; Tracked objects:
  3238 ;;		On entry : 0/0
  3239 ;;		On exit  : 0/0
  3240 ;;		Unchanged: 0/0
  3241 ;; Data sizes:     COMRAM   BANK5   BANK6   BANK7   BANK8   BANK9  BANK10  BANK11  BANK12  BANK13  BANK14  BANK15  BANK1
      +6  BANK17  BANK18  BANK19  BANK20  BANK21  BANK22  BANK23  BANK24  BANK25  BANK26  BANK27  BANK28  BANK29  BANK30  BANK3
      +1  BANK32  BANK33  BANK34  BANK35  BANK36  BANK37
  3242 ;;      Params:         2       0       0       0       0       0       0       0       0       0       0       0       
      +0       0       0       0       0       0       0       0       0       0       0       0       0       0       0       
      +0       0       0       0       0       0       0
  3243 ;;      Locals:         0       0       0       0       0       0       0       0       0       0       0       0       
      +0       0       0       0       0       0       0       0       0       0       0       0       0       0       0       
      +0       0       0       0       0       0       0
  3244 ;;      Temps:          0       0       0       0       0       0       0       0       0       0       0       0       
      +0       0       0       0       0       0       0       0       0       0       0       0       0       0       0       
      +0       0       0       0       0       0       0
  3245 ;;      Totals:         2       0       0       0       0       0       0       0       0       0       0       0       
      +0       0       0       0       0       0       0       0       0       0       0       0       0       0       0       
      +0       0       0       0       0       0       0
  3246 ;;Total ram usage:        2 bytes
  3247 ;; Hardware stack levels used: 1
  3248 ;; Hardware stack levels required when called: 4
  3249 ;; This function calls:
  3250 ;;		Nothing
  3251 ;; This function is called by:
  3252 ;;		_ADC_Initialize
  3253 ;; This function uses a non-reentrant model
  3254 ;;
  3255                           
  3256                           	psect	text34
  3257  00350A                     __ptext34:
  3258                           	callstack 0
  3259  00350A                     _ADC_SetActiveClockTuningInterruptHandler:
  3260                           	callstack 120
  3261  00350A                     
  3262                           ;mcc_generated_files/adc.c: 428: void ADC_SetActiveClockTuningInterruptHandler(void (* I
      +                          nterruptHandler)(void));mcc_generated_files/adc.c: 429: {;mcc_generated_files/adc.c: 430
      +                          :     ADC_ActiveClockTuning_ISR = InterruptHandler;
  3263  00350A  C503  F550         	movff	ADC_SetActiveClockTuningInterruptHandler@InterruptHandler,_ADC_ActiveClockTuning_
      +                          ISR
  3264  00350E  C504  F551         	movff	ADC_SetActiveClockTuningInterruptHandler@InterruptHandler+1,_ADC_ActiveClockTunin
      +                          g_ISR+1
  3265  003512  0012               	return		;funcret
  3266  003514                     __end_of_ADC_SetActiveClockTuningInterruptHandler:
  3267                           	callstack 0
  3268                           
  3269 ;; *************** function _ADC_SetADIInterruptHandler *****************
  3270 ;; Defined at:
  3271 ;;		line 418 in file "mcc_generated_files/adc.c"
  3272 ;; Parameters:    Size  Location     Type
  3273 ;;  InterruptHan    2    2[COMRAM] PTR FTN()void 
  3274 ;;		 -> ADC_DefaultADI_ISR(1), 
  3275 ;; Auto vars:     Size  Location     Type
  3276 ;;		None
  3277 ;; Return value:  Size  Location     Type
  3278 ;;                  1    wreg      void 
  3279 ;; Registers used:
  3280 ;;		wreg, status,2, status,0
  3281 ;; Tracked objects:
  3282 ;;		On entry : 0/0
  3283 ;;		On exit  : 0/0
  3284 ;;		Unchanged: 0/0
  3285 ;; Data sizes:     COMRAM   BANK5   BANK6   BANK7   BANK8   BANK9  BANK10  BANK11  BANK12  BANK13  BANK14  BANK15  BANK1
      +6  BANK17  BANK18  BANK19  BANK20  BANK21  BANK22  BANK23  BANK24  BANK25  BANK26  BANK27  BANK28  BANK29  BANK30  BANK3
      +1  BANK32  BANK33  BANK34  BANK35  BANK36  BANK37
  3286 ;;      Params:         2       0       0       0       0       0       0       0       0       0       0       0       
      +0       0       0       0       0       0       0       0       0       0       0       0       0       0       0       
      +0       0       0       0       0       0       0
  3287 ;;      Locals:         0       0       0       0       0       0       0       0       0       0       0       0       
      +0       0       0       0       0       0       0       0       0       0       0       0       0       0       0       
      +0       0       0       0       0       0       0
  3288 ;;      Temps:          0       0       0       0       0       0       0       0       0       0       0       0       
      +0       0       0       0       0       0       0       0       0       0       0       0       0       0       0       
      +0       0       0       0       0       0       0
  3289 ;;      Totals:         2       0       0       0       0       0       0       0       0       0       0       0       
      +0       0       0       0       0       0       0       0       0       0       0       0       0       0       0       
      +0       0       0       0       0       0       0
  3290 ;;Total ram usage:        2 bytes
  3291 ;; Hardware stack levels used: 1
  3292 ;; Hardware stack levels required when called: 4
  3293 ;; This function calls:
  3294 ;;		Nothing
  3295 ;; This function is called by:
  3296 ;;		_ADC_Initialize
  3297 ;; This function uses a non-reentrant model
  3298 ;;
  3299                           
  3300                           	psect	text35
  3301  003514                     __ptext35:
  3302                           	callstack 0
  3303  003514                     _ADC_SetADIInterruptHandler:
  3304                           	callstack 120
  3305  003514                     
  3306                           ;mcc_generated_files/adc.c: 418: void ADC_SetADIInterruptHandler(void (* InterruptHandle
      +                          r)(void));mcc_generated_files/adc.c: 419: {;mcc_generated_files/adc.c: 420:     ADC_Conv
      +                          ersionComplete_ISR = InterruptHandler;
  3307  003514  C503  F554         	movff	ADC_SetADIInterruptHandler@InterruptHandler,_ADC_ConversionComplete_ISR
  3308  003518  C504  F555         	movff	ADC_SetADIInterruptHandler@InterruptHandler+1,_ADC_ConversionComplete_ISR+1
  3309  00351C  0012               	return		;funcret
  3310  00351E                     __end_of_ADC_SetADIInterruptHandler:
  3311                           	callstack 0
  3312                           
  3313 ;; *************** function _DELAY_milliseconds *****************
  3314 ;; Defined at:
  3315 ;;		line 38 in file "mcc_generated_files/delay.c"
  3316 ;; Parameters:    Size  Location     Type
  3317 ;;  milliseconds    2    2[COMRAM] unsigned short 
  3318 ;; Auto vars:     Size  Location     Type
  3319 ;;		None
  3320 ;; Return value:  Size  Location     Type
  3321 ;;                  1    wreg      void 
  3322 ;; Registers used:
  3323 ;;		wreg, status,2, status,0
  3324 ;; Tracked objects:
  3325 ;;		On entry : 0/0
  3326 ;;		On exit  : 0/0
  3327 ;;		Unchanged: 0/0
  3328 ;; Data sizes:     COMRAM   BANK5   BANK6   BANK7   BANK8   BANK9  BANK10  BANK11  BANK12  BANK13  BANK14  BANK15  BANK1
      +6  BANK17  BANK18  BANK19  BANK20  BANK21  BANK22  BANK23  BANK24  BANK25  BANK26  BANK27  BANK28  BANK29  BANK30  BANK3
      +1  BANK32  BANK33  BANK34  BANK35  BANK36  BANK37
  3329 ;;      Params:         2       0       0       0       0       0       0       0       0       0       0       0       
      +0       0       0       0       0       0       0       0       0       0       0       0       0       0       0       
      +0       0       0       0       0       0       0
  3330 ;;      Locals:         0       0       0       0       0       0       0       0       0       0       0       0       
      +0       0       0       0       0       0       0       0       0       0       0       0       0       0       0       
      +0       0       0       0       0       0       0
  3331 ;;      Temps:          1       0       0       0       0       0       0       0       0       0       0       0       
      +0       0       0       0       0       0       0       0       0       0       0       0       0       0       0       
      +0       0       0       0       0       0       0
  3332 ;;      Totals:         3       0       0       0       0       0       0       0       0       0       0       0       
      +0       0       0       0       0       0       0       0       0       0       0       0       0       0       0       
      +0       0       0       0       0       0       0
  3333 ;;Total ram usage:        3 bytes
  3334 ;; Hardware stack levels used: 1
  3335 ;; Hardware stack levels required when called: 4
  3336 ;; This function calls:
  3337 ;;		Nothing
  3338 ;; This function is called by:
  3339 ;;		_main
  3340 ;; This function uses a non-reentrant model
  3341 ;;
  3342                           
  3343                           	psect	text36
  3344  00320E                     __ptext36:
  3345                           	callstack 0
  3346  00320E                     _DELAY_milliseconds:
  3347                           	callstack 122
  3348  00320E                     
  3349                           ;mcc_generated_files/delay.c: 39:     while(milliseconds--){
  3350  00320E  EF10  F019         	goto	l3049
  3351  003212                     l3047:
  3352                           
  3353                           ;mcc_generated_files/delay.c: 40:         _delay((unsigned long)((1)*(10000000/4000.0)))
      +                          ;
  3354  003212  0E04               	movlw	4
  3355  003214  6E05               	movwf	??_DELAY_milliseconds^(0+1280),c
  3356  003216  0E3E               	movlw	62
  3357  003218                     u2017:
  3358  003218  2EE8               	decfsz	wreg,f,c
  3359  00321A  D7FE               	bra	u2017
  3360  00321C  2E05               	decfsz	??_DELAY_milliseconds^(0+1280),f,c
  3361  00321E  D7FC               	bra	u2017
  3362  003220                     l3049:
  3363                           
  3364                           ;mcc_generated_files/delay.c: 39:     while(milliseconds--){
  3365  003220  0603               	decf	DELAY_milliseconds@milliseconds^(0+1280),f,c
  3366  003222  A0D8               	btfss	status,0,c
  3367  003224  0604               	decf	(DELAY_milliseconds@milliseconds+1)^(0+1280),f,c
  3368  003226  2803               	incf	DELAY_milliseconds@milliseconds^(0+1280),w,c
  3369  003228  E106               	bnz	u1421
  3370  00322A  2804               	incf	(DELAY_milliseconds@milliseconds+1)^(0+1280),w,c
  3371  00322C  A4D8               	btfss	status,2,c
  3372  00322E  EF1B  F019         	goto	u1421
  3373  003232  EF1D  F019         	goto	u1420
  3374  003236                     u1421:
  3375  003236  EF09  F019         	goto	l3047
  3376  00323A                     u1420:
  3377  00323A  0012               	return		;funcret
  3378  00323C                     __end_of_DELAY_milliseconds:
  3379                           	callstack 0
  3380                           
  3381 ;; *************** function _CANWriteMessage *****************
  3382 ;; Defined at:
  3383 ;;		line 12 in file "MESSAGES.c"
  3384 ;; Parameters:    Size  Location     Type
  3385 ;;  id              4   30[COMRAM] unsigned long 
  3386 ;;  dataLength      1   34[COMRAM] unsigned char 
  3387 ;;  data1           1   35[COMRAM] unsigned char 
  3388 ;;  data2           1   36[COMRAM] unsigned char 
  3389 ;;  data3           1   37[COMRAM] unsigned char 
  3390 ;;  data4           1   38[COMRAM] unsigned char 
  3391 ;;  data5           1   39[COMRAM] unsigned char 
  3392 ;;  data6           1   40[COMRAM] unsigned char 
  3393 ;;  data7           1   41[COMRAM] unsigned char 
  3394 ;;  data8           1   42[COMRAM] unsigned char 
  3395 ;; Auto vars:     Size  Location     Type
  3396 ;;  uiData4         2    6[BANK5 ] unsigned int 
  3397 ;;  uiData3         2    4[BANK5 ] unsigned int 
  3398 ;;  uiData2         2    2[BANK5 ] unsigned int 
  3399 ;;  uiData1         2    0[BANK5 ] unsigned int 
  3400 ;; Return value:  Size  Location     Type
  3401 ;;                  1    wreg      void 
  3402 ;; Registers used:
  3403 ;;		wreg, fsr1l, fsr1h, fsr2l, fsr2h, status,2, status,0, tblptrl, tblptrh, tblptru, prodl, prodh, cstack
  3404 ;; Tracked objects:
  3405 ;;		On entry : 0/0
  3406 ;;		On exit  : 0/0
  3407 ;;		Unchanged: 0/0
  3408 ;; Data sizes:     COMRAM   BANK5   BANK6   BANK7   BANK8   BANK9  BANK10  BANK11  BANK12  BANK13  BANK14  BANK15  BANK1
      +6  BANK17  BANK18  BANK19  BANK20  BANK21  BANK22  BANK23  BANK24  BANK25  BANK26  BANK27  BANK28  BANK29  BANK30  BANK3
      +1  BANK32  BANK33  BANK34  BANK35  BANK36  BANK37
  3409 ;;      Params:        13       0       0       0       0       0       0       0       0       0       0       0       
      +0       0       0       0       0       0       0       0       0       0       0       0       0       0       0       
      +0       0       0       0       0       0       0
  3410 ;;      Locals:         0       8       0       0       0       0       0       0       0       0       0       0       
      +0       0       0       0       0       0       0       0       0       0       0       0       0       0       0       
      +0       0       0       0       0       0       0
  3411 ;;      Temps:          2       0       0       0       0       0       0       0       0       0       0       0       
      +0       0       0       0       0       0       0       0       0       0       0       0       0       0       0       
      +0       0       0       0       0       0       0
  3412 ;;      Totals:        15       8       0       0       0       0       0       0       0       0       0       0       
      +0       0       0       0       0       0       0       0       0       0       0       0       0       0       0       
      +0       0       0       0       0       0       0
  3413 ;;Total ram usage:       23 bytes
  3414 ;; Hardware stack levels used: 1
  3415 ;; Hardware stack levels required when called: 7
  3416 ;; This function calls:
  3417 ;;		_CAN1_OperationModeGet
  3418 ;;		_CAN1_OperationModeSet
  3419 ;;		_CAN1_Transmit
  3420 ;;		_CAN1_TransmitFIFOStatusGet
  3421 ;; This function is called by:
  3422 ;;		_main
  3423 ;; This function uses a non-reentrant model
  3424 ;;
  3425                           
  3426                           	psect	text37
  3427  002964                     __ptext37:
  3428                           	callstack 0
  3429  002964                     _CANWriteMessage:
  3430                           	callstack 119
  3431  002964                     
  3432                           ;MESSAGES.c: 12: void CANWriteMessage(unsigned long id, unsigned char dataLength, unsign
      +                          ed char data1, unsigned char data2, unsigned char data3, unsigned char data4, unsigned c
      +                          har data5, unsigned char data6, unsigned char data7, unsigned char data8);MESSAGES.c: 13
      +                          : {;MESSAGES.c: 14:     unsigned int uiData1;;MESSAGES.c: 15:     unsigned int uiData2;;
      +                          MESSAGES.c: 16:     unsigned int uiData3;;MESSAGES.c: 17:     unsigned int uiData4;;MESS
      +                          AGES.c: 21:     uiData1 = ( data1 << 0x08 ) & 0xFF00;
  3433  002964  5024               	movf	CANWriteMessage@data1^(0+1280),w,c
  3434  002966  6E2D               	movwf	(??_CANWriteMessage+1)^(0+1280),c
  3435  002968  6A2C               	clrf	??_CANWriteMessage^(0+1280),c
  3436  00296A  0E00               	movlw	0
  3437  00296C  142C               	andwf	??_CANWriteMessage^(0+1280),w,c
  3438  00296E  0105               	movlb	5	; () banked
  3439  002970  6F88               	movwf	CANWriteMessage@uiData1& (0+255),b
  3440  002972  0EFF               	movlw	255
  3441  002974  142D               	andwf	(??_CANWriteMessage+1)^(0+1280),w,c
  3442  002976  6F89               	movwf	(CANWriteMessage@uiData1+1)& (0+255),b
  3443                           
  3444                           ;MESSAGES.c: 22:     uiData1 |= data2;
  3445  002978  5025               	movf	CANWriteMessage@data2^(0+1280),w,c
  3446  00297A  1388               	iorwf	CANWriteMessage@uiData1& (0+255),f,b
  3447                           
  3448                           ;MESSAGES.c: 23:     uiData2 = ( data3 << 0x08 ) & 0xFF00;
  3449  00297C  5026               	movf	CANWriteMessage@data3^(0+1280),w,c
  3450  00297E  6E2D               	movwf	(??_CANWriteMessage+1)^(0+1280),c
  3451  002980  6A2C               	clrf	??_CANWriteMessage^(0+1280),c
  3452  002982  0E00               	movlw	0
  3453  002984  142C               	andwf	??_CANWriteMessage^(0+1280),w,c
  3454  002986  6F8A               	movwf	CANWriteMessage@uiData2& (0+255),b
  3455  002988  0EFF               	movlw	255
  3456  00298A  142D               	andwf	(??_CANWriteMessage+1)^(0+1280),w,c
  3457  00298C  6F8B               	movwf	(CANWriteMessage@uiData2+1)& (0+255),b
  3458                           
  3459                           ;MESSAGES.c: 24:     uiData2 |= data4;
  3460  00298E  5027               	movf	CANWriteMessage@data4^(0+1280),w,c
  3461  002990  138A               	iorwf	CANWriteMessage@uiData2& (0+255),f,b
  3462                           
  3463                           ;MESSAGES.c: 25:     uiData3 = ( data5 << 0x08 ) & 0xFF00;
  3464  002992  5028               	movf	CANWriteMessage@data5^(0+1280),w,c
  3465  002994  6E2D               	movwf	(??_CANWriteMessage+1)^(0+1280),c
  3466  002996  6A2C               	clrf	??_CANWriteMessage^(0+1280),c
  3467  002998  0E00               	movlw	0
  3468  00299A  142C               	andwf	??_CANWriteMessage^(0+1280),w,c
  3469  00299C  6F8C               	movwf	CANWriteMessage@uiData3& (0+255),b
  3470  00299E  0EFF               	movlw	255
  3471  0029A0  142D               	andwf	(??_CANWriteMessage+1)^(0+1280),w,c
  3472  0029A2  6F8D               	movwf	(CANWriteMessage@uiData3+1)& (0+255),b
  3473                           
  3474                           ;MESSAGES.c: 26:     uiData3 |= data6;
  3475  0029A4  5029               	movf	CANWriteMessage@data6^(0+1280),w,c
  3476  0029A6  138C               	iorwf	CANWriteMessage@uiData3& (0+255),f,b
  3477                           
  3478                           ;MESSAGES.c: 27:     uiData4 = ( data7 << 0x08 ) & 0xFF00;
  3479  0029A8  502A               	movf	CANWriteMessage@data7^(0+1280),w,c
  3480  0029AA  6E2D               	movwf	(??_CANWriteMessage+1)^(0+1280),c
  3481  0029AC  6A2C               	clrf	??_CANWriteMessage^(0+1280),c
  3482  0029AE  0E00               	movlw	0
  3483  0029B0  142C               	andwf	??_CANWriteMessage^(0+1280),w,c
  3484  0029B2  6F8E               	movwf	CANWriteMessage@uiData4& (0+255),b
  3485  0029B4  0EFF               	movlw	255
  3486  0029B6  142D               	andwf	(??_CANWriteMessage+1)^(0+1280),w,c
  3487  0029B8  6F8F               	movwf	(CANWriteMessage@uiData4+1)& (0+255),b
  3488                           
  3489                           ;MESSAGES.c: 28:     uiData4 |= data8;
  3490  0029BA  502B               	movf	CANWriteMessage@data8^(0+1280),w,c
  3491  0029BC  138E               	iorwf	CANWriteMessage@uiData4& (0+255),f,b
  3492  0029BE                     
  3493                           ; BSR set to: 5
  3494                           ;MESSAGES.c: 30:     CANDATAdata [0] = data1;
  3495  0029BE  C524  F560         	movff	CANWriteMessage@data1,_CANDATAdata
  3496  0029C2                     
  3497                           ; BSR set to: 5
  3498                           ;MESSAGES.c: 31:     CANDATAdata [1] = data2;
  3499  0029C2  C525  F561         	movff	CANWriteMessage@data2,_CANDATAdata+1
  3500  0029C6                     
  3501                           ; BSR set to: 5
  3502                           ;MESSAGES.c: 32:     CANDATAdata [2] = data3;
  3503  0029C6  C526  F562         	movff	CANWriteMessage@data3,_CANDATAdata+2
  3504  0029CA                     
  3505                           ; BSR set to: 5
  3506                           ;MESSAGES.c: 33:     CANDATAdata [3] = data4;
  3507  0029CA  C527  F563         	movff	CANWriteMessage@data4,_CANDATAdata+3
  3508  0029CE                     
  3509                           ; BSR set to: 5
  3510                           ;MESSAGES.c: 34:     CANDATAdata [4] = data5;
  3511  0029CE  C528  F564         	movff	CANWriteMessage@data5,_CANDATAdata+4
  3512  0029D2                     
  3513                           ; BSR set to: 5
  3514                           ;MESSAGES.c: 35:     CANDATAdata [5] = data6;
  3515  0029D2  C529  F565         	movff	CANWriteMessage@data6,_CANDATAdata+5
  3516  0029D6                     
  3517                           ; BSR set to: 5
  3518                           ;MESSAGES.c: 36:     CANDATAdata [6] = data7;
  3519  0029D6  C52A  F566         	movff	CANWriteMessage@data7,_CANDATAdata+6
  3520  0029DA                     
  3521                           ; BSR set to: 5
  3522                           ;MESSAGES.c: 37:     CANDATAdata [7] = data8;
  3523  0029DA  C52B  F567         	movff	CANWriteMessage@data8,_CANDATAdata+7
  3524  0029DE                     
  3525                           ; BSR set to: 5
  3526                           ;MESSAGES.c: 39:     if(CAN_CONFIGURATION_MODE == CAN1_OperationModeGet())
  3527  0029DE  EC8F  F01A         	call	_CAN1_OperationModeGet	;wreg free
  3528  0029E2  0A04               	xorlw	4
  3529  0029E4  A4D8               	btfss	status,2,c
  3530  0029E6  EFF7  F014         	goto	u1941
  3531  0029EA  EFF9  F014         	goto	u1940
  3532  0029EE                     u1941:
  3533  0029EE  EF2F  F015         	goto	l1165
  3534  0029F2                     u1940:
  3535  0029F2                     
  3536                           ;MESSAGES.c: 40:     {;MESSAGES.c: 41:         if(CAN_OP_MODE_REQUEST_SUCCESS == CAN1_Op
      +                          erationModeSet(CAN_NORMAL_2_0_MODE))
  3537  0029F2  0E06               	movlw	6
  3538  0029F4  EC07  F017         	call	_CAN1_OperationModeSet
  3539  0029F8  0900               	iorlw	0
  3540  0029FA  A4D8               	btfss	status,2,c
  3541  0029FC  EF02  F015         	goto	u1951
  3542  002A00  EF04  F015         	goto	u1950
  3543  002A04                     u1951:
  3544  002A04  EF2F  F015         	goto	l1165
  3545  002A08                     u1950:
  3546  002A08                     
  3547                           ;MESSAGES.c: 42:         {;MESSAGES.c: 43:             msg.msgId = id;
  3548  002A08  C51F  F543         	movff	CANWriteMessage@id,_msg
  3549  002A0C  C520  F544         	movff	CANWriteMessage@id+1,_msg+1
  3550  002A10  C521  F545         	movff	CANWriteMessage@id+2,_msg+2
  3551  002A14  C522  F546         	movff	CANWriteMessage@id+3,_msg+3
  3552                           
  3553                           ;MESSAGES.c: 44:             msg.field.formatType = CAN_2_0_FORMAT;
  3554  002A18  9C47               	bcf	(_msg+4)^(0+1280),6,c
  3555                           
  3556                           ;MESSAGES.c: 45:             msg.field.brs = CAN_NON_BRS_MODE;
  3557  002A1A  9E47               	bcf	(_msg+4)^(0+1280),7,c
  3558                           
  3559                           ;MESSAGES.c: 46:             msg.field.frameType = CAN_FRAME_DATA;
  3560  002A1C  9247               	bcf	(_msg+4)^(0+1280),1,c
  3561                           
  3562                           ;MESSAGES.c: 47:             msg.field.idType = CAN_FRAME_STD;
  3563  002A1E  9047               	bcf	(_msg+4)^(0+1280),0,c
  3564  002A20                     
  3565                           ;MESSAGES.c: 48:             msg.field.dlc = dataLength;
  3566  002A20  C523  F52C         	movff	CANWriteMessage@dataLength,??_CANWriteMessage
  3567  002A24  462C               	rlncf	??_CANWriteMessage^(0+1280),f,c
  3568  002A26  462C               	rlncf	??_CANWriteMessage^(0+1280),f,c
  3569  002A28  5047               	movf	(_msg+4)^(0+1280),w,c
  3570  002A2A  182C               	xorwf	??_CANWriteMessage^(0+1280),w,c
  3571  002A2C  0BC3               	andlw	-61
  3572  002A2E  182C               	xorwf	??_CANWriteMessage^(0+1280),w,c
  3573  002A30  6E47               	movwf	(_msg+4)^(0+1280),c
  3574                           
  3575                           ;MESSAGES.c: 49:             msg.data = CANDATAdata;
  3576  002A32  0E60               	movlw	low _CANDATAdata
  3577  002A34  6E48               	movwf	(_msg+5)^(0+1280),c
  3578  002A36  0E05               	movlw	high _CANDATAdata
  3579  002A38  6E49               	movwf	(_msg+6)^(0+1280),c
  3580  002A3A                     
  3581                           ;MESSAGES.c: 51:             if(CAN_TX_FIFO_AVAILABLE == (CAN1_TransmitFIFOStatusGet(TXQ
      +                          ) & CAN_TX_FIFO_AVAILABLE))
  3582  002A3A  0E00               	movlw	0
  3583  002A3C  ECB9  F019         	call	_CAN1_TransmitFIFOStatusGet
  3584  002A40  6E2C               	movwf	??_CANWriteMessage^(0+1280),c
  3585  002A42  A02C               	btfss	??_CANWriteMessage^(0+1280),0,c
  3586  002A44  EF26  F015         	goto	u1961
  3587  002A48  EF28  F015         	goto	u1960
  3588  002A4C                     u1961:
  3589  002A4C  EF2F  F015         	goto	l1165
  3590  002A50                     u1960:
  3591  002A50                     
  3592                           ;MESSAGES.c: 52:             {;MESSAGES.c: 53:                 CAN1_Transmit(TXQ, &msg);
  3593  002A50  0E43               	movlw	low _msg
  3594  002A52  6E19               	movwf	CAN1_Transmit@txCanMsg^(0+1280),c
  3595  002A54  0E05               	movlw	high _msg
  3596  002A56  6E1A               	movwf	(CAN1_Transmit@txCanMsg+1)^(0+1280),c
  3597  002A58  0E00               	movlw	0
  3598  002A5A  ECBD  F016         	call	_CAN1_Transmit
  3599  002A5E                     l1165:
  3600  002A5E  0012               	return		;funcret
  3601  002A60                     __end_of_CANWriteMessage:
  3602                           	callstack 0
  3603                           
  3604 ;; *************** function _CAN1_TransmitFIFOStatusGet *****************
  3605 ;; Defined at:
  3606 ;;		line 337 in file "mcc_generated_files/can1.c"
  3607 ;; Parameters:    Size  Location     Type
  3608 ;;  fifoChannel     1    wreg     const enum E22383
  3609 ;; Auto vars:     Size  Location     Type
  3610 ;;  fifoChannel     1    5[COMRAM] const enum E22383
  3611 ;;  status          1    4[COMRAM] enum E22361
  3612 ;; Return value:  Size  Location     Type
  3613 ;;                  1    wreg      enum E22361
  3614 ;; Registers used:
  3615 ;;		wreg, fsr2l, fsr2h, status,2, status,0, prodl, prodh, cstack
  3616 ;; Tracked objects:
  3617 ;;		On entry : 0/0
  3618 ;;		On exit  : 0/0
  3619 ;;		Unchanged: 0/0
  3620 ;; Data sizes:     COMRAM   BANK5   BANK6   BANK7   BANK8   BANK9  BANK10  BANK11  BANK12  BANK13  BANK14  BANK15  BANK1
      +6  BANK17  BANK18  BANK19  BANK20  BANK21  BANK22  BANK23  BANK24  BANK25  BANK26  BANK27  BANK28  BANK29  BANK30  BANK3
      +1  BANK32  BANK33  BANK34  BANK35  BANK36  BANK37
  3621 ;;      Params:         0       0       0       0       0       0       0       0       0       0       0       0       
      +0       0       0       0       0       0       0       0       0       0       0       0       0       0       0       
      +0       0       0       0       0       0       0
  3622 ;;      Locals:         2       0       0       0       0       0       0       0       0       0       0       0       
      +0       0       0       0       0       0       0       0       0       0       0       0       0       0       0       
      +0       0       0       0       0       0       0
  3623 ;;      Temps:          0       0       0       0       0       0       0       0       0       0       0       0       
      +0       0       0       0       0       0       0       0       0       0       0       0       0       0       0       
      +0       0       0       0       0       0       0
  3624 ;;      Totals:         2       0       0       0       0       0       0       0       0       0       0       0       
      +0       0       0       0       0       0       0       0       0       0       0       0       0       0       0       
      +0       0       0       0       0       0       0
  3625 ;;Total ram usage:        2 bytes
  3626 ;; Hardware stack levels used: 1
  3627 ;; Hardware stack levels required when called: 5
  3628 ;; This function calls:
  3629 ;;		_GetTxFifoStatus
  3630 ;;		_isTxChannel
  3631 ;; This function is called by:
  3632 ;;		_CANWriteMessage
  3633 ;; This function uses a non-reentrant model
  3634 ;;
  3635                           
  3636                           	psect	text38
  3637  003372                     __ptext38:
  3638                           	callstack 0
  3639  003372                     _CAN1_TransmitFIFOStatusGet:
  3640                           	callstack 120
  3641                           
  3642                           ;incstack = 0
  3643                           ;CAN1_TransmitFIFOStatusGet@fifoChannel stored from wreg
  3644  003372  6E06               	movwf	CAN1_TransmitFIFOStatusGet@fifoChannel^(0+1280),c
  3645  003374                     
  3646                           ;mcc_generated_files/can1.c: 337: CAN_TX_FIFO_STATUS CAN1_TransmitFIFOStatusGet(const CA
      +                          N1_TX_FIFO_CHANNELS fifoChannel);mcc_generated_files/can1.c: 338: {;mcc_generated_files/
      +                          can1.c: 339:     CAN_TX_FIFO_STATUS status = CAN_TX_FIFO_FULL;
  3647  003374  0E00               	movlw	0
  3648  003376  6E05               	movwf	CAN1_TransmitFIFOStatusGet@status^(0+1280),c
  3649  003378                     
  3650                           ;mcc_generated_files/can1.c: 341:     if (isTxChannel(fifoChannel))
  3651  003378  5006               	movf	CAN1_TransmitFIFOStatusGet@fifoChannel^(0+1280),w,c
  3652  00337A  ECB8  F018         	call	_isTxChannel
  3653  00337E  0900               	iorlw	0
  3654  003380  B4D8               	btfsc	status,2,c
  3655  003382  EFC5  F019         	goto	u1931
  3656  003386  EFC7  F019         	goto	u1930
  3657  00338A                     u1931:
  3658  00338A  EFCB  F019         	goto	l3335
  3659  00338E                     u1930:
  3660  00338E                     
  3661                           ;mcc_generated_files/can1.c: 342:     {;mcc_generated_files/can1.c: 343:         status 
      +                          = GetTxFifoStatus(fifoChannel);
  3662  00338E  5006               	movf	CAN1_TransmitFIFOStatusGet@fifoChannel^(0+1280),w,c
  3663  003390  ECFC  F019         	call	_GetTxFifoStatus
  3664  003394  6E05               	movwf	CAN1_TransmitFIFOStatusGet@status^(0+1280),c
  3665  003396                     l3335:
  3666                           
  3667                           ;mcc_generated_files/can1.c: 346:     return status;
  3668  003396  5005               	movf	CAN1_TransmitFIFOStatusGet@status^(0+1280),w,c
  3669  003398  0012               	return		;funcret
  3670  00339A                     __end_of_CAN1_TransmitFIFOStatusGet:
  3671                           	callstack 0
  3672                           
  3673 ;; *************** function _CAN1_Transmit *****************
  3674 ;; Defined at:
  3675 ;;		line 315 in file "mcc_generated_files/can1.c"
  3676 ;; Parameters:    Size  Location     Type
  3677 ;;  fifoChannel     1    wreg     const enum E22383
  3678 ;;  txCanMsg        2   24[COMRAM] PTR struct .
  3679 ;;		 -> msg(7), 
  3680 ;; Auto vars:     Size  Location     Type
  3681 ;;  fifoChannel     1   29[COMRAM] const enum E22383
  3682 ;;  txFifoObj       2   27[COMRAM] PTR unsigned char 
  3683 ;;		 -> RAM(9727), 
  3684 ;;  status          1   26[COMRAM] enum E22340
  3685 ;; Return value:  Size  Location     Type
  3686 ;;                  1    wreg      enum E22340
  3687 ;; Registers used:
  3688 ;;		wreg, fsr1l, fsr1h, fsr2l, fsr2h, status,2, status,0, tblptrl, tblptrh, tblptru, prodl, prodh, cstack
  3689 ;; Tracked objects:
  3690 ;;		On entry : 0/0
  3691 ;;		On exit  : 0/0
  3692 ;;		Unchanged: 0/0
  3693 ;; Data sizes:     COMRAM   BANK5   BANK6   BANK7   BANK8   BANK9  BANK10  BANK11  BANK12  BANK13  BANK14  BANK15  BANK1
      +6  BANK17  BANK18  BANK19  BANK20  BANK21  BANK22  BANK23  BANK24  BANK25  BANK26  BANK27  BANK28  BANK29  BANK30  BANK3
      +1  BANK32  BANK33  BANK34  BANK35  BANK36  BANK37
  3694 ;;      Params:         2       0       0       0       0       0       0       0       0       0       0       0       
      +0       0       0       0       0       0       0       0       0       0       0       0       0       0       0       
      +0       0       0       0       0       0       0
  3695 ;;      Locals:         4       0       0       0       0       0       0       0       0       0       0       0       
      +0       0       0       0       0       0       0       0       0       0       0       0       0       0       0       
      +0       0       0       0       0       0       0
  3696 ;;      Temps:          0       0       0       0       0       0       0       0       0       0       0       0       
      +0       0       0       0       0       0       0       0       0       0       0       0       0       0       0       
      +0       0       0       0       0       0       0
  3697 ;;      Totals:         6       0       0       0       0       0       0       0       0       0       0       0       
      +0       0       0       0       0       0       0       0       0       0       0       0       0       0       0       
      +0       0       0       0       0       0       0
  3698 ;;Total ram usage:        6 bytes
  3699 ;; Hardware stack levels used: 1
  3700 ;; Hardware stack levels required when called: 6
  3701 ;; This function calls:
  3702 ;;		_ValidateTransmission
  3703 ;;		_WriteMessageToFifo
  3704 ;;		_isTxChannel
  3705 ;; This function is called by:
  3706 ;;		_CANWriteMessage
  3707 ;; This function uses a non-reentrant model
  3708 ;;
  3709                           
  3710                           	psect	text39
  3711  002D7A                     __ptext39:
  3712                           	callstack 0
  3713  002D7A                     _CAN1_Transmit:
  3714                           	callstack 119
  3715                           
  3716                           ;incstack = 0
  3717                           ;CAN1_Transmit@fifoChannel stored from wreg
  3718  002D7A  6E1E               	movwf	CAN1_Transmit@fifoChannel^(0+1280),c
  3719  002D7C                     
  3720                           ;mcc_generated_files/can1.c: 319:     if (isTxChannel(fifoChannel))
  3721  002D7C  501E               	movf	CAN1_Transmit@fifoChannel^(0+1280),w,c
  3722  002D7E  ECB8  F018         	call	_isTxChannel
  3723  002D82  0900               	iorlw	0
  3724  002D84  B4D8               	btfsc	status,2,c
  3725  002D86  EFC7  F016         	goto	u1901
  3726  002D8A  EFC9  F016         	goto	u1900
  3727  002D8E                     u1901:
  3728  002D8E  EF06  F017         	goto	l735
  3729  002D92                     u1900:
  3730  002D92                     
  3731                           ;mcc_generated_files/can1.c: 320:     {;mcc_generated_files/can1.c: 321:         status 
      +                          = ValidateTransmission(fifoChannel, txCanMsg);
  3732  002D92  C519  F504         	movff	CAN1_Transmit@txCanMsg,ValidateTransmission@txCanMsg
  3733  002D96  C51A  F505         	movff	CAN1_Transmit@txCanMsg+1,ValidateTransmission@txCanMsg+1
  3734  002D9A  501E               	movf	CAN1_Transmit@fifoChannel^(0+1280),w,c
  3735  002D9C  ECA0  F015         	call	_ValidateTransmission
  3736  002DA0  6E1B               	movwf	CAN1_Transmit@status^(0+1280),c
  3737  002DA2                     
  3738                           ;mcc_generated_files/can1.c: 322:         if (CAN_TX_MSG_REQUEST_SUCCESS == status)
  3739  002DA2  501B               	movf	CAN1_Transmit@status^(0+1280),w,c
  3740  002DA4  A4D8               	btfss	status,2,c
  3741  002DA6  EFD7  F016         	goto	u1911
  3742  002DAA  EFD9  F016         	goto	u1910
  3743  002DAE                     u1911:
  3744  002DAE  EF06  F017         	goto	l735
  3745  002DB2                     u1910:
  3746  002DB2                     
  3747                           ;mcc_generated_files/can1.c: 323:         {;mcc_generated_files/can1.c: 324:            
      +                           uint8_t *txFifoObj = (uint8_t *) FIFO[fifoChannel].UA;
  3748  002DB2  501E               	movf	CAN1_Transmit@fifoChannel^(0+1280),w,c
  3749  002DB4  0D0C               	mullw	12
  3750  002DB6  0E58               	movlw	88
  3751  002DB8  24F3               	addwf	243,w,c
  3752  002DBA  6ED9               	movwf	fsr2l,c
  3753  002DBC  0E01               	movlw	1
  3754  002DBE  20F4               	addwfc	prodh,w,c
  3755  002DC0  6EDA               	movwf	fsr2h,c
  3756  002DC2  0061 F378  F51C    	movff	postinc2,CAN1_Transmit@txFifoObj
  3757  002DC8  0061 F374  F51D    	movff	postdec2,CAN1_Transmit@txFifoObj+1
  3758  002DCE                     
  3759                           ;mcc_generated_files/can1.c: 326:             if (txFifoObj != ((void*)0))
  3760  002DCE  501C               	movf	CAN1_Transmit@txFifoObj^(0+1280),w,c
  3761  002DD0  101D               	iorwf	(CAN1_Transmit@txFifoObj+1)^(0+1280),w,c
  3762  002DD2  B4D8               	btfsc	status,2,c
  3763  002DD4  EFEE  F016         	goto	u1921
  3764  002DD8  EFF0  F016         	goto	u1920
  3765  002DDC                     u1921:
  3766  002DDC  EF06  F017         	goto	l732
  3767  002DE0                     u1920:
  3768  002DE0                     
  3769                           ;mcc_generated_files/can1.c: 327:             {;mcc_generated_files/can1.c: 328:        
      +                                   WriteMessageToFifo(txFifoObj, txCanMsg);
  3770  002DE0  C51C  F50E         	movff	CAN1_Transmit@txFifoObj,WriteMessageToFifo@txFifoObj
  3771  002DE4  C51D  F50F         	movff	CAN1_Transmit@txFifoObj+1,WriteMessageToFifo@txFifoObj+1
  3772  002DE8  C519  F510         	movff	CAN1_Transmit@txCanMsg,WriteMessageToFifo@txCanMsg
  3773  002DEC  C51A  F511         	movff	CAN1_Transmit@txCanMsg+1,WriteMessageToFifo@txCanMsg+1
  3774  002DF0  EC07  F013         	call	_WriteMessageToFifo	;wreg free
  3775  002DF4                     
  3776                           ;mcc_generated_files/can1.c: 329:                 FIFO[fifoChannel].CONH |= (0x2 | 0x1);
  3777  002DF4  501E               	movf	CAN1_Transmit@fifoChannel^(0+1280),w,c
  3778  002DF6  0D0C               	mullw	12
  3779  002DF8  0E51               	movlw	81
  3780  002DFA  24F3               	addwf	243,w,c
  3781  002DFC  6ED9               	movwf	fsr2l,c
  3782  002DFE  0E01               	movlw	1
  3783  002E00  20F4               	addwfc	prodh,w,c
  3784  002E02  6EDA               	movwf	fsr2h,c
  3785  002E04  0E03               	movlw	3
  3786  002E06  12DF               	iorwf	indf2,f,c
  3787  002E08  EF06  F017         	goto	l735
  3788  002E0C                     l732:
  3789  002E0C                     l735:
  3790  002E0C  0012               	return		;funcret
  3791  002E0E                     __end_of_CAN1_Transmit:
  3792                           	callstack 0
  3793                           
  3794 ;; *************** function _isTxChannel *****************
  3795 ;; Defined at:
  3796 ;;		line 235 in file "mcc_generated_files/can1.c"
  3797 ;; Parameters:    Size  Location     Type
  3798 ;;  channel         1    wreg     unsigned char 
  3799 ;; Auto vars:     Size  Location     Type
  3800 ;;  channel         1    3[COMRAM] unsigned char 
  3801 ;; Return value:  Size  Location     Type
  3802 ;;                  1    wreg      _Bool 
  3803 ;; Registers used:
  3804 ;;		wreg, fsr2l, fsr2h, status,2, status,0, prodl, prodh
  3805 ;; Tracked objects:
  3806 ;;		On entry : 0/0
  3807 ;;		On exit  : 0/0
  3808 ;;		Unchanged: 0/0
  3809 ;; Data sizes:     COMRAM   BANK5   BANK6   BANK7   BANK8   BANK9  BANK10  BANK11  BANK12  BANK13  BANK14  BANK15  BANK1
      +6  BANK17  BANK18  BANK19  BANK20  BANK21  BANK22  BANK23  BANK24  BANK25  BANK26  BANK27  BANK28  BANK29  BANK30  BANK3
      +1  BANK32  BANK33  BANK34  BANK35  BANK36  BANK37
  3810 ;;      Params:         0       0       0       0       0       0       0       0       0       0       0       0       
      +0       0       0       0       0       0       0       0       0       0       0       0       0       0       0       
      +0       0       0       0       0       0       0
  3811 ;;      Locals:         2       0       0       0       0       0       0       0       0       0       0       0       
      +0       0       0       0       0       0       0       0       0       0       0       0       0       0       0       
      +0       0       0       0       0       0       0
  3812 ;;      Temps:          0       0       0       0       0       0       0       0       0       0       0       0       
      +0       0       0       0       0       0       0       0       0       0       0       0       0       0       0       
      +0       0       0       0       0       0       0
  3813 ;;      Totals:         2       0       0       0       0       0       0       0       0       0       0       0       
      +0       0       0       0       0       0       0       0       0       0       0       0       0       0       0       
      +0       0       0       0       0       0       0
  3814 ;;Total ram usage:        2 bytes
  3815 ;; Hardware stack levels used: 1
  3816 ;; Hardware stack levels required when called: 4
  3817 ;; This function calls:
  3818 ;;		Nothing
  3819 ;; This function is called by:
  3820 ;;		_CAN1_Transmit
  3821 ;;		_CAN1_TransmitFIFOStatusGet
  3822 ;; This function uses a non-reentrant model
  3823 ;;
  3824                           
  3825                           	psect	text40
  3826  003170                     __ptext40:
  3827                           	callstack 0
  3828  003170                     _isTxChannel:
  3829                           	callstack 120
  3830                           
  3831                           ;incstack = 0
  3832                           ;isTxChannel@channel stored from wreg
  3833  003170  6E04               	movwf	isTxChannel@channel^(0+1280),c
  3834  003172                     
  3835                           ;mcc_generated_files/can1.c: 235: static _Bool isTxChannel(uint8_t channel);mcc_generate
      +                          d_files/can1.c: 236: {;mcc_generated_files/can1.c: 237:     return channel < 4u && (FIFO
      +                          [channel].CONL & 0x80);
  3836  003172  0E00               	movlw	0
  3837  003174  6E03               	movwf	_isTxChannel$1577^(0+1280),c
  3838  003176  0E04               	movlw	4
  3839  003178  6004               	cpfslt	isTxChannel@channel^(0+1280),c
  3840  00317A  EFC1  F018         	goto	u1691
  3841  00317E  EFC3  F018         	goto	u1690
  3842  003182                     u1691:
  3843  003182  EFD5  F018         	goto	l710
  3844  003186                     u1690:
  3845  003186  5004               	movf	isTxChannel@channel^(0+1280),w,c
  3846  003188  0D0C               	mullw	12
  3847  00318A  0E50               	movlw	80
  3848  00318C  24F3               	addwf	243,w,c
  3849  00318E  6ED9               	movwf	fsr2l,c
  3850  003190  0E01               	movlw	1
  3851  003192  20F4               	addwfc	prodh,w,c
  3852  003194  6EDA               	movwf	fsr2h,c
  3853  003196  0101               	movlb	1	; () banked
  3854  003198  AEDF               	btfss	indf2,7,c
  3855  00319A  EFD1  F018         	goto	u1701
  3856  00319E  EFD3  F018         	goto	u1700
  3857  0031A2                     u1701:
  3858  0031A2  EFD5  F018         	goto	l710
  3859  0031A6                     u1700:
  3860  0031A6                     
  3861                           ; BSR set to: 1
  3862  0031A6  0E01               	movlw	1
  3863  0031A8  6E03               	movwf	_isTxChannel$1577^(0+1280),c
  3864  0031AA                     l710:
  3865  0031AA  5003               	movf	_isTxChannel$1577^(0+1280),w,c
  3866  0031AC  0012               	return		;funcret
  3867  0031AE                     __end_of_isTxChannel:
  3868                           	callstack 0
  3869                           
  3870 ;; *************** function _WriteMessageToFifo *****************
  3871 ;; Defined at:
  3872 ;;		line 245 in file "mcc_generated_files/can1.c"
  3873 ;; Parameters:    Size  Location     Type
  3874 ;;  txFifoObj       2   13[COMRAM] PTR unsigned char 
  3875 ;;		 -> RAM(9727), 
  3876 ;;  txCanMsg        2   15[COMRAM] PTR struct .
  3877 ;;		 -> msg(7), 
  3878 ;; Auto vars:     Size  Location     Type
  3879 ;;  msgId           4   20[COMRAM] unsigned long 
  3880 ;;  status          1   19[COMRAM] unsigned char 
  3881 ;;  payloadOffse    1    0        const unsigned char 
  3882 ;; Return value:  Size  Location     Type
  3883 ;;                  1    wreg      void 
  3884 ;; Registers used:
  3885 ;;		wreg, fsr1l, fsr1h, fsr2l, fsr2h, status,2, status,0, tblptrl, tblptrh, tblptru, cstack
  3886 ;; Tracked objects:
  3887 ;;		On entry : 0/0
  3888 ;;		On exit  : 0/0
  3889 ;;		Unchanged: 0/0
  3890 ;; Data sizes:     COMRAM   BANK5   BANK6   BANK7   BANK8   BANK9  BANK10  BANK11  BANK12  BANK13  BANK14  BANK15  BANK1
      +6  BANK17  BANK18  BANK19  BANK20  BANK21  BANK22  BANK23  BANK24  BANK25  BANK26  BANK27  BANK28  BANK29  BANK30  BANK3
      +1  BANK32  BANK33  BANK34  BANK35  BANK36  BANK37
  3891 ;;      Params:         4       0       0       0       0       0       0       0       0       0       0       0       
      +0       0       0       0       0       0       0       0       0       0       0       0       0       0       0       
      +0       0       0       0       0       0       0
  3892 ;;      Locals:         5       0       0       0       0       0       0       0       0       0       0       0       
      +0       0       0       0       0       0       0       0       0       0       0       0       0       0       0       
      +0       0       0       0       0       0       0
  3893 ;;      Temps:          2       0       0       0       0       0       0       0       0       0       0       0       
      +0       0       0       0       0       0       0       0       0       0       0       0       0       0       0       
      +0       0       0       0       0       0       0
  3894 ;;      Totals:        11       0       0       0       0       0       0       0       0       0       0       0       
      +0       0       0       0       0       0       0       0       0       0       0       0       0       0       0       
      +0       0       0       0       0       0       0
  3895 ;;Total ram usage:       11 bytes
  3896 ;; Hardware stack levels used: 1
  3897 ;; Hardware stack levels required when called: 5
  3898 ;; This function calls:
  3899 ;;		_memcpy
  3900 ;; This function is called by:
  3901 ;;		_CAN1_Transmit
  3902 ;; This function uses a non-reentrant model
  3903 ;;
  3904                           
  3905                           	psect	text41
  3906  00260E                     __ptext41:
  3907                           	callstack 0
  3908  00260E                     _WriteMessageToFifo:
  3909                           	callstack 119
  3910  00260E                     
  3911                           ;mcc_generated_files/can1.c: 245: static void WriteMessageToFifo(uint8_t *txFifoObj, CAN
      +                          _MSG_OBJ *txCanMsg);mcc_generated_files/can1.c: 246: {;mcc_generated_files/can1.c: 247: 
      +                              uint32_t msgId = txCanMsg->msgId;
  3912  00260E  0061  F440  F4D9   	movff	WriteMessageToFifo@txCanMsg,fsr2l
  3913  002614  0061  F444  F4DA   	movff	WriteMessageToFifo@txCanMsg+1,fsr2h
  3914  00261A  0061 F378  F515    	movff	postinc2,WriteMessageToFifo@msgId
  3915  002620  0061 F378  F516    	movff	postinc2,WriteMessageToFifo@msgId+1
  3916  002626  0061 F378  F517    	movff	postinc2,WriteMessageToFifo@msgId+2
  3917  00262C  0061 F378  F518    	movff	postinc2,WriteMessageToFifo@msgId+3
  3918  002632                     
  3919                           ;mcc_generated_files/can1.c: 255:     if (CAN_FRAME_EXT == txCanMsg->field.idType)
  3920  002632  EE20 F004          	lfsr	2,4
  3921  002636  5010               	movf	WriteMessageToFifo@txCanMsg^(0+1280),w,c
  3922  002638  26D9               	addwf	fsr2l,f,c
  3923  00263A  5011               	movf	(WriteMessageToFifo@txCanMsg+1)^(0+1280),w,c
  3924  00263C  22DA               	addwfc	fsr2h,f,c
  3925  00263E  A0DF               	btfss	indf2,0,c
  3926  002640  EF24  F013         	goto	u1711
  3927  002644  EF26  F013         	goto	u1710
  3928  002648                     u1711:
  3929  002648  EF60  F013         	goto	l3241
  3930  00264C                     u1710:
  3931  00264C                     
  3932                           ;mcc_generated_files/can1.c: 256:     {;mcc_generated_files/can1.c: 257:         txFifoO
      +                          bj[1] = (msgId << (3U)) & (0xF8U);
  3933  00264C  EE20 F001          	lfsr	2,1
  3934  002650  500E               	movf	WriteMessageToFifo@txFifoObj^(0+1280),w,c
  3935  002652  26D9               	addwf	fsr2l,f,c
  3936  002654  500F               	movf	(WriteMessageToFifo@txFifoObj+1)^(0+1280),w,c
  3937  002656  22DA               	addwfc	fsr2h,f,c
  3938  002658  3815               	swapf	WriteMessageToFifo@msgId^(0+1280),w,c
  3939  00265A  42E8               	rrncf	wreg,f,c
  3940  00265C  0BF8               	andlw	248
  3941  00265E  0BF8               	andlw	248
  3942  002660  6EDF               	movwf	indf2,c
  3943  002662                     
  3944                           ;mcc_generated_files/can1.c: 258:         msgId >>= (5U);
  3945  002662  0E05               	movlw	5
  3946  002664  6E12               	movwf	??_WriteMessageToFifo^(0+1280),c
  3947  002666                     u1725:
  3948  002666  90D8               	bcf	status,0,c
  3949  002668  3218               	rrcf	(WriteMessageToFifo@msgId+3)^(0+1280),f,c
  3950  00266A  3217               	rrcf	(WriteMessageToFifo@msgId+2)^(0+1280),f,c
  3951  00266C  3216               	rrcf	(WriteMessageToFifo@msgId+1)^(0+1280),f,c
  3952  00266E  3215               	rrcf	WriteMessageToFifo@msgId^(0+1280),f,c
  3953  002670  2E12               	decfsz	??_WriteMessageToFifo^(0+1280),f,c
  3954  002672  EF33  F013         	goto	u1725
  3955  002676                     
  3956                           ;mcc_generated_files/can1.c: 259:         txFifoObj[2] = msgId;
  3957  002676  EE20 F002          	lfsr	2,2
  3958  00267A  500E               	movf	WriteMessageToFifo@txFifoObj^(0+1280),w,c
  3959  00267C  26D9               	addwf	fsr2l,f,c
  3960  00267E  500F               	movf	(WriteMessageToFifo@txFifoObj+1)^(0+1280),w,c
  3961  002680  22DA               	addwfc	fsr2h,f,c
  3962  002682  0061  F454  F4DF   	movff	WriteMessageToFifo@msgId,indf2
  3963  002688                     
  3964                           ;mcc_generated_files/can1.c: 260:         msgId >>= (8U);
  3965  002688  C516  F515         	movff	WriteMessageToFifo@msgId+1,WriteMessageToFifo@msgId
  3966  00268C  C517  F516         	movff	WriteMessageToFifo@msgId+2,WriteMessageToFifo@msgId+1
  3967  002690  C518  F517         	movff	WriteMessageToFifo@msgId+3,WriteMessageToFifo@msgId+2
  3968  002694  6A18               	clrf	(WriteMessageToFifo@msgId+3)^(0+1280),c
  3969  002696                     
  3970                           ;mcc_generated_files/can1.c: 261:         txFifoObj[3] = (msgId & (0x1FU));
  3971  002696  EE20 F003          	lfsr	2,3
  3972  00269A  500E               	movf	WriteMessageToFifo@txFifoObj^(0+1280),w,c
  3973  00269C  26D9               	addwf	fsr2l,f,c
  3974  00269E  500F               	movf	(WriteMessageToFifo@txFifoObj+1)^(0+1280),w,c
  3975  0026A0  22DA               	addwfc	fsr2h,f,c
  3976  0026A2  5015               	movf	WriteMessageToFifo@msgId^(0+1280),w,c
  3977  0026A4  0B1F               	andlw	31
  3978  0026A6  6EDF               	movwf	indf2,c
  3979  0026A8                     
  3980                           ;mcc_generated_files/can1.c: 262:         msgId >>= (5U);
  3981  0026A8  0E05               	movlw	5
  3982  0026AA  6E12               	movwf	??_WriteMessageToFifo^(0+1280),c
  3983  0026AC                     u1735:
  3984  0026AC  90D8               	bcf	status,0,c
  3985  0026AE  3218               	rrcf	(WriteMessageToFifo@msgId+3)^(0+1280),f,c
  3986  0026B0  3217               	rrcf	(WriteMessageToFifo@msgId+2)^(0+1280),f,c
  3987  0026B2  3216               	rrcf	(WriteMessageToFifo@msgId+1)^(0+1280),f,c
  3988  0026B4  3215               	rrcf	WriteMessageToFifo@msgId^(0+1280),f,c
  3989  0026B6  2E12               	decfsz	??_WriteMessageToFifo^(0+1280),f,c
  3990  0026B8  EF56  F013         	goto	u1735
  3991                           
  3992                           ;mcc_generated_files/can1.c: 263:     }
  3993  0026BC  EF78  F013         	goto	l3243
  3994  0026C0                     l3241:
  3995                           
  3996                           ;mcc_generated_files/can1.c: 265:     {;mcc_generated_files/can1.c: 266:         txFifoO
      +                          bj[1] = txFifoObj[2] = txFifoObj[3] = 0;
  3997  0026C0  EE20 F003          	lfsr	2,3
  3998  0026C4  500E               	movf	WriteMessageToFifo@txFifoObj^(0+1280),w,c
  3999  0026C6  26D9               	addwf	fsr2l,f,c
  4000  0026C8  500F               	movf	(WriteMessageToFifo@txFifoObj+1)^(0+1280),w,c
  4001  0026CA  22DA               	addwfc	fsr2h,f,c
  4002  0026CC  0E00               	movlw	0
  4003  0026CE  6EDF               	movwf	indf2,c
  4004  0026D0  EE10 F002          	lfsr	1,2
  4005  0026D4  500E               	movf	WriteMessageToFifo@txFifoObj^(0+1280),w,c
  4006  0026D6  26E1               	addwf	fsr1l,f,c
  4007  0026D8  500F               	movf	(WriteMessageToFifo@txFifoObj+1)^(0+1280),w,c
  4008  0026DA  22E2               	addwfc	fsr1h,f,c
  4009  0026DC  C4DF F4E7          	movff	indf2,indf1
  4010  0026E0  EE20 F001          	lfsr	2,1
  4011  0026E4  500E               	movf	WriteMessageToFifo@txFifoObj^(0+1280),w,c
  4012  0026E6  26D9               	addwf	fsr2l,f,c
  4013  0026E8  500F               	movf	(WriteMessageToFifo@txFifoObj+1)^(0+1280),w,c
  4014  0026EA  22DA               	addwfc	fsr2h,f,c
  4015  0026EC  C4E7 F4DF          	movff	indf1,indf2
  4016  0026F0                     l3243:
  4017                           
  4018                           ;mcc_generated_files/can1.c: 269:     txFifoObj[0] = msgId;
  4019  0026F0  0061  F438  F4D9   	movff	WriteMessageToFifo@txFifoObj,fsr2l
  4020  0026F6  0061  F43C  F4DA   	movff	WriteMessageToFifo@txFifoObj+1,fsr2h
  4021  0026FC  0061  F454  F4DF   	movff	WriteMessageToFifo@msgId,indf2
  4022  002702                     
  4023                           ;mcc_generated_files/can1.c: 270:     msgId >>= (8U);
  4024  002702  C516  F515         	movff	WriteMessageToFifo@msgId+1,WriteMessageToFifo@msgId
  4025  002706  C517  F516         	movff	WriteMessageToFifo@msgId+2,WriteMessageToFifo@msgId+1
  4026  00270A  C518  F517         	movff	WriteMessageToFifo@msgId+3,WriteMessageToFifo@msgId+2
  4027  00270E  6A18               	clrf	(WriteMessageToFifo@msgId+3)^(0+1280),c
  4028  002710                     
  4029                           ;mcc_generated_files/can1.c: 271:     txFifoObj[1] |= (msgId & (0x07U));
  4030  002710  C515  F512         	movff	WriteMessageToFifo@msgId,??_WriteMessageToFifo
  4031  002714  0E07               	movlw	7
  4032  002716  1612               	andwf	??_WriteMessageToFifo^(0+1280),f,c
  4033  002718  EE20 F001          	lfsr	2,1
  4034  00271C  500E               	movf	WriteMessageToFifo@txFifoObj^(0+1280),w,c
  4035  00271E  26D9               	addwf	fsr2l,f,c
  4036  002720  500F               	movf	(WriteMessageToFifo@txFifoObj+1)^(0+1280),w,c
  4037  002722  22DA               	addwfc	fsr2h,f,c
  4038  002724  5012               	movf	??_WriteMessageToFifo^(0+1280),w,c
  4039  002726  12DF               	iorwf	indf2,f,c
  4040  002728                     
  4041                           ;mcc_generated_files/can1.c: 273:     status = txCanMsg->field.dlc;
  4042  002728  EE20 F004          	lfsr	2,4
  4043  00272C  5010               	movf	WriteMessageToFifo@txCanMsg^(0+1280),w,c
  4044  00272E  26D9               	addwf	fsr2l,f,c
  4045  002730  5011               	movf	(WriteMessageToFifo@txCanMsg+1)^(0+1280),w,c
  4046  002732  22DA               	addwfc	fsr2h,f,c
  4047  002734  30DF               	rrcf	479,w,c
  4048  002736  32E8               	rrcf	wreg,f,c
  4049  002738  0B0F               	andlw	15
  4050  00273A  6E14               	movwf	WriteMessageToFifo@status^(0+1280),c
  4051  00273C                     
  4052                           ;mcc_generated_files/can1.c: 274:     status |= (txCanMsg->field.idType << (4U));
  4053  00273C  EE20 F004          	lfsr	2,4
  4054  002740  5010               	movf	WriteMessageToFifo@txCanMsg^(0+1280),w,c
  4055  002742  26D9               	addwf	fsr2l,f,c
  4056  002744  5011               	movf	(WriteMessageToFifo@txCanMsg+1)^(0+1280),w,c
  4057  002746  22DA               	addwfc	fsr2h,f,c
  4058  002748  B0DF               	btfsc	indf2,0,c
  4059  00274A  EFA9  F013         	goto	u1741
  4060  00274E  EFAD  F013         	goto	u1740
  4061  002752                     u1741:
  4062  002752  6A12               	clrf	??_WriteMessageToFifo^(0+1280),c
  4063  002754  2A12               	incf	??_WriteMessageToFifo^(0+1280),f,c
  4064  002756  EFAE  F013         	goto	u1748
  4065  00275A                     u1740:
  4066  00275A  6A12               	clrf	??_WriteMessageToFifo^(0+1280),c
  4067  00275C                     u1748:
  4068  00275C  3812               	swapf	??_WriteMessageToFifo^(0+1280),w,c
  4069  00275E  0BF0               	andlw	240
  4070  002760  1214               	iorwf	WriteMessageToFifo@status^(0+1280),f,c
  4071  002762                     
  4072                           ;mcc_generated_files/can1.c: 275:     status |= (txCanMsg->field.frameType << (5U));
  4073  002762  EE20 F004          	lfsr	2,4
  4074  002766  5010               	movf	WriteMessageToFifo@txCanMsg^(0+1280),w,c
  4075  002768  26D9               	addwf	fsr2l,f,c
  4076  00276A  5011               	movf	(WriteMessageToFifo@txCanMsg+1)^(0+1280),w,c
  4077  00276C  22DA               	addwfc	fsr2h,f,c
  4078  00276E  B2DF               	btfsc	indf2,1,c
  4079  002770  EFBC  F013         	goto	u1751
  4080  002774  EFC0  F013         	goto	u1750
  4081  002778                     u1751:
  4082  002778  0E20               	movlw	32
  4083  00277A  6E12               	movwf	??_WriteMessageToFifo^(0+1280),c
  4084  00277C  EFC1  F013         	goto	u1765
  4085  002780                     u1750:
  4086  002780  6A12               	clrf	??_WriteMessageToFifo^(0+1280),c
  4087  002782                     u1765:
  4088  002782  5012               	movf	??_WriteMessageToFifo^(0+1280),w,c
  4089  002784  1214               	iorwf	WriteMessageToFifo@status^(0+1280),f,c
  4090  002786                     
  4091                           ;mcc_generated_files/can1.c: 276:     status |= (txCanMsg->field.brs << (6U));
  4092  002786  EE20 F004          	lfsr	2,4
  4093  00278A  5010               	movf	WriteMessageToFifo@txCanMsg^(0+1280),w,c
  4094  00278C  26D9               	addwf	fsr2l,f,c
  4095  00278E  5011               	movf	(WriteMessageToFifo@txCanMsg+1)^(0+1280),w,c
  4096  002790  22DA               	addwfc	fsr2h,f,c
  4097  002792  BEDF               	btfsc	indf2,7,c
  4098  002794  EFCE  F013         	goto	u1771
  4099  002798  EFD2  F013         	goto	u1770
  4100  00279C                     u1771:
  4101  00279C  0E40               	movlw	64
  4102  00279E  6E12               	movwf	??_WriteMessageToFifo^(0+1280),c
  4103  0027A0  EFD3  F013         	goto	u1785
  4104  0027A4                     u1770:
  4105  0027A4  6A12               	clrf	??_WriteMessageToFifo^(0+1280),c
  4106  0027A6                     u1785:
  4107  0027A6  5012               	movf	??_WriteMessageToFifo^(0+1280),w,c
  4108  0027A8  1214               	iorwf	WriteMessageToFifo@status^(0+1280),f,c
  4109  0027AA                     
  4110                           ;mcc_generated_files/can1.c: 277:     status |= (txCanMsg->field.formatType << (7U));
  4111  0027AA  EE20 F004          	lfsr	2,4
  4112  0027AE  5010               	movf	WriteMessageToFifo@txCanMsg^(0+1280),w,c
  4113  0027B0  26D9               	addwf	fsr2l,f,c
  4114  0027B2  5011               	movf	(WriteMessageToFifo@txCanMsg+1)^(0+1280),w,c
  4115  0027B4  22DA               	addwfc	fsr2h,f,c
  4116  0027B6  BCDF               	btfsc	indf2,6,c
  4117  0027B8  EFE0  F013         	goto	u1791
  4118  0027BC  EFE4  F013         	goto	u1790
  4119  0027C0                     u1791:
  4120  0027C0  0E80               	movlw	128
  4121  0027C2  6E12               	movwf	??_WriteMessageToFifo^(0+1280),c
  4122  0027C4  EFE5  F013         	goto	u1805
  4123  0027C8                     u1790:
  4124  0027C8  6A12               	clrf	??_WriteMessageToFifo^(0+1280),c
  4125  0027CA                     u1805:
  4126  0027CA  5012               	movf	??_WriteMessageToFifo^(0+1280),w,c
  4127  0027CC  1214               	iorwf	WriteMessageToFifo@status^(0+1280),f,c
  4128  0027CE                     
  4129                           ;mcc_generated_files/can1.c: 278:     txFifoObj[4] = status;
  4130  0027CE  EE20 F004          	lfsr	2,4
  4131  0027D2  500E               	movf	WriteMessageToFifo@txFifoObj^(0+1280),w,c
  4132  0027D4  26D9               	addwf	fsr2l,f,c
  4133  0027D6  500F               	movf	(WriteMessageToFifo@txFifoObj+1)^(0+1280),w,c
  4134  0027D8  22DA               	addwfc	fsr2h,f,c
  4135  0027DA  0061  F450  F4DF   	movff	WriteMessageToFifo@status,indf2
  4136  0027E0                     
  4137                           ;mcc_generated_files/can1.c: 280:     if (CAN_FRAME_DATA == txCanMsg->field.frameType)
  4138  0027E0  EE20 F004          	lfsr	2,4
  4139  0027E4  5010               	movf	WriteMessageToFifo@txCanMsg^(0+1280),w,c
  4140  0027E6  26D9               	addwf	fsr2l,f,c
  4141  0027E8  5011               	movf	(WriteMessageToFifo@txCanMsg+1)^(0+1280),w,c
  4142  0027EA  22DA               	addwfc	fsr2h,f,c
  4143  0027EC  B2DF               	btfsc	indf2,1,c
  4144  0027EE  EFFB  F013         	goto	u1811
  4145  0027F2  EFFD  F013         	goto	u1810
  4146  0027F6                     u1811:
  4147  0027F6  EF29  F014         	goto	l720
  4148  0027FA                     u1810:
  4149  0027FA                     
  4150                           ;mcc_generated_files/can1.c: 281:     {;mcc_generated_files/can1.c: 282:         memcpy(
      +                          txFifoObj + payloadOffsetBytes, txCanMsg->data, (DLC_BYTES[(txCanMsg->field.dlc)]));
  4151  0027FA  0E08               	movlw	8
  4152  0027FC  240E               	addwf	WriteMessageToFifo@txFifoObj^(0+1280),w,c
  4153  0027FE  6E03               	movwf	memcpy@d1^(0+1280),c
  4154  002800  0E00               	movlw	0
  4155  002802  200F               	addwfc	(WriteMessageToFifo@txFifoObj+1)^(0+1280),w,c
  4156  002804  6E04               	movwf	(memcpy@d1+1)^(0+1280),c
  4157  002806  EE20 F005          	lfsr	2,5
  4158  00280A  5010               	movf	WriteMessageToFifo@txCanMsg^(0+1280),w,c
  4159  00280C  26D9               	addwf	fsr2l,f,c
  4160  00280E  5011               	movf	(WriteMessageToFifo@txCanMsg+1)^(0+1280),w,c
  4161  002810  22DA               	addwfc	fsr2h,f,c
  4162  002812  0061 F378  F505    	movff	postinc2,memcpy@s1
  4163  002818  0061 F374  F506    	movff	postdec2,memcpy@s1+1
  4164  00281E  EE20 F004          	lfsr	2,4
  4165  002822  5010               	movf	WriteMessageToFifo@txCanMsg^(0+1280),w,c
  4166  002824  26D9               	addwf	fsr2l,f,c
  4167  002826  5011               	movf	(WriteMessageToFifo@txCanMsg+1)^(0+1280),w,c
  4168  002828  22DA               	addwfc	fsr2h,f,c
  4169  00282A  30DF               	rrcf	479,w,c
  4170  00282C  32E8               	rrcf	wreg,f,c
  4171  00282E  0B0F               	andlw	15
  4172  002830  6E12               	movwf	??_WriteMessageToFifo^(0+1280),c
  4173  002832  6A13               	clrf	(??_WriteMessageToFifo+1)^(0+1280),c
  4174  002834  0E01               	movlw	low _DLC_BYTES
  4175  002836  2412               	addwf	??_WriteMessageToFifo^(0+1280),w,c
  4176  002838  6EF6               	movwf	tblptrl,c
  4177  00283A  0E26               	movlw	high _DLC_BYTES
  4178  00283C  2013               	addwfc	(??_WriteMessageToFifo+1)^(0+1280),w,c
  4179  00283E  6EF7               	movwf	tblptrh,c
  4180  002840                     	if	1	;There are 3 active tblptr bytes
  4181  002840  6AF8               	clrf	tblptru,c
  4182  002842  0E00               	movlw	low (__mediumconst shr (0+16))
  4183  002844  22F8               	addwfc	tblptru,f,c
  4184  002846                     	endif
  4185  002846  0008               	tblrd		*
  4186  002848  50F5               	movf	tablat,w,c
  4187  00284A  6E07               	movwf	memcpy@n^(0+1280),c
  4188  00284C  6A08               	clrf	(memcpy@n+1)^(0+1280),c
  4189  00284E  EC22  F018         	call	_memcpy	;wreg free
  4190  002852                     l720:
  4191  002852  0012               	return		;funcret
  4192  002854                     __end_of_WriteMessageToFifo:
  4193                           	callstack 0
  4194                           
  4195 ;; *************** function _memcpy *****************
  4196 ;; Defined at:
  4197 ;;		line 4 in file "C:\Program Files\Microchip\xc8\v2.32\pic\sources\c99\common\memcpy.c"
  4198 ;; Parameters:    Size  Location     Type
  4199 ;;  d1              2    2[COMRAM] PTR void 
  4200 ;;		 -> RAM(9727), 
  4201 ;;  s1              2    4[COMRAM] PTR const void 
  4202 ;;		 -> CANDATAdata(32), 
  4203 ;;  n               2    6[COMRAM] unsigned int 
  4204 ;; Auto vars:     Size  Location     Type
  4205 ;;  s               2   11[COMRAM] PTR const unsigned char 
  4206 ;;		 -> CANDATAdata(32), 
  4207 ;;  d               2    9[COMRAM] PTR unsigned char 
  4208 ;;		 -> RAM(9727), 
  4209 ;;  tmp             1    8[COMRAM] unsigned char 
  4210 ;; Return value:  Size  Location     Type
  4211 ;;                  2    2[COMRAM] PTR void 
  4212 ;; Registers used:
  4213 ;;		wreg, fsr2l, fsr2h, status,2, status,0
  4214 ;; Tracked objects:
  4215 ;;		On entry : 0/0
  4216 ;;		On exit  : 0/0
  4217 ;;		Unchanged: 0/0
  4218 ;; Data sizes:     COMRAM   BANK5   BANK6   BANK7   BANK8   BANK9  BANK10  BANK11  BANK12  BANK13  BANK14  BANK15  BANK1
      +6  BANK17  BANK18  BANK19  BANK20  BANK21  BANK22  BANK23  BANK24  BANK25  BANK26  BANK27  BANK28  BANK29  BANK30  BANK3
      +1  BANK32  BANK33  BANK34  BANK35  BANK36  BANK37
  4219 ;;      Params:         6       0       0       0       0       0       0       0       0       0       0       0       
      +0       0       0       0       0       0       0       0       0       0       0       0       0       0       0       
      +0       0       0       0       0       0       0
  4220 ;;      Locals:         5       0       0       0       0       0       0       0       0       0       0       0       
      +0       0       0       0       0       0       0       0       0       0       0       0       0       0       0       
      +0       0       0       0       0       0       0
  4221 ;;      Temps:          0       0       0       0       0       0       0       0       0       0       0       0       
      +0       0       0       0       0       0       0       0       0       0       0       0       0       0       0       
      +0       0       0       0       0       0       0
  4222 ;;      Totals:        11       0       0       0       0       0       0       0       0       0       0       0       
      +0       0       0       0       0       0       0       0       0       0       0       0       0       0       0       
      +0       0       0       0       0       0       0
  4223 ;;Total ram usage:       11 bytes
  4224 ;; Hardware stack levels used: 1
  4225 ;; Hardware stack levels required when called: 4
  4226 ;; This function calls:
  4227 ;;		Nothing
  4228 ;; This function is called by:
  4229 ;;		_WriteMessageToFifo
  4230 ;; This function uses a non-reentrant model
  4231 ;;
  4232                           
  4233                           	psect	text42
  4234  003044                     __ptext42:
  4235                           	callstack 0
  4236  003044                     _memcpy:
  4237                           	callstack 119
  4238  003044  C505  F50C         	movff	memcpy@s1,memcpy@s
  4239  003048  C506  F50D         	movff	memcpy@s1+1,memcpy@s+1
  4240  00304C  C503  F50A         	movff	memcpy@d1,memcpy@d
  4241  003050  C504  F50B         	movff	memcpy@d1+1,memcpy@d+1
  4242  003054  EF41  F018         	goto	l3191
  4243  003058                     l3183:
  4244  003058  0061  F430  F4D9   	movff	memcpy@s,fsr2l
  4245  00305E  0061  F434  F4DA   	movff	memcpy@s+1,fsr2h
  4246  003064  50DF               	movf	indf2,w,c
  4247  003066  6E09               	movwf	memcpy@tmp^(0+1280),c
  4248  003068  4A0C               	infsnz	memcpy@s^(0+1280),f,c
  4249  00306A  2A0D               	incf	(memcpy@s+1)^(0+1280),f,c
  4250  00306C  0061  F428  F4D9   	movff	memcpy@d,fsr2l
  4251  003072  0061  F42C  F4DA   	movff	memcpy@d+1,fsr2h
  4252  003078  0061  F424  F4DF   	movff	memcpy@tmp,indf2
  4253  00307E  4A0A               	infsnz	memcpy@d^(0+1280),f,c
  4254  003080  2A0B               	incf	(memcpy@d+1)^(0+1280),f,c
  4255  003082                     l3191:
  4256  003082  0607               	decf	memcpy@n^(0+1280),f,c
  4257  003084  A0D8               	btfss	status,0,c
  4258  003086  0608               	decf	(memcpy@n+1)^(0+1280),f,c
  4259  003088  2807               	incf	memcpy@n^(0+1280),w,c
  4260  00308A  E106               	bnz	u1631
  4261  00308C  2808               	incf	(memcpy@n+1)^(0+1280),w,c
  4262  00308E  A4D8               	btfss	status,2,c
  4263  003090  EF4C  F018         	goto	u1631
  4264  003094  EF4E  F018         	goto	u1630
  4265  003098                     u1631:
  4266  003098  EF2C  F018         	goto	l3183
  4267  00309C                     u1630:
  4268  00309C  0012               	return		;funcret
  4269  00309E                     __end_of_memcpy:
  4270                           	callstack 0
  4271                           
  4272 ;; *************** function _ValidateTransmission *****************
  4273 ;; Defined at:
  4274 ;;		line 286 in file "mcc_generated_files/can1.c"
  4275 ;; Parameters:    Size  Location     Type
  4276 ;;  validChannel    1    wreg     unsigned char 
  4277 ;;  txCanMsg        2    3[COMRAM] PTR struct .
  4278 ;;		 -> msg(7), 
  4279 ;; Auto vars:     Size  Location     Type
  4280 ;;  validChannel    1    8[COMRAM] unsigned char 
  4281 ;;  field           1   10[COMRAM] struct .
  4282 ;;  txMsgStatus     1    9[COMRAM] enum E22340
  4283 ;;  plsize          1    0        unsigned char 
  4284 ;; Return value:  Size  Location     Type
  4285 ;;                  1    wreg      enum E22340
  4286 ;; Registers used:
  4287 ;;		wreg, fsr2l, fsr2h, status,2, status,0, tblptrl, tblptrh, tblptru, prodl, prodh, cstack
  4288 ;; Tracked objects:
  4289 ;;		On entry : 0/0
  4290 ;;		On exit  : 0/0
  4291 ;;		Unchanged: 0/0
  4292 ;; Data sizes:     COMRAM   BANK5   BANK6   BANK7   BANK8   BANK9  BANK10  BANK11  BANK12  BANK13  BANK14  BANK15  BANK1
      +6  BANK17  BANK18  BANK19  BANK20  BANK21  BANK22  BANK23  BANK24  BANK25  BANK26  BANK27  BANK28  BANK29  BANK30  BANK3
      +1  BANK32  BANK33  BANK34  BANK35  BANK36  BANK37
  4293 ;;      Params:         2       0       0       0       0       0       0       0       0       0       0       0       
      +0       0       0       0       0       0       0       0       0       0       0       0       0       0       0       
      +0       0       0       0       0       0       0
  4294 ;;      Locals:         3       0       0       0       0       0       0       0       0       0       0       0       
      +0       0       0       0       0       0       0       0       0       0       0       0       0       0       0       
      +0       0       0       0       0       0       0
  4295 ;;      Temps:          3       0       0       0       0       0       0       0       0       0       0       0       
      +0       0       0       0       0       0       0       0       0       0       0       0       0       0       0       
      +0       0       0       0       0       0       0
  4296 ;;      Totals:         8       0       0       0       0       0       0       0       0       0       0       0       
      +0       0       0       0       0       0       0       0       0       0       0       0       0       0       0       
      +0       0       0       0       0       0       0
  4297 ;;Total ram usage:        8 bytes
  4298 ;; Hardware stack levels used: 1
  4299 ;; Hardware stack levels required when called: 5
  4300 ;; This function calls:
  4301 ;;		_CAN1_OperationModeGet
  4302 ;;		_GetTxFifoStatus
  4303 ;; This function is called by:
  4304 ;;		_CAN1_Transmit
  4305 ;; This function uses a non-reentrant model
  4306 ;;
  4307                           
  4308                           	psect	text43
  4309  002B40                     __ptext43:
  4310                           	callstack 0
  4311  002B40                     _ValidateTransmission:
  4312                           	callstack 119
  4313                           
  4314                           ;incstack = 0
  4315                           ;ValidateTransmission@validChannel stored from wreg
  4316  002B40  6E09               	movwf	ValidateTransmission@validChannel^(0+1280),c
  4317  002B42                     
  4318                           ;mcc_generated_files/can1.c: 286: static CAN_TX_MSG_REQUEST_STATUS ValidateTransmission(
      +                          uint8_t validChannel, CAN_MSG_OBJ *txCanMsg);mcc_generated_files/can1.c: 287: {;mcc_gene
      +                          rated_files/can1.c: 288:     CAN_TX_MSG_REQUEST_STATUS txMsgStatus = CAN_TX_MSG_REQUEST_
      +                          SUCCESS;
  4319  002B42  0E00               	movlw	0
  4320  002B44  6E0A               	movwf	ValidateTransmission@txMsgStatus^(0+1280),c
  4321  002B46                     
  4322                           ;mcc_generated_files/can1.c: 289:     CAN_MSG_FIELD field = txCanMsg->field;
  4323  002B46  EE20 F004          	lfsr	2,4
  4324  002B4A  5004               	movf	ValidateTransmission@txCanMsg^(0+1280),w,c
  4325  002B4C  26D9               	addwf	fsr2l,f,c
  4326  002B4E  5005               	movf	(ValidateTransmission@txCanMsg+1)^(0+1280),w,c
  4327  002B50  22DA               	addwfc	fsr2h,f,c
  4328  002B52  50DF               	movf	indf2,w,c
  4329  002B54  6E0B               	movwf	ValidateTransmission@field^(0+1280),c
  4330  002B56                     
  4331                           ;mcc_generated_files/can1.c: 292:     if (CAN_BRS_MODE == field.brs && (CAN_NORMAL_2_0_M
      +                          ODE == CAN1_OperationModeGet()))
  4332  002B56  AE0B               	btfss	ValidateTransmission@field^(0+1280),7,c
  4333  002B58  EFB0  F015         	goto	u1821
  4334  002B5C  EFB2  F015         	goto	u1820
  4335  002B60                     u1821:
  4336  002B60  EFBD  F015         	goto	l3277
  4337  002B64                     u1820:
  4338  002B64  EC8F  F01A         	call	_CAN1_OperationModeGet	;wreg free
  4339  002B68  0A06               	xorlw	6
  4340  002B6A  A4D8               	btfss	status,2,c
  4341  002B6C  EFBA  F015         	goto	u1831
  4342  002B70  EFBC  F015         	goto	u1830
  4343  002B74                     u1831:
  4344  002B74  EFBD  F015         	goto	l3277
  4345  002B78                     u1830:
  4346  002B78                     
  4347                           ;mcc_generated_files/can1.c: 293:     {;mcc_generated_files/can1.c: 294:         txMsgSt
      +                          atus |= CAN_TX_MSG_REQUEST_BRS_ERROR;
  4348  002B78  820A               	bsf	ValidateTransmission@txMsgStatus^(0+1280),1,c
  4349  002B7A                     l3277:
  4350                           
  4351                           ;mcc_generated_files/can1.c: 297:     if (field.dlc > DLC_8 && (CAN_2_0_FORMAT == field.
      +                          formatType || CAN_NORMAL_2_0_MODE == CAN1_OperationModeGet()))
  4352  002B7A  300B               	rrcf	ValidateTransmission@field^(0+1280),w,c
  4353  002B7C  32E8               	rrcf	wreg,f,c
  4354  002B7E  0B0F               	andlw	15
  4355  002B80  6E06               	movwf	??_ValidateTransmission^(0+1280),c
  4356  002B82  0E08               	movlw	8
  4357  002B84  6406               	cpfsgt	??_ValidateTransmission^(0+1280),c
  4358  002B86  EFC7  F015         	goto	u1841
  4359  002B8A  EFC9  F015         	goto	u1840
  4360  002B8E                     u1841:
  4361  002B8E  EFDB  F015         	goto	l3285
  4362  002B92                     u1840:
  4363  002B92  AC0B               	btfss	ValidateTransmission@field^(0+1280),6,c
  4364  002B94  EFCE  F015         	goto	u1851
  4365  002B98  EFD0  F015         	goto	u1850
  4366  002B9C                     u1851:
  4367  002B9C  EFDA  F015         	goto	l3283
  4368  002BA0                     u1850:
  4369  002BA0  EC8F  F01A         	call	_CAN1_OperationModeGet	;wreg free
  4370  002BA4  0A06               	xorlw	6
  4371  002BA6  A4D8               	btfss	status,2,c
  4372  002BA8  EFD8  F015         	goto	u1861
  4373  002BAC  EFDA  F015         	goto	u1860
  4374  002BB0                     u1861:
  4375  002BB0  EFDB  F015         	goto	l3285
  4376  002BB4                     u1860:
  4377  002BB4                     l3283:
  4378                           
  4379                           ;mcc_generated_files/can1.c: 298:     {;mcc_generated_files/can1.c: 299:         txMsgSt
      +                          atus |= CAN_TX_MSG_REQUEST_DLC_EXCEED_ERROR;
  4380  002BB4  800A               	bsf	ValidateTransmission@txMsgStatus^(0+1280),0,c
  4381  002BB6                     l3285:
  4382                           
  4383                           ;mcc_generated_files/can1.c: 302:     if ((DLC_BYTES[(field.dlc)]) > ((DLC_BYTES[(8u + (
      +                          plsize))])))
  4384  002BB6  0E09               	movlw	low (_DLC_BYTES+8)
  4385  002BB8  6EF6               	movwf	tblptrl,c
  4386  002BBA  0E26               	movlw	high (_DLC_BYTES+8)
  4387  002BBC  6EF7               	movwf	tblptrh,c
  4388  002BBE                     	if	1	;Program memory is < 0x10000, tblptru is always zero
  4389  002BBE  6AF8               	clrf	tblptru,c
  4390  002BC0                     	endif
  4391  002BC0                     	if	0	;tblptru may be non-zero
  4392  002BC0                     	endif
  4393  002BC0  0008               	tblrd		*
  4394  002BC2  0061 F3D4  F506    	movff	tablat,??_ValidateTransmission
  4395  002BC8  300B               	rrcf	ValidateTransmission@field^(0+1280),w,c
  4396  002BCA  32E8               	rrcf	wreg,f,c
  4397  002BCC  0B0F               	andlw	15
  4398  002BCE  6E07               	movwf	(??_ValidateTransmission+1)^(0+1280),c
  4399  002BD0  6A08               	clrf	(??_ValidateTransmission+2)^(0+1280),c
  4400  002BD2  0E01               	movlw	low _DLC_BYTES
  4401  002BD4  2407               	addwf	(??_ValidateTransmission+1)^(0+1280),w,c
  4402  002BD6  6EF6               	movwf	tblptrl,c
  4403  002BD8  0E26               	movlw	high _DLC_BYTES
  4404  002BDA  2008               	addwfc	(??_ValidateTransmission+2)^(0+1280),w,c
  4405  002BDC  6EF7               	movwf	tblptrh,c
  4406  002BDE                     	if	1	;There are 3 active tblptr bytes
  4407  002BDE  6AF8               	clrf	tblptru,c
  4408  002BE0  0E00               	movlw	low (__mediumconst shr (0+16))
  4409  002BE2  22F8               	addwfc	tblptru,f,c
  4410  002BE4                     	endif
  4411  002BE4  0008               	tblrd		*
  4412  002BE6  50F5               	movf	tablat,w,c
  4413  002BE8  5C06               	subwf	??_ValidateTransmission^(0+1280),w,c
  4414  002BEA  B0D8               	btfsc	status,0,c
  4415  002BEC  EFFA  F015         	goto	u1871
  4416  002BF0  EFFC  F015         	goto	u1870
  4417  002BF4                     u1871:
  4418  002BF4  EFFD  F015         	goto	l3289
  4419  002BF8                     u1870:
  4420  002BF8                     
  4421                           ;mcc_generated_files/can1.c: 303:     {;mcc_generated_files/can1.c: 304:         txMsgSt
      +                          atus |= CAN_TX_MSG_REQUEST_DLC_EXCEED_ERROR;
  4422  002BF8  800A               	bsf	ValidateTransmission@txMsgStatus^(0+1280),0,c
  4423  002BFA                     l3289:
  4424                           
  4425                           ;mcc_generated_files/can1.c: 307:     if (CAN_TX_FIFO_FULL == GetTxFifoStatus(validChann
      +                          el))
  4426  002BFA  5009               	movf	ValidateTransmission@validChannel^(0+1280),w,c
  4427  002BFC  ECFC  F019         	call	_GetTxFifoStatus
  4428  002C00  0900               	iorlw	0
  4429  002C02  A4D8               	btfss	status,2,c
  4430  002C04  EF06  F016         	goto	u1881
  4431  002C08  EF08  F016         	goto	u1880
  4432  002C0C                     u1881:
  4433  002C0C  EF0A  F016         	goto	l3293
  4434  002C10                     u1880:
  4435  002C10                     
  4436                           ;mcc_generated_files/can1.c: 308:     {;mcc_generated_files/can1.c: 309:         txMsgSt
      +                          atus |= CAN_TX_MSG_REQUEST_FIFO_FULL;
  4437  002C10  0E03               	movlw	3
  4438  002C12  120A               	iorwf	ValidateTransmission@txMsgStatus^(0+1280),f,c
  4439  002C14                     l3293:
  4440                           
  4441                           ;mcc_generated_files/can1.c: 312:     return txMsgStatus;
  4442  002C14  500A               	movf	ValidateTransmission@txMsgStatus^(0+1280),w,c
  4443  002C16  0012               	return		;funcret
  4444  002C18                     __end_of_ValidateTransmission:
  4445                           	callstack 0
  4446                           
  4447 ;; *************** function _GetTxFifoStatus *****************
  4448 ;; Defined at:
  4449 ;;		line 240 in file "mcc_generated_files/can1.c"
  4450 ;; Parameters:    Size  Location     Type
  4451 ;;  validChannel    1    wreg     unsigned char 
  4452 ;; Auto vars:     Size  Location     Type
  4453 ;;  validChannel    1    2[COMRAM] unsigned char 
  4454 ;; Return value:  Size  Location     Type
  4455 ;;                  1    wreg      enum E22361
  4456 ;; Registers used:
  4457 ;;		wreg, fsr2l, fsr2h, status,2, status,0, prodl, prodh
  4458 ;; Tracked objects:
  4459 ;;		On entry : 0/0
  4460 ;;		On exit  : 0/0
  4461 ;;		Unchanged: 0/0
  4462 ;; Data sizes:     COMRAM   BANK5   BANK6   BANK7   BANK8   BANK9  BANK10  BANK11  BANK12  BANK13  BANK14  BANK15  BANK1
      +6  BANK17  BANK18  BANK19  BANK20  BANK21  BANK22  BANK23  BANK24  BANK25  BANK26  BANK27  BANK28  BANK29  BANK30  BANK3
      +1  BANK32  BANK33  BANK34  BANK35  BANK36  BANK37
  4463 ;;      Params:         0       0       0       0       0       0       0       0       0       0       0       0       
      +0       0       0       0       0       0       0       0       0       0       0       0       0       0       0       
      +0       0       0       0       0       0       0
  4464 ;;      Locals:         1       0       0       0       0       0       0       0       0       0       0       0       
      +0       0       0       0       0       0       0       0       0       0       0       0       0       0       0       
      +0       0       0       0       0       0       0
  4465 ;;      Temps:          0       0       0       0       0       0       0       0       0       0       0       0       
      +0       0       0       0       0       0       0       0       0       0       0       0       0       0       0       
      +0       0       0       0       0       0       0
  4466 ;;      Totals:         1       0       0       0       0       0       0       0       0       0       0       0       
      +0       0       0       0       0       0       0       0       0       0       0       0       0       0       0       
      +0       0       0       0       0       0       0
  4467 ;;Total ram usage:        1 bytes
  4468 ;; Hardware stack levels used: 1
  4469 ;; Hardware stack levels required when called: 4
  4470 ;; This function calls:
  4471 ;;		Nothing
  4472 ;; This function is called by:
  4473 ;;		_ValidateTransmission
  4474 ;;		_CAN1_TransmitFIFOStatusGet
  4475 ;; This function uses a non-reentrant model
  4476 ;;
  4477                           
  4478                           	psect	text44
  4479  0033F8                     __ptext44:
  4480                           	callstack 0
  4481  0033F8                     _GetTxFifoStatus:
  4482                           	callstack 120
  4483                           
  4484                           ;incstack = 0
  4485                           ;GetTxFifoStatus@validChannel stored from wreg
  4486  0033F8  6E03               	movwf	GetTxFifoStatus@validChannel^(0+1280),c
  4487  0033FA                     
  4488                           ;mcc_generated_files/can1.c: 240: static CAN_TX_FIFO_STATUS GetTxFifoStatus(uint8_t vali
      +                          dChannel);mcc_generated_files/can1.c: 241: {;mcc_generated_files/can1.c: 242:     return
      +                           (FIFO[validChannel].STAL & 0x1);
  4489  0033FA  5003               	movf	GetTxFifoStatus@validChannel^(0+1280),w,c
  4490  0033FC  0D0C               	mullw	12
  4491  0033FE  0E54               	movlw	84
  4492  003400  24F3               	addwf	243,w,c
  4493  003402  6ED9               	movwf	fsr2l,c
  4494  003404  0E01               	movlw	1
  4495  003406  20F4               	addwfc	prodh,w,c
  4496  003408  6EDA               	movwf	fsr2h,c
  4497  00340A  50DF               	movf	indf2,w,c
  4498  00340C  0B01               	andlw	1
  4499  00340E  0012               	return		;funcret
  4500  003410                     __end_of_GetTxFifoStatus:
  4501                           	callstack 0
  4502                           
  4503 ;; *************** function _CAN1_OperationModeSet *****************
  4504 ;; Defined at:
  4505 ;;		line 200 in file "mcc_generated_files/can1.c"
  4506 ;; Parameters:    Size  Location     Type
  4507 ;;  requestMode     1    wreg     const enum E22346
  4508 ;; Auto vars:     Size  Location     Type
  4509 ;;  requestMode     1    4[COMRAM] const enum E22346
  4510 ;;  status          1    3[COMRAM] enum E22356
  4511 ;;  opMode          1    2[COMRAM] enum E22346
  4512 ;; Return value:  Size  Location     Type
  4513 ;;                  1    wreg      enum E22356
  4514 ;; Registers used:
  4515 ;;		wreg, status,2, status,0, cstack
  4516 ;; Tracked objects:
  4517 ;;		On entry : 0/0
  4518 ;;		On exit  : 0/0
  4519 ;;		Unchanged: 0/0
  4520 ;; Data sizes:     COMRAM   BANK5   BANK6   BANK7   BANK8   BANK9  BANK10  BANK11  BANK12  BANK13  BANK14  BANK15  BANK1
      +6  BANK17  BANK18  BANK19  BANK20  BANK21  BANK22  BANK23  BANK24  BANK25  BANK26  BANK27  BANK28  BANK29  BANK30  BANK3
      +1  BANK32  BANK33  BANK34  BANK35  BANK36  BANK37
  4521 ;;      Params:         0       0       0       0       0       0       0       0       0       0       0       0       
      +0       0       0       0       0       0       0       0       0       0       0       0       0       0       0       
      +0       0       0       0       0       0       0
  4522 ;;      Locals:         3       0       0       0       0       0       0       0       0       0       0       0       
      +0       0       0       0       0       0       0       0       0       0       0       0       0       0       0       
      +0       0       0       0       0       0       0
  4523 ;;      Temps:          0       0       0       0       0       0       0       0       0       0       0       0       
      +0       0       0       0       0       0       0       0       0       0       0       0       0       0       0       
      +0       0       0       0       0       0       0
  4524 ;;      Totals:         3       0       0       0       0       0       0       0       0       0       0       0       
      +0       0       0       0       0       0       0       0       0       0       0       0       0       0       0       
      +0       0       0       0       0       0       0
  4525 ;;Total ram usage:        3 bytes
  4526 ;; Hardware stack levels used: 1
  4527 ;; Hardware stack levels required when called: 5
  4528 ;; This function calls:
  4529 ;;		_CAN1_OperationModeGet
  4530 ;; This function is called by:
  4531 ;;		_CAN1_Initialize
  4532 ;;		_CANWriteMessage
  4533 ;;		_CAN1_Sleep
  4534 ;; This function uses a non-reentrant model
  4535 ;;
  4536                           
  4537                           	psect	text45
  4538  002E0E                     __ptext45:
  4539                           	callstack 0
  4540  002E0E                     _CAN1_OperationModeSet:
  4541                           	callstack 119
  4542                           
  4543                           ;incstack = 0
  4544                           ;CAN1_OperationModeSet@requestMode stored from wreg
  4545  002E0E  6E05               	movwf	CAN1_OperationModeSet@requestMode^(0+1280),c
  4546  002E10                     
  4547                           ;mcc_generated_files/can1.c: 200: CAN_OP_MODE_STATUS CAN1_OperationModeSet(const CAN_OP_
      +                          MODES requestMode);mcc_generated_files/can1.c: 201: {;mcc_generated_files/can1.c: 202:  
      +                             CAN_OP_MODE_STATUS status = CAN_OP_MODE_REQUEST_SUCCESS;
  4548  002E10  0E00               	movlw	0
  4549  002E12  6E04               	movwf	CAN1_OperationModeSet@status^(0+1280),c
  4550  002E14                     
  4551                           ;mcc_generated_files/can1.c: 203:     CAN_OP_MODES opMode = CAN1_OperationModeGet();
  4552  002E14  EC8F  F01A         	call	_CAN1_OperationModeGet	;wreg free
  4553  002E18  6E03               	movwf	CAN1_OperationModeSet@opMode^(0+1280),c
  4554  002E1A                     
  4555                           ;mcc_generated_files/can1.c: 205:     if (CAN_CONFIGURATION_MODE == opMode
  4556  002E1A  0E04               	movlw	4
  4557  002E1C  1803               	xorwf	CAN1_OperationModeSet@opMode^(0+1280),w,c
  4558  002E1E  B4D8               	btfsc	status,2,c
  4559  002E20  EF14  F017         	goto	u1641
  4560  002E24  EF16  F017         	goto	u1640
  4561  002E28                     u1641:
  4562  002E28  EF27  F017         	goto	l3203
  4563  002E2C                     u1640:
  4564  002E2C  0405               	decf	CAN1_OperationModeSet@requestMode^(0+1280),w,c
  4565  002E2E  B4D8               	btfsc	status,2,c
  4566  002E30  EF1C  F017         	goto	u1651
  4567  002E34  EF1E  F017         	goto	u1650
  4568  002E38                     u1651:
  4569  002E38  EF27  F017         	goto	l3203
  4570  002E3C                     u1650:
  4571  002E3C  0E04               	movlw	4
  4572  002E3E  1805               	xorwf	CAN1_OperationModeSet@requestMode^(0+1280),w,c
  4573  002E40  A4D8               	btfss	status,2,c
  4574  002E42  EF25  F017         	goto	u1661
  4575  002E46  EF27  F017         	goto	u1660
  4576  002E4A                     u1661:
  4577  002E4A  EF47  F017         	goto	l3209
  4578  002E4E                     u1660:
  4579  002E4E                     l3203:
  4580                           
  4581                           ;mcc_generated_files/can1.c: 208:     {;mcc_generated_files/can1.c: 209:         C1CONTb
      +                          its.REQOP = requestMode;
  4582  002E4E  0101               	movlb	1	; () banked
  4583  002E50  5103               	movf	3,w,b	;volatile
  4584  002E52  1805               	xorwf	CAN1_OperationModeSet@requestMode^(0+1280),w,c
  4585  002E54  0BF8               	andlw	-8
  4586  002E56  1805               	xorwf	CAN1_OperationModeSet@requestMode^(0+1280),w,c
  4587  002E58  6F03               	movwf	3,b	;volatile
  4588                           
  4589                           ;mcc_generated_files/can1.c: 211:         while (C1CONUbits.OPMOD != requestMode)
  4590  002E5A  EF3A  F017         	goto	l3207
  4591  002E5E                     l699:
  4592                           
  4593                           ; BSR set to: 1
  4594                           ;mcc_generated_files/can1.c: 212:         {;mcc_generated_files/can1.c: 214:            
      +                           if (1 == C1INTHbits.SERRIF)
  4595  002E5E  A91D               	btfss	29,4,b	;volatile
  4596  002E60  EF34  F017         	goto	u1671
  4597  002E64  EF36  F017         	goto	u1670
  4598  002E68                     u1671:
  4599  002E68  EF3A  F017         	goto	l3207
  4600  002E6C                     u1670:
  4601  002E6C                     
  4602                           ; BSR set to: 1
  4603                           ;mcc_generated_files/can1.c: 215:             {;mcc_generated_files/can1.c: 216:        
      +                                   status = CAN_OP_MODE_SYS_ERROR_OCCURED;
  4604  002E6C  0E02               	movlw	2
  4605  002E6E  6E04               	movwf	CAN1_OperationModeSet@status^(0+1280),c
  4606                           
  4607                           ;mcc_generated_files/can1.c: 217:                 break;
  4608  002E70  EF49  F017         	goto	l702
  4609  002E74                     l3207:
  4610                           
  4611                           ; BSR set to: 1
  4612                           ;mcc_generated_files/can1.c: 211:         while (C1CONUbits.OPMOD != requestMode)
  4613  002E74  3902               	swapf	2,w,b	;volatile
  4614  002E76  32E8               	rrcf	wreg,f,c
  4615  002E78  0B07               	andlw	7
  4616  002E7A  1805               	xorwf	CAN1_OperationModeSet@requestMode^(0+1280),w,c
  4617  002E7C  A4D8               	btfss	status,2,c
  4618  002E7E  EF43  F017         	goto	u1681
  4619  002E82  EF45  F017         	goto	u1680
  4620  002E86                     u1681:
  4621  002E86  EF2F  F017         	goto	l699
  4622  002E8A                     u1680:
  4623  002E8A  EF49  F017         	goto	l702
  4624  002E8E                     l3209:
  4625                           
  4626                           ;mcc_generated_files/can1.c: 222:     {;mcc_generated_files/can1.c: 223:         status 
      +                          = CAN_OP_MODE_REQUEST_FAIL;
  4627  002E8E  0E01               	movlw	1
  4628  002E90  6E04               	movwf	CAN1_OperationModeSet@status^(0+1280),c
  4629  002E92                     l702:
  4630                           
  4631                           ;mcc_generated_files/can1.c: 226:     return status;
  4632  002E92  5004               	movf	CAN1_OperationModeSet@status^(0+1280),w,c
  4633  002E94  0012               	return		;funcret
  4634  002E96                     __end_of_CAN1_OperationModeSet:
  4635                           	callstack 0
  4636                           
  4637 ;; *************** function _CAN1_OperationModeGet *****************
  4638 ;; Defined at:
  4639 ;;		line 229 in file "mcc_generated_files/can1.c"
  4640 ;; Parameters:    Size  Location     Type
  4641 ;;		None
  4642 ;; Auto vars:     Size  Location     Type
  4643 ;;		None
  4644 ;; Return value:  Size  Location     Type
  4645 ;;                  1    wreg      enum E22346
  4646 ;; Registers used:
  4647 ;;		wreg, status,2, status,0
  4648 ;; Tracked objects:
  4649 ;;		On entry : 0/0
  4650 ;;		On exit  : 0/0
  4651 ;;		Unchanged: 0/0
  4652 ;; Data sizes:     COMRAM   BANK5   BANK6   BANK7   BANK8   BANK9  BANK10  BANK11  BANK12  BANK13  BANK14  BANK15  BANK1
      +6  BANK17  BANK18  BANK19  BANK20  BANK21  BANK22  BANK23  BANK24  BANK25  BANK26  BANK27  BANK28  BANK29  BANK30  BANK3
      +1  BANK32  BANK33  BANK34  BANK35  BANK36  BANK37
  4653 ;;      Params:         0       0       0       0       0       0       0       0       0       0       0       0       
      +0       0       0       0       0       0       0       0       0       0       0       0       0       0       0       
      +0       0       0       0       0       0       0
  4654 ;;      Locals:         0       0       0       0       0       0       0       0       0       0       0       0       
      +0       0       0       0       0       0       0       0       0       0       0       0       0       0       0       
      +0       0       0       0       0       0       0
  4655 ;;      Temps:          0       0       0       0       0       0       0       0       0       0       0       0       
      +0       0       0       0       0       0       0       0       0       0       0       0       0       0       0       
      +0       0       0       0       0       0       0
  4656 ;;      Totals:         0       0       0       0       0       0       0       0       0       0       0       0       
      +0       0       0       0       0       0       0       0       0       0       0       0       0       0       0       
      +0       0       0       0       0       0       0
  4657 ;;Total ram usage:        0 bytes
  4658 ;; Hardware stack levels used: 1
  4659 ;; Hardware stack levels required when called: 4
  4660 ;; This function calls:
  4661 ;;		Nothing
  4662 ;; This function is called by:
  4663 ;;		_CAN1_OperationModeSet
  4664 ;;		_ValidateTransmission
  4665 ;;		_CANWriteMessage
  4666 ;; This function uses a non-reentrant model
  4667 ;;
  4668                           
  4669                           	psect	text46
  4670  00351E                     __ptext46:
  4671                           	callstack 0
  4672  00351E                     _CAN1_OperationModeGet:
  4673                           	callstack 119
  4674  00351E                     
  4675                           ;mcc_generated_files/can1.c: 231:     return C1CONUbits.OPMOD;
  4676  00351E  0101               	movlb	1	; () banked
  4677  003520  3902               	swapf	2,w,b	;volatile
  4678  003522  32E8               	rrcf	wreg,f,c
  4679  003524  0B07               	andlw	7
  4680  003526                     
  4681                           ; BSR set to: 1
  4682  003526  0012               	return		;funcret
  4683  003528                     __end_of_CAN1_OperationModeGet:
  4684                           	callstack 0
  4685                           
  4686 ;; *************** function _INTERRUPT_InterruptManager *****************
  4687 ;; Defined at:
  4688 ;;		line 58 in file "mcc_generated_files/interrupt_manager.c"
  4689 ;; Parameters:    Size  Location     Type
  4690 ;;		None
  4691 ;; Auto vars:     Size  Location     Type
  4692 ;;		None
  4693 ;; Return value:  Size  Location     Type
  4694 ;;                  1    wreg      void 
  4695 ;; Registers used:
  4696 ;;		wreg, status,2, status,0, pclath, tosl, cstack
  4697 ;; Tracked objects:
  4698 ;;		On entry : 0/0
  4699 ;;		On exit  : 0/0
  4700 ;;		Unchanged: 0/0
  4701 ;; Data sizes:     COMRAM   BANK5   BANK6   BANK7   BANK8   BANK9  BANK10  BANK11  BANK12  BANK13  BANK14  BANK15  BANK1
      +6  BANK17  BANK18  BANK19  BANK20  BANK21  BANK22  BANK23  BANK24  BANK25  BANK26  BANK27  BANK28  BANK29  BANK30  BANK3
      +1  BANK32  BANK33  BANK34  BANK35  BANK36  BANK37
  4702 ;;      Params:         0       0       0       0       0       0       0       0       0       0       0       0       
      +0       0       0       0       0       0       0       0       0       0       0       0       0       0       0       
      +0       0       0       0       0       0       0
  4703 ;;      Locals:         0       0       0       0       0       0       0       0       0       0       0       0       
      +0       0       0       0       0       0       0       0       0       0       0       0       0       0       0       
      +0       0       0       0       0       0       0
  4704 ;;      Temps:          0       0       0       0       0       0       0       0       0       0       0       0       
      +0       0       0       0       0       0       0       0       0       0       0       0       0       0       0       
      +0       0       0       0       0       0       0
  4705 ;;      Totals:         0       0       0       0       0       0       0       0       0       0       0       0       
      +0       0       0       0       0       0       0       0       0       0       0       0       0       0       0       
      +0       0       0       0       0       0       0
  4706 ;;Total ram usage:        0 bytes
  4707 ;; Hardware stack levels used: 1
  4708 ;; Hardware stack levels required when called: 3
  4709 ;; This function calls:
  4710 ;;		_CAN1_ISR
  4711 ;;		_INT0_ISR
  4712 ;;		_TMR0_ISR
  4713 ;;		_TMR1_ISR
  4714 ;;		_TMR2_ISR
  4715 ;; This function is called by:
  4716 ;;		Interrupt level 2
  4717 ;; This function uses a non-reentrant model
  4718 ;;
  4719                           
  4720                           	psect	text47
  4721  002C18                     __ptext47:
  4722                           	callstack 0
  4723  002C18                     _INTERRUPT_InterruptManager:
  4724                           	callstack 119
  4725  002C18                     
  4726                           ;mcc_generated_files/interrupt_manager.c: 61:     if(PIE3bits.TMR0IE == 1 && PIR3bits.TM
      +                          R0IF == 1)
  4727  002C18  AEA1               	btfss	161,7,c	;volatile
  4728  002C1A  EF11  F016         	goto	i2u147_41
  4729  002C1E  EF13  F016         	goto	i2u147_40
  4730  002C22                     i2u147_41:
  4731  002C22  EF1E  F016         	goto	i2l565
  4732  002C26                     i2u147_40:
  4733  002C26  AEB1               	btfss	177,7,c	;volatile
  4734  002C28  EF18  F016         	goto	i2u148_41
  4735  002C2C  EF1A  F016         	goto	i2u148_40
  4736  002C30                     i2u148_41:
  4737  002C30  EF1E  F016         	goto	i2l565
  4738  002C34                     i2u148_40:
  4739  002C34                     
  4740                           ;mcc_generated_files/interrupt_manager.c: 62:     {;mcc_generated_files/interrupt_manage
      +                          r.c: 63:         TMR0_ISR();
  4741  002C34  EC94  F01A         	call	_TMR0_ISR	;wreg free
  4742                           
  4743                           ;mcc_generated_files/interrupt_manager.c: 64:     }
  4744  002C38  EF66  F016         	goto	i2l575
  4745  002C3C                     i2l565:
  4746  002C3C  A09F               	btfss	159,0,c	;volatile
  4747  002C3E  EF23  F016         	goto	i2u149_41
  4748  002C42  EF25  F016         	goto	i2u149_40
  4749  002C46                     i2u149_41:
  4750  002C46  EF30  F016         	goto	i2l567
  4751  002C4A                     i2u149_40:
  4752  002C4A  A0AF               	btfss	175,0,c	;volatile
  4753  002C4C  EF2A  F016         	goto	i2u150_41
  4754  002C50  EF2C  F016         	goto	i2u150_40
  4755  002C54                     i2u150_41:
  4756  002C54  EF30  F016         	goto	i2l567
  4757  002C58                     i2u150_40:
  4758  002C58                     
  4759                           ;mcc_generated_files/interrupt_manager.c: 66:     {;mcc_generated_files/interrupt_manage
      +                          r.c: 67:         INT0_ISR();
  4760  002C58  EC98  F01A         	call	_INT0_ISR	;wreg free
  4761                           
  4762                           ;mcc_generated_files/interrupt_manager.c: 68:     }
  4763  002C5C  EF66  F016         	goto	i2l575
  4764  002C60                     i2l567:
  4765  002C60  AC9E               	btfss	158,6,c	;volatile
  4766  002C62  EF35  F016         	goto	i2u151_41
  4767  002C66  EF37  F016         	goto	i2u151_40
  4768  002C6A                     i2u151_41:
  4769  002C6A  EF42  F016         	goto	i2l569
  4770  002C6E                     i2u151_40:
  4771  002C6E  ACAE               	btfss	174,6,c	;volatile
  4772  002C70  EF3C  F016         	goto	i2u152_41
  4773  002C74  EF3E  F016         	goto	i2u152_40
  4774  002C78                     i2u152_41:
  4775  002C78  EF42  F016         	goto	i2l569
  4776  002C7C                     i2u152_40:
  4777  002C7C                     
  4778                           ;mcc_generated_files/interrupt_manager.c: 70:     {;mcc_generated_files/interrupt_manage
      +                          r.c: 71:         CAN1_ISR();
  4779  002C7C  EC2A  F014         	call	_CAN1_ISR	;wreg free
  4780                           
  4781                           ;mcc_generated_files/interrupt_manager.c: 72:     }
  4782  002C80  EF66  F016         	goto	i2l575
  4783  002C84                     i2l569:
  4784  002C84  A6A1               	btfss	161,3,c	;volatile
  4785  002C86  EF47  F016         	goto	i2u153_41
  4786  002C8A  EF49  F016         	goto	i2u153_40
  4787  002C8E                     i2u153_41:
  4788  002C8E  EF54  F016         	goto	i2l571
  4789  002C92                     i2u153_40:
  4790  002C92  A6B1               	btfss	177,3,c	;volatile
  4791  002C94  EF4E  F016         	goto	i2u154_41
  4792  002C98  EF50  F016         	goto	i2u154_40
  4793  002C9C                     i2u154_41:
  4794  002C9C  EF54  F016         	goto	i2l571
  4795  002CA0                     i2u154_40:
  4796  002CA0                     
  4797                           ;mcc_generated_files/interrupt_manager.c: 74:     {;mcc_generated_files/interrupt_manage
      +                          r.c: 75:         TMR2_ISR();
  4798  002CA0  EC90  F019         	call	_TMR2_ISR	;wreg free
  4799                           
  4800                           ;mcc_generated_files/interrupt_manager.c: 76:     }
  4801  002CA4  EF66  F016         	goto	i2l575
  4802  002CA8                     i2l571:
  4803  002CA8  A8A1               	btfss	161,4,c	;volatile
  4804  002CAA  EF59  F016         	goto	i2u155_41
  4805  002CAE  EF5B  F016         	goto	i2u155_40
  4806  002CB2                     i2u155_41:
  4807  002CB2  EF66  F016         	goto	i2l570
  4808  002CB6                     i2u155_40:
  4809  002CB6  A8B1               	btfss	177,4,c	;volatile
  4810  002CB8  EF60  F016         	goto	i2u156_41
  4811  002CBC  EF62  F016         	goto	i2u156_40
  4812  002CC0                     i2u156_41:
  4813  002CC0  EF66  F016         	goto	i2l570
  4814  002CC4                     i2u156_40:
  4815  002CC4                     
  4816                           ;mcc_generated_files/interrupt_manager.c: 78:     {;mcc_generated_files/interrupt_manage
      +                          r.c: 79:         TMR1_ISR();
  4817  002CC4  EC26  F01A         	call	_TMR1_ISR	;wreg free
  4818                           
  4819                           ;mcc_generated_files/interrupt_manager.c: 80:     }
  4820  002CC8  EF66  F016         	goto	i2l575
  4821  002CCC                     i2l570:
  4822  002CCC                     i2l575:
  4823  002CCC  0011               	retfie		f
  4824  002CCE                     __end_of_INTERRUPT_InterruptManager:
  4825                           	callstack 0
  4826                           
  4827 ;; *************** function _TMR2_ISR *****************
  4828 ;; Defined at:
  4829 ;;		line 165 in file "mcc_generated_files/tmr2.c"
  4830 ;; Parameters:    Size  Location     Type
  4831 ;;		None
  4832 ;; Auto vars:     Size  Location     Type
  4833 ;;		None
  4834 ;; Return value:  Size  Location     Type
  4835 ;;                  1    wreg      void 
  4836 ;; Registers used:
  4837 ;;		wreg, status,2, status,0, pclath, tosl, cstack
  4838 ;; Tracked objects:
  4839 ;;		On entry : 0/0
  4840 ;;		On exit  : 0/0
  4841 ;;		Unchanged: 0/0
  4842 ;; Data sizes:     COMRAM   BANK5   BANK6   BANK7   BANK8   BANK9  BANK10  BANK11  BANK12  BANK13  BANK14  BANK15  BANK1
      +6  BANK17  BANK18  BANK19  BANK20  BANK21  BANK22  BANK23  BANK24  BANK25  BANK26  BANK27  BANK28  BANK29  BANK30  BANK3
      +1  BANK32  BANK33  BANK34  BANK35  BANK36  BANK37
  4843 ;;      Params:         0       0       0       0       0       0       0       0       0       0       0       0       
      +0       0       0       0       0       0       0       0       0       0       0       0       0       0       0       
      +0       0       0       0       0       0       0
  4844 ;;      Locals:         0       0       0       0       0       0       0       0       0       0       0       0       
      +0       0       0       0       0       0       0       0       0       0       0       0       0       0       0       
      +0       0       0       0       0       0       0
  4845 ;;      Temps:          0       0       0       0       0       0       0       0       0       0       0       0       
      +0       0       0       0       0       0       0       0       0       0       0       0       0       0       0       
      +0       0       0       0       0       0       0
  4846 ;;      Totals:         0       0       0       0       0       0       0       0       0       0       0       0       
      +0       0       0       0       0       0       0       0       0       0       0       0       0       0       0       
      +0       0       0       0       0       0       0
  4847 ;;Total ram usage:        0 bytes
  4848 ;; Hardware stack levels used: 1
  4849 ;; Hardware stack levels required when called: 2
  4850 ;; This function calls:
  4851 ;;		_TMR2_CallBack
  4852 ;; This function is called by:
  4853 ;;		_INTERRUPT_InterruptManager
  4854 ;; This function uses a non-reentrant model
  4855 ;;
  4856                           
  4857                           	psect	text48
  4858  003320                     __ptext48:
  4859                           	callstack 0
  4860  003320                     _TMR2_ISR:
  4861                           	callstack 119
  4862  003320                     
  4863                           ;mcc_generated_files/tmr2.c: 167:     static volatile unsigned int CountCallBack = 0;;mc
      +                          c_generated_files/tmr2.c: 170:     PIR3bits.TMR2IF = 0;
  4864  003320  96B1               	bcf	177,3,c	;volatile
  4865  003322                     
  4866                           ;mcc_generated_files/tmr2.c: 173:     if (++CountCallBack >= 10)
  4867  003322  4A2F               	infsnz	TMR2_ISR@CountCallBack^(0+1280),f,c	;volatile
  4868  003324  2A30               	incf	(TMR2_ISR@CountCallBack+1)^(0+1280),f,c	;volatile
  4869  003326  5030               	movf	(TMR2_ISR@CountCallBack+1)^(0+1280),w,c	;volatile
  4870  003328  E109               	bnz	i2u143_40
  4871  00332A  0E0A               	movlw	10
  4872  00332C  5C2F               	subwf	TMR2_ISR@CountCallBack^(0+1280),w,c	;volatile
  4873  00332E  A0D8               	btfss	status,0,c
  4874  003330  EF9C  F019         	goto	i2u143_41
  4875  003334  EF9E  F019         	goto	i2u143_40
  4876  003338                     i2u143_41:
  4877  003338  EFA4  F019         	goto	i2l1048
  4878  00333C                     i2u143_40:
  4879  00333C                     
  4880                           ;mcc_generated_files/tmr2.c: 174:     {;mcc_generated_files/tmr2.c: 176:         TMR2_Ca
      +                          llBack();
  4881  00333C  EC1E  F019         	call	_TMR2_CallBack	;wreg free
  4882  003340                     
  4883                           ;mcc_generated_files/tmr2.c: 179:         CountCallBack = 0;
  4884  003340  0E00               	movlw	0
  4885  003342  6E30               	movwf	(TMR2_ISR@CountCallBack+1)^(0+1280),c	;volatile
  4886  003344  0E00               	movlw	0
  4887  003346  6E2F               	movwf	TMR2_ISR@CountCallBack^(0+1280),c	;volatile
  4888  003348                     i2l1048:
  4889  003348  0012               	return		;funcret
  4890  00334A                     __end_of_TMR2_ISR:
  4891                           	callstack 0
  4892                           
  4893 ;; *************** function _TMR2_CallBack *****************
  4894 ;; Defined at:
  4895 ;;		line 183 in file "mcc_generated_files/tmr2.c"
  4896 ;; Parameters:    Size  Location     Type
  4897 ;;		None
  4898 ;; Auto vars:     Size  Location     Type
  4899 ;;		None
  4900 ;; Return value:  Size  Location     Type
  4901 ;;                  1    wreg      void 
  4902 ;; Registers used:
  4903 ;;		wreg, status,2, status,0, pclath, tosl, cstack
  4904 ;; Tracked objects:
  4905 ;;		On entry : 0/0
  4906 ;;		On exit  : 0/0
  4907 ;;		Unchanged: 0/0
  4908 ;; Data sizes:     COMRAM   BANK5   BANK6   BANK7   BANK8   BANK9  BANK10  BANK11  BANK12  BANK13  BANK14  BANK15  BANK1
      +6  BANK17  BANK18  BANK19  BANK20  BANK21  BANK22  BANK23  BANK24  BANK25  BANK26  BANK27  BANK28  BANK29  BANK30  BANK3
      +1  BANK32  BANK33  BANK34  BANK35  BANK36  BANK37
  4909 ;;      Params:         0       0       0       0       0       0       0       0       0       0       0       0       
      +0       0       0       0       0       0       0       0       0       0       0       0       0       0       0       
      +0       0       0       0       0       0       0
  4910 ;;      Locals:         0       0       0       0       0       0       0       0       0       0       0       0       
      +0       0       0       0       0       0       0       0       0       0       0       0       0       0       0       
      +0       0       0       0       0       0       0
  4911 ;;      Temps:          0       0       0       0       0       0       0       0       0       0       0       0       
      +0       0       0       0       0       0       0       0       0       0       0       0       0       0       0       
      +0       0       0       0       0       0       0
  4912 ;;      Totals:         0       0       0       0       0       0       0       0       0       0       0       0       
      +0       0       0       0       0       0       0       0       0       0       0       0       0       0       0       
      +0       0       0       0       0       0       0
  4913 ;;Total ram usage:        0 bytes
  4914 ;; Hardware stack levels used: 1
  4915 ;; Hardware stack levels required when called: 1
  4916 ;; This function calls:
  4917 ;;		Absolute function
  4918 ;;		_TMR2_DefaultInterruptHandler
  4919 ;; This function is called by:
  4920 ;;		_TMR2_ISR
  4921 ;; This function uses a non-reentrant model
  4922 ;;
  4923                           
  4924                           	psect	text49
  4925  00323C                     __ptext49:
  4926                           	callstack 0
  4927  00323C                     _TMR2_CallBack:
  4928                           	callstack 119
  4929  00323C                     
  4930                           ;mcc_generated_files/tmr2.c: 187:     if(TMR2_InterruptHandler)
  4931  00323C  0105               	movlb	5	; () banked
  4932  00323E  5182               	movf	_TMR2_InterruptHandler& (0+255),w,b
  4933  003240  1183               	iorwf	(_TMR2_InterruptHandler+1)& (0+255),w,b
  4934  003242  B4D8               	btfsc	status,2,c
  4935  003244  EF26  F019         	goto	i2u138_41
  4936  003248  EF28  F019         	goto	i2u138_40
  4937  00324C                     i2u138_41:
  4938  00324C  EF34  F019         	goto	i2l1052
  4939  003250                     i2u138_40:
  4940  003250                     
  4941                           ; BSR set to: 5
  4942                           ;mcc_generated_files/tmr2.c: 188:     {;mcc_generated_files/tmr2.c: 189:         TMR2_In
      +                          terruptHandler();
  4943  003250  D802               	call	i2u139_48
  4944  003252  EF34  F019         	goto	i2u139_49
  4945  003256                     i2u139_48:
  4946  003256  0005               	push	
  4947  003258  6EFA               	movwf	pclath,c
  4948  00325A  5182               	movf	_TMR2_InterruptHandler& (0+255),w,b
  4949  00325C  6EFD               	movwf	tosl,c
  4950  00325E  5183               	movf	(_TMR2_InterruptHandler+1)& (0+255),w,b
  4951  003260  6EFE               	movwf	tosh,c
  4952  003262  6AFF               	clrf	tosu,c
  4953  003264  50FA               	movf	pclath,w,c
  4954  003266  0012               	return		;indir
  4955  003268                     i2u139_49:
  4956  003268                     i2l1052:
  4957  003268  0012               	return		;funcret
  4958  00326A                     __end_of_TMR2_CallBack:
  4959                           	callstack 0
  4960                           
  4961 ;; *************** function _TMR2_DefaultInterruptHandler *****************
  4962 ;; Defined at:
  4963 ;;		line 197 in file "mcc_generated_files/tmr2.c"
  4964 ;; Parameters:    Size  Location     Type
  4965 ;;		None
  4966 ;; Auto vars:     Size  Location     Type
  4967 ;;		None
  4968 ;; Return value:  Size  Location     Type
  4969 ;;                  1    wreg      void 
  4970 ;; Registers used:
  4971 ;;		None
  4972 ;; Tracked objects:
  4973 ;;		On entry : 0/0
  4974 ;;		On exit  : 0/0
  4975 ;;		Unchanged: 0/0
  4976 ;; Data sizes:     COMRAM   BANK5   BANK6   BANK7   BANK8   BANK9  BANK10  BANK11  BANK12  BANK13  BANK14  BANK15  BANK1
      +6  BANK17  BANK18  BANK19  BANK20  BANK21  BANK22  BANK23  BANK24  BANK25  BANK26  BANK27  BANK28  BANK29  BANK30  BANK3
      +1  BANK32  BANK33  BANK34  BANK35  BANK36  BANK37
  4977 ;;      Params:         0       0       0       0       0       0       0       0       0       0       0       0       
      +0       0       0       0       0       0       0       0       0       0       0       0       0       0       0       
      +0       0       0       0       0       0       0
  4978 ;;      Locals:         0       0       0       0       0       0       0       0       0       0       0       0       
      +0       0       0       0       0       0       0       0       0       0       0       0       0       0       0       
      +0       0       0       0       0       0       0
  4979 ;;      Temps:          0       0       0       0       0       0       0       0       0       0       0       0       
      +0       0       0       0       0       0       0       0       0       0       0       0       0       0       0       
      +0       0       0       0       0       0       0
  4980 ;;      Totals:         0       0       0       0       0       0       0       0       0       0       0       0       
      +0       0       0       0       0       0       0       0       0       0       0       0       0       0       0       
      +0       0       0       0       0       0       0
  4981 ;;Total ram usage:        0 bytes
  4982 ;; Hardware stack levels used: 1
  4983 ;; This function calls:
  4984 ;;		Nothing
  4985 ;; This function is called by:
  4986 ;;		_TMR2_Initialize
  4987 ;;		_TMR2_CallBack
  4988 ;; This function uses a non-reentrant model
  4989 ;;
  4990                           
  4991                           	psect	text50
  4992  00353C                     __ptext50:
  4993                           	callstack 0
  4994  00353C                     _TMR2_DefaultInterruptHandler:
  4995                           	callstack 119
  4996  00353C  0012               	return		;funcret
  4997  00353E                     __end_of_TMR2_DefaultInterruptHandler:
  4998                           	callstack 0
  4999                           
  5000 ;; *************** function _TMR1_ISR *****************
  5001 ;; Defined at:
  5002 ;;		line 164 in file "mcc_generated_files/tmr1.c"
  5003 ;; Parameters:    Size  Location     Type
  5004 ;;		None
  5005 ;; Auto vars:     Size  Location     Type
  5006 ;;		None
  5007 ;; Return value:  Size  Location     Type
  5008 ;;                  1    wreg      void 
  5009 ;; Registers used:
  5010 ;;		wreg, status,2, status,0, pclath, tosl, cstack
  5011 ;; Tracked objects:
  5012 ;;		On entry : 0/0
  5013 ;;		On exit  : 0/0
  5014 ;;		Unchanged: 0/0
  5015 ;; Data sizes:     COMRAM   BANK5   BANK6   BANK7   BANK8   BANK9  BANK10  BANK11  BANK12  BANK13  BANK14  BANK15  BANK1
      +6  BANK17  BANK18  BANK19  BANK20  BANK21  BANK22  BANK23  BANK24  BANK25  BANK26  BANK27  BANK28  BANK29  BANK30  BANK3
      +1  BANK32  BANK33  BANK34  BANK35  BANK36  BANK37
  5016 ;;      Params:         0       0       0       0       0       0       0       0       0       0       0       0       
      +0       0       0       0       0       0       0       0       0       0       0       0       0       0       0       
      +0       0       0       0       0       0       0
  5017 ;;      Locals:         0       0       0       0       0       0       0       0       0       0       0       0       
      +0       0       0       0       0       0       0       0       0       0       0       0       0       0       0       
      +0       0       0       0       0       0       0
  5018 ;;      Temps:          0       0       0       0       0       0       0       0       0       0       0       0       
      +0       0       0       0       0       0       0       0       0       0       0       0       0       0       0       
      +0       0       0       0       0       0       0
  5019 ;;      Totals:         0       0       0       0       0       0       0       0       0       0       0       0       
      +0       0       0       0       0       0       0       0       0       0       0       0       0       0       0       
      +0       0       0       0       0       0       0
  5020 ;;Total ram usage:        0 bytes
  5021 ;; Hardware stack levels used: 1
  5022 ;; Hardware stack levels required when called: 2
  5023 ;; This function calls:
  5024 ;;		_TMR1_CallBack
  5025 ;;		_TMR1_WriteTimer
  5026 ;; This function is called by:
  5027 ;;		_INTERRUPT_InterruptManager
  5028 ;; This function uses a non-reentrant model
  5029 ;;
  5030                           
  5031                           	psect	text51
  5032  00344C                     __ptext51:
  5033                           	callstack 0
  5034  00344C                     _TMR1_ISR:
  5035                           	callstack 119
  5036  00344C                     
  5037                           ;mcc_generated_files/tmr1.c: 168:     PIR3bits.TMR1IF = 0;
  5038  00344C  98B1               	bcf	177,4,c	;volatile
  5039  00344E                     
  5040                           ;mcc_generated_files/tmr1.c: 169:     TMR1_WriteTimer(timer1ReloadVal);
  5041  00344E  C54A  F501         	movff	_timer1ReloadVal,TMR1_WriteTimer@timerVal	;volatile
  5042  003452  C54B  F502         	movff	_timer1ReloadVal+1,TMR1_WriteTimer@timerVal+1	;volatile
  5043  003456  EC35  F019         	call	_TMR1_WriteTimer	;wreg free
  5044  00345A                     
  5045                           ;mcc_generated_files/tmr1.c: 173:     TMR1_CallBack();
  5046  00345A  EC4C  F019         	call	_TMR1_CallBack	;wreg free
  5047  00345E  0012               	return		;funcret
  5048  003460                     __end_of_TMR1_ISR:
  5049                           	callstack 0
  5050                           
  5051 ;; *************** function _TMR1_WriteTimer *****************
  5052 ;; Defined at:
  5053 ;;		line 127 in file "mcc_generated_files/tmr1.c"
  5054 ;; Parameters:    Size  Location     Type
  5055 ;;  timerVal        2    0[COMRAM] unsigned short 
  5056 ;; Auto vars:     Size  Location     Type
  5057 ;;		None
  5058 ;; Return value:  Size  Location     Type
  5059 ;;                  1    wreg      void 
  5060 ;; Registers used:
  5061 ;;		wreg, status,2
  5062 ;; Tracked objects:
  5063 ;;		On entry : 0/0
  5064 ;;		On exit  : 0/0
  5065 ;;		Unchanged: 0/0
  5066 ;; Data sizes:     COMRAM   BANK5   BANK6   BANK7   BANK8   BANK9  BANK10  BANK11  BANK12  BANK13  BANK14  BANK15  BANK1
      +6  BANK17  BANK18  BANK19  BANK20  BANK21  BANK22  BANK23  BANK24  BANK25  BANK26  BANK27  BANK28  BANK29  BANK30  BANK3
      +1  BANK32  BANK33  BANK34  BANK35  BANK36  BANK37
  5067 ;;      Params:         2       0       0       0       0       0       0       0       0       0       0       0       
      +0       0       0       0       0       0       0       0       0       0       0       0       0       0       0       
      +0       0       0       0       0       0       0
  5068 ;;      Locals:         0       0       0       0       0       0       0       0       0       0       0       0       
      +0       0       0       0       0       0       0       0       0       0       0       0       0       0       0       
      +0       0       0       0       0       0       0
  5069 ;;      Temps:          0       0       0       0       0       0       0       0       0       0       0       0       
      +0       0       0       0       0       0       0       0       0       0       0       0       0       0       0       
      +0       0       0       0       0       0       0
  5070 ;;      Totals:         2       0       0       0       0       0       0       0       0       0       0       0       
      +0       0       0       0       0       0       0       0       0       0       0       0       0       0       0       
      +0       0       0       0       0       0       0
  5071 ;;Total ram usage:        2 bytes
  5072 ;; Hardware stack levels used: 1
  5073 ;; This function calls:
  5074 ;;		Nothing
  5075 ;; This function is called by:
  5076 ;;		_TMR1_ISR
  5077 ;;		_TMR1_Reload
  5078 ;; This function uses a non-reentrant model
  5079 ;;
  5080                           
  5081                           	psect	text52
  5082  00326A                     __ptext52:
  5083                           	callstack 0
  5084  00326A                     _TMR1_WriteTimer:
  5085                           	callstack 120
  5086  00326A                     
  5087                           ;mcc_generated_files/tmr1.c: 127: void TMR1_WriteTimer(uint16_t timerVal);mcc_generated_
      +                          files/tmr1.c: 128: {;mcc_generated_files/tmr1.c: 129:     if (T1CONbits.NOT_SYNC == 1)
  5088  00326A  0103               	movlb	3	; () banked
  5089  00326C  A51E               	btfss	30,2,b	;volatile
  5090  00326E  EF3B  F019         	goto	i2u135_41
  5091  003272  EF3D  F019         	goto	i2u135_40
  5092  003276                     i2u135_41:
  5093  003276  EF46  F019         	goto	i2l3029
  5094  00327A                     i2u135_40:
  5095  00327A                     
  5096                           ; BSR set to: 3
  5097                           ;mcc_generated_files/tmr1.c: 130:     {;mcc_generated_files/tmr1.c: 132:         T1CONbi
      +                          ts.TMR1ON = 0;
  5098  00327A  911E               	bcf	30,0,b	;volatile
  5099  00327C                     
  5100                           ; BSR set to: 3
  5101                           ;mcc_generated_files/tmr1.c: 135:         TMR1H = (uint8_t)(timerVal >> 8);
  5102  00327C  5002               	movf	(TMR1_WriteTimer@timerVal+1)^(0+1280),w,c
  5103  00327E  6F1D               	movwf	29,b	;volatile
  5104  003280                     
  5105                           ; BSR set to: 3
  5106                           ;mcc_generated_files/tmr1.c: 136:         TMR1L = (uint8_t)timerVal;
  5107  003280  0061  F404  F31C   	movff	TMR1_WriteTimer@timerVal,796	;volatile
  5108  003286                     
  5109                           ; BSR set to: 3
  5110                           ;mcc_generated_files/tmr1.c: 139:         T1CONbits.TMR1ON =1;
  5111  003286  811E               	bsf	30,0,b	;volatile
  5112                           
  5113                           ;mcc_generated_files/tmr1.c: 140:     }
  5114  003288  EF4B  F019         	goto	i2l947
  5115  00328C                     i2l3029:
  5116                           
  5117                           ; BSR set to: 3
  5118                           ;mcc_generated_files/tmr1.c: 142:     {;mcc_generated_files/tmr1.c: 144:         TMR1H =
      +                           (uint8_t)(timerVal >> 8);
  5119  00328C  5002               	movf	(TMR1_WriteTimer@timerVal+1)^(0+1280),w,c
  5120  00328E  6F1D               	movwf	29,b	;volatile
  5121  003290                     
  5122                           ; BSR set to: 3
  5123                           ;mcc_generated_files/tmr1.c: 145:         TMR1L = (uint8_t)timerVal;
  5124  003290  0061  F404  F31C   	movff	TMR1_WriteTimer@timerVal,796	;volatile
  5125  003296                     i2l947:
  5126                           
  5127                           ; BSR set to: 3
  5128  003296  0012               	return		;funcret
  5129  003298                     __end_of_TMR1_WriteTimer:
  5130                           	callstack 0
  5131                           
  5132 ;; *************** function _TMR1_CallBack *****************
  5133 ;; Defined at:
  5134 ;;		line 176 in file "mcc_generated_files/tmr1.c"
  5135 ;; Parameters:    Size  Location     Type
  5136 ;;		None
  5137 ;; Auto vars:     Size  Location     Type
  5138 ;;		None
  5139 ;; Return value:  Size  Location     Type
  5140 ;;                  1    wreg      void 
  5141 ;; Registers used:
  5142 ;;		wreg, status,2, status,0, pclath, tosl, cstack
  5143 ;; Tracked objects:
  5144 ;;		On entry : 0/0
  5145 ;;		On exit  : 0/0
  5146 ;;		Unchanged: 0/0
  5147 ;; Data sizes:     COMRAM   BANK5   BANK6   BANK7   BANK8   BANK9  BANK10  BANK11  BANK12  BANK13  BANK14  BANK15  BANK1
      +6  BANK17  BANK18  BANK19  BANK20  BANK21  BANK22  BANK23  BANK24  BANK25  BANK26  BANK27  BANK28  BANK29  BANK30  BANK3
      +1  BANK32  BANK33  BANK34  BANK35  BANK36  BANK37
  5148 ;;      Params:         0       0       0       0       0       0       0       0       0       0       0       0       
      +0       0       0       0       0       0       0       0       0       0       0       0       0       0       0       
      +0       0       0       0       0       0       0
  5149 ;;      Locals:         0       0       0       0       0       0       0       0       0       0       0       0       
      +0       0       0       0       0       0       0       0       0       0       0       0       0       0       0       
      +0       0       0       0       0       0       0
  5150 ;;      Temps:          0       0       0       0       0       0       0       0       0       0       0       0       
      +0       0       0       0       0       0       0       0       0       0       0       0       0       0       0       
      +0       0       0       0       0       0       0
  5151 ;;      Totals:         0       0       0       0       0       0       0       0       0       0       0       0       
      +0       0       0       0       0       0       0       0       0       0       0       0       0       0       0       
      +0       0       0       0       0       0       0
  5152 ;;Total ram usage:        0 bytes
  5153 ;; Hardware stack levels used: 1
  5154 ;; Hardware stack levels required when called: 1
  5155 ;; This function calls:
  5156 ;;		Absolute function
  5157 ;;		_TMR1_DefaultInterruptHandler
  5158 ;; This function is called by:
  5159 ;;		_TMR1_ISR
  5160 ;; This function uses a non-reentrant model
  5161 ;;
  5162                           
  5163                           	psect	text53
  5164  003298                     __ptext53:
  5165                           	callstack 0
  5166  003298                     _TMR1_CallBack:
  5167                           	callstack 119
  5168  003298                     
  5169                           ;mcc_generated_files/tmr1.c: 179:     if(TMR1_InterruptHandler)
  5170  003298  0105               	movlb	5	; () banked
  5171  00329A  5184               	movf	_TMR1_InterruptHandler& (0+255),w,b
  5172  00329C  1185               	iorwf	(_TMR1_InterruptHandler+1)& (0+255),w,b
  5173  00329E  B4D8               	btfsc	status,2,c
  5174  0032A0  EF54  F019         	goto	i2u136_41
  5175  0032A4  EF56  F019         	goto	i2u136_40
  5176  0032A8                     i2u136_41:
  5177  0032A8  EF62  F019         	goto	i2l963
  5178  0032AC                     i2u136_40:
  5179  0032AC                     
  5180                           ; BSR set to: 5
  5181                           ;mcc_generated_files/tmr1.c: 180:     {;mcc_generated_files/tmr1.c: 181:         TMR1_In
      +                          terruptHandler();
  5182  0032AC  D802               	call	i2u137_48
  5183  0032AE  EF62  F019         	goto	i2u137_49
  5184  0032B2                     i2u137_48:
  5185  0032B2  0005               	push	
  5186  0032B4  6EFA               	movwf	pclath,c
  5187  0032B6  5184               	movf	_TMR1_InterruptHandler& (0+255),w,b
  5188  0032B8  6EFD               	movwf	tosl,c
  5189  0032BA  5185               	movf	(_TMR1_InterruptHandler+1)& (0+255),w,b
  5190  0032BC  6EFE               	movwf	tosh,c
  5191  0032BE  6AFF               	clrf	tosu,c
  5192  0032C0  50FA               	movf	pclath,w,c
  5193  0032C2  0012               	return		;indir
  5194  0032C4                     i2u137_49:
  5195  0032C4                     i2l963:
  5196  0032C4  0012               	return		;funcret
  5197  0032C6                     __end_of_TMR1_CallBack:
  5198                           	callstack 0
  5199                           
  5200 ;; *************** function _TMR1_DefaultInterruptHandler *****************
  5201 ;; Defined at:
  5202 ;;		line 189 in file "mcc_generated_files/tmr1.c"
  5203 ;; Parameters:    Size  Location     Type
  5204 ;;		None
  5205 ;; Auto vars:     Size  Location     Type
  5206 ;;		None
  5207 ;; Return value:  Size  Location     Type
  5208 ;;                  1    wreg      void 
  5209 ;; Registers used:
  5210 ;;		None
  5211 ;; Tracked objects:
  5212 ;;		On entry : 0/0
  5213 ;;		On exit  : 0/0
  5214 ;;		Unchanged: 0/0
  5215 ;; Data sizes:     COMRAM   BANK5   BANK6   BANK7   BANK8   BANK9  BANK10  BANK11  BANK12  BANK13  BANK14  BANK15  BANK1
      +6  BANK17  BANK18  BANK19  BANK20  BANK21  BANK22  BANK23  BANK24  BANK25  BANK26  BANK27  BANK28  BANK29  BANK30  BANK3
      +1  BANK32  BANK33  BANK34  BANK35  BANK36  BANK37
  5216 ;;      Params:         0       0       0       0       0       0       0       0       0       0       0       0       
      +0       0       0       0       0       0       0       0       0       0       0       0       0       0       0       
      +0       0       0       0       0       0       0
  5217 ;;      Locals:         0       0       0       0       0       0       0       0       0       0       0       0       
      +0       0       0       0       0       0       0       0       0       0       0       0       0       0       0       
      +0       0       0       0       0       0       0
  5218 ;;      Temps:          0       0       0       0       0       0       0       0       0       0       0       0       
      +0       0       0       0       0       0       0       0       0       0       0       0       0       0       0       
      +0       0       0       0       0       0       0
  5219 ;;      Totals:         0       0       0       0       0       0       0       0       0       0       0       0       
      +0       0       0       0       0       0       0       0       0       0       0       0       0       0       0       
      +0       0       0       0       0       0       0
  5220 ;;Total ram usage:        0 bytes
  5221 ;; Hardware stack levels used: 1
  5222 ;; This function calls:
  5223 ;;		Nothing
  5224 ;; This function is called by:
  5225 ;;		_TMR1_Initialize
  5226 ;;		_TMR1_CallBack
  5227 ;; This function uses a non-reentrant model
  5228 ;;
  5229                           
  5230                           	psect	text54
  5231  00353E                     __ptext54:
  5232                           	callstack 0
  5233  00353E                     _TMR1_DefaultInterruptHandler:
  5234                           	callstack 119
  5235  00353E  0012               	return		;funcret
  5236  003540                     __end_of_TMR1_DefaultInterruptHandler:
  5237                           	callstack 0
  5238                           
  5239 ;; *************** function _TMR0_ISR *****************
  5240 ;; Defined at:
  5241 ;;		line 121 in file "mcc_generated_files/tmr0.c"
  5242 ;; Parameters:    Size  Location     Type
  5243 ;;		None
  5244 ;; Auto vars:     Size  Location     Type
  5245 ;;		None
  5246 ;; Return value:  Size  Location     Type
  5247 ;;                  1    wreg      void 
  5248 ;; Registers used:
  5249 ;;		wreg, status,2, status,0, pclath, tosl, cstack
  5250 ;; Tracked objects:
  5251 ;;		On entry : 0/0
  5252 ;;		On exit  : 0/0
  5253 ;;		Unchanged: 0/0
  5254 ;; Data sizes:     COMRAM   BANK5   BANK6   BANK7   BANK8   BANK9  BANK10  BANK11  BANK12  BANK13  BANK14  BANK15  BANK1
      +6  BANK17  BANK18  BANK19  BANK20  BANK21  BANK22  BANK23  BANK24  BANK25  BANK26  BANK27  BANK28  BANK29  BANK30  BANK3
      +1  BANK32  BANK33  BANK34  BANK35  BANK36  BANK37
  5255 ;;      Params:         0       0       0       0       0       0       0       0       0       0       0       0       
      +0       0       0       0       0       0       0       0       0       0       0       0       0       0       0       
      +0       0       0       0       0       0       0
  5256 ;;      Locals:         0       0       0       0       0       0       0       0       0       0       0       0       
      +0       0       0       0       0       0       0       0       0       0       0       0       0       0       0       
      +0       0       0       0       0       0       0
  5257 ;;      Temps:          0       0       0       0       0       0       0       0       0       0       0       0       
      +0       0       0       0       0       0       0       0       0       0       0       0       0       0       0       
      +0       0       0       0       0       0       0
  5258 ;;      Totals:         0       0       0       0       0       0       0       0       0       0       0       0       
      +0       0       0       0       0       0       0       0       0       0       0       0       0       0       0       
      +0       0       0       0       0       0       0
  5259 ;;Total ram usage:        0 bytes
  5260 ;; Hardware stack levels used: 1
  5261 ;; Hardware stack levels required when called: 2
  5262 ;; This function calls:
  5263 ;;		_TMR0_CallBack
  5264 ;; This function is called by:
  5265 ;;		_INTERRUPT_InterruptManager
  5266 ;; This function uses a non-reentrant model
  5267 ;;
  5268                           
  5269                           	psect	text55
  5270  003528                     __ptext55:
  5271                           	callstack 0
  5272  003528                     _TMR0_ISR:
  5273                           	callstack 119
  5274  003528                     
  5275                           ;mcc_generated_files/tmr0.c: 124:     PIR3bits.TMR0IF = 0;
  5276  003528  9EB1               	bcf	177,7,c	;volatile
  5277  00352A                     
  5278                           ;mcc_generated_files/tmr0.c: 127:     TMR0_CallBack();
  5279  00352A  EC63  F019         	call	_TMR0_CallBack	;wreg free
  5280  00352E  0012               	return		;funcret
  5281  003530                     __end_of_TMR0_ISR:
  5282                           	callstack 0
  5283                           
  5284 ;; *************** function _TMR0_CallBack *****************
  5285 ;; Defined at:
  5286 ;;		line 132 in file "mcc_generated_files/tmr0.c"
  5287 ;; Parameters:    Size  Location     Type
  5288 ;;		None
  5289 ;; Auto vars:     Size  Location     Type
  5290 ;;		None
  5291 ;; Return value:  Size  Location     Type
  5292 ;;                  1    wreg      void 
  5293 ;; Registers used:
  5294 ;;		wreg, status,2, status,0, pclath, tosl, cstack
  5295 ;; Tracked objects:
  5296 ;;		On entry : 0/0
  5297 ;;		On exit  : 0/0
  5298 ;;		Unchanged: 0/0
  5299 ;; Data sizes:     COMRAM   BANK5   BANK6   BANK7   BANK8   BANK9  BANK10  BANK11  BANK12  BANK13  BANK14  BANK15  BANK1
      +6  BANK17  BANK18  BANK19  BANK20  BANK21  BANK22  BANK23  BANK24  BANK25  BANK26  BANK27  BANK28  BANK29  BANK30  BANK3
      +1  BANK32  BANK33  BANK34  BANK35  BANK36  BANK37
  5300 ;;      Params:         0       0       0       0       0       0       0       0       0       0       0       0       
      +0       0       0       0       0       0       0       0       0       0       0       0       0       0       0       
      +0       0       0       0       0       0       0
  5301 ;;      Locals:         0       0       0       0       0       0       0       0       0       0       0       0       
      +0       0       0       0       0       0       0       0       0       0       0       0       0       0       0       
      +0       0       0       0       0       0       0
  5302 ;;      Temps:          0       0       0       0       0       0       0       0       0       0       0       0       
      +0       0       0       0       0       0       0       0       0       0       0       0       0       0       0       
      +0       0       0       0       0       0       0
  5303 ;;      Totals:         0       0       0       0       0       0       0       0       0       0       0       0       
      +0       0       0       0       0       0       0       0       0       0       0       0       0       0       0       
      +0       0       0       0       0       0       0
  5304 ;;Total ram usage:        0 bytes
  5305 ;; Hardware stack levels used: 1
  5306 ;; Hardware stack levels required when called: 1
  5307 ;; This function calls:
  5308 ;;		Absolute function
  5309 ;;		_TMR0_DefaultInterruptHandler
  5310 ;; This function is called by:
  5311 ;;		_TMR0_ISR
  5312 ;; This function uses a non-reentrant model
  5313 ;;
  5314                           
  5315                           	psect	text56
  5316  0032C6                     __ptext56:
  5317                           	callstack 0
  5318  0032C6                     _TMR0_CallBack:
  5319                           	callstack 119
  5320  0032C6                     
  5321                           ;mcc_generated_files/tmr0.c: 136:     if(TMR0_InterruptHandler)
  5322  0032C6  0105               	movlb	5	; () banked
  5323  0032C8  5180               	movf	_TMR0_InterruptHandler& (0+255),w,b
  5324  0032CA  1181               	iorwf	(_TMR0_InterruptHandler+1)& (0+255),w,b
  5325  0032CC  B4D8               	btfsc	status,2,c
  5326  0032CE  EF6B  F019         	goto	i2u140_41
  5327  0032D2  EF6D  F019         	goto	i2u140_40
  5328  0032D6                     i2u140_41:
  5329  0032D6  EF79  F019         	goto	i2l1105
  5330  0032DA                     i2u140_40:
  5331  0032DA                     
  5332                           ; BSR set to: 5
  5333                           ;mcc_generated_files/tmr0.c: 137:     {;mcc_generated_files/tmr0.c: 138:         TMR0_In
      +                          terruptHandler();
  5334  0032DA  D802               	call	i2u141_48
  5335  0032DC  EF79  F019         	goto	i2u141_49
  5336  0032E0                     i2u141_48:
  5337  0032E0  0005               	push	
  5338  0032E2  6EFA               	movwf	pclath,c
  5339  0032E4  5180               	movf	_TMR0_InterruptHandler& (0+255),w,b
  5340  0032E6  6EFD               	movwf	tosl,c
  5341  0032E8  5181               	movf	(_TMR0_InterruptHandler+1)& (0+255),w,b
  5342  0032EA  6EFE               	movwf	tosh,c
  5343  0032EC  6AFF               	clrf	tosu,c
  5344  0032EE  50FA               	movf	pclath,w,c
  5345  0032F0  0012               	return		;indir
  5346  0032F2                     i2u141_49:
  5347  0032F2                     i2l1105:
  5348  0032F2  0012               	return		;funcret
  5349  0032F4                     __end_of_TMR0_CallBack:
  5350                           	callstack 0
  5351                           
  5352 ;; *************** function _TMR0_DefaultInterruptHandler *****************
  5353 ;; Defined at:
  5354 ;;		line 146 in file "mcc_generated_files/tmr0.c"
  5355 ;; Parameters:    Size  Location     Type
  5356 ;;		None
  5357 ;; Auto vars:     Size  Location     Type
  5358 ;;		None
  5359 ;; Return value:  Size  Location     Type
  5360 ;;                  1    wreg      void 
  5361 ;; Registers used:
  5362 ;;		None
  5363 ;; Tracked objects:
  5364 ;;		On entry : 0/0
  5365 ;;		On exit  : 0/0
  5366 ;;		Unchanged: 0/0
  5367 ;; Data sizes:     COMRAM   BANK5   BANK6   BANK7   BANK8   BANK9  BANK10  BANK11  BANK12  BANK13  BANK14  BANK15  BANK1
      +6  BANK17  BANK18  BANK19  BANK20  BANK21  BANK22  BANK23  BANK24  BANK25  BANK26  BANK27  BANK28  BANK29  BANK30  BANK3
      +1  BANK32  BANK33  BANK34  BANK35  BANK36  BANK37
  5368 ;;      Params:         0       0       0       0       0       0       0       0       0       0       0       0       
      +0       0       0       0       0       0       0       0       0       0       0       0       0       0       0       
      +0       0       0       0       0       0       0
  5369 ;;      Locals:         0       0       0       0       0       0       0       0       0       0       0       0       
      +0       0       0       0       0       0       0       0       0       0       0       0       0       0       0       
      +0       0       0       0       0       0       0
  5370 ;;      Temps:          0       0       0       0       0       0       0       0       0       0       0       0       
      +0       0       0       0       0       0       0       0       0       0       0       0       0       0       0       
      +0       0       0       0       0       0       0
  5371 ;;      Totals:         0       0       0       0       0       0       0       0       0       0       0       0       
      +0       0       0       0       0       0       0       0       0       0       0       0       0       0       0       
      +0       0       0       0       0       0       0
  5372 ;;Total ram usage:        0 bytes
  5373 ;; Hardware stack levels used: 1
  5374 ;; This function calls:
  5375 ;;		Nothing
  5376 ;; This function is called by:
  5377 ;;		_TMR0_Initialize
  5378 ;;		_TMR0_CallBack
  5379 ;; This function uses a non-reentrant model
  5380 ;;
  5381                           
  5382                           	psect	text57
  5383  003540                     __ptext57:
  5384                           	callstack 0
  5385  003540                     _TMR0_DefaultInterruptHandler:
  5386                           	callstack 119
  5387  003540  0012               	return		;funcret
  5388  003542                     __end_of_TMR0_DefaultInterruptHandler:
  5389                           	callstack 0
  5390                           
  5391 ;; *************** function _INT0_ISR *****************
  5392 ;; Defined at:
  5393 ;;		line 32 in file "mcc_generated_files/ext_int.c"
  5394 ;; Parameters:    Size  Location     Type
  5395 ;;		None
  5396 ;; Auto vars:     Size  Location     Type
  5397 ;;		None
  5398 ;; Return value:  Size  Location     Type
  5399 ;;                  1    wreg      void 
  5400 ;; Registers used:
  5401 ;;		wreg, status,2, status,0, pclath, tosl, cstack
  5402 ;; Tracked objects:
  5403 ;;		On entry : 0/0
  5404 ;;		On exit  : 0/0
  5405 ;;		Unchanged: 0/0
  5406 ;; Data sizes:     COMRAM   BANK5   BANK6   BANK7   BANK8   BANK9  BANK10  BANK11  BANK12  BANK13  BANK14  BANK15  BANK1
      +6  BANK17  BANK18  BANK19  BANK20  BANK21  BANK22  BANK23  BANK24  BANK25  BANK26  BANK27  BANK28  BANK29  BANK30  BANK3
      +1  BANK32  BANK33  BANK34  BANK35  BANK36  BANK37
  5407 ;;      Params:         0       0       0       0       0       0       0       0       0       0       0       0       
      +0       0       0       0       0       0       0       0       0       0       0       0       0       0       0       
      +0       0       0       0       0       0       0
  5408 ;;      Locals:         0       0       0       0       0       0       0       0       0       0       0       0       
      +0       0       0       0       0       0       0       0       0       0       0       0       0       0       0       
      +0       0       0       0       0       0       0
  5409 ;;      Temps:          0       0       0       0       0       0       0       0       0       0       0       0       
      +0       0       0       0       0       0       0       0       0       0       0       0       0       0       0       
      +0       0       0       0       0       0       0
  5410 ;;      Totals:         0       0       0       0       0       0       0       0       0       0       0       0       
      +0       0       0       0       0       0       0       0       0       0       0       0       0       0       0       
      +0       0       0       0       0       0       0
  5411 ;;Total ram usage:        0 bytes
  5412 ;; Hardware stack levels used: 1
  5413 ;; Hardware stack levels required when called: 2
  5414 ;; This function calls:
  5415 ;;		_INT0_CallBack
  5416 ;; This function is called by:
  5417 ;;		_INTERRUPT_InterruptManager
  5418 ;; This function uses a non-reentrant model
  5419 ;;
  5420                           
  5421                           	psect	text58
  5422  003530                     __ptext58:
  5423                           	callstack 0
  5424  003530                     _INT0_ISR:
  5425                           	callstack 119
  5426  003530                     
  5427                           ;mcc_generated_files/ext_int.c: 34:     (PIR1bits.INT0IF = 0);
  5428  003530  90AF               	bcf	175,0,c	;volatile
  5429  003532                     
  5430                           ;mcc_generated_files/ext_int.c: 37:     INT0_CallBack();
  5431  003532  EC7A  F019         	call	_INT0_CallBack	;wreg free
  5432  003536  0012               	return		;funcret
  5433  003538                     __end_of_INT0_ISR:
  5434                           	callstack 0
  5435                           
  5436 ;; *************** function _INT0_CallBack *****************
  5437 ;; Defined at:
  5438 ;;		line 41 in file "mcc_generated_files/ext_int.c"
  5439 ;; Parameters:    Size  Location     Type
  5440 ;;		None
  5441 ;; Auto vars:     Size  Location     Type
  5442 ;;		None
  5443 ;; Return value:  Size  Location     Type
  5444 ;;                  1    wreg      void 
  5445 ;; Registers used:
  5446 ;;		wreg, status,2, status,0, pclath, tosl, cstack
  5447 ;; Tracked objects:
  5448 ;;		On entry : 0/0
  5449 ;;		On exit  : 0/0
  5450 ;;		Unchanged: 0/0
  5451 ;; Data sizes:     COMRAM   BANK5   BANK6   BANK7   BANK8   BANK9  BANK10  BANK11  BANK12  BANK13  BANK14  BANK15  BANK1
      +6  BANK17  BANK18  BANK19  BANK20  BANK21  BANK22  BANK23  BANK24  BANK25  BANK26  BANK27  BANK28  BANK29  BANK30  BANK3
      +1  BANK32  BANK33  BANK34  BANK35  BANK36  BANK37
  5452 ;;      Params:         0       0       0       0       0       0       0       0       0       0       0       0       
      +0       0       0       0       0       0       0       0       0       0       0       0       0       0       0       
      +0       0       0       0       0       0       0
  5453 ;;      Locals:         0       0       0       0       0       0       0       0       0       0       0       0       
      +0       0       0       0       0       0       0       0       0       0       0       0       0       0       0       
      +0       0       0       0       0       0       0
  5454 ;;      Temps:          0       0       0       0       0       0       0       0       0       0       0       0       
      +0       0       0       0       0       0       0       0       0       0       0       0       0       0       0       
      +0       0       0       0       0       0       0
  5455 ;;      Totals:         0       0       0       0       0       0       0       0       0       0       0       0       
      +0       0       0       0       0       0       0       0       0       0       0       0       0       0       0       
      +0       0       0       0       0       0       0
  5456 ;;Total ram usage:        0 bytes
  5457 ;; Hardware stack levels used: 1
  5458 ;; Hardware stack levels required when called: 1
  5459 ;; This function calls:
  5460 ;;		Absolute function
  5461 ;;		_INT0_DefaultInterruptHandler
  5462 ;; This function is called by:
  5463 ;;		_INT0_ISR
  5464 ;; This function uses a non-reentrant model
  5465 ;;
  5466                           
  5467                           	psect	text59
  5468  0032F4                     __ptext59:
  5469                           	callstack 0
  5470  0032F4                     _INT0_CallBack:
  5471                           	callstack 119
  5472  0032F4                     
  5473                           ;mcc_generated_files/ext_int.c: 44:     if(INT0_InterruptHandler)
  5474  0032F4  5056               	movf	_INT0_InterruptHandler^(0+1280),w,c
  5475  0032F6  1057               	iorwf	(_INT0_InterruptHandler+1)^(0+1280),w,c
  5476  0032F8  B4D8               	btfsc	status,2,c
  5477  0032FA  EF81  F019         	goto	i2u27_41
  5478  0032FE  EF83  F019         	goto	i2u27_40
  5479  003302                     i2u27_41:
  5480  003302  EF8F  F019         	goto	i2l34
  5481  003306                     i2u27_40:
  5482  003306                     
  5483                           ;mcc_generated_files/ext_int.c: 45:     {;mcc_generated_files/ext_int.c: 46:         INT
      +                          0_InterruptHandler();
  5484  003306  D802               	call	i2u28_48
  5485  003308  EF8F  F019         	goto	i2u28_49
  5486  00330C                     i2u28_48:
  5487  00330C  0005               	push	
  5488  00330E  6EFA               	movwf	pclath,c
  5489  003310  5056               	movf	_INT0_InterruptHandler^(0+1280),w,c
  5490  003312  6EFD               	movwf	tosl,c
  5491  003314  5057               	movf	(_INT0_InterruptHandler+1)^(0+1280),w,c
  5492  003316  6EFE               	movwf	tosh,c
  5493  003318  6AFF               	clrf	tosu,c
  5494  00331A  50FA               	movf	pclath,w,c
  5495  00331C  0012               	return		;indir
  5496  00331E                     i2u28_49:
  5497  00331E                     i2l34:
  5498  00331E  0012               	return		;funcret
  5499  003320                     __end_of_INT0_CallBack:
  5500                           	callstack 0
  5501                           
  5502 ;; *************** function _INT0_DefaultInterruptHandler *****************
  5503 ;; Defined at:
  5504 ;;		line 54 in file "mcc_generated_files/ext_int.c"
  5505 ;; Parameters:    Size  Location     Type
  5506 ;;		None
  5507 ;; Auto vars:     Size  Location     Type
  5508 ;;		None
  5509 ;; Return value:  Size  Location     Type
  5510 ;;                  1    wreg      void 
  5511 ;; Registers used:
  5512 ;;		None
  5513 ;; Tracked objects:
  5514 ;;		On entry : 0/0
  5515 ;;		On exit  : 0/0
  5516 ;;		Unchanged: 0/0
  5517 ;; Data sizes:     COMRAM   BANK5   BANK6   BANK7   BANK8   BANK9  BANK10  BANK11  BANK12  BANK13  BANK14  BANK15  BANK1
      +6  BANK17  BANK18  BANK19  BANK20  BANK21  BANK22  BANK23  BANK24  BANK25  BANK26  BANK27  BANK28  BANK29  BANK30  BANK3
      +1  BANK32  BANK33  BANK34  BANK35  BANK36  BANK37
  5518 ;;      Params:         0       0       0       0       0       0       0       0       0       0       0       0       
      +0       0       0       0       0       0       0       0       0       0       0       0       0       0       0       
      +0       0       0       0       0       0       0
  5519 ;;      Locals:         0       0       0       0       0       0       0       0       0       0       0       0       
      +0       0       0       0       0       0       0       0       0       0       0       0       0       0       0       
      +0       0       0       0       0       0       0
  5520 ;;      Temps:          0       0       0       0       0       0       0       0       0       0       0       0       
      +0       0       0       0       0       0       0       0       0       0       0       0       0       0       0       
      +0       0       0       0       0       0       0
  5521 ;;      Totals:         0       0       0       0       0       0       0       0       0       0       0       0       
      +0       0       0       0       0       0       0       0       0       0       0       0       0       0       0       
      +0       0       0       0       0       0       0
  5522 ;;Total ram usage:        0 bytes
  5523 ;; Hardware stack levels used: 1
  5524 ;; This function calls:
  5525 ;;		Nothing
  5526 ;; This function is called by:
  5527 ;;		_EXT_INT_Initialize
  5528 ;;		_INT0_CallBack
  5529 ;; This function uses a non-reentrant model
  5530 ;;
  5531                           
  5532                           	psect	text60
  5533  003542                     __ptext60:
  5534                           	callstack 0
  5535  003542                     _INT0_DefaultInterruptHandler:
  5536                           	callstack 119
  5537  003542  0012               	return		;funcret
  5538  003544                     __end_of_INT0_DefaultInterruptHandler:
  5539                           	callstack 0
  5540                           
  5541 ;; *************** function _CAN1_ISR *****************
  5542 ;; Defined at:
  5543 ;;		line 422 in file "mcc_generated_files/can1.c"
  5544 ;; Parameters:    Size  Location     Type
  5545 ;;		None
  5546 ;; Auto vars:     Size  Location     Type
  5547 ;;		None
  5548 ;; Return value:  Size  Location     Type
  5549 ;;                  1    wreg      void 
  5550 ;; Registers used:
  5551 ;;		wreg, pclath, tosl, cstack
  5552 ;; Tracked objects:
  5553 ;;		On entry : 0/0
  5554 ;;		On exit  : 0/0
  5555 ;;		Unchanged: 0/0
  5556 ;; Data sizes:     COMRAM   BANK5   BANK6   BANK7   BANK8   BANK9  BANK10  BANK11  BANK12  BANK13  BANK14  BANK15  BANK1
      +6  BANK17  BANK18  BANK19  BANK20  BANK21  BANK22  BANK23  BANK24  BANK25  BANK26  BANK27  BANK28  BANK29  BANK30  BANK3
      +1  BANK32  BANK33  BANK34  BANK35  BANK36  BANK37
  5557 ;;      Params:         0       0       0       0       0       0       0       0       0       0       0       0       
      +0       0       0       0       0       0       0       0       0       0       0       0       0       0       0       
      +0       0       0       0       0       0       0
  5558 ;;      Locals:         0       0       0       0       0       0       0       0       0       0       0       0       
      +0       0       0       0       0       0       0       0       0       0       0       0       0       0       0       
      +0       0       0       0       0       0       0
  5559 ;;      Temps:          0       0       0       0       0       0       0       0       0       0       0       0       
      +0       0       0       0       0       0       0       0       0       0       0       0       0       0       0       
      +0       0       0       0       0       0       0
  5560 ;;      Totals:         0       0       0       0       0       0       0       0       0       0       0       0       
      +0       0       0       0       0       0       0       0       0       0       0       0       0       0       0       
      +0       0       0       0       0       0       0
  5561 ;;Total ram usage:        0 bytes
  5562 ;; Hardware stack levels used: 1
  5563 ;; Hardware stack levels required when called: 1
  5564 ;; This function calls:
  5565 ;;		Absolute function
  5566 ;;		_DefaultBusErrorHandler
  5567 ;;		_DefaultBusWakeUpActivityHandler
  5568 ;;		_DefaultInvalidMessageHandler
  5569 ;;		_DefaultModeChangeHandler
  5570 ;;		_DefaultSystemErrorHandler
  5571 ;;		_DefaultTxAttemptHandler
  5572 ;; This function is called by:
  5573 ;;		_INTERRUPT_InterruptManager
  5574 ;; This function uses a non-reentrant model
  5575 ;;
  5576                           
  5577                           	psect	text61
  5578  002854                     __ptext61:
  5579                           	callstack 0
  5580  002854                     _CAN1_ISR:
  5581                           	callstack 120
  5582  002854                     
  5583                           ;mcc_generated_files/can1.c: 424:     if (1 == C1INTHbits.IVMIF)
  5584  002854  0101               	movlb	1	; () banked
  5585  002856  AF1D               	btfss	29,7,b	;volatile
  5586  002858  EF30  F014         	goto	i2u42_41
  5587  00285C  EF32  F014         	goto	i2u42_40
  5588  002860                     i2u42_41:
  5589  002860  EF40  F014         	goto	i2l2261
  5590  002864                     i2u42_40:
  5591  002864                     
  5592                           ; BSR set to: 1
  5593                           ;mcc_generated_files/can1.c: 425:     {;mcc_generated_files/can1.c: 426:         CAN1_In
      +                          validMessageHandler();
  5594  002864  D802               	call	i2u43_48
  5595  002866  EF3E  F014         	goto	i2u43_49
  5596  00286A                     i2u43_48:
  5597  00286A  0005               	push	
  5598  00286C  6EFA               	movwf	pclath,c
  5599  00286E  503B               	movf	_CAN1_InvalidMessageHandler^(0+1280),w,c
  5600  002870  6EFD               	movwf	tosl,c
  5601  002872  503C               	movf	(_CAN1_InvalidMessageHandler+1)^(0+1280),w,c
  5602  002874  6EFE               	movwf	tosh,c
  5603  002876  6AFF               	clrf	tosu,c
  5604  002878  50FA               	movf	pclath,w,c
  5605  00287A  0012               	return		;indir
  5606  00287C                     i2u43_49:
  5607  00287C                     
  5608                           ;mcc_generated_files/can1.c: 427:         C1INTHbits.IVMIF = 0;
  5609  00287C  0101               	movlb	1	; () banked
  5610  00287E  9F1D               	bcf	29,7,b	;volatile
  5611  002880                     i2l2261:
  5612                           
  5613                           ; BSR set to: 1
  5614                           ;mcc_generated_files/can1.c: 430:     if (1 == C1INTHbits.WAKIF)
  5615  002880  AD1D               	btfss	29,6,b	;volatile
  5616  002882  EF45  F014         	goto	i2u44_41
  5617  002886  EF47  F014         	goto	i2u44_40
  5618  00288A                     i2u44_41:
  5619  00288A  EF55  F014         	goto	i2l2267
  5620  00288E                     i2u44_40:
  5621  00288E                     
  5622                           ; BSR set to: 1
  5623                           ;mcc_generated_files/can1.c: 431:     {;mcc_generated_files/can1.c: 432:         CAN1_Bu
      +                          sWakeUpActivityHandler();
  5624  00288E  D802               	call	i2u45_48
  5625  002890  EF53  F014         	goto	i2u45_49
  5626  002894                     i2u45_48:
  5627  002894  0005               	push	
  5628  002896  6EFA               	movwf	pclath,c
  5629  002898  5039               	movf	_CAN1_BusWakeUpActivityHandler^(0+1280),w,c
  5630  00289A  6EFD               	movwf	tosl,c
  5631  00289C  503A               	movf	(_CAN1_BusWakeUpActivityHandler+1)^(0+1280),w,c
  5632  00289E  6EFE               	movwf	tosh,c
  5633  0028A0  6AFF               	clrf	tosu,c
  5634  0028A2  50FA               	movf	pclath,w,c
  5635  0028A4  0012               	return		;indir
  5636  0028A6                     i2u45_49:
  5637  0028A6                     
  5638                           ;mcc_generated_files/can1.c: 433:         C1INTHbits.WAKIF = 0;
  5639  0028A6  0101               	movlb	1	; () banked
  5640  0028A8  9D1D               	bcf	29,6,b	;volatile
  5641  0028AA                     i2l2267:
  5642                           
  5643                           ; BSR set to: 1
  5644                           ;mcc_generated_files/can1.c: 436:     if (1 == C1INTHbits.CERRIF)
  5645  0028AA  AB1D               	btfss	29,5,b	;volatile
  5646  0028AC  EF5A  F014         	goto	i2u46_41
  5647  0028B0  EF5C  F014         	goto	i2u46_40
  5648  0028B4                     i2u46_41:
  5649  0028B4  EF6A  F014         	goto	i2l2273
  5650  0028B8                     i2u46_40:
  5651  0028B8                     
  5652                           ; BSR set to: 1
  5653                           ;mcc_generated_files/can1.c: 437:     {;mcc_generated_files/can1.c: 438:         CAN1_Bu
      +                          sErrorHandler();
  5654  0028B8  D802               	call	i2u47_48
  5655  0028BA  EF68  F014         	goto	i2u47_49
  5656  0028BE                     i2u47_48:
  5657  0028BE  0005               	push	
  5658  0028C0  6EFA               	movwf	pclath,c
  5659  0028C2  5037               	movf	_CAN1_BusErrorHandler^(0+1280),w,c
  5660  0028C4  6EFD               	movwf	tosl,c
  5661  0028C6  5038               	movf	(_CAN1_BusErrorHandler+1)^(0+1280),w,c
  5662  0028C8  6EFE               	movwf	tosh,c
  5663  0028CA  6AFF               	clrf	tosu,c
  5664  0028CC  50FA               	movf	pclath,w,c
  5665  0028CE  0012               	return		;indir
  5666  0028D0                     i2u47_49:
  5667  0028D0                     
  5668                           ;mcc_generated_files/can1.c: 439:         C1INTHbits.CERRIF = 0;
  5669  0028D0  0101               	movlb	1	; () banked
  5670  0028D2  9B1D               	bcf	29,5,b	;volatile
  5671  0028D4                     i2l2273:
  5672                           
  5673                           ; BSR set to: 1
  5674                           ;mcc_generated_files/can1.c: 442:     if (1 == C1INTLbits.MODIF)
  5675  0028D4  A71C               	btfss	28,3,b	;volatile
  5676  0028D6  EF6F  F014         	goto	i2u48_41
  5677  0028DA  EF71  F014         	goto	i2u48_40
  5678  0028DE                     i2u48_41:
  5679  0028DE  EF7F  F014         	goto	i2l2279
  5680  0028E2                     i2u48_40:
  5681  0028E2                     
  5682                           ; BSR set to: 1
  5683                           ;mcc_generated_files/can1.c: 443:     {;mcc_generated_files/can1.c: 444:         CAN1_Mo
      +                          deChangeHandler();
  5684  0028E2  D802               	call	i2u49_48
  5685  0028E4  EF7D  F014         	goto	i2u49_49
  5686  0028E8                     i2u49_48:
  5687  0028E8  0005               	push	
  5688  0028EA  6EFA               	movwf	pclath,c
  5689  0028EC  5035               	movf	_CAN1_ModeChangeHandler^(0+1280),w,c
  5690  0028EE  6EFD               	movwf	tosl,c
  5691  0028F0  5036               	movf	(_CAN1_ModeChangeHandler+1)^(0+1280),w,c
  5692  0028F2  6EFE               	movwf	tosh,c
  5693  0028F4  6AFF               	clrf	tosu,c
  5694  0028F6  50FA               	movf	pclath,w,c
  5695  0028F8  0012               	return		;indir
  5696  0028FA                     i2u49_49:
  5697  0028FA                     
  5698                           ;mcc_generated_files/can1.c: 445:         C1INTLbits.MODIF = 0;
  5699  0028FA  0101               	movlb	1	; () banked
  5700  0028FC  971C               	bcf	28,3,b	;volatile
  5701  0028FE                     i2l2279:
  5702                           
  5703                           ; BSR set to: 1
  5704                           ;mcc_generated_files/can1.c: 448:     if (1 == C1INTHbits.SERRIF)
  5705  0028FE  A91D               	btfss	29,4,b	;volatile
  5706  002900  EF84  F014         	goto	i2u50_41
  5707  002904  EF86  F014         	goto	i2u50_40
  5708  002908                     i2u50_41:
  5709  002908  EF94  F014         	goto	i2l2285
  5710  00290C                     i2u50_40:
  5711  00290C                     
  5712                           ; BSR set to: 1
  5713                           ;mcc_generated_files/can1.c: 449:     {;mcc_generated_files/can1.c: 450:         CAN1_Sy
      +                          stemErrorHandler();
  5714  00290C  D802               	call	i2u51_48
  5715  00290E  EF92  F014         	goto	i2u51_49
  5716  002912                     i2u51_48:
  5717  002912  0005               	push	
  5718  002914  6EFA               	movwf	pclath,c
  5719  002916  5033               	movf	_CAN1_SystemErrorHandler^(0+1280),w,c
  5720  002918  6EFD               	movwf	tosl,c
  5721  00291A  5034               	movf	(_CAN1_SystemErrorHandler+1)^(0+1280),w,c
  5722  00291C  6EFE               	movwf	tosh,c
  5723  00291E  6AFF               	clrf	tosu,c
  5724  002920  50FA               	movf	pclath,w,c
  5725  002922  0012               	return		;indir
  5726  002924                     i2u51_49:
  5727  002924                     
  5728                           ;mcc_generated_files/can1.c: 451:         C1INTHbits.SERRIF = 0;
  5729  002924  0101               	movlb	1	; () banked
  5730  002926  991D               	bcf	29,4,b	;volatile
  5731  002928                     i2l2285:
  5732                           
  5733                           ; BSR set to: 1
  5734                           ;mcc_generated_files/can1.c: 454:     if (1 == C1INTHbits.TXATIF)
  5735  002928  A51D               	btfss	29,2,b	;volatile
  5736  00292A  EF99  F014         	goto	i2u52_41
  5737  00292E  EF9B  F014         	goto	i2u52_40
  5738  002932                     i2u52_41:
  5739  002932  EFB0  F014         	goto	i2l789
  5740  002936                     i2u52_40:
  5741  002936                     
  5742                           ; BSR set to: 1
  5743                           ;mcc_generated_files/can1.c: 455:     {;mcc_generated_files/can1.c: 456:         CAN1_Tx
      +                          AttemptHandler();
  5744  002936  D802               	call	i2u53_48
  5745  002938  EFA7  F014         	goto	i2u53_49
  5746  00293C                     i2u53_48:
  5747  00293C  0005               	push	
  5748  00293E  6EFA               	movwf	pclath,c
  5749  002940  5031               	movf	_CAN1_TxAttemptHandler^(0+1280),w,c
  5750  002942  6EFD               	movwf	tosl,c
  5751  002944  5032               	movf	(_CAN1_TxAttemptHandler+1)^(0+1280),w,c
  5752  002946  6EFE               	movwf	tosh,c
  5753  002948  6AFF               	clrf	tosu,c
  5754  00294A  50FA               	movf	pclath,w,c
  5755  00294C  0012               	return		;indir
  5756  00294E                     i2u53_49:
  5757  00294E                     
  5758                           ;mcc_generated_files/can1.c: 457:         if (1 == C1TXQSTALbits.TXATIF)
  5759  00294E  0101               	movlb	1	; () banked
  5760  002950  A954               	btfss	84,4,b	;volatile
  5761  002952  EFAD  F014         	goto	i2u54_41
  5762  002956  EFAF  F014         	goto	i2u54_40
  5763  00295A                     i2u54_41:
  5764  00295A  EFB0  F014         	goto	i2l789
  5765  00295E                     i2u54_40:
  5766  00295E                     
  5767                           ; BSR set to: 1
  5768                           ;mcc_generated_files/can1.c: 458:         {;mcc_generated_files/can1.c: 459:            
      +                           C1TXQSTALbits.TXATIF = 0;
  5769  00295E  9954               	bcf	84,4,b	;volatile
  5770  002960                     i2l789:
  5771                           
  5772                           ; BSR set to: 1
  5773                           ;mcc_generated_files/can1.c: 463:     PIR0bits.CANIF = 0;
  5774  002960  9CAE               	bcf	174,6,c	;volatile
  5775  002962                     
  5776                           ; BSR set to: 1
  5777  002962  0012               	return		;funcret
  5778  002964                     __end_of_CAN1_ISR:
  5779                           	callstack 0
  5780                           
  5781 ;; *************** function _DefaultTxAttemptHandler *****************
  5782 ;; Defined at:
  5783 ;;		line 112 in file "mcc_generated_files/can1.c"
  5784 ;; Parameters:    Size  Location     Type
  5785 ;;		None
  5786 ;; Auto vars:     Size  Location     Type
  5787 ;;		None
  5788 ;; Return value:  Size  Location     Type
  5789 ;;                  1    wreg      void 
  5790 ;; Registers used:
  5791 ;;		None
  5792 ;; Tracked objects:
  5793 ;;		On entry : 0/0
  5794 ;;		On exit  : 0/0
  5795 ;;		Unchanged: 0/0
  5796 ;; Data sizes:     COMRAM   BANK5   BANK6   BANK7   BANK8   BANK9  BANK10  BANK11  BANK12  BANK13  BANK14  BANK15  BANK1
      +6  BANK17  BANK18  BANK19  BANK20  BANK21  BANK22  BANK23  BANK24  BANK25  BANK26  BANK27  BANK28  BANK29  BANK30  BANK3
      +1  BANK32  BANK33  BANK34  BANK35  BANK36  BANK37
  5797 ;;      Params:         0       0       0       0       0       0       0       0       0       0       0       0       
      +0       0       0       0       0       0       0       0       0       0       0       0       0       0       0       
      +0       0       0       0       0       0       0
  5798 ;;      Locals:         0       0       0       0       0       0       0       0       0       0       0       0       
      +0       0       0       0       0       0       0       0       0       0       0       0       0       0       0       
      +0       0       0       0       0       0       0
  5799 ;;      Temps:          0       0       0       0       0       0       0       0       0       0       0       0       
      +0       0       0       0       0       0       0       0       0       0       0       0       0       0       0       
      +0       0       0       0       0       0       0
  5800 ;;      Totals:         0       0       0       0       0       0       0       0       0       0       0       0       
      +0       0       0       0       0       0       0       0       0       0       0       0       0       0       0       
      +0       0       0       0       0       0       0
  5801 ;;Total ram usage:        0 bytes
  5802 ;; Hardware stack levels used: 1
  5803 ;; This function calls:
  5804 ;;		Nothing
  5805 ;; This function is called by:
  5806 ;;		_CAN1_ErrorNotificationInterruptEnable
  5807 ;;		_CAN1_ISR
  5808 ;; This function uses a non-reentrant model
  5809 ;;
  5810                           
  5811                           	psect	text62
  5812  003544                     __ptext62:
  5813                           	callstack 0
  5814  003544                     _DefaultTxAttemptHandler:
  5815                           	callstack 120
  5816  003544  0012               	return		;funcret
  5817  003546                     __end_of_DefaultTxAttemptHandler:
  5818                           	callstack 0
  5819                           
  5820 ;; *************** function _DefaultSystemErrorHandler *****************
  5821 ;; Defined at:
  5822 ;;		line 108 in file "mcc_generated_files/can1.c"
  5823 ;; Parameters:    Size  Location     Type
  5824 ;;		None
  5825 ;; Auto vars:     Size  Location     Type
  5826 ;;		None
  5827 ;; Return value:  Size  Location     Type
  5828 ;;                  1    wreg      void 
  5829 ;; Registers used:
  5830 ;;		None
  5831 ;; Tracked objects:
  5832 ;;		On entry : 0/0
  5833 ;;		On exit  : 0/0
  5834 ;;		Unchanged: 0/0
  5835 ;; Data sizes:     COMRAM   BANK5   BANK6   BANK7   BANK8   BANK9  BANK10  BANK11  BANK12  BANK13  BANK14  BANK15  BANK1
      +6  BANK17  BANK18  BANK19  BANK20  BANK21  BANK22  BANK23  BANK24  BANK25  BANK26  BANK27  BANK28  BANK29  BANK30  BANK3
      +1  BANK32  BANK33  BANK34  BANK35  BANK36  BANK37
  5836 ;;      Params:         0       0       0       0       0       0       0       0       0       0       0       0       
      +0       0       0       0       0       0       0       0       0       0       0       0       0       0       0       
      +0       0       0       0       0       0       0
  5837 ;;      Locals:         0       0       0       0       0       0       0       0       0       0       0       0       
      +0       0       0       0       0       0       0       0       0       0       0       0       0       0       0       
      +0       0       0       0       0       0       0
  5838 ;;      Temps:          0       0       0       0       0       0       0       0       0       0       0       0       
      +0       0       0       0       0       0       0       0       0       0       0       0       0       0       0       
      +0       0       0       0       0       0       0
  5839 ;;      Totals:         0       0       0       0       0       0       0       0       0       0       0       0       
      +0       0       0       0       0       0       0       0       0       0       0       0       0       0       0       
      +0       0       0       0       0       0       0
  5840 ;;Total ram usage:        0 bytes
  5841 ;; Hardware stack levels used: 1
  5842 ;; This function calls:
  5843 ;;		Nothing
  5844 ;; This function is called by:
  5845 ;;		_CAN1_ErrorNotificationInterruptEnable
  5846 ;;		_CAN1_ISR
  5847 ;; This function uses a non-reentrant model
  5848 ;;
  5849                           
  5850                           	psect	text63
  5851  003546                     __ptext63:
  5852                           	callstack 0
  5853  003546                     _DefaultSystemErrorHandler:
  5854                           	callstack 120
  5855  003546  0012               	return		;funcret
  5856  003548                     __end_of_DefaultSystemErrorHandler:
  5857                           	callstack 0
  5858                           
  5859 ;; *************** function _DefaultModeChangeHandler *****************
  5860 ;; Defined at:
  5861 ;;		line 104 in file "mcc_generated_files/can1.c"
  5862 ;; Parameters:    Size  Location     Type
  5863 ;;		None
  5864 ;; Auto vars:     Size  Location     Type
  5865 ;;		None
  5866 ;; Return value:  Size  Location     Type
  5867 ;;                  1    wreg      void 
  5868 ;; Registers used:
  5869 ;;		None
  5870 ;; Tracked objects:
  5871 ;;		On entry : 0/0
  5872 ;;		On exit  : 0/0
  5873 ;;		Unchanged: 0/0
  5874 ;; Data sizes:     COMRAM   BANK5   BANK6   BANK7   BANK8   BANK9  BANK10  BANK11  BANK12  BANK13  BANK14  BANK15  BANK1
      +6  BANK17  BANK18  BANK19  BANK20  BANK21  BANK22  BANK23  BANK24  BANK25  BANK26  BANK27  BANK28  BANK29  BANK30  BANK3
      +1  BANK32  BANK33  BANK34  BANK35  BANK36  BANK37
  5875 ;;      Params:         0       0       0       0       0       0       0       0       0       0       0       0       
      +0       0       0       0       0       0       0       0       0       0       0       0       0       0       0       
      +0       0       0       0       0       0       0
  5876 ;;      Locals:         0       0       0       0       0       0       0       0       0       0       0       0       
      +0       0       0       0       0       0       0       0       0       0       0       0       0       0       0       
      +0       0       0       0       0       0       0
  5877 ;;      Temps:          0       0       0       0       0       0       0       0       0       0       0       0       
      +0       0       0       0       0       0       0       0       0       0       0       0       0       0       0       
      +0       0       0       0       0       0       0
  5878 ;;      Totals:         0       0       0       0       0       0       0       0       0       0       0       0       
      +0       0       0       0       0       0       0       0       0       0       0       0       0       0       0       
      +0       0       0       0       0       0       0
  5879 ;;Total ram usage:        0 bytes
  5880 ;; Hardware stack levels used: 1
  5881 ;; This function calls:
  5882 ;;		Nothing
  5883 ;; This function is called by:
  5884 ;;		_CAN1_ErrorNotificationInterruptEnable
  5885 ;;		_CAN1_ISR
  5886 ;; This function uses a non-reentrant model
  5887 ;;
  5888                           
  5889                           	psect	text64
  5890  003548                     __ptext64:
  5891                           	callstack 0
  5892  003548                     _DefaultModeChangeHandler:
  5893                           	callstack 120
  5894  003548  0012               	return		;funcret
  5895  00354A                     __end_of_DefaultModeChangeHandler:
  5896                           	callstack 0
  5897                           
  5898 ;; *************** function _DefaultInvalidMessageHandler *****************
  5899 ;; Defined at:
  5900 ;;		line 92 in file "mcc_generated_files/can1.c"
  5901 ;; Parameters:    Size  Location     Type
  5902 ;;		None
  5903 ;; Auto vars:     Size  Location     Type
  5904 ;;		None
  5905 ;; Return value:  Size  Location     Type
  5906 ;;                  1    wreg      void 
  5907 ;; Registers used:
  5908 ;;		None
  5909 ;; Tracked objects:
  5910 ;;		On entry : 0/0
  5911 ;;		On exit  : 0/0
  5912 ;;		Unchanged: 0/0
  5913 ;; Data sizes:     COMRAM   BANK5   BANK6   BANK7   BANK8   BANK9  BANK10  BANK11  BANK12  BANK13  BANK14  BANK15  BANK1
      +6  BANK17  BANK18  BANK19  BANK20  BANK21  BANK22  BANK23  BANK24  BANK25  BANK26  BANK27  BANK28  BANK29  BANK30  BANK3
      +1  BANK32  BANK33  BANK34  BANK35  BANK36  BANK37
  5914 ;;      Params:         0       0       0       0       0       0       0       0       0       0       0       0       
      +0       0       0       0       0       0       0       0       0       0       0       0       0       0       0       
      +0       0       0       0       0       0       0
  5915 ;;      Locals:         0       0       0       0       0       0       0       0       0       0       0       0       
      +0       0       0       0       0       0       0       0       0       0       0       0       0       0       0       
      +0       0       0       0       0       0       0
  5916 ;;      Temps:          0       0       0       0       0       0       0       0       0       0       0       0       
      +0       0       0       0       0       0       0       0       0       0       0       0       0       0       0       
      +0       0       0       0       0       0       0
  5917 ;;      Totals:         0       0       0       0       0       0       0       0       0       0       0       0       
      +0       0       0       0       0       0       0       0       0       0       0       0       0       0       0       
      +0       0       0       0       0       0       0
  5918 ;;Total ram usage:        0 bytes
  5919 ;; Hardware stack levels used: 1
  5920 ;; This function calls:
  5921 ;;		Nothing
  5922 ;; This function is called by:
  5923 ;;		_CAN1_ErrorNotificationInterruptEnable
  5924 ;;		_CAN1_ISR
  5925 ;; This function uses a non-reentrant model
  5926 ;;
  5927                           
  5928                           	psect	text65
  5929  00354A                     __ptext65:
  5930                           	callstack 0
  5931  00354A                     _DefaultInvalidMessageHandler:
  5932                           	callstack 120
  5933  00354A  0012               	return		;funcret
  5934  00354C                     __end_of_DefaultInvalidMessageHandler:
  5935                           	callstack 0
  5936                           
  5937 ;; *************** function _DefaultBusWakeUpActivityHandler *****************
  5938 ;; Defined at:
  5939 ;;		line 96 in file "mcc_generated_files/can1.c"
  5940 ;; Parameters:    Size  Location     Type
  5941 ;;		None
  5942 ;; Auto vars:     Size  Location     Type
  5943 ;;		None
  5944 ;; Return value:  Size  Location     Type
  5945 ;;                  1    wreg      void 
  5946 ;; Registers used:
  5947 ;;		None
  5948 ;; Tracked objects:
  5949 ;;		On entry : 0/0
  5950 ;;		On exit  : 0/0
  5951 ;;		Unchanged: 0/0
  5952 ;; Data sizes:     COMRAM   BANK5   BANK6   BANK7   BANK8   BANK9  BANK10  BANK11  BANK12  BANK13  BANK14  BANK15  BANK1
      +6  BANK17  BANK18  BANK19  BANK20  BANK21  BANK22  BANK23  BANK24  BANK25  BANK26  BANK27  BANK28  BANK29  BANK30  BANK3
      +1  BANK32  BANK33  BANK34  BANK35  BANK36  BANK37
  5953 ;;      Params:         0       0       0       0       0       0       0       0       0       0       0       0       
      +0       0       0       0       0       0       0       0       0       0       0       0       0       0       0       
      +0       0       0       0       0       0       0
  5954 ;;      Locals:         0       0       0       0       0       0       0       0       0       0       0       0       
      +0       0       0       0       0       0       0       0       0       0       0       0       0       0       0       
      +0       0       0       0       0       0       0
  5955 ;;      Temps:          0       0       0       0       0       0       0       0       0       0       0       0       
      +0       0       0       0       0       0       0       0       0       0       0       0       0       0       0       
      +0       0       0       0       0       0       0
  5956 ;;      Totals:         0       0       0       0       0       0       0       0       0       0       0       0       
      +0       0       0       0       0       0       0       0       0       0       0       0       0       0       0       
      +0       0       0       0       0       0       0
  5957 ;;Total ram usage:        0 bytes
  5958 ;; Hardware stack levels used: 1
  5959 ;; This function calls:
  5960 ;;		Nothing
  5961 ;; This function is called by:
  5962 ;;		_CAN1_ErrorNotificationInterruptEnable
  5963 ;;		_CAN1_ISR
  5964 ;; This function uses a non-reentrant model
  5965 ;;
  5966                           
  5967                           	psect	text66
  5968  00354C                     __ptext66:
  5969                           	callstack 0
  5970  00354C                     _DefaultBusWakeUpActivityHandler:
  5971                           	callstack 120
  5972  00354C  0012               	return		;funcret
  5973  00354E                     __end_of_DefaultBusWakeUpActivityHandler:
  5974                           	callstack 0
  5975                           
  5976 ;; *************** function _DefaultBusErrorHandler *****************
  5977 ;; Defined at:
  5978 ;;		line 100 in file "mcc_generated_files/can1.c"
  5979 ;; Parameters:    Size  Location     Type
  5980 ;;		None
  5981 ;; Auto vars:     Size  Location     Type
  5982 ;;		None
  5983 ;; Return value:  Size  Location     Type
  5984 ;;                  1    wreg      void 
  5985 ;; Registers used:
  5986 ;;		None
  5987 ;; Tracked objects:
  5988 ;;		On entry : 0/0
  5989 ;;		On exit  : 0/0
  5990 ;;		Unchanged: 0/0
  5991 ;; Data sizes:     COMRAM   BANK5   BANK6   BANK7   BANK8   BANK9  BANK10  BANK11  BANK12  BANK13  BANK14  BANK15  BANK1
      +6  BANK17  BANK18  BANK19  BANK20  BANK21  BANK22  BANK23  BANK24  BANK25  BANK26  BANK27  BANK28  BANK29  BANK30  BANK3
      +1  BANK32  BANK33  BANK34  BANK35  BANK36  BANK37
  5992 ;;      Params:         0       0       0       0       0       0       0       0       0       0       0       0       
      +0       0       0       0       0       0       0       0       0       0       0       0       0       0       0       
      +0       0       0       0       0       0       0
  5993 ;;      Locals:         0       0       0       0       0       0       0       0       0       0       0       0       
      +0       0       0       0       0       0       0       0       0       0       0       0       0       0       0       
      +0       0       0       0       0       0       0
  5994 ;;      Temps:          0       0       0       0       0       0       0       0       0       0       0       0       
      +0       0       0       0       0       0       0       0       0       0       0       0       0       0       0       
      +0       0       0       0       0       0       0
  5995 ;;      Totals:         0       0       0       0       0       0       0       0       0       0       0       0       
      +0       0       0       0       0       0       0       0       0       0       0       0       0       0       0       
      +0       0       0       0       0       0       0
  5996 ;;Total ram usage:        0 bytes
  5997 ;; Hardware stack levels used: 1
  5998 ;; This function calls:
  5999 ;;		Nothing
  6000 ;; This function is called by:
  6001 ;;		_CAN1_ErrorNotificationInterruptEnable
  6002 ;;		_CAN1_ISR
  6003 ;; This function uses a non-reentrant model
  6004 ;;
  6005                           
  6006                           	psect	text67
  6007  00354E                     __ptext67:
  6008                           	callstack 0
  6009  00354E                     _DefaultBusErrorHandler:
  6010                           	callstack 120
  6011  00354E  0012               	return		;funcret
  6012  003550                     __end_of_DefaultBusErrorHandler:
  6013                           	callstack 0
  6014                           
  6015                           ;
  6016                           ; Interrupt Vector Table @ 0x8
  6017                           ;
  6018                           
  6019                           	psect	ivt0x8
  6020  000008                     __pivt0x8:
  6021                           	callstack 0
  6022  000008                     ivt0x8_base:
  6023                           	callstack 0
  6024                           
  6025                           ; high-priority vector
  6026  000008  EF0C  F016         	goto	_INTERRUPT_InterruptManager
  6027  000018                     	org	16
  6028                           
  6029                           ; low-priority vector
  6030  000018  00FF               	reset	
  6031                           
  6032                           	psect	text68
  6033  000000                     __ptext68:
  6034                           	callstack 0
  6035  000000                     
  6036                           	psect	rparam
  6037  0000                     
  6038                           	psect	idloc
  6039                           
  6040                           ;Config register IDLOC0 @ 0x200000
  6041                           ;	unspecified, using default values
  6042  200000                     	org	2097152
  6043  200000  0FFF               	dw	4095
  6044                           
  6045                           ;Config register IDLOC1 @ 0x200002
  6046                           ;	unspecified, using default values
  6047  200002                     	org	2097154
  6048  200002  0FFF               	dw	4095
  6049                           
  6050                           ;Config register IDLOC2 @ 0x200004
  6051                           ;	unspecified, using default values
  6052  200004                     	org	2097156
  6053  200004  0FFF               	dw	4095
  6054                           
  6055                           ;Config register IDLOC3 @ 0x200006
  6056                           ;	unspecified, using default values
  6057  200006                     	org	2097158
  6058  200006  0FFF               	dw	4095
  6059                           
  6060                           ;Config register IDLOC4 @ 0x200008
  6061                           ;	unspecified, using default values
  6062  200008                     	org	2097160
  6063  200008  0FFF               	dw	4095
  6064                           
  6065                           ;Config register IDLOC5 @ 0x20000A
  6066                           ;	unspecified, using default values
  6067  20000A                     	org	2097162
  6068  20000A  0FFF               	dw	4095
  6069                           
  6070                           ;Config register IDLOC6 @ 0x20000C
  6071                           ;	unspecified, using default values
  6072  20000C                     	org	2097164
  6073  20000C  0FFF               	dw	4095
  6074                           
  6075                           ;Config register IDLOC7 @ 0x20000E
  6076                           ;	unspecified, using default values
  6077  20000E                     	org	2097166
  6078  20000E  0FFF               	dw	4095
  6079                           
  6080                           ;Config register IDLOC8 @ 0x200010
  6081                           ;	unspecified, using default values
  6082  200010                     	org	2097168
  6083  200010  0FFF               	dw	4095
  6084                           
  6085                           ;Config register IDLOC9 @ 0x200012
  6086                           ;	unspecified, using default values
  6087  200012                     	org	2097170
  6088  200012  0FFF               	dw	4095
  6089                           
  6090                           ;Config register IDLOC10 @ 0x200014
  6091                           ;	unspecified, using default values
  6092  200014                     	org	2097172
  6093  200014  0FFF               	dw	4095
  6094                           
  6095                           ;Config register IDLOC11 @ 0x200016
  6096                           ;	unspecified, using default values
  6097  200016                     	org	2097174
  6098  200016  0FFF               	dw	4095
  6099                           
  6100                           ;Config register IDLOC12 @ 0x200018
  6101                           ;	unspecified, using default values
  6102  200018                     	org	2097176
  6103  200018  0FFF               	dw	4095
  6104                           
  6105                           ;Config register IDLOC13 @ 0x20001A
  6106                           ;	unspecified, using default values
  6107  20001A                     	org	2097178
  6108  20001A  0FFF               	dw	4095
  6109                           
  6110                           ;Config register IDLOC14 @ 0x20001C
  6111                           ;	unspecified, using default values
  6112  20001C                     	org	2097180
  6113  20001C  0FFF               	dw	4095
  6114                           
  6115                           ;Config register IDLOC15 @ 0x20001E
  6116                           ;	unspecified, using default values
  6117  20001E                     	org	2097182
  6118  20001E  0FFF               	dw	4095
  6119                           
  6120                           	psect	config
  6121                           
  6122                           ;Config register CONFIG1 @ 0x300000
  6123                           ;	External Oscillator Selection
  6124                           ;	FEXTOSC = HS, HS (crystal oscillator) above 8 MHz
  6125                           ;	Reset Oscillator Selection
  6126                           ;	RSTOSC = EXTOSC, EXTOSC operating per FEXTOSC bits (device manufacturing default)
  6127  300000                     	org	3145728
  6128  300000  FA                 	db	250
  6129                           
  6130                           ;Config register CONFIG2 @ 0x300001
  6131                           ;	Clock out Enable bit
  6132                           ;	CLKOUTEN = OFF, CLKOUT function is disabled
  6133                           ;	PRLOCKED One-Way Set Enable bit
  6134                           ;	PR1WAY = ON, PRLOCKED bit can be cleared and set only once
  6135                           ;	Clock Switch Enable bit
  6136                           ;	CSWEN = ON, Writing to NOSC and NDIV is allowed
  6137                           ;	JTAG Enable bit
  6138                           ;	JTAGEN = ON, Enable JTAG Boundary Scan mode and pins
  6139                           ;	Fail-Safe Clock Monitor Enable bit
  6140                           ;	FCMEN = ON, Fail-Safe Clock Monitor enabled
  6141                           ;	Fail-Safe Clock Monitor -Primary XTAL Enable bit
  6142                           ;	FCMENP = ON, FSCM timer will set FSCMP bit and OSFIF interrupt on Primary XTAL failure
  6143                           ;	Fail-Safe Clock Monitor -Secondary XTAL Enable bit
  6144                           ;	FCMENS = ON, FSCM timer will set FSCMS bit and OSFIF interrupt on Secondary XTAL failu
      +                          re
  6145  300001                     	org	3145729
  6146  300001  FF                 	db	255
  6147                           
  6148                           ;Config register CONFIG3 @ 0x300002
  6149                           ;	MCLR Enable bit
  6150                           ;	MCLRE = EXTMCLR, If LVP = 0, MCLR pin is MCLR; If LVP = 1, RE3 pin function is MCLR
  6151                           ;	Power-up timer selection bits
  6152                           ;	PWRTS = PWRT_OFF, PWRT is disabled
  6153                           ;	Multi-vector enable bit
  6154                           ;	MVECEN = OFF, Interrupt contoller does not use vector table to prioritze interrupts
  6155                           ;	IVTLOCK bit One-way set enable bit
  6156                           ;	IVT1WAY = ON, IVTLOCKED bit can be cleared and set only once
  6157                           ;	Low Power BOR Enable bit
  6158                           ;	LPBOREN = OFF, Low-Power BOR disabled
  6159                           ;	Brown-out Reset Enable bits
  6160                           ;	BOREN = SBORDIS, Brown-out Reset enabled , SBOREN bit is ignored
  6161  300002                     	org	3145730
  6162  300002  F7                 	db	247
  6163                           
  6164                           ;Config register CONFIG4 @ 0x300003
  6165                           ;	Brown-out Reset Voltage Selection bits
  6166                           ;	BORV = VBOR_1P9, Brown-out Reset Voltage (VBOR) set to 1.9V
  6167                           ;	ZCD Disable bit
  6168                           ;	ZCD = OFF, ZCD module is disabled. ZCD can be enabled by setting the ZCDSEN bit of ZCD
      +                          CON
  6169                           ;	PPSLOCK bit One-Way Set Enable bit
  6170                           ;	PPS1WAY = ON, PPSLOCKED bit can be cleared and set only once; PPS registers remain loc
      +                          ked after one clear/set cycle
  6171                           ;	Stack Full/Underflow Reset Enable bit
  6172                           ;	STVREN = ON, Stack full/underflow will cause Reset
  6173                           ;	Low Voltage Programming Enable bit
  6174                           ;	LVP = ON, Low voltage programming enabled. MCLR/VPP pin function is MCLR. MCLRE config
      +                          uration bit is ignored
  6175                           ;	Extended Instruction Set Enable bit
  6176                           ;	XINST = OFF, Extended Instruction Set and Indexed Addressing Mode disabled
  6177  300003                     	org	3145731
  6178  300003  FF                 	db	255
  6179                           
  6180                           ;Config register CONFIG5 @ 0x300004
  6181                           ;	WDT Period selection bits
  6182                           ;	WDTCPS = WDTCPS_31, Divider ratio 1:65536; software control of WDTPS
  6183                           ;	WDT operating mode
  6184                           ;	WDTE = OFF, WDT Disabled; SWDTEN is ignored
  6185  300004                     	org	3145732
  6186  300004  9F                 	db	159
  6187                           
  6188                           ;Config register CONFIG6 @ 0x300005
  6189                           ;	WDT Window Select bits
  6190                           ;	WDTCWS = WDTCWS_7, window always open (100%); software control; keyed access not requi
      +                          red
  6191                           ;	WDT input clock selector
  6192                           ;	WDTCCS = SC, Software Control
  6193  300005                     	org	3145733
  6194  300005  FF                 	db	255
  6195                           
  6196                           ;Config register CONFIG7 @ 0x300006
  6197                           ;	Boot Block Size selection bits
  6198                           ;	BBSIZE = BBSIZE_512, Boot Block size is 512 words
  6199                           ;	Boot Block enable bit
  6200                           ;	BBEN = OFF, Boot block disabled
  6201                           ;	Storage Area Flash enable bit
  6202                           ;	SAFEN = OFF, SAF disabled
  6203  300006                     	org	3145734
  6204  300006  FF                 	db	255
  6205                           
  6206                           ;Config register CONFIG8 @ 0x300007
  6207                           ;	Boot Block Write Protection bit
  6208                           ;	WRTB = OFF, Boot Block not Write protected
  6209                           ;	Configuration Register Write Protection bit
  6210                           ;	WRTC = OFF, Configuration registers not Write protected
  6211                           ;	Data EEPROM Write Protection bit
  6212                           ;	WRTD = OFF, Data EEPROM not Write protected
  6213                           ;	SAF Write protection bit
  6214                           ;	WRTSAF = OFF, SAF not Write Protected
  6215                           ;	Application Block write protection bit
  6216                           ;	WRTAPP = OFF, Application Block not write protected
  6217  300007                     	org	3145735
  6218  300007  FF                 	db	255
  6219                           
  6220                           ;Config register CONFIG9 @ 0x300008
  6221                           ;	CRC on boot output pin selection
  6222                           ;	BOOTPINSEL = RC5, CRC on boot output pin is RC5
  6223                           ;	CRC on boot output pin enable bit
  6224                           ;	BPEN = OFF, CRC on boot output pin disabled
  6225                           ;	CRC on boot output pin open drain bit
  6226                           ;	ODCON = OFF, Pin drives both high-going and low-going signals
  6227  300008                     	org	3145736
  6228  300008  FF                 	db	255
  6229                           
  6230                           ;Config register CONFIG10 @ 0x300009
  6231                           ;	PFM and Data EEPROM Code Protection bit
  6232                           ;	CP = OFF, PFM and Data EEPROM code protection disabled
  6233  300009                     	org	3145737
  6234  300009  FF                 	db	255
  6235                           
  6236                           ;Config register CONFIG11 @ 0x30000A
  6237                           ;	CRC on boot scan enable for boot area
  6238                           ;	BOOTSCEN = OFF, CRC on boot will not include the boot area of program memory in its ca
      +                          lculation
  6239                           ;	CRC on boot Continue on Error for boot areas bit
  6240                           ;	BOOTCOE = HALT, CRC on boot will stop device if error is detected in boot areas
  6241                           ;	CRC on boot application code scan enable
  6242                           ;	APPSCEN = OFF, CRC on boot will not include the application area of program memory in 
      +                          its calculation
  6243                           ;	CRC on boot SAF area scan enable
  6244                           ;	SAFSCEN = OFF, CRC on boot will not include the SAF area of program memory in its calc
      +                          ulation
  6245                           ;	CRC on boot Data EEPROM scan enable
  6246                           ;	DATASCEN = OFF, CRC on boot will not include data EEPROM in its calculation
  6247                           ;	CRC on boot Config fuses scan enable
  6248                           ;	CFGSCEN = OFF, CRC on boot will not include the configuration fuses in its calculation
  6249                           ;	CRC on boot Continue on Error for non-boot areas bit
  6250                           ;	COE = HALT, CRC on boot will stop device if error is detected in non-boot areas
  6251                           ;	Boot on CRC Enable bit
  6252                           ;	BOOTPOR = OFF, CRC on boot will not run
  6253  30000A                     	org	3145738
  6254  30000A  FF                 	db	255
  6255                           
  6256                           ;Config register CONFIG12 @ 0x30000B
  6257                           ;	Boot Sector Polynomial for CRC on boot bits 31-24
  6258                           ;	BCRCPOLT = hFF, Bits 31:24 of BCRCPOL are 0xFF
  6259  30000B                     	org	3145739
  6260  30000B  FF                 	db	255
  6261                           
  6262                           ;Config register CONFIG13 @ 0x30000C
  6263                           ;	Boot Sector Polynomial for CRC on boot bits 23-16
  6264                           ;	BCRCPOLU = hFF, Bits 23:16 of BCRCPOL are 0xFF
  6265  30000C                     	org	3145740
  6266  30000C  FF                 	db	255
  6267                           
  6268                           ;Config register CONFIG14 @ 0x30000D
  6269                           ;	Boot Sector Polynomial for CRC on boot bits 15-8
  6270                           ;	BCRCPOLH = hFF, Bits 15:8 of BCRCPOL are 0xFF
  6271  30000D                     	org	3145741
  6272  30000D  FF                 	db	255
  6273                           
  6274                           ;Config register CONFIG15 @ 0x30000E
  6275                           ;	Boot Sector Polynomial for CRC on boot bits 7-0
  6276                           ;	BCRCPOLL = hFF, Bits 7:0 of BCRCPOL are 0xFF
  6277  30000E                     	org	3145742
  6278  30000E  FF                 	db	255
  6279                           
  6280                           ;Config register CONFIG16 @ 0x30000F
  6281                           ;	Boot Sector Seed for CRC on boot bits 31-24
  6282                           ;	BCRCSEEDT = hFF, Bits 31:24 of BCRCSEED are 0xFF
  6283  30000F                     	org	3145743
  6284  30000F  FF                 	db	255
  6285                           
  6286                           ;Config register CONFIG17 @ 0x300010
  6287                           ;	Boot Sector Seed for CRC on boot bits 23-16
  6288                           ;	BCRCSEEDU = hFF, Bits 23:16 of BCRCSEED are 0xFF
  6289  300010                     	org	3145744
  6290  300010  FF                 	db	255
  6291                           
  6292                           ;Config register CONFIG18 @ 0x300011
  6293                           ;	Boot Sector Seed for CRC on boot bits 15-8
  6294                           ;	BCRCSEEDH = hFF, Bits 15:8 of BCRCSEED are 0xFF
  6295  300011                     	org	3145745
  6296  300011  FF                 	db	255
  6297                           
  6298                           ;Config register CONFIG19 @ 0x300012
  6299                           ;	Boot Sector Seed for CRC on boot bits 7-0
  6300                           ;	BCRCSEEDL = hFF, Bits 7:0 of BCRCSEED are 0xFF
  6301  300012                     	org	3145746
  6302  300012  FF                 	db	255
  6303                           
  6304                           ;Config register CONFIG20 @ 0x300013
  6305                           ;	unspecified, using default values
  6306                           ;	Boot Sector Expected Result for CRC on boot bits 31-24
  6307                           ;	BCRCEREST = 0xFF, unprogrammed default
  6308  300013                     	org	3145747
  6309  300013  FF                 	db	255
  6310                           
  6311                           ;Config register CONFIG21 @ 0x300014
  6312                           ;	unspecified, using default values
  6313                           ;	Boot Sector Expected Result for CRC on boot bits 23-16
  6314                           ;	BCRCERESU = 0xFF, unprogrammed default
  6315  300014                     	org	3145748
  6316  300014  FF                 	db	255
  6317                           
  6318                           ;Config register CONFIG22 @ 0x300015
  6319                           ;	unspecified, using default values
  6320                           ;	Boot Sector Expected Result for CRC on boot bits 15-8
  6321                           ;	BCRCERESH = 0xFF, unprogrammed default
  6322  300015                     	org	3145749
  6323  300015  FF                 	db	255
  6324                           
  6325                           ;Config register CONFIG23 @ 0x300016
  6326                           ;	unspecified, using default values
  6327                           ;	Boot Sector Expected Result for CRC on boot bits 7-0
  6328                           ;	BCRCERESL = 0xFF, unprogrammed default
  6329  300016                     	org	3145750
  6330  300016  FF                 	db	255
  6331                           
  6332                           ;Config register CONFIG24 @ 0x300017
  6333                           ;	Non-Boot Sector Polynomial for CRC on boot bits 31-24
  6334                           ;	CRCPOLT = hFF, Bits 31:24 of CRCPOL are 0xFF
  6335  300017                     	org	3145751
  6336  300017  FF                 	db	255
  6337                           
  6338                           ;Config register CONFIG25 @ 0x300018
  6339                           ;	Non-Boot Sector Polynomial for CRC on boot bits 23-16
  6340                           ;	CRCPOLU = hFF, Bits 23:16 of CRCPOL are 0xFF
  6341  300018                     	org	3145752
  6342  300018  FF                 	db	255
  6343                           
  6344                           ;Config register CONFIG26 @ 0x300019
  6345                           ;	Non-Boot Sector Polynomial for CRC on boot bits 15-8
  6346                           ;	CRCPOLH = hFF, Bits 15:8 of CRCPOL are 0xFF
  6347  300019                     	org	3145753
  6348  300019  FF                 	db	255
  6349                           
  6350                           ;Config register CONFIG27 @ 0x30001A
  6351                           ;	Non-Boot Sector Polynomial for CRC on boot bits 7-0
  6352                           ;	CRCPOLL = hFF, Bits 7:0 of CRCPOL are 0xFF
  6353  30001A                     	org	3145754
  6354  30001A  FF                 	db	255
  6355                           
  6356                           ;Config register CONFIG28 @ 0x30001B
  6357                           ;	Non-Boot Sector Seed for CRC on boot bits 31-24
  6358                           ;	CRCSEEDT = hFF, Bits 31:24 of CRCSEED are 0xFF
  6359  30001B                     	org	3145755
  6360  30001B  FF                 	db	255
  6361                           
  6362                           ;Config register CONFIG29 @ 0x30001C
  6363                           ;	Non-Boot Sector Seed for CRC on boot bits 23-16
  6364                           ;	CRCSEEDU = hFF, Bits 23:16 of CRCSEED are 0xFF
  6365  30001C                     	org	3145756
  6366  30001C  FF                 	db	255
  6367                           
  6368                           ;Config register CONFIG30 @ 0x30001D
  6369                           ;	Non-Boot Sector Seed for CRC on boot bits 15-8
  6370                           ;	CRCSEEDH = hFF, Bits 15:8 of CRCSEED are 0xFF
  6371  30001D                     	org	3145757
  6372  30001D  FF                 	db	255
  6373                           
  6374                           ;Config register CONFIG31 @ 0x30001E
  6375                           ;	Non-Boot Sector Seed for CRC on boot bits 7-0
  6376                           ;	CRCSEEDL = hFF, Bits 7:0 of CRCSEED are 0xFF
  6377  30001E                     	org	3145758
  6378  30001E  FF                 	db	255
  6379                           
  6380                           ;Config register CONFIG32 @ 0x30001F
  6381                           ;	unspecified, using default values
  6382                           ;	Non-Boot Sector Expected Result for CRC on boot bits 31-24
  6383                           ;	CRCEREST = 0xFF, unprogrammed default
  6384  30001F                     	org	3145759
  6385  30001F  FF                 	db	255
  6386                           
  6387                           ;Config register CONFIG33 @ 0x300020
  6388                           ;	unspecified, using default values
  6389                           ;	Non-Boot Sector Expected Result for CRC on boot bits 23-16
  6390                           ;	CRCERESU = 0xFF, unprogrammed default
  6391  300020                     	org	3145760
  6392  300020  FF                 	db	255
  6393                           
  6394                           ;Config register CONFIG34 @ 0x300021
  6395                           ;	unspecified, using default values
  6396                           ;	Non-Boot Sector Expected Result for CRC on boot bits 15-8
  6397                           ;	CRCERESH = 0xFF, unprogrammed default
  6398  300021                     	org	3145761
  6399  300021  FF                 	db	255
  6400                           
  6401                           ;Config register CONFIG35 @ 0x300022
  6402                           ;	unspecified, using default values
  6403                           ;	Non-Boot Sector Expected Result for CRC on boot bits 7-0
  6404                           ;	CRCERESL = 0xFF, unprogrammed default
  6405  300022                     	org	3145762
  6406  300022  FF                 	db	255
  6407                           
  6408                           ; Padding undefined space
  6409  300023                     	org	3145763
  6410  300023  FF                 	db	255
  6411                           tosu	equ	0x4FF
  6412                           tosh	equ	0x4FE
  6413                           tosl	equ	0x4FD
  6414                           stkptr	equ	0x4FC
  6415                           pclatu	equ	0x4FB
  6416                           pclath	equ	0x4FA
  6417                           pcl	equ	0x4F9
  6418                           tblptru	equ	0x4F8
  6419                           tblptrh	equ	0x4F7
  6420                           tblptrl	equ	0x4F6
  6421                           tablat	equ	0x4F5
  6422                           prodh	equ	0x4F4
  6423                           prodl	equ	0x4F3
  6424                           indf0	equ	0x4EF
  6425                           postinc0	equ	0x4EE
  6426                           postdec0	equ	0x4ED
  6427                           preinc0	equ	0x4EC
  6428                           plusw0	equ	0x4EB
  6429                           fsr0h	equ	0x4EA
  6430                           fsr0l	equ	0x4E9
  6431                           wreg	equ	0x4E8
  6432                           indf1	equ	0x4E7
  6433                           postinc1	equ	0x4E6
  6434                           postdec1	equ	0x4E5
  6435                           preinc1	equ	0x4E4
  6436                           plusw1	equ	0x4E3
  6437                           fsr1h	equ	0x4E2
  6438                           fsr1l	equ	0x4E1
  6439                           bsr	equ	0x4E0
  6440                           indf2	equ	0x4DF
  6441                           postinc2	equ	0x4DE
  6442                           postdec2	equ	0x4DD
  6443                           preinc2	equ	0x4DC
  6444                           plusw2	equ	0x4DB
  6445                           fsr2h	equ	0x4DA
  6446                           fsr2l	equ	0x4D9
  6447                           status	equ	0x4D8

Data Sizes:
    Strings     0
    Constant    11
    Data        32
    BSS         27
    Persistent  22
    Stack       0

Auto Spaces:
    Space          Size  Autos    Used
    COMRAM           95     46      87
    BANK5           160      8      48
    BANK6           256      0       0
    BANK7           256      0       0
    BANK8           256      0       0
    BANK9           256      0       0
    BANK10          256      0       0
    BANK11          256      0       0
    BANK12          256      0       0
    BANK13          256      0       0
    BANK14          256      0       0
    BANK15          256      0       0
    BANK16          256      0       0
    BANK17          256      0       0
    BANK18          256      0       0
    BANK19          256      0       0
    BANK20          256      0       0
    BANK21          256      0       0
    BANK22          256      0       0
    BANK23          256      0       0
    BANK24          256      0       0
    BANK25          256      0       0
    BANK26          256      0       0
    BANK27          256      0       0
    BANK28          256      0       0
    BANK29          256      0       0
    BANK30          256      0       0
    BANK31          256      0       0
    BANK32          256      0       0
    BANK33          256      0       0
    BANK34          256      0       0
    BANK35          256      0       0
    BANK36          256      0       0
    BANK37          256      0       0

Pointer List with Targets:

    memcpy@d1	PTR void  size(2) Largest target is 9727
		 -> RAM(DATA[9727]), 

    memcpy@d	PTR unsigned char  size(2) Largest target is 9727
		 -> RAM(DATA[9727]), 

    memcpy@s1	PTR const void  size(2) Largest target is 32
		 -> CANDATAdata(BANK5[32]), 

    memcpy@s	PTR const unsigned char  size(2) Largest target is 32
		 -> CANDATAdata(BANK5[32]), 

    msg.data	PTR unsigned char  size(2) Largest target is 32
		 -> CANDATAdata(BANK5[32]), 

    TMR0_SetInterruptHandler@InterruptHandler	PTR FTN()void  size(2) Largest target is 1
		 -> TMR0_DefaultInterruptHandler(), 

    TMR0_InterruptHandler	PTR FTN()void  size(2) Largest target is 1
		 -> TMR0_DefaultInterruptHandler(), Absolute function(), 

    TMR2_SetInterruptHandler@InterruptHandler	PTR FTN()void  size(2) Largest target is 1
		 -> TMR2_DefaultInterruptHandler(), 

    TMR2_InterruptHandler	PTR FTN()void  size(2) Largest target is 1
		 -> TMR2_DefaultInterruptHandler(), Absolute function(), 

    TMR1_SetInterruptHandler@InterruptHandler	PTR FTN()void  size(2) Largest target is 1
		 -> TMR1_DefaultInterruptHandler(), 

    TMR1_InterruptHandler	PTR FTN()void  size(2) Largest target is 1
		 -> TMR1_DefaultInterruptHandler(), Absolute function(), 

    PWM2_16BIT_Period_SetInterruptHandler@InterruptHandler	PTR FTN()void  size(2) Largest target is 1
		 -> PWM2_16BIT_Period_DefaultInterruptHandler(), 

    PWM2_16BIT_Slice1Output2_SetInterruptHandler@InterruptHandler	PTR FTN()void  size(2) Largest target is 1
		 -> PWM2_16BIT_Slice1Output2_DefaultInterruptHandler(), 

    PWM2_16BIT_Slice1Output1_SetInterruptHandler@InterruptHandler	PTR FTN()void  size(2) Largest target is 1
		 -> PWM2_16BIT_Slice1Output1_DefaultInterruptHandler(), 

    PWM2_16BIT_Period_InterruptHandler	PTR FTN()void  size(2) Largest target is 1
		 -> PWM2_16BIT_Period_DefaultInterruptHandler(), Absolute function(), 

    PWM2_16BIT_Slice1Output2_InterruptHandler	PTR FTN()void  size(2) Largest target is 1
		 -> PWM2_16BIT_Slice1Output2_DefaultInterruptHandler(), Absolute function(), 

    PWM2_16BIT_Slice1Output1_InterruptHandler	PTR FTN()void  size(2) Largest target is 1
		 -> PWM2_16BIT_Slice1Output1_DefaultInterruptHandler(), Absolute function(), 

    CAN1_SetTxAttemptInterruptHandler@handler	PTR FTN()void  size(2) Largest target is 1
		 -> DefaultTxAttemptHandler(), 

    CAN1_TxAttemptHandler	PTR FTN()void  size(2) Largest target is 1
		 -> DefaultTxAttemptHandler(), Absolute function(), 

    CAN1_SetSystemErrorInterruptHandler@handler	PTR FTN()void  size(2) Largest target is 1
		 -> DefaultSystemErrorHandler(), 

    CAN1_SystemErrorHandler	PTR FTN()void  size(2) Largest target is 1
		 -> DefaultSystemErrorHandler(), Absolute function(), 

    CAN1_SetModeChangeInterruptHandler@handler	PTR FTN()void  size(2) Largest target is 1
		 -> DefaultModeChangeHandler(), 

    CAN1_ModeChangeHandler	PTR FTN()void  size(2) Largest target is 1
		 -> DefaultModeChangeHandler(), Absolute function(), 

    CAN1_SetBusErrorInterruptHandler@handler	PTR FTN()void  size(2) Largest target is 1
		 -> DefaultBusErrorHandler(), 

    CAN1_BusErrorHandler	PTR FTN()void  size(2) Largest target is 1
		 -> DefaultBusErrorHandler(), Absolute function(), 

    CAN1_SetBusWakeUpActivityInterruptHandler@handler	PTR FTN()void  size(2) Largest target is 1
		 -> DefaultBusWakeUpActivityHandler(), 

    CAN1_BusWakeUpActivityHandler	PTR FTN()void  size(2) Largest target is 1
		 -> DefaultBusWakeUpActivityHandler(), Absolute function(), 

    CAN1_SetInvalidMessageInterruptHandler@handler	PTR FTN()void  size(2) Largest target is 1
		 -> DefaultInvalidMessageHandler(), 

    CAN1_InvalidMessageHandler	PTR FTN()void  size(2) Largest target is 1
		 -> DefaultInvalidMessageHandler(), Absolute function(), 

    CAN1_Transmit@txFifoObj	PTR unsigned char  size(2) Largest target is 9727
		 -> RAM(DATA[9727]), 

    CAN1_Transmit@txCanMsg	PTR struct . size(2) Largest target is 8
		 -> msg(COMRAM[7]), 

    ValidateTransmission@txCanMsg.data	PTR unsigned char  size(2) Largest target is 32
		 -> CANDATAdata(BANK5[32]), 

    ValidateTransmission@txCanMsg	PTR struct . size(2) Largest target is 8
		 -> msg(COMRAM[7]), 

    sp__memcpy	PTR void  size(2) Largest target is 9727
		 -> RAM(DATA[9727]), 

    WriteMessageToFifo@txFifoObj	PTR unsigned char  size(2) Largest target is 9727
		 -> RAM(DATA[9727]), 

    S1385$data	PTR unsigned char  size(2) Largest target is 32
		 -> CANDATAdata(BANK5[32]), 

    WriteMessageToFifo@txCanMsg.data	PTR unsigned char  size(2) Largest target is 32
		 -> CANDATAdata(BANK5[32]), 

    WriteMessageToFifo@txCanMsg	PTR struct . size(2) Largest target is 8
		 -> msg(COMRAM[7]), 

    FIFO	const PTR volatile struct CAN_FIFOREG size(2) Largest target is 1
		 -> C1TXQCONL(SFR_1[1]), 

    ADC_SetActiveClockTuningInterruptHandler@InterruptHandler	PTR FTN()void  size(2) Largest target is 1
		 -> ADC_DefaultActiveClockTuning_ISR(), 

    ADC_SetContext1ThresholdInterruptHandler@InterruptHandler	PTR FTN()void  size(2) Largest target is 1
		 -> ADC_DefaultContext1Threshold_ISR(), 

    ADC_SetADIInterruptHandler@InterruptHandler	PTR FTN()void  size(2) Largest target is 1
		 -> ADC_DefaultADI_ISR(), 

    ADC_Context1Thereshld_ISR	PTR FTN()void  size(2) Largest target is 1
		 -> ADC_DefaultContext1Threshold_ISR(), Absolute function(), 

    ADC_ActiveClockTuning_ISR	PTR FTN()void  size(2) Largest target is 1
		 -> ADC_DefaultActiveClockTuning_ISR(), Absolute function(), 

    ADC_ConversionComplete_ISR	PTR FTN()void  size(2) Largest target is 1
		 -> ADC_DefaultADI_ISR(), Absolute function(), 

    PWM1_16BIT_Period_SetInterruptHandler@InterruptHandler	PTR FTN()void  size(2) Largest target is 1
		 -> PWM1_16BIT_Period_DefaultInterruptHandler(), 

    PWM1_16BIT_Slice1Output2_SetInterruptHandler@InterruptHandler	PTR FTN()void  size(2) Largest target is 1
		 -> PWM1_16BIT_Slice1Output2_DefaultInterruptHandler(), 

    PWM1_16BIT_Slice1Output1_SetInterruptHandler@InterruptHandler	PTR FTN()void  size(2) Largest target is 1
		 -> PWM1_16BIT_Slice1Output1_DefaultInterruptHandler(), 

    PWM1_16BIT_Period_InterruptHandler	PTR FTN()void  size(2) Largest target is 1
		 -> PWM1_16BIT_Period_DefaultInterruptHandler(), Absolute function(), 

    PWM1_16BIT_Slice1Output2_InterruptHandler	PTR FTN()void  size(2) Largest target is 1
		 -> PWM1_16BIT_Slice1Output2_DefaultInterruptHandler(), Absolute function(), 

    PWM1_16BIT_Slice1Output1_InterruptHandler	PTR FTN()void  size(2) Largest target is 1
		 -> PWM1_16BIT_Slice1Output1_DefaultInterruptHandler(), Absolute function(), 

    INT0_SetInterruptHandler@InterruptHandler	PTR FTN()void  size(2) Largest target is 1
		 -> INT0_DefaultInterruptHandler(), 

    INT0_InterruptHandler	PTR FTN()void  size(2) Largest target is 1
		 -> INT0_DefaultInterruptHandler(), Absolute function(), 


Critical Paths under _main in COMRAM

    _main->_CANWriteMessage
    _SYSTEM_Initialize->_TMR1_Initialize
    _TMR2_Initialize->_TMR2_SetInterruptHandler
    _TMR1_Initialize->_TMR1_SetInterruptHandler
    _TMR0_Initialize->_TMR0_SetInterruptHandler
    _PWM2_16BIT_Initialize->_PWM2_16BIT_Period_SetInterruptHandler
    _PWM2_16BIT_Initialize->_PWM2_16BIT_Slice1Output1_SetInterruptHandler
    _PWM2_16BIT_Initialize->_PWM2_16BIT_Slice1Output2_SetInterruptHandler
    _PWM1_16BIT_Initialize->_PWM1_16BIT_Period_SetInterruptHandler
    _PWM1_16BIT_Initialize->_PWM1_16BIT_Slice1Output1_SetInterruptHandler
    _PWM1_16BIT_Initialize->_PWM1_16BIT_Slice1Output2_SetInterruptHandler
    _EXT_INT_Initialize->_INT0_SetInterruptHandler
    _CAN1_Initialize->_CAN1_OperationModeSet
    _CAN1_ErrorNotificationInterruptEnable->_CAN1_SetBusErrorInterruptHandler
    _CAN1_ErrorNotificationInterruptEnable->_CAN1_SetBusWakeUpActivityInterruptHandler
    _CAN1_ErrorNotificationInterruptEnable->_CAN1_SetInvalidMessageInterruptHandler
    _CAN1_ErrorNotificationInterruptEnable->_CAN1_SetModeChangeInterruptHandler
    _CAN1_ErrorNotificationInterruptEnable->_CAN1_SetSystemErrorInterruptHandler
    _CAN1_ErrorNotificationInterruptEnable->_CAN1_SetTxAttemptInterruptHandler
    _ADC_Initialize->_ADC_SetADIInterruptHandler
    _ADC_Initialize->_ADC_SetActiveClockTuningInterruptHandler
    _ADC_Initialize->_ADC_SetContext1ThresholdInterruptHandler
    _CANWriteMessage->_CAN1_Transmit
    _CAN1_TransmitFIFOStatusGet->_isTxChannel
    _CAN1_Transmit->_WriteMessageToFifo
    _WriteMessageToFifo->_memcpy
    _ValidateTransmission->_GetTxFifoStatus

Critical Paths under _INTERRUPT_InterruptManager in COMRAM

    _TMR1_ISR->_TMR1_WriteTimer

Critical Paths under _main in BANK5

    _main->_CANWriteMessage

Critical Paths under _INTERRUPT_InterruptManager in BANK5

    None.

Critical Paths under _main in BANK6

    None.

Critical Paths under _INTERRUPT_InterruptManager in BANK6

    None.

Critical Paths under _main in BANK7

    None.

Critical Paths under _INTERRUPT_InterruptManager in BANK7

    None.

Critical Paths under _main in BANK8

    None.

Critical Paths under _INTERRUPT_InterruptManager in BANK8

    None.

Critical Paths under _main in BANK9

    None.

Critical Paths under _INTERRUPT_InterruptManager in BANK9

    None.

Critical Paths under _main in BANK10

    None.

Critical Paths under _INTERRUPT_InterruptManager in BANK10

    None.

Critical Paths under _main in BANK11

    None.

Critical Paths under _INTERRUPT_InterruptManager in BANK11

    None.

Critical Paths under _main in BANK12

    None.

Critical Paths under _INTERRUPT_InterruptManager in BANK12

    None.

Critical Paths under _main in BANK13

    None.

Critical Paths under _INTERRUPT_InterruptManager in BANK13

    None.

Critical Paths under _main in BANK14

    None.

Critical Paths under _INTERRUPT_InterruptManager in BANK14

    None.

Critical Paths under _main in BANK15

    None.

Critical Paths under _INTERRUPT_InterruptManager in BANK15

    None.

Critical Paths under _main in BANK16

    None.

Critical Paths under _INTERRUPT_InterruptManager in BANK16

    None.

Critical Paths under _main in BANK17

    None.

Critical Paths under _INTERRUPT_InterruptManager in BANK17

    None.

Critical Paths under _main in BANK18

    None.

Critical Paths under _INTERRUPT_InterruptManager in BANK18

    None.

Critical Paths under _main in BANK19

    None.

Critical Paths under _INTERRUPT_InterruptManager in BANK19

    None.

Critical Paths under _main in BANK20

    None.

Critical Paths under _INTERRUPT_InterruptManager in BANK20

    None.

Critical Paths under _main in BANK21

    None.

Critical Paths under _INTERRUPT_InterruptManager in BANK21

    None.

Critical Paths under _main in BANK22

    None.

Critical Paths under _INTERRUPT_InterruptManager in BANK22

    None.

Critical Paths under _main in BANK23

    None.

Critical Paths under _INTERRUPT_InterruptManager in BANK23

    None.

Critical Paths under _main in BANK24

    None.

Critical Paths under _INTERRUPT_InterruptManager in BANK24

    None.

Critical Paths under _main in BANK25

    None.

Critical Paths under _INTERRUPT_InterruptManager in BANK25

    None.

Critical Paths under _main in BANK26

    None.

Critical Paths under _INTERRUPT_InterruptManager in BANK26

    None.

Critical Paths under _main in BANK27

    None.

Critical Paths under _INTERRUPT_InterruptManager in BANK27

    None.

Critical Paths under _main in BANK28

    None.

Critical Paths under _INTERRUPT_InterruptManager in BANK28

    None.

Critical Paths under _main in BANK29

    None.

Critical Paths under _INTERRUPT_InterruptManager in BANK29

    None.

Critical Paths under _main in BANK30

    None.

Critical Paths under _INTERRUPT_InterruptManager in BANK30

    None.

Critical Paths under _main in BANK31

    None.

Critical Paths under _INTERRUPT_InterruptManager in BANK31

    None.

Critical Paths under _main in BANK32

    None.

Critical Paths under _INTERRUPT_InterruptManager in BANK32

    None.

Critical Paths under _main in BANK33

    None.

Critical Paths under _INTERRUPT_InterruptManager in BANK33

    None.

Critical Paths under _main in BANK34

    None.

Critical Paths under _INTERRUPT_InterruptManager in BANK34

    None.

Critical Paths under _main in BANK35

    None.

Critical Paths under _INTERRUPT_InterruptManager in BANK35

    None.

Critical Paths under _main in BANK36

    None.

Critical Paths under _INTERRUPT_InterruptManager in BANK36

    None.

Critical Paths under _main in BANK37

    None.

Critical Paths under _INTERRUPT_InterruptManager in BANK37

    None.

Call Graph Tables:

 ---------------------------------------------------------------------------------
 (Depth) Function   	        Calls       Base Space   Used Autos Params    Refs
 ---------------------------------------------------------------------------------
 (0) _main                                                 1     1      0    6469
                                             45 COMRAM     1     1      0
                    _CANWriteMessage
                 _DELAY_milliseconds
                  _SYSTEM_Initialize
 ---------------------------------------------------------------------------------
 (1) _SYSTEM_Initialize                                    0     0      0    2060
                     _ADC_Initialize
                    _CAN1_Initialize
                 _EXT_INT_Initialize
               _INTERRUPT_Initialize
              _OSCILLATOR_Initialize
             _PIN_MANAGER_Initialize
                     _PMD_Initialize
              _PWM1_16BIT_Initialize
              _PWM2_16BIT_Initialize
                    _TMR0_Initialize
                    _TMR1_Initialize
                    _TMR2_Initialize
 ---------------------------------------------------------------------------------
 (2) _TMR2_Initialize                                      0     0      0      98
           _TMR2_SetInterruptHandler
 ---------------------------------------------------------------------------------
 (3) _TMR2_SetInterruptHandler                             2     0      2      98
                                              2 COMRAM     2     0      2
 ---------------------------------------------------------------------------------
 (2) _TMR1_Initialize                                      2     2      0      98
                                              4 COMRAM     2     2      0
           _TMR1_SetInterruptHandler
 ---------------------------------------------------------------------------------
 (3) _TMR1_SetInterruptHandler                             2     0      2      98
                                              2 COMRAM     2     0      2
 ---------------------------------------------------------------------------------
 (2) _TMR0_Initialize                                      0     0      0      98
           _TMR0_SetInterruptHandler
 ---------------------------------------------------------------------------------
 (3) _TMR0_SetInterruptHandler                             2     0      2      98
                                              2 COMRAM     2     0      2
 ---------------------------------------------------------------------------------
 (2) _PWM2_16BIT_Initialize                                0     0      0     294
_PWM2_16BIT_Period_SetInterruptHandl
_PWM2_16BIT_Slice1Output1_SetInterru
_PWM2_16BIT_Slice1Output2_SetInterru
 ---------------------------------------------------------------------------------
 (3) _PWM2_16BIT_Slice1Output2_SetInterruptHandler         2     0      2      98
                                              2 COMRAM     2     0      2
 ---------------------------------------------------------------------------------
 (3) _PWM2_16BIT_Slice1Output1_SetInterruptHandler         2     0      2      98
                                              2 COMRAM     2     0      2
 ---------------------------------------------------------------------------------
 (3) _PWM2_16BIT_Period_SetInterruptHandler                2     0      2      98
                                              2 COMRAM     2     0      2
 ---------------------------------------------------------------------------------
 (2) _PWM1_16BIT_Initialize                                0     0      0     294
_PWM1_16BIT_Period_SetInterruptHandl
_PWM1_16BIT_Slice1Output1_SetInterru
_PWM1_16BIT_Slice1Output2_SetInterru
 ---------------------------------------------------------------------------------
 (3) _PWM1_16BIT_Slice1Output2_SetInterruptHandler         2     0      2      98
                                              2 COMRAM     2     0      2
 ---------------------------------------------------------------------------------
 (3) _PWM1_16BIT_Slice1Output1_SetInterruptHandler         2     0      2      98
                                              2 COMRAM     2     0      2
 ---------------------------------------------------------------------------------
 (3) _PWM1_16BIT_Period_SetInterruptHandler                2     0      2      98
                                              2 COMRAM     2     0      2
 ---------------------------------------------------------------------------------
 (2) _PMD_Initialize                                       0     0      0       0
 ---------------------------------------------------------------------------------
 (2) _PIN_MANAGER_Initialize                               0     0      0       0
 ---------------------------------------------------------------------------------
 (2) _OSCILLATOR_Initialize                                0     0      0       0
 ---------------------------------------------------------------------------------
 (2) _INTERRUPT_Initialize                                 0     0      0       0
 ---------------------------------------------------------------------------------
 (2) _EXT_INT_Initialize                                   0     0      0      98
           _INT0_SetInterruptHandler
 ---------------------------------------------------------------------------------
 (3) _INT0_SetInterruptHandler                             2     0      2      98
                                              2 COMRAM     2     0      2
 ---------------------------------------------------------------------------------
 (2) _CAN1_Initialize                                      0     0      0     786
          _CAN1_BitRateConfiguration
_CAN1_ErrorNotificationInterruptEnab
              _CAN1_OperationModeSet
         _CAN1_TX_FIFO_Configuration
 ---------------------------------------------------------------------------------
 (3) _CAN1_TX_FIFO_Configuration                           0     0      0       0
 ---------------------------------------------------------------------------------
 (3) _CAN1_ErrorNotificationInterruptEnable                0     0      0     588
   _CAN1_SetBusErrorInterruptHandler
_CAN1_SetBusWakeUpActivityInterruptH
_CAN1_SetInvalidMessageInterruptHand
 _CAN1_SetModeChangeInterruptHandler
_CAN1_SetSystemErrorInterruptHandler
  _CAN1_SetTxAttemptInterruptHandler
 ---------------------------------------------------------------------------------
 (4) _CAN1_SetTxAttemptInterruptHandler                    2     0      2      98
                                              2 COMRAM     2     0      2
 ---------------------------------------------------------------------------------
 (4) _CAN1_SetSystemErrorInterruptHandler                  2     0      2      98
                                              2 COMRAM     2     0      2
 ---------------------------------------------------------------------------------
 (4) _CAN1_SetModeChangeInterruptHandler                   2     0      2      98
                                              2 COMRAM     2     0      2
 ---------------------------------------------------------------------------------
 (4) _CAN1_SetInvalidMessageInterruptHandler               2     0      2      98
                                              2 COMRAM     2     0      2
 ---------------------------------------------------------------------------------
 (4) _CAN1_SetBusWakeUpActivityInterruptHandler            2     0      2      98
                                              2 COMRAM     2     0      2
 ---------------------------------------------------------------------------------
 (4) _CAN1_SetBusErrorInterruptHandler                     2     0      2      98
                                              2 COMRAM     2     0      2
 ---------------------------------------------------------------------------------
 (3) _CAN1_BitRateConfiguration                            0     0      0       0
 ---------------------------------------------------------------------------------
 (2) _ADC_Initialize                                       0     0      0     294
         _ADC_SetADIInterruptHandler
_ADC_SetActiveClockTuningInterruptHa
_ADC_SetContext1ThresholdInterruptHa
 ---------------------------------------------------------------------------------
 (3) _ADC_SetContext1ThresholdInterruptHandler             2     0      2      98
                                              2 COMRAM     2     0      2
 ---------------------------------------------------------------------------------
 (3) _ADC_SetActiveClockTuningInterruptHandler             2     0      2      98
                                              2 COMRAM     2     0      2
 ---------------------------------------------------------------------------------
 (3) _ADC_SetADIInterruptHandler                           2     0      2      98
                                              2 COMRAM     2     0      2
 ---------------------------------------------------------------------------------
 (1) _DELAY_milliseconds                                   3     1      2      98
                                              2 COMRAM     3     1      2
 ---------------------------------------------------------------------------------
 (1) _CANWriteMessage                                     23    10     13    4311
                                             30 COMRAM    15     2     13
                                              0 BANK5      8     8      0
              _CAN1_OperationModeGet
              _CAN1_OperationModeSet
                      _CAN1_Transmit
         _CAN1_TransmitFIFOStatusGet
 ---------------------------------------------------------------------------------
 (2) _CAN1_TransmitFIFOStatusGet                           2     2      0     229
                                              4 COMRAM     2     2      0
                    _GetTxFifoStatus
                        _isTxChannel
 ---------------------------------------------------------------------------------
 (2) _CAN1_Transmit                                        6     4      2    2402
                                             24 COMRAM     6     4      2
               _ValidateTransmission
                 _WriteMessageToFifo
                        _isTxChannel
 ---------------------------------------------------------------------------------
 (3) _isTxChannel                                          2     2      0      99
                                              2 COMRAM     2     2      0
 ---------------------------------------------------------------------------------
 (3) _WriteMessageToFifo                                  12     8      4    1528
                                             13 COMRAM    11     7      4
                             _memcpy
 ---------------------------------------------------------------------------------
 (4) _memcpy                                              11     5      6     478
                                              2 COMRAM    11     5      6
 ---------------------------------------------------------------------------------
 (3) _ValidateTransmission                                 9     7      2     390
                                              3 COMRAM     8     6      2
              _CAN1_OperationModeGet
                    _GetTxFifoStatus
 ---------------------------------------------------------------------------------
 (3) _GetTxFifoStatus                                      1     1      0      31
                                              2 COMRAM     1     1      0
 ---------------------------------------------------------------------------------
 (3) _CAN1_OperationModeSet                                3     3      0     198
                                              2 COMRAM     3     3      0
              _CAN1_OperationModeGet
 ---------------------------------------------------------------------------------
 (4) _CAN1_OperationModeGet                                0     0      0       0
 ---------------------------------------------------------------------------------
 Estimated maximum stack depth 4
 ---------------------------------------------------------------------------------
 (Depth) Function   	        Calls       Base Space   Used Autos Params    Refs
 ---------------------------------------------------------------------------------
 (5) _INTERRUPT_InterruptManager                           0     0      0     240
                           _CAN1_ISR
                           _INT0_ISR
                           _TMR0_ISR
                           _TMR1_ISR
                           _TMR2_ISR
 ---------------------------------------------------------------------------------
 (6) _TMR2_ISR                                             0     0      0       0
                      _TMR2_CallBack
 ---------------------------------------------------------------------------------
 (7) _TMR2_CallBack                                        0     0      0       0
                   Absolute function *
       _TMR2_DefaultInterruptHandler *
 ---------------------------------------------------------------------------------
 (8) _TMR2_DefaultInterruptHandler                         0     0      0       0
 ---------------------------------------------------------------------------------
 (6) _TMR1_ISR                                             0     0      0     240
                      _TMR1_CallBack
                    _TMR1_WriteTimer
 ---------------------------------------------------------------------------------
 (7) _TMR1_WriteTimer                                      2     0      2     240
                                              0 COMRAM     2     0      2
 ---------------------------------------------------------------------------------
 (7) _TMR1_CallBack                                        0     0      0       0
                   Absolute function *
       _TMR1_DefaultInterruptHandler *
 ---------------------------------------------------------------------------------
 (8) _TMR1_DefaultInterruptHandler                         0     0      0       0
 ---------------------------------------------------------------------------------
 (6) _TMR0_ISR                                             0     0      0       0
                      _TMR0_CallBack
 ---------------------------------------------------------------------------------
 (7) _TMR0_CallBack                                        0     0      0       0
                   Absolute function *
       _TMR0_DefaultInterruptHandler *
 ---------------------------------------------------------------------------------
 (8) _TMR0_DefaultInterruptHandler                         0     0      0       0
 ---------------------------------------------------------------------------------
 (6) _INT0_ISR                                             0     0      0       0
                      _INT0_CallBack
 ---------------------------------------------------------------------------------
 (7) _INT0_CallBack                                        0     0      0       0
                   Absolute function *
       _INT0_DefaultInterruptHandler *
 ---------------------------------------------------------------------------------
 (8) _INT0_DefaultInterruptHandler                         0     0      0       0
 ---------------------------------------------------------------------------------
 (6) _CAN1_ISR                                             0     0      0       0
                   Absolute function *
             _DefaultBusErrorHandler *
    _DefaultBusWakeUpActivityHandler *
       _DefaultInvalidMessageHandler *
           _DefaultModeChangeHandler *
          _DefaultSystemErrorHandler *
            _DefaultTxAttemptHandler *
 ---------------------------------------------------------------------------------
 (7) _DefaultTxAttemptHandler                              0     0      0       0
 ---------------------------------------------------------------------------------
 (7) _DefaultSystemErrorHandler                            0     0      0       0
 ---------------------------------------------------------------------------------
 (7) _DefaultModeChangeHandler                             0     0      0       0
 ---------------------------------------------------------------------------------
 (7) _DefaultInvalidMessageHandler                         0     0      0       0
 ---------------------------------------------------------------------------------
 (7) _DefaultBusWakeUpActivityHandler                      0     0      0       0
 ---------------------------------------------------------------------------------
 (7) _DefaultBusErrorHandler                               0     0      0       0
 ---------------------------------------------------------------------------------
 (8) Absolute function(Fake)                               0     0      0       0
 ---------------------------------------------------------------------------------
 Estimated maximum stack depth 8
 ---------------------------------------------------------------------------------

 Call Graph Graphs:

 _main (ROOT)
   _CANWriteMessage
     _CAN1_OperationModeGet
     _CAN1_OperationModeSet
       _CAN1_OperationModeGet
     _CAN1_Transmit
       _ValidateTransmission
         _CAN1_OperationModeGet
         _GetTxFifoStatus
       _WriteMessageToFifo
         _memcpy
       _isTxChannel
     _CAN1_TransmitFIFOStatusGet
       _GetTxFifoStatus
       _isTxChannel
   _DELAY_milliseconds
   _SYSTEM_Initialize
     _ADC_Initialize
       _ADC_SetADIInterruptHandler
       _ADC_SetActiveClockTuningInterruptHandler
       _ADC_SetContext1ThresholdInterruptHandler
     _CAN1_Initialize
       _CAN1_BitRateConfiguration
       _CAN1_ErrorNotificationInterruptEnable
         _CAN1_SetBusErrorInterruptHandler
         _CAN1_SetBusWakeUpActivityInterruptHandler
         _CAN1_SetInvalidMessageInterruptHandler
         _CAN1_SetModeChangeInterruptHandler
         _CAN1_SetSystemErrorInterruptHandler
         _CAN1_SetTxAttemptInterruptHandler
       _CAN1_OperationModeSet
       _CAN1_TX_FIFO_Configuration
     _EXT_INT_Initialize
       _INT0_SetInterruptHandler
     _INTERRUPT_Initialize
     _OSCILLATOR_Initialize
     _PIN_MANAGER_Initialize
     _PMD_Initialize
     _PWM1_16BIT_Initialize
       _PWM1_16BIT_Period_SetInterruptHandler
       _PWM1_16BIT_Slice1Output1_SetInterruptHandler
       _PWM1_16BIT_Slice1Output2_SetInterruptHandler
     _PWM2_16BIT_Initialize
       _PWM2_16BIT_Period_SetInterruptHandler
       _PWM2_16BIT_Slice1Output1_SetInterruptHandler
       _PWM2_16BIT_Slice1Output2_SetInterruptHandler
     _TMR0_Initialize
       _TMR0_SetInterruptHandler
     _TMR1_Initialize
       _TMR1_SetInterruptHandler
     _TMR2_Initialize
       _TMR2_SetInterruptHandler

 _INTERRUPT_InterruptManager (ROOT)
   _CAN1_ISR
     Absolute function(Fake) *
     _DefaultBusErrorHandler *
     _DefaultBusWakeUpActivityHandler *
     _DefaultInvalidMessageHandler *
     _DefaultModeChangeHandler *
     _DefaultSystemErrorHandler *
     _DefaultTxAttemptHandler *
   _INT0_ISR
     _INT0_CallBack
       Absolute function(Fake) *
       _INT0_DefaultInterruptHandler *
   _TMR0_ISR
     _TMR0_CallBack
       Absolute function(Fake) *
       _TMR0_DefaultInterruptHandler *
   _TMR1_ISR
     _TMR1_CallBack
       Absolute function(Fake) *
       _TMR1_DefaultInterruptHandler *
     _TMR1_WriteTimer
   _TMR2_ISR
     _TMR2_CallBack
       Absolute function(Fake) *
       _TMR2_DefaultInterruptHandler *

 Address spaces:
Name               Size   Autos  Total    Cost      Usage
BIGRAM            20FF      0       0      71        0.0%
EEDATA             400      0       0       0        0.0%
BITBANK37          100      0       0      70        0.0%
BANK37             100      0       0      68        0.0%
BITBANK36          100      0       0      66        0.0%
BANK36             100      0       0      67        0.0%
BITBANK35          100      0       0      64        0.0%
BANK35             100      0       0      65        0.0%
BITBANK34          100      0       0      62        0.0%
BANK34             100      0       0      63        0.0%
BITBANK33          100      0       0      60        0.0%
BANK33             100      0       0      61        0.0%
BITBANK32          100      0       0      58        0.0%
BANK32             100      0       0      59        0.0%
BITBANK31          100      0       0      56        0.0%
BANK31             100      0       0      57        0.0%
BITBANK30          100      0       0      54        0.0%
BANK30             100      0       0      55        0.0%
BITBANK29          100      0       0      52        0.0%
BANK29             100      0       0      53        0.0%
BITBANK28          100      0       0      50        0.0%
BANK28             100      0       0      51        0.0%
BITBANK27          100      0       0      48        0.0%
BANK27             100      0       0      49        0.0%
BITBANK26          100      0       0      46        0.0%
BANK26             100      0       0      47        0.0%
BITBANK25          100      0       0      44        0.0%
BANK25             100      0       0      45        0.0%
BITBANK24          100      0       0      42        0.0%
BANK24             100      0       0      43        0.0%
BITBANK23          100      0       0      40        0.0%
BANK23             100      0       0      41        0.0%
BITBANK22          100      0       0      38        0.0%
BANK22             100      0       0      39        0.0%
BITBANK21          100      0       0      36        0.0%
BANK21             100      0       0      37        0.0%
BITBANK20          100      0       0      34        0.0%
BANK20             100      0       0      35        0.0%
BITBANK19          100      0       0      32        0.0%
BANK19             100      0       0      33        0.0%
BITBANK18          100      0       0      30        0.0%
BANK18             100      0       0      31        0.0%
BITBANK17          100      0       0      28        0.0%
BANK17             100      0       0      29        0.0%
BITBANK16          100      0       0      26        0.0%
BANK16             100      0       0      27        0.0%
BITBANK15          100      0       0      24        0.0%
BANK15             100      0       0      25        0.0%
BITBANK14          100      0       0      22        0.0%
BANK14             100      0       0      23        0.0%
BITBANK13          100      0       0      20        0.0%
BANK13             100      0       0      21        0.0%
BITBANK12          100      0       0      18        0.0%
BANK12             100      0       0      19        0.0%
BITBANK11          100      0       0      16        0.0%
BANK11             100      0       0      17        0.0%
BITBANK10          100      0       0      14        0.0%
BANK10             100      0       0      15        0.0%
BITBANK9           100      0       0      12        0.0%
BANK9              100      0       0      13        0.0%
BITBANK8           100      0       0      10        0.0%
BANK8              100      0       0      11        0.0%
BITBANK7           100      0       0       8        0.0%
BANK7              100      0       0       9        0.0%
BITBANK6           100      0       0       6        0.0%
BANK6              100      0       0       7        0.0%
BITBANK5            A0      0       0       4        0.0%
BANK5               A0      8      30       5       30.0%
BITCOMRAM           5F      0       0       0        0.0%
COMRAM              5F     2E      57       1       91.6%
BITSFR_5             0      0       0     200        0.0%
SFR_5                0      0       0     200        0.0%
BITSFR_4             0      0       0     200        0.0%
SFR_4                0      0       0     200        0.0%
BITSFR_3             0      0       0     200        0.0%
SFR_3                0      0       0     200        0.0%
BITSFR_2             0      0       0     200        0.0%
SFR_2                0      0       0     200        0.0%
BITSFR_1             0      0       0     200        0.0%
SFR_1                0      0       0     200        0.0%
BITSFR               0      0       0     200        0.0%
SFR                  0      0       0     200        0.0%
STACK                0      0       0       2        0.0%
NULL                 0      0       0       0        0.0%
ABS                  0      0      87      69        0.0%
DATA                 0      0      87       3        0.0%
CODE                 0      0       0       0        0.0%


Microchip Technology PIC18 Macro Assembler V2.32 build 20210201212658 
Symbol Table                                                                                   Mon Sep 20 12:56:16 2021

                            __end_of_TMR2_SetInterruptHandler 346A  
                                                           l8 323A  
                                                          l43 3422  
                                                          l37 34C2  
                                                         l106 2F06  
                                                         l203 34AE  
                                                         l206 34A4  
                                                         l209 34B8  
                                                         l170 2FE2  
                                                         l329 2D78  
                                                         l530 33F6  
                                                         l460 3508  
                                                         l533 3370  
                                                         l702 2E92  
                                                         l710 31AA  
                                                         l703 2E94  
                                                         l711 31AC  
                                                         l463 3512  
                                                         l527 31DE  
                                                         l720 2852  
                                                         l560 353A  
                                                         l457 351C  
                                                         l706 3526  
                                                         l714 340E  
                                                         l732 2E0C  
                                                         l735 2E0C  
                                                         l729 2C16  
                                                         l682 3436  
                                                         l739 3398  
                                                         l772 34FE  
                                                         l692 30E8  
                                                         l852 2F74  
                                                         l685 344A  
                                                         l781 34CC  
                                                         l933 312E  
                                                         l766 34EA  
                                                         l775 34E0  
                                                ?_isTxChannel 0501  
                                                         l688 3042  
                                                         l769 34F4  
                                                         l778 34D6  
                                                         l699 2E5E  
                                                         l891 349A  
                                                         l885 3490  
                                                         l966 3472  
                                                         l888 3486  
                                                         _PR2 000323  
                                  __end_of_DELAY_milliseconds 323C  
                                  ??_INT0_SetInterruptHandler 0505  
                                             _timer1ReloadVal 054A  
                                    ?_DefaultTxAttemptHandler 0501  
                                                         _msg 0543  
                                     __size_of_PMD_Initialize 0028  
                                             _TMR2_Initialize 31E0  
                                                         prod 0004F3  
                                                         tosl 0004FD  
                                                         wreg 0004E8  
                                               _INT0_CallBack 32F4  
                                  _CAN1_InvalidMessageHandler 053B  
                                                        l1006 320C  
                                                        l1108 347C  
                                                        l1055 3468  
                                                        l1144 2AF2  
                                                        l2041 2EDE  
                                                        l2043 2EE0  
                                                        l1083 33BE  
                                                        l1165 2A5E  
                                                        l2045 2EE2  
                                                        l2037 2E96  
                                                        l2047 2EE4  
                                                        l2039 2EDC  
                                                        l3201 2E3C  
                                                        l2049 2EE6  
                                                        l3203 2E4E  
                                                        l2091 334A  
                                                        l3205 2E6C  
                                                        l3213 3172  
                                                        l3045 320E  
                                                        l3301 30B8  
                                                        l2093 33E0  
                                                        l3207 2E74  
                                                        l3231 2662  
                                                        l3223 260E  
                                                        l3215 3176  
                                                        l3311 2D7C  
                                                        l3047 3212  
                                                        l3303 30D6  
                                                        l3209 2E8E  
                                                        l3233 2676  
                                                        l3241 26C0  
                                                        l3225 2632  
                                                        l3217 3186  
                                                        l3321 2DCE  
                                                        l3313 2D7C  
                                                        l3049 3220  
                                                        l3305 30DA  
                                                        l2089 3538  
                                                        l3401 2A66  
                                                        l3251 273C  
                                                        l3243 26F0  
                                                        l3235 2688  
                                                        l3227 2632  
                                                        l3219 31A6  
                                                        l3323 2DE0  
                                                        l3315 2D92  
                                                        l3331 3378  
                                                        l3307 30DE  
                                                        l3411 2B00  
                                                        l3403 2A88  
                                                        l3173 351E  
                                                        l3181 3044  
                                                        l3261 27E0  
                                                        l3253 2762  
                                                        l3245 2702  
                                                        l3237 2696  
                                                        l3229 264C  
                                                        l3325 2DF4  
                                                        l3317 2DA2  
                                                        l3333 338E  
                                                        l3309 30E2  
                                                        l3341 31B2  
                                                        l3405 2AAC  
                                                        l3271 2B56  
                                                        l3183 3058  
                                                        l3191 3082  
                                                        l3263 27FA  
                                                        l3255 2786  
                                                        l3247 2710  
                                                        l3239 26A8  
                                                        l3319 2DB2  
                                                        l3335 3396  
                                                        l2703 34E2  
                                                        l2711 34CE  
                                                        l3351 31C6  
                                                        l3343 31B6  
                                                        l3407 2ACE  
                                                        l3193 2E10  
                                                        l3177 33FA  
                                                        l3281 2BA0  
                                                        l3273 2B64  
                                                        l3265 2B42  
                                                        l3185 3068  
                                                        l3257 27AA  
                                                        l3249 2728  
                                                        l3329 3374  
                                                        l2705 34EC  
                                                        l2713 34C4  
                                                        l3361 31DA  
                                                        l3353 31CA  
                                                        l3345 31BA  
                                                        l3409 2AFE  
                                                        l3195 2E14  
                                                        l3291 2C10  
                                                        l3283 2BB4  
                                                        l3275 2B78  
                                                        l3267 2B46  
                                                        l3187 306C  
                                                        l3259 27CE  
                                                        l3371 29CA  
                                                        l3363 2964  
                                                        l2707 34F6  
                                                        l3355 31CE  
                                                        l3347 31BE  
                                                        l3339 31AE  
                                                        l3197 2E1A  
                                                        l3293 2C14  
                                                        l3285 2BB6  
                                                        l3277 2B7A  
                                                        l3269 2B56  
                                                        l1845 309C  
                                                        l3189 307E  
                                                        l3381 29DE  
                                                        l3373 29CE  
                                                        l3365 29BE  
                                                        l2709 34D8  
                                                        l2741 34B0  
                                                        l2901 2FC6  
                                                        l3357 31D2  
                                                        l3349 31C2  
                                                        l3199 2E2C  
                                                        l3287 2BF8  
                                                        l3279 2B92  
                                                        l3391 2A50  
                                                        l3383 29F2  
                                                        l3375 29D2  
                                                        l3367 29C2  
                                                        l2743 3514  
                                                        l2911 2D4A  
                                                        l2751 302C  
                                                        l2735 34BA  
                                                        l2903 2FD2  
                                                        l3359 31D6  
                                                        l3289 2BFA  
                                                        l3385 2A08  
                                                        l3377 29D6  
                                                        l3369 29C6  
                                                        l2745 3500  
                                                        l2921 2D72  
                                                        l2913 2D4C  
                                                        l2761 3040  
                                                        l2753 302E  
                                                        l3297 309E  
                                                        l2737 34A6  
                                                        l2905 2FDE  
                                                        l3387 2A20  
                                                        l3379 29DA  
                                                        l2747 350A  
                                                        l2915 2D4E  
                                                        l2907 2CCE  
                                                        l2755 3034  
                                                        l3299 30A2  
                                                        l2739 349C  
                                                        l2931 3206  
                                                        l2923 31E0  
                                                        l3389 2A3A  
                                                        l2917 2D5A  
                                                        l2909 2D48  
                                                        l2757 3038  
                                                        l2749 2FE4  
                                                        l1893 3424  
                                                        l2941 311C  
                                                        l2933 30EA  
                                                        l2925 31F6  
                                                        l3397 2A60  
                                                        l2919 2D66  
                                                        l1895 3438  
                                                        l2759 303C  
                                                        l2871 3492  
                                                        l2951 33AC  
                                                        l2943 3128  
                                                        l2935 3100  
                                                        l2927 31F8  
                                                        l3399 2A64  
                                                        l2881 3414  
                                                        l2961 2F44  
                                                        l2953 33B8  
                                                        l2945 339A  
                                                        l2873 346A  
                                                        l2937 3102  
                                                        l2929 31FA  
                                                        l2883 3420  
                                                        l2891 2FB2  
                                                        l2867 3488  
                                                        l2971 2F58  
                                                        l2963 2F46  
                                                        l2955 2F08  
                                                        l2947 33A8  
                                                        l2939 311A  
                                                        l2875 3460  
                                                        l2893 2FB4  
                                                        l2885 2F76  
                                                        l2869 347E  
                                                        l2973 2F64  
                                                        l2965 2F48  
                                                        l2957 2F40  
                                                        l2877 3474  
                                                        l2949 33AA  
                                                        l2879 3410  
                                                        l2895 2FB6  
                                                        l2887 2FAE  
                                                        l2975 2F70  
                                                        l2967 2F4A  
                                                        l2959 2F42  
                                                        l2897 2FB8  
                                                        l2889 2FB0  
                                                        l2969 2F4C  
                                                        l2899 2FBA  
                                                        _ADCP 0003D8  
                                                        _FIFO 260A  
                                                        u2000 2ADE  
                                                        u2001 2AD8  
                                          _WriteMessageToFifo 260E  
                                                        u2006 2AE0  
                                                        u2017 3218  
                                                        u1420 323A  
                                                        u1421 3236  
                                                        _LATA 0004BE  
                                                        _LATB 0004BF  
                                                        _LATC 0004C0  
                                                        u1700 31A6  
                                                        u1701 31A2  
                                                        u1630 309C  
                                                        u1710 264C  
                                                        u1631 3098  
                                                        u1711 2648  
                                                        u1640 2E2C  
                                                        u1641 2E28  
                                                        u1650 2E3C  
                                                        u1810 27FA  
                                                        _T2PR 000323  
                                                        u1651 2E38  
                                                        u1811 27F6  
                                                        u1660 2E4E  
                                                        u1820 2B64  
                                                        u1740 275A  
                                                        u1900 2D92  
                                                        u1661 2E4A  
                                                        u1821 2B60  
                                                        u1805 27CA  
                                                        u1741 2752  
                                                        u1725 2666  
                                                        u1901 2D8E  
                                                        u1670 2E6C  
                                                        u1830 2B78  
                                                        u1750 2780  
                                                        u1910 2DB2  
                                                        u1671 2E68  
                                                        u1831 2B74  
                                                        u1751 2778  
                                                        u1735 26AC  
                                                        u1911 2DAE  
                                                        u1680 2E8A  
                                                        u1840 2B92  
                                                        u1920 2DE0  
                                                        u1681 2E86  
                                                        u1841 2B8E  
                                                        u1921 2DDC  
                                                        u1850 2BA0  
                                                        u1770 27A4  
                                                        u1690 3186  
                                                        u1930 338E  
                                                        u1851 2B9C  
                                                        u1771 279C  
                                                        u1691 3182  
                                                        u1931 338A  
                                                        u1860 2BB4  
                                                        u1748 275C  
                                                        u1940 29F2  
                                                        u1861 2BB0  
                                                        u1765 2782  
                                                        u1941 29EE  
                                                        u1870 2BF8  
                                                        u1790 27C8  
                                                        u1950 2A08  
                                                        u1871 2BF4  
                                                        u1791 27C0  
                                                        u1951 2A04  
                                                        u1880 2C10  
                                                        u1960 2A50  
                                                        u1881 2C0C  
                                                        u1785 27A6  
                                                        u1961 2A4C  
                                                        u1890 30B8  
                                                        u1970 2A76  
                                                        u1891 30B4  
                                                        u1971 2A70  
                                                        u1980 2A98  
                                                        _PMD0 000060  
                                                        u1981 2A92  
                                                        _PMD1 000061  
                                                        u1990 2ABC  
                                                        _PMD2 000062  
                                                        u1991 2AB6  
                                                        _PMD3 000063  
                                                        u1976 2A78  
                                                        _PMD4 000064  
                                                        _PMD5 000065  
                                                        u1986 2A9A  
                                                        _PMD6 000066  
                                                        _PMD7 000067  
                                                        u1996 2ABE  
                                                        _PMD8 000068  
                                                        i2l30 3536  
                                                        i2l40 3542  
                                                        i2l34 331E  
                                                        _TMR2 000322  
                                                        _WPUA 000401  
                                                        _WPUB 000409  
                                                        _WPUC 000411  
                                                        _WPUE 000421  
                                      __size_of_CAN1_Transmit 0094  
                                            __end_of_CAN1_ISR 2964  
                   __end_of_CAN1_SetTxAttemptInterruptHandler 34CE  
                  __size_of_CAN1_SetTxAttemptInterruptHandler 000A  
                         ??_CAN1_SetTxAttemptInterruptHandler 0505  
                          ?_CAN1_SetTxAttemptInterruptHandler 0503  
                           _CAN1_SetTxAttemptInterruptHandler 34C4  
                                      CAN1_Transmit@txFifoObj 051C  
                                                        _main 2A60  
                                                        fsr1h 0004E2  
                                                        fsr2h 0004DA  
                                                        indf1 0004E7  
                                                        indf2 0004DF  
                                                        fsr1l 0004E1  
                                                        fsr2l 0004D9  
                                                        prodl 0004F3  
                                                        start 001A  
                                         ?_WriteMessageToFifo 050E  
                                  ??_TMR1_SetInterruptHandler 0505  
                                                ___param_bank 000000  
                        __end_of_DefaultInvalidMessageHandler 354C  
                       __size_of_DefaultInvalidMessageHandler 0002  
                                _DefaultInvalidMessageHandler 354A  
                  CAN1_SetSystemErrorInterruptHandler@handler 0503  
                                     __end_of_TMR0_Initialize 33C0  
                                            __end_of_INT0_ISR 3538  
                              ??_TMR0_DefaultInterruptHandler 0501  
                              __size_of_OSCILLATOR_Initialize 0018  
                                        CANWriteMessage@data1 0524  
                                        CANWriteMessage@data2 0525  
                                        CANWriteMessage@data3 0526  
                                        CANWriteMessage@data4 0527  
                                        CANWriteMessage@data5 0528  
                                        CANWriteMessage@data6 0529  
                                        CANWriteMessage@data7 052A  
                                        CANWriteMessage@data8 052B  
                               __end_of_OSCILLATOR_Initialize 33F8  
                                                       _ADACT 0003F9  
                                                       _ADCAP 0003F0  
                                  WriteMessageToFifo@txCanMsg 0510  
                                                       ?_main 0501  
                                                       _ADCLK 0003FA  
                                                       _ADCNT 0003E6  
                                                       _ADCTX 0003FB  
                                                       _ADPCH 0003EC  
                                                       _ADREF 0003F8  
                                                       _ADRPT 0003E7  
                    __end_of_CAN1_SetBusErrorInterruptHandler 3500  
                   __size_of_CAN1_SetBusErrorInterruptHandler 000A  
                          ??_CAN1_SetBusErrorInterruptHandler 0505  
                           ?_CAN1_SetBusErrorInterruptHandler 0503  
                                                       _T1CLK 000321  
                            _CAN1_SetBusErrorInterruptHandler 34F6  
                                                       _T1CON 00031E  
                                                       _T2CON 000324  
                                                       _T2HLT 000325  
                                                       _T2TMR 000322  
                                                       _T2RST 000327  
                                                       i2l570 2CCC  
                                                       i2l571 2CA8  
                                                       i2l565 2C3C  
                                                       i2l670 354E  
                                                       i2l567 2C60  
                                                       i2l575 2CCC  
                                                       i2l664 354A  
                                                       i2l673 3548  
                                                       i2l569 2C84  
                                                       i2l667 354C  
                                                       i2l676 3546  
                                                       i2l679 3544  
                                                       i2l791 2962  
                                      ?_PWM1_16BIT_Initialize 0501  
                                                       i2l963 32C4  
                                                       i2l947 3296  
                                                       i2l789 2960  
                                                       i2l959 345E  
                                                       i2l969 353E  
                                                       _OSCEN 0000B3  
                                                       _TMR0H 000319  
                                                       _TMR1H 00031D  
                                                       _TMR0L 000318  
                                                       _TMR1L 00031C  
                                        ??_WriteMessageToFifo 0512  
                                                       _TRISA 0004C6  
                                                       _TRISB 0004C7  
                                              ?_INT0_CallBack 0501  
                                                       _TRISC 0004C8  
                                                       _TRISE 0004CA  
                                    ??_DefaultBusErrorHandler 0501  
                           __size_of_TMR0_SetInterruptHandler 000A  
                                   ?_TMR0_SetInterruptHandler 0503  
                                    __size_of_CAN1_Initialize 004C  
                                            __end_of_TMR0_ISR 3530  
                                            __end_of_TMR1_ISR 3460  
                                            __end_of_TMR2_ISR 334A  
            _PWM2_16BIT_Slice1Output1_DefaultInterruptHandler 000000  
            _PWM1_16BIT_Slice1Output1_DefaultInterruptHandler 000000  
                                           ??_CANWriteMessage 052C  
                                     __end_of_TMR1_Initialize 3130  
                                                       pclath 0004FA  
                                                       tablat 0004F5  
                                                       status 0004D8  
                    CAN1_SetTxAttemptInterruptHandler@handler 0503  
                                             _TMR1_WriteTimer 326A  
                                ??_CAN1_TX_FIFO_Configuration 0503  
                                                __end_of_FIFO 260C  
                                       _PWM2_16BIT_Initialize 2F08  
                                             __initialization 3130  
                                           __end_of_DLC_BYTES 260A  
                                         CAN1_Transmit@status 051B  
                                           CANWriteMessage@id 051F  
                                                __end_of_main 2B40  
                                     __end_of_TMR2_Initialize 320E  
                             __end_of_DefaultTxAttemptHandler 3546  
                                 ?_INTERRUPT_InterruptManager 0501  
                                               _CAN1_Transmit 2D7A  
                             fp__DefaultInvalidMessageHandler 0000  
                               ?_DefaultInvalidMessageHandler 0501  
                                    _TMR2_SetInterruptHandler 3460  
                                                      ??_main 052E  
                                               __activetblptr 000003  
               __end_of_PWM1_16BIT_Period_SetInterruptHandler 34BA  
              __size_of_PWM1_16BIT_Period_SetInterruptHandler 000A  
               __end_of_PWM2_16BIT_Period_SetInterruptHandler 349C  
              __size_of_PWM2_16BIT_Period_SetInterruptHandler 000A  
                     ??_PWM2_16BIT_Period_SetInterruptHandler 0505  
                     ??_PWM1_16BIT_Period_SetInterruptHandler 0505  
                      ?_PWM2_16BIT_Period_SetInterruptHandler 0503  
                      ?_PWM1_16BIT_Period_SetInterruptHandler 0503  
                       _PWM1_16BIT_Period_SetInterruptHandler 34B0  
                       _PWM2_16BIT_Period_SetInterruptHandler 3492  
              __end_of_CAN1_SetInvalidMessageInterruptHandler 34EC  
             __size_of_CAN1_SetInvalidMessageInterruptHandler 000A  
                    ??_CAN1_SetInvalidMessageInterruptHandler 0505  
                     ?_CAN1_SetInvalidMessageInterruptHandler 0503  
                      _CAN1_SetInvalidMessageInterruptHandler 34E2  
                                                      _C1CONH 000101  
                                                      _C1CONL 000100  
                                                      _C1CONU 000102  
                                                      _C1INTH 00011D  
                                                      _C1INTL 00011C  
                                                      _C1INTT 00011F  
                                                      _C1INTU 00011E  
                           __size_of_DefaultModeChangeHandler 0002  
               CAN1_SetInvalidMessageInterruptHandler@handler 0503  
                                                      _ADACCH 0003E4  
                                                      _ADACCL 0003E3  
                                                      _ADACCU 0003E5  
                                   ?_DefaultModeChangeHandler 0501  
                                                      _ADACQH 0003EF  
                                                      _ADACQL 0003EE  
                                                      _ADCON0 0003F3  
                                                      _ADCON1 0003F4  
                                                      _ADCON2 0003F5  
                                                      _ADCON3 0003F6  
                                                      _ADERRH 0003DE  
                                                      _ADERRL 0003DD  
                                                      _ADLTHH 0003DA  
                                                      _ADLTHL 0003D9  
                                                      _ADRESH 0003EB  
                                                      _ADRESL 0003EA  
                                                      _ADPREH 0003F2  
                                                      _ADPREL 0003F1  
                                    __size_of_GetTxFifoStatus 0018  
                                                      _ADSTAT 0003F7  
                                                      _ADUTHH 0003DC  
                                                      _ADUTHL 0003DB  
                         __size_of_CAN1_TX_FIFO_Configuration 0014  
                                                      _ANSELA 000400  
                                                      _ANSELB 000408  
                                                      _ANSELC 000410  
                                                      _T0CON0 00031A  
                                                      _T0CON1 00031B  
                                                      _T1GATE 000320  
                                                      _T1GCON 00031F  
                                                      _RC0PPS 000211  
                                                      _RC1PPS 000212  
                                                      _RB4PPS 00020D  
                                 WriteMessageToFifo@txFifoObj 050E  
                                     TMR1_WriteTimer@timerVal 0501  
                                            _isTxChannel$1577 0503  
                                                      _ODCONA 000402  
                                                      _ODCONB 00040A  
                                                      _ODCONC 000412  
                                                      i2l1101 352E  
                                                      i2l1111 3540  
                                                      i2l1105 32F2  
                                                      i2l1052 3268  
                                                      i2l1048 3348  
                                                      i2l1058 353C  
                                                      i2l2027 32F4  
                                                      i2l2029 3306  
                                                      i2l3021 327A  
                                                      i2l2223 3530  
                                                      i2l3031 3290  
                                                      i2l3023 327C  
                                                      i2l2225 3532  
                                                      i2l3041 32C6  
                                                      i2l3033 3298  
                                                      i2l3025 3280  
                                                      i2l3043 32DA  
                                                      i2l3035 32AC  
                                                      i2l3027 3286  
                                                      i2l3019 326A  
                                                      i2l3131 2C58  
                                                      i2l3123 2C18  
                                                      i2l2261 2880  
                                                      i2l3029 328C  
                                                      i2l3037 323C  
                                                      i2l3141 2CB6  
                                                      i2l3133 2C6E  
                                                      i2l3125 2C26  
                                                      i2l2271 28D0  
                                                      i2l2263 288E  
                                                      i2l2255 2854  
                                                      i2l3039 3250  
                                                      i2l3143 2CC4  
                                                      i2l3135 2C7C  
                                                      i2l3127 2C34  
                                                      i2l2281 290C  
                                                      i2l2273 28D4  
                                                      i2l2265 28A6  
                                                      i2l2257 2864  
                                                      i2l3081 3322  
                                                      i2l3137 2C92  
                                                      i2l3129 2C4A  
                                                      i2l2291 295E  
                                                      i2l2283 2924  
                                                      i2l2275 28E2  
                                                      i2l2267 28AA  
                                                      i2l2259 287C  
                                                      i2l3075 3528  
                                                      i2l3091 345A  
                                                      i2l3083 333C  
                                                      i2l3139 2CA0  
                                                      i2l2285 2928  
                                                      i2l2277 28FA  
                                                      i2l2269 28B8  
                                                      i2l3077 352A  
                                                      i2l3085 3340  
                                                      i2l2287 2936  
                                                      i2l2279 28FE  
                                                      i2l3087 344C  
                                                      i2l3079 3320  
                                                      i2l2289 294E  
                                                      i2l3089 344E  
                                                      _INLVLA 000404  
                                                      _INLVLB 00040C  
                                                      _INLVLC 000414  
                                                      _INLVLE 000424  
                                     ??_CAN1_OperationModeGet 0503  
                                                      _OSCFRQ 0000B1  
                                     ??_CAN1_OperationModeSet 0503  
                                          _ADC_DefaultADI_ISR 000000  
                                 ??_CAN1_BitRateConfiguration 0503  
                        __end_of_TMR1_DefaultInterruptHandler 3540  
                       __size_of_TMR1_DefaultInterruptHandler 0002  
                                _TMR1_DefaultInterruptHandler 353E  
                          __size_of_DefaultSystemErrorHandler 0002  
                                              ?_CAN1_Transmit 0519  
                                                      _memcpy 3044  
                                            ?_TMR0_Initialize 0501  
                                                      clear_0 3156  
                                                      isa$std 000001  
                                             ??_INT0_CallBack 0501  
                   CAN1_SetModeChangeInterruptHandler@handler 0503  
                                                   ?_CAN1_ISR 0501  
                                              _PMD_Initialize 334A  
                               __size_of_ValidateTransmission 00D8  
                                                __mediumconst 0000  
                             __size_of_DefaultBusErrorHandler 0002  
                                        __size_of_isTxChannel 003E  
                                                      tblptrh 0004F7  
                                                      tblptrl 0004F6  
                                                      tblptru 0004F8  
                                       __end_of_TMR0_CallBack 32F4  
                                          isTxChannel@channel 0504  
                    TMR0_SetInterruptHandler@InterruptHandler 0503  
                    TMR2_SetInterruptHandler@InterruptHandler 0503  
                    TMR1_SetInterruptHandler@InterruptHandler 0503  
       PWM2_16BIT_Period_SetInterruptHandler@InterruptHandler 0503  
PWM2_16BIT_Slice1Output2_SetInterruptHandler@InterruptHandler 0503  
PWM2_16BIT_Slice1Output1_SetInterruptHandler@InterruptHandler 0503  
    ADC_SetActiveClockTuningInterruptHandler@InterruptHandler 0503  
    ADC_SetContext1ThresholdInterruptHandler@InterruptHandler 0503  
                  ADC_SetADIInterruptHandler@InterruptHandler 0503  
       PWM1_16BIT_Period_SetInterruptHandler@InterruptHandler 0503  
PWM1_16BIT_Slice1Output2_SetInterruptHandler@InterruptHandler 0503  
PWM1_16BIT_Slice1Output1_SetInterruptHandler@InterruptHandler 0503  
                    INT0_SetInterruptHandler@InterruptHandler 0503  
                                     __end_of_TMR1_WriteTimer 3298  
                               __size_of_INTERRUPT_Initialize 0004  
                                       __end_of_TMR1_CallBack 32C6  
                                            ?_TMR1_Initialize 0501  
                                           _SYSTEM_Initialize 31AE  
                                                  __accesstop 0560  
                                     __end_of__initialization 316A  
                                           ??_CAN1_Initialize 0506  
                                                   ?_INT0_ISR 0501  
                                   CANWriteMessage@dataLength 0523  
                                       __end_of_TMR2_CallBack 326A  
                                        _CAN1_BusErrorHandler 0537  
                                          ?_SYSTEM_Initialize 0501  
                                      ?_PWM2_16BIT_Initialize 0501  
                                               ___rparam_used 000001  
                                      _CAN1_ModeChangeHandler 0535  
                                              __pcstackCOMRAM 0501  
                                                __pidataBANK5 33C0  
                                         ??_SYSTEM_Initialize 0507  
                                                   ?_TMR0_ISR 0501  
                                                   ?_TMR1_ISR 0501  
                                                   ?_TMR2_ISR 0501  
                             fp__TMR1_DefaultInterruptHandler 0000  
                               ?_TMR1_DefaultInterruptHandler 0501  
                                ??_CAN1_TransmitFIFOStatusGet 0505  
                                            ?_TMR2_Initialize 0501  
                                      __end_of_PMD_Initialize 3372  
                                                  ??_CAN1_ISR 0501  
                                 __size_of_EXT_INT_Initialize 0014  
                                   _CAN1_BitRateConfiguration 3438  
            __end_of_ADC_SetActiveClockTuningInterruptHandler 3514  
           __size_of_ADC_SetActiveClockTuningInterruptHandler 000A  
                  ??_ADC_SetActiveClockTuningInterruptHandler 0505  
                   ?_ADC_SetActiveClockTuningInterruptHandler 0503  
                    _ADC_SetActiveClockTuningInterruptHandler 350A  
                                ??_ADC_SetADIInterruptHandler 0505  
                 __end_of_CAN1_SetSystemErrorInterruptHandler 34D8  
                __size_of_CAN1_SetSystemErrorInterruptHandler 000A  
                       ??_CAN1_SetSystemErrorInterruptHandler 0505  
                        ?_CAN1_SetSystemErrorInterruptHandler 0503  
                         _CAN1_SetSystemErrorInterruptHandler 34CE  
                                   __end_of_SYSTEM_Initialize 31E0  
                                ValidateTransmission@txCanMsg 0504  
                                          _DELAY_milliseconds 320E  
                                       _INT0_InterruptHandler 0556  
                                                  ??_INT0_ISR 0501  
                                                  __pnvCOMRAM 054A  
                            __size_of_DefaultTxAttemptHandler 0002  
                          __end_of_CAN1_TX_FIFO_Configuration 3438  
                                  _CAN1_TX_FIFO_Configuration 3424  
                                           ??_GetTxFifoStatus 0503  
                         __size_of_CAN1_TransmitFIFOStatusGet 0028  
                                                     IVTBASEH 00045E  
                                                     IVTBASEL 00045D  
                                                     IVTBASEU 00045F  
                                      _DefaultBusErrorHandler 354E  
                                         ?_DELAY_milliseconds 0503  
                                             ??_CAN1_Transmit 051B  
                            __end_of_TMR0_SetInterruptHandler 347E  
                               _CAN1_BusWakeUpActivityHandler 0539  
                                                  ??_TMR0_ISR 0501  
                                                  ??_TMR1_ISR 0503  
                                                  ??_TMR2_ISR 0501  
                                      CANWriteMessage@uiData1 0588  
                                      CANWriteMessage@uiData2 058A  
                                      CANWriteMessage@uiData3 058C  
                                      CANWriteMessage@uiData4 058E  
                                                     _ADCSEL1 0003FC  
                                                     _ADFLTRH 0003E2  
                                                     _ADFLTRL 0003E1  
                                                     ?_memcpy 0503  
                                     ??_PWM1_16BIT_Initialize 0505  
                         __size_of_ADC_SetADIInterruptHandler 000A  
                                                     _ADPREVH 0003E9  
                                                     _ADPREVL 0003E8  
                                                   _C1NBTCFGH 000105  
                                                   _C1NBTCFGL 000104  
                                                     _ADSTPTH 0003E0  
                                                     _ADSTPTL 0003DF  
                                                   _C1NBTCFGT 000107  
                                                   _C1NBTCFGU 000106  
                                             ?_PMD_Initialize 0501  
                                             _CANWriteMessage 2964  
                                     __size_of_ADC_Initialize 00AC  
                                                     _INT0PPS 00023E  
                                        ??_DELAY_milliseconds 0505  
                                                     _OSCCON1 0000AD  
                                                     _OSCCON3 0000AF  
                                                   _C1TXQCONH 000151  
                                                   _C1TXQCONL 000150  
                                                     i2u50_40 290C  
                                                     i2u42_40 2864  
                                                     i2u50_41 2908  
                                                     i2u42_41 2860  
                                       _CAN1_TxAttemptHandler 0531  
                                                   _C1TXQCONT 000153  
                                                   _C1TXQCONU 000152  
                                                     i2u27_40 3306  
                                                     i2u27_41 3302  
                                                     i2u52_40 2936  
                                                     i2u51_48 2912  
                                                     i2u44_40 288E  
                                                     i2u43_48 286A  
                                                     i2u52_41 2932  
                                                     i2u51_49 2924  
                                                     i2u44_41 288A  
                                                     i2u43_49 287C  
                                                     i2u28_48 330C  
                                                     i2u28_49 331E  
                                                     i2u54_40 295E  
                                                     i2u53_48 293C  
                                                     i2u46_40 28B8  
                                                     i2u45_48 2894  
                                                     i2u54_41 295A  
                                                     i2u53_49 294E  
                                                     i2u46_41 28B4  
                                                     i2u45_49 28A6  
                                                     _OSCTUNE 0000B0  
                                                     _PWM1CLK 000461  
                                                     _PWM1GIE 000468  
                                                     _PWM2CLK 000470  
                                                     _PWM1CON 000469  
                                                     _PWM2GIE 000477  
                                                     i2u48_40 28E2  
                                                     i2u47_48 28BE  
                                                     i2u48_41 28DE  
                                                     i2u47_49 28D0  
                                                     _PWM1GIR 000467  
                                                     _PWM2CON 000478  
                                                     _PWM2GIR 000476  
                                                     _PWM1ERS 000460  
                                                     _PWM1LDS 000462  
                                                     i2u49_48 28E8  
                                                     i2u49_49 28FA  
                                                     _PWM2ERS 00046F  
                                                     _PWM2LDS 000471  
                                                     _PWM1PRH 000464  
                                                     _PWM1PRL 000463  
                                                     _PWM2PRH 000473  
                                                     _PWM2PRL 000472  
                                                     _SLRCONA 000403  
                                                     _SLRCONB 00040B  
                                                     _SLRCONC 000413  
                                            ?_TMR1_WriteTimer 0501  
                                  _ADC_ConversionComplete_ISR 0554  
                           __size_of_INT0_SetInterruptHandler 000A  
                                   ?_INT0_SetInterruptHandler 0503  
                                                     __Hparam 0000  
                                                     __Lparam 0000  
                                fp__DefaultSystemErrorHandler 0000  
                                  ??_TMR2_SetInterruptHandler 0505  
                                                __psmallconst 2600  
                            __end_of_DefaultModeChangeHandler 354A  
                                     WriteMessageToFifo@msgId 0515  
                                                   _DLC_BYTES 2601  
                                                     __pcinit 3130  
                                             __size_of_memcpy 005A  
                                                     __ramtop 2600  
                                                     __ptext0 2A60  
                                                     __ptext1 31AE  
                                                     __ptext2 31E0  
                                                     __ptext3 3460  
                                                     __ptext4 30EA  
                                                     __ptext5 346A  
                                                     __ptext6 339A  
                                                     __ptext7 3474  
                                                     __ptext8 2F08  
                                                     __ptext9 347E  
                              ??_TMR1_DefaultInterruptHandler 0501  
        __end_of_PWM1_16BIT_Slice1Output1_SetInterruptHandler 34B0  
       __size_of_PWM1_16BIT_Slice1Output1_SetInterruptHandler 000A  
        __end_of_PWM2_16BIT_Slice1Output1_SetInterruptHandler 3492  
       __size_of_PWM2_16BIT_Slice1Output1_SetInterruptHandler 000A  
              ??_PWM2_16BIT_Slice1Output1_SetInterruptHandler 0505  
              ??_PWM1_16BIT_Slice1Output1_SetInterruptHandler 0505  
               ?_PWM2_16BIT_Slice1Output1_SetInterruptHandler 0503  
               ?_PWM1_16BIT_Slice1Output1_SetInterruptHandler 0503  
                _PWM1_16BIT_Slice1Output1_SetInterruptHandler 34A6  
                _PWM2_16BIT_Slice1Output1_SetInterruptHandler 3488  
                                                   _T1CONbits 00031E  
                                       _OSCILLATOR_Initialize 33E0  
                                                   _T2CONbits 000324  
                                 __size_of_WriteMessageToFifo 0246  
                           __size_of_TMR1_SetInterruptHandler 000A  
                                    ??_PIN_MANAGER_Initialize 0503  
                                   ?_TMR1_SetInterruptHandler 0503  
                                                   _T2HLTbits 000325  
                                   ValidateTransmission@field 050B  
            CAN1_SetBusWakeUpActivityInterruptHandler@handler 0503  
                                  __size_of_SYSTEM_Initialize 0032  
           __end_of_CAN1_SetBusWakeUpActivityInterruptHandler 34F6  
          __size_of_CAN1_SetBusWakeUpActivityInterruptHandler 000A  
                 ??_CAN1_SetBusWakeUpActivityInterruptHandler 0505  
                  ?_CAN1_SetBusWakeUpActivityInterruptHandler 0503  
                   _CAN1_SetBusWakeUpActivityInterruptHandler 34EC  
                                        end_of_initialization 316A  
            _PWM2_16BIT_Slice1Output2_DefaultInterruptHandler 000000  
            _PWM1_16BIT_Slice1Output2_DefaultInterruptHandler 000000  
                                                   _T2RSTbits 000327  
                                                     memcpy@d 050A  
                                                     memcpy@n 0507  
                                                     memcpy@s 050C  
                                                 _C1TRECUbits 000136  
                              __size_of_CAN1_OperationModeGet 000A  
                              __size_of_CAN1_OperationModeSet 0088  
                               __end_of_CAN1_OperationModeGet 3528  
                               __end_of_CAN1_OperationModeSet 2E96  
                                     __end_of_CANWriteMessage 2A60  
                                                     postdec1 0004E5  
                                                     postdec2 0004DD  
                                                   _PWM1S1CFG 00046A  
                                                   _PWM1S1P1H 00046C  
                                                   _PWM1S1P2H 00046E  
                                                   _PWM1S1P1L 00046B  
                                                   _PWM1S1P2L 00046D  
                                                   _PWM2S1CFG 000479  
                                                   _PWM2S1P1H 00047B  
                                                     postinc0 0004EE  
                                                   _PWM2S1P2H 00047D  
                                                     postinc2 0004DE  
                                                   _PWM2S1P1L 00047A  
                                                   _PWM2S1P2L 00047C  
                          __end_of_CAN1_TransmitFIFOStatusGet 339A  
                                  _CAN1_TransmitFIFOStatusGet 3372  
                                                   _PWM1PIPOS 000466  
                                                   _PWM2PIPOS 000475  
                                    _TMR0_SetInterruptHandler 3474  
                          fp__DefaultBusWakeUpActivityHandler 0000  
                     __end_of_DefaultBusWakeUpActivityHandler 354E  
                    __size_of_DefaultBusWakeUpActivityHandler 0002  
                           ??_DefaultBusWakeUpActivityHandler 0501  
                            ?_DefaultBusWakeUpActivityHandler 0501  
                             _DefaultBusWakeUpActivityHandler 354C  
                            CAN1_TransmitFIFOStatusGet@status 0505  
                          __end_of_ADC_SetADIInterruptHandler 351E  
                                  _ADC_SetADIInterruptHandler 3514  
                                             _CAN1_Initialize 309E  
                                           __size_of_CAN1_ISR 0110  
                                                 _ADCSEL1bits 0003FC  
                                     ??_PWM2_16BIT_Initialize 0505  
                            ValidateTransmission@validChannel 0509  
                                     _DefaultTxAttemptHandler 3544  
                                  fp__DefaultTxAttemptHandler 0000  
                                       CAN1_Transmit@txCanMsg 0519  
                                __end_of_ValidateTransmission 2C18  
                             ValidateTransmission@txMsgStatus 050A  
                                           __size_of_INT0_ISR 0008  
                                                 _CANDATAdata 0560  
                                   fp__DefaultBusErrorHandler 0000  
                                __end_of_INTERRUPT_Initialize 353C  
                        __end_of_TMR2_DefaultInterruptHandler 353E  
                       __size_of_TMR2_DefaultInterruptHandler 0002  
                                _TMR2_DefaultInterruptHandler 353C  
                        __end_of_INT0_DefaultInterruptHandler 3544  
                       __size_of_INT0_DefaultInterruptHandler 0002  
                                _INT0_DefaultInterruptHandler 3542  
                                           __size_of_TMR0_ISR 0008  
                                           __size_of_TMR1_ISR 0014  
                                           __size_of_TMR2_ISR 002A  
                                              _ADC_Initialize 2CCE  
                                              __end_of_memcpy 309E  
                                      ?_OSCILLATOR_Initialize 0501  
                                               ??_isTxChannel 0503  
               __end_of_CAN1_ErrorNotificationInterruptEnable 3044  
              __size_of_CAN1_ErrorNotificationInterruptEnable 0060  
                     ??_CAN1_ErrorNotificationInterruptEnable 0505  
                      ?_CAN1_ErrorNotificationInterruptEnable 0501  
                       _CAN1_ErrorNotificationInterruptEnable 2FE4  
                                    _DefaultModeChangeHandler 3548  
                                       __end_of_INT0_CallBack 3320  
                                 fp__DefaultModeChangeHandler 0000  
                                         start_initialization 3130  
                                    __size_of_TMR0_Initialize 0026  
                             __size_of_PIN_MANAGER_Initialize 0072  
                                             _GetTxFifoStatus 33F8  
                       CAN1_TransmitFIFOStatusGet@fifoChannel 0506  
                                                  ivt0x8_base 0008  
                                     ?_DefaultBusErrorHandler 0501  
                  __end_of_CAN1_SetModeChangeInterruptHandler 34E2  
                 __size_of_CAN1_SetModeChangeInterruptHandler 000A  
                        ??_CAN1_SetModeChangeInterruptHandler 0505  
                         ?_CAN1_SetModeChangeInterruptHandler 0503  
                          _CAN1_SetModeChangeInterruptHandler 34D8  
                                 ?_CAN1_TX_FIFO_Configuration 0501  
                                    __size_of_TMR1_Initialize 0046  
                                            ??_PMD_Initialize 0503  
                                            ?_CANWriteMessage 051F  
            __end_of_ADC_SetContext1ThresholdInterruptHandler 350A  
           __size_of_ADC_SetContext1ThresholdInterruptHandler 000A  
                  ??_ADC_SetContext1ThresholdInterruptHandler 0505  
                   ?_ADC_SetContext1ThresholdInterruptHandler 0503  
                    _ADC_SetContext1ThresholdInterruptHandler 3500  
                                      __size_of_TMR0_CallBack 002E  
                                      __end_of_ADC_Initialize 2D7A  
                                                 __pdataBANK5 0560  
                                     __end_of_CAN1_Initialize 30EA  
                                                    ??_memcpy 0509  
                                  __end_of_EXT_INT_Initialize 3424  
                             fp__TMR2_DefaultInterruptHandler 0000  
                               ?_TMR2_DefaultInterruptHandler 0501  
                             fp__INT0_DefaultInterruptHandler 0000  
                               ?_INT0_DefaultInterruptHandler 0501  
                                      __size_of_TMR1_CallBack 002E  
                              __size_of_PWM1_16BIT_Initialize 006E  
                                  ?_DefaultSystemErrorHandler 0501  
                               __end_of_PWM1_16BIT_Initialize 2FE4  
                                      __size_of_TMR2_CallBack 002E  
                                                 __pbssCOMRAM 052F  
                            __end_of_INT0_SetInterruptHandler 34C4  
                                               __pcstackBANK5 0588  
                     CAN1_SetBusErrorInterruptHandler@handler 0503  
                                    __size_of_TMR2_Initialize 002E  
                                   ??_DefaultTxAttemptHandler 0501  
                                         __end_of_isTxChannel 31AE  
                              __end_of_DefaultBusErrorHandler 3550  
                                       _TMR0_InterruptHandler 0580  
                                                   __pnvBANK5 0580  
                                      _PIN_MANAGER_Initialize 2E96  
                                                    _C1FIFOBA 00014C  
                            __end_of_TMR1_SetInterruptHandler 3474  
                                       __end_of_CAN1_Transmit 2E0E  
                                             ?_ADC_Initialize 0501  
                                ??_INTERRUPT_InterruptManager 0503  
                                                    _ADACTPPS 000269  
                                     __end_of_GetTxFifoStatus 3410  
                                                    _CAN1_ISR 2854  
                           __end_of_DefaultSystemErrorHandler 3548  
                                                 __smallconst 2600  
                                                    _ADCPbits 0003D8  
                                                  _C1CONHbits 000101  
                                        _ValidateTransmission 2B40  
                            CAN1_OperationModeSet@requestMode 0505  
                                                    _CANRXPPS 00023D  
                                                  _C1CONTbits 000103  
                                                  _C1CONUbits 000102  
                                 __size_of_DELAY_milliseconds 002E  
                              ??_DefaultInvalidMessageHandler 0501  
                                               _TMR0_CallBack 32C6  
                                                    _T2CLKCON 000326  
                                                  _C1INTHbits 00011D  
                                                  _C1INTLbits 00011C  
                                        _INTERRUPT_Initialize 3538  
                   _PWM2_16BIT_Period_DefaultInterruptHandler 000000  
                   _PWM1_16BIT_Period_DefaultInterruptHandler 000000  
                                                  _C1INTTbits 00011F  
                                               _TMR1_CallBack 3298  
                                           ??_TMR0_Initialize 0505  
                                                    _INT0_ISR 3530  
                                                    _LATAbits 0004BE  
                                                    _LATBbits 0004BF  
                                                    _LATCbits 0004C0  
                                               _TMR2_CallBack 323C  
                                                    _PIE0bits 00049E  
                          _PWM2_16BIT_Period_InterruptHandler 0586  
                                                    _PIE1bits 00049F  
                                                    _PIE3bits 0004A1  
                                                    _PIE4bits 0004A2  
                                                    _PIE5bits 0004A3  
                                    __size_of_TMR1_WriteTimer 002E  
                                                    i2u140_40 32DA  
                                                    i2u140_41 32D6  
                                                    i2u141_48 32E0  
                                                    i2u150_40 2C58  
                                                    i2u141_49 32F2  
                                                    i2u150_41 2C54  
                                                    i2u135_40 327A  
                                                    i2u143_40 333C  
                                                    i2u151_40 2C6E  
                                                    i2u135_41 3276  
                                                    i2u143_41 3338  
                                                    i2u151_41 2C6A  
                         __size_of_INTERRUPT_InterruptManager 00B6  
                                                    i2u136_40 32AC  
                                                    i2u152_40 2C7C  
                                                    i2u136_41 32A8  
                                                    i2u152_41 2C78  
                                                    i2u153_40 2C92  
                                                    i2u153_41 2C8E  
                                                    i2u137_48 32B2  
                                                    i2u138_40 3250  
                                                    i2u154_40 2CA0  
                                                    i2u137_49 32C4  
                                                    i2u138_41 324C  
                                                    i2u154_41 2C9C  
                                                    i2u155_40 2CB6  
                                                    i2u147_40 2C26  
                                                    i2u155_41 2CB2  
                                                    i2u147_41 2C22  
                                                    i2u139_48 3256  
                                                    i2u156_40 2CC4  
                                                    i2u148_40 2C34  
                                                    i2u139_49 3268  
                                                    i2u156_41 2CC0  
                                                    i2u148_41 2C30  
                                                    i2u149_40 2C4A  
                                  ??_TMR0_SetInterruptHandler 0505  
                                                    i2u149_41 2C46  
                                                    _PIR0bits 0004AE  
                                                    _PIR1bits 0004AF  
                                                    _PIR2bits 0004B0  
                                                    _PIR3bits 0004B1  
                                                    _PIR4bits 0004B2  
                                                    _PIR5bits 0004B3  
                                   _ADC_ActiveClockTuning_ISR 0550  
                              DELAY_milliseconds@milliseconds 0503  
                                                    _PWM1CPRE 000465  
                                                    _PWM2CPRE 000474  
                            _ADC_DefaultActiveClockTuning_ISR 000000  
                                                    _TMR0_ISR 3528  
                                                    _TMR1_ISR 344C  
                                                    _TMR2_ISR 3320  
                                 ?_CAN1_TransmitFIFOStatusGet 0501  
                                            ?_CAN1_Initialize 0501  
                                           ??_TMR1_Initialize 0505  
                                  __end_of_WriteMessageToFifo 2854  
                                                  _ADCON0bits 0003F3  
                                                  _ADCON1bits 0003F4  
                                                  _ADCON2bits 0003F5  
                                                  _ADCON3bits 0003F6  
                                                 _isTxChannel 3170  
        __end_of_PWM1_16BIT_Slice1Output2_SetInterruptHandler 34A6  
       __size_of_PWM1_16BIT_Slice1Output2_SetInterruptHandler 000A  
        __end_of_PWM2_16BIT_Slice1Output2_SetInterruptHandler 3488  
       __size_of_PWM2_16BIT_Slice1Output2_SetInterruptHandler 000A  
              ??_PWM2_16BIT_Slice1Output2_SetInterruptHandler 0505  
              ??_PWM1_16BIT_Slice1Output2_SetInterruptHandler 0505  
               ?_PWM2_16BIT_Slice1Output2_SetInterruptHandler 0503  
               ?_PWM1_16BIT_Slice1Output2_SetInterruptHandler 0503  
                _PWM1_16BIT_Slice1Output2_SetInterruptHandler 349C  
                _PWM2_16BIT_Slice1Output2_SetInterruptHandler 347E  
                                       ?_ValidateTransmission 0504  
                              ??_TMR2_DefaultInterruptHandler 0501  
                                 ?_ADC_SetADIInterruptHandler 0503  
                           __size_of_TMR2_SetInterruptHandler 000A  
                              ??_INT0_DefaultInterruptHandler 0501  
                                   ?_TMR2_SetInterruptHandler 0503  
                                              ?_TMR0_CallBack 0501  
                                                 _INTCON0bits 0004D6  
                   _PWM2_16BIT_Slice1Output1_InterruptHandler 054E  
                   _PWM1_16BIT_Slice1Output1_InterruptHandler 0541  
                                                   copy_data0 3144  
                                       ?_INTERRUPT_Initialize 0501  
                                    _INT0_SetInterruptHandler 34BA  
                                              ?_TMR1_CallBack 0501  
                                           ??_TMR2_Initialize 0505  
                              __size_of_PWM2_16BIT_Initialize 006E  
                                              ?_TMR2_CallBack 0501  
                               __end_of_PWM2_16BIT_Initialize 2F76  
                                                  _ADSTATbits 0003F7  
                                                    __Hrparam 0000  
                                                   memcpy@tmp 0509  
                                       _CAN1_OperationModeGet 351E  
                                                    __Lrparam 0000  
                                       _CAN1_OperationModeSet 2E0E  
                                 GetTxFifoStatus@validChannel 0503  
                                     _CAN1_SystemErrorHandler 0533  
                                  ??_DefaultModeChangeHandler 0501  
                                     ??_OSCILLATOR_Initialize 0503  
                                    _TMR1_SetInterruptHandler 346A  
                                            ?_GetTxFifoStatus 0501  
                                       _TMR1_InterruptHandler 0584  
                                                  _T0CON0bits 00031A  
                                   _ADC_Context1Thereshld_ISR 0552  
                                    WriteMessageToFifo@status 0514  
                                                    __pivt0x8 0008  
                                                    __ptext10 3488  
                                                    __ptext11 3492  
                                                    __ptext20 3410  
                                                    __ptext12 2F76  
                                                    __ptext21 34BA  
                                                    __ptext13 349C  
                                                  _T1GCONbits 00031F  
                                                    __ptext30 34F6  
                                                    __ptext22 309E  
                                                    __ptext14 34A6  
                                                    __ptext31 3438  
                                                    __ptext23 3424  
                                                    __ptext15 34B0  
                                                    __ptext40 3170  
                                                    __ptext32 2CCE  
                                                    __ptext24 2FE4  
                                                    __ptext16 334A  
                                                    __ptext41 260E  
                                                    __ptext33 3500  
                                                    __ptext25 34C4  
                                                    __ptext17 2E96  
                                                    __ptext50 353C  
                                                    __ptext42 3044  
                                                    __ptext34 350A  
                                                    __ptext26 34CE  
                                                    __ptext18 33E0  
                                                    __ptext51 344C  
                                                    __ptext43 2B40  
                                                    __ptext35 3514  
                                                    __ptext27 34D8  
                                                    __ptext19 3538  
                                                    __ptext60 3542  
                                                    __ptext52 326A  
                                                    __ptext44 33F8  
                                                    __ptext36 320E  
                                                    __ptext28 34E2  
                                                    __ptext61 2854  
                                                    __ptext53 3298  
                                                    __ptext45 2E0E  
                                                    __ptext37 2964  
                                                    __ptext29 34EC  
                                                    __ptext62 3544  
                                                    __ptext54 353E  
                                                    __ptext46 351E  
                                                    __ptext38 3372  
                                                    __ptext63 3546  
                                                    __ptext55 3528  
                                                    __ptext47 2C18  
                                                    __ptext39 2D7A  
                                                    __ptext64 3548  
                                                    __ptext56 32C6  
                                                    __ptext48 3320  
                                                    __ptext65 354A  
                                                    __ptext57 3540  
                                                    __ptext49 323C  
                                                    __ptext66 354C  
                                                    __ptext58 3530  
                                                    __ptext67 354E  
                                                    __ptext59 32F4  
                                                    __ptext68 0000  
                                 CAN1_OperationModeSet@opMode 0503  
                                 CAN1_OperationModeSet@status 0504  
                                               __size_of_main 00E0  
                        __end_of_TMR0_DefaultInterruptHandler 3542  
                       __size_of_TMR0_DefaultInterruptHandler 0002  
                                _TMR0_DefaultInterruptHandler 3540  
                                                    isa$xinst 000000  
                          _PWM1_16BIT_Period_InterruptHandler 053D  
                          __end_of_INTERRUPT_InterruptManager 2CCE  
                                  _INTERRUPT_InterruptManager 2C18  
                                           ??_TMR1_WriteTimer 0503  
                                 ??_DefaultSystemErrorHandler 0501  
                                      ??_ValidateTransmission 0506  
                                                 _PWM1GIEbits 000468  
                                             ??_TMR0_CallBack 0501  
                                                 _PWM1CONbits 000469  
                                                 _PWM2GIEbits 000477  
                                                    memcpy@d1 0503  
                                                    memcpy@s1 0505  
                                                 _PWM1GIRbits 000467  
                                                 _PWM2CONbits 000478  
                                                 _PWM2GIRbits 000476  
                                      ??_INTERRUPT_Initialize 0503  
                                             ??_TMR1_CallBack 0501  
                                          _EXT_INT_Initialize 3410  
                                                    intlevel2 0000  
                                             ??_TMR2_CallBack 0501  
                                               _C1TXQSTALbits 000154  
                                     ?_PIN_MANAGER_Initialize 0501  
                                         ?_EXT_INT_Initialize 0501  
                          __size_of_CAN1_BitRateConfiguration 0014  
                                      ?_CAN1_OperationModeGet 0501  
                                  ?_CAN1_BitRateConfiguration 0501  
                                      ?_CAN1_OperationModeSet 0501  
                                            ??_ADC_Initialize 0505  
                                      __size_of_INT0_CallBack 002C  
                             fp__TMR0_DefaultInterruptHandler 0000  
                               ?_TMR0_DefaultInterruptHandler 0501  
                   _PWM2_16BIT_Slice1Output2_InterruptHandler 054C  
                   _PWM1_16BIT_Slice1Output2_InterruptHandler 053F  
                                        ??_EXT_INT_Initialize 0505  
                                    __size_of_CANWriteMessage 00FC  
                                    CAN1_Transmit@fifoChannel 051E  
                                       TMR2_ISR@CountCallBack 052F  
                                             _TMR0_Initialize 339A  
                                       _PWM1_16BIT_Initialize 2F76  
                              __end_of_PIN_MANAGER_Initialize 2F08  
                                   _DefaultSystemErrorHandler 3546  
                            _ADC_DefaultContext1Threshold_ISR 000000  
                                       _TMR2_InterruptHandler 0582  
                                             _TMR1_Initialize 30EA  
                           __end_of_CAN1_BitRateConfiguration 344C  
